

Microchip MPLAB XC8 Assembler V2.31 build 20201012212115 
                                                                                               Mon Feb 22 17:15:58 2021

Microchip MPLAB XC8 C Compiler v2.31 (Free license) build 20201012212115 Og1 
     1                           	processor	16F887
     2                           	pagewidth 120
     3                           	opt	flic
     4                           	psect	strings,global,class=STRING,delta=2,noexec
     5                           	psect	cinit,global,class=CODE,merge=1,delta=2
     6                           	psect	bssBANK0,global,class=BANK0,space=1,delta=1,noexec
     7                           	psect	cstackCOMMON,global,class=COMMON,space=1,delta=1,noexec
     8                           	psect	cstackBANK0,global,class=BANK0,space=1,delta=1,noexec
     9                           	psect	maintext,global,class=CODE,split=1,delta=2
    10                           	psect	text1,local,class=CODE,merge=1,delta=2
    11                           	psect	text2,local,class=CODE,merge=1,delta=2
    12                           	psect	text3,local,class=CODE,merge=1,delta=2
    13                           	psect	text4,local,class=CODE,merge=1,delta=2
    14                           	psect	text5,local,class=CODE,merge=1,delta=2
    15                           	psect	text6,local,class=CODE,merge=1,delta=2
    16                           	psect	intentry,global,class=CODE,delta=2
    17                           	psect	text7,local,class=CODE,merge=1,delta=2,group=2
    18                           	psect	text8,local,class=CODE,merge=1,delta=2,group=2
    19                           	psect	text9,local,class=CODE,merge=1,delta=2,group=1
    20                           	psect	text10,local,class=CODE,merge=1,delta=2,group=1
    21                           	psect	text11,local,class=CODE,merge=1,delta=2
    22                           	psect	config,global,abs,ovrld,class=CONFIG,space=4,delta=2,noexec
    23                           	dabs	1,0x7E,2
    24  0000                     
    25                           ; Version 2.20
    26                           ; Generated 12/02/2020 GMT
    27                           ; 
    28                           ; Copyright © 2020, Microchip Technology Inc. and its subsidiaries ("Microchip")
    29                           ; All rights reserved.
    30                           ; 
    31                           ; This software is developed by Microchip Technology Inc. and its subsidiaries ("Microch
      +                          ip").
    32                           ; 
    33                           ; Redistribution and use in source and binary forms, with or without modification, are
    34                           ; permitted provided that the following conditions are met:
    35                           ; 
    36                           ;     1. Redistributions of source code must retain the above copyright notice, this lis
      +                          t of
    37                           ;        conditions and the following disclaimer.
    38                           ; 
    39                           ;     2. Redistributions in binary form must reproduce the above copyright notice, this 
      +                          list
    40                           ;        of conditions and the following disclaimer in the documentation and/or other
    41                           ;        materials provided with the distribution.
    42                           ; 
    43                           ;     3. Microchip's name may not be used to endorse or promote products derived from th
      +                          is
    44                           ;        software without specific prior written permission.
    45                           ; 
    46                           ; THIS SOFTWARE IS PROVIDED BY MICROCHIP "AS IS" AND ANY EXPRESS OR IMPLIED WARRANTIES,
    47                           ; INCLUDING, BUT NOT LIMITED TO, THE IMPLIED WARRANTIES OF MERCHANTABILITY AND FITNESS F
      +                          OR
    48                           ; PURPOSE ARE DISCLAIMED.  IN NO EVENT SHALL MICROCHIP BE LIABLE FOR ANY DIRECT, INDIREC
      +                          T,
    49                           ; INCIDENTAL, SPECIAL, EXEMPLARY, OR CONSEQUENTIAL DAMAGES (INCLUDING BUT NOT LIMITED TO
    50                           ; PROCUREMENT OF SUBSTITUTE GOODS OR SERVICES; LOSS OF USE, DATA OR PROFITS; OR BUSINESS
    51                           ; INTERRUPTION) HOWSOEVER CAUSED AND ON ANY THEORY OF LIABILITY, WHETHER IN CONTRACT, ST
      +                          RICT
    52                           ; LIABILITY, OR TORT (INCLUDING NEGLIGENCE OR OTHERWISE) ARISING IN ANY WAY OUT OF THE U
      +                          SE OF
    53                           ; THIS SOFTWARE, EVEN IF ADVISED OF THE POSSIBILITY OF SUCH DAMAGE.
    54                           ; 
    55                           ; 
    56                           ; Code-generator required, PIC16F887 Definitions
    57                           ; 
    58                           ; SFR Addresses
    59  0000                     	;# 
    60  0001                     	;# 
    61  0002                     	;# 
    62  0003                     	;# 
    63  0004                     	;# 
    64  0005                     	;# 
    65  0006                     	;# 
    66  0007                     	;# 
    67  0008                     	;# 
    68  0009                     	;# 
    69  000A                     	;# 
    70  000B                     	;# 
    71  000C                     	;# 
    72  000D                     	;# 
    73  000E                     	;# 
    74  000E                     	;# 
    75  000F                     	;# 
    76  0010                     	;# 
    77  0011                     	;# 
    78  0012                     	;# 
    79  0013                     	;# 
    80  0014                     	;# 
    81  0015                     	;# 
    82  0015                     	;# 
    83  0016                     	;# 
    84  0017                     	;# 
    85  0018                     	;# 
    86  0019                     	;# 
    87  001A                     	;# 
    88  001B                     	;# 
    89  001B                     	;# 
    90  001C                     	;# 
    91  001D                     	;# 
    92  001E                     	;# 
    93  001F                     	;# 
    94  0081                     	;# 
    95  0085                     	;# 
    96  0086                     	;# 
    97  0087                     	;# 
    98  0088                     	;# 
    99  0089                     	;# 
   100  008C                     	;# 
   101  008D                     	;# 
   102  008E                     	;# 
   103  008F                     	;# 
   104  0090                     	;# 
   105  0091                     	;# 
   106  0092                     	;# 
   107  0093                     	;# 
   108  0093                     	;# 
   109  0093                     	;# 
   110  0094                     	;# 
   111  0095                     	;# 
   112  0096                     	;# 
   113  0097                     	;# 
   114  0098                     	;# 
   115  0099                     	;# 
   116  009A                     	;# 
   117  009B                     	;# 
   118  009C                     	;# 
   119  009D                     	;# 
   120  009E                     	;# 
   121  009F                     	;# 
   122  0105                     	;# 
   123  0107                     	;# 
   124  0108                     	;# 
   125  0109                     	;# 
   126  010C                     	;# 
   127  010C                     	;# 
   128  010D                     	;# 
   129  010E                     	;# 
   130  010F                     	;# 
   131  0185                     	;# 
   132  0187                     	;# 
   133  0188                     	;# 
   134  0189                     	;# 
   135  018C                     	;# 
   136  018D                     	;# 
   137  0000                     	;# 
   138  0001                     	;# 
   139  0002                     	;# 
   140  0003                     	;# 
   141  0004                     	;# 
   142  0005                     	;# 
   143  0006                     	;# 
   144  0007                     	;# 
   145  0008                     	;# 
   146  0009                     	;# 
   147  000A                     	;# 
   148  000B                     	;# 
   149  000C                     	;# 
   150  000D                     	;# 
   151  000E                     	;# 
   152  000E                     	;# 
   153  000F                     	;# 
   154  0010                     	;# 
   155  0011                     	;# 
   156  0012                     	;# 
   157  0013                     	;# 
   158  0014                     	;# 
   159  0015                     	;# 
   160  0015                     	;# 
   161  0016                     	;# 
   162  0017                     	;# 
   163  0018                     	;# 
   164  0019                     	;# 
   165  001A                     	;# 
   166  001B                     	;# 
   167  001B                     	;# 
   168  001C                     	;# 
   169  001D                     	;# 
   170  001E                     	;# 
   171  001F                     	;# 
   172  0081                     	;# 
   173  0085                     	;# 
   174  0086                     	;# 
   175  0087                     	;# 
   176  0088                     	;# 
   177  0089                     	;# 
   178  008C                     	;# 
   179  008D                     	;# 
   180  008E                     	;# 
   181  008F                     	;# 
   182  0090                     	;# 
   183  0091                     	;# 
   184  0092                     	;# 
   185  0093                     	;# 
   186  0093                     	;# 
   187  0093                     	;# 
   188  0094                     	;# 
   189  0095                     	;# 
   190  0096                     	;# 
   191  0097                     	;# 
   192  0098                     	;# 
   193  0099                     	;# 
   194  009A                     	;# 
   195  009B                     	;# 
   196  009C                     	;# 
   197  009D                     	;# 
   198  009E                     	;# 
   199  009F                     	;# 
   200  0105                     	;# 
   201  0107                     	;# 
   202  0108                     	;# 
   203  0109                     	;# 
   204  010C                     	;# 
   205  010C                     	;# 
   206  010D                     	;# 
   207  010E                     	;# 
   208  010F                     	;# 
   209  0185                     	;# 
   210  0187                     	;# 
   211  0188                     	;# 
   212  0189                     	;# 
   213  018C                     	;# 
   214  018D                     	;# 
   215  0000                     	;# 
   216  0001                     	;# 
   217  0002                     	;# 
   218  0003                     	;# 
   219  0004                     	;# 
   220  0005                     	;# 
   221  0006                     	;# 
   222  0007                     	;# 
   223  0008                     	;# 
   224  0009                     	;# 
   225  000A                     	;# 
   226  000B                     	;# 
   227  000C                     	;# 
   228  000D                     	;# 
   229  000E                     	;# 
   230  000E                     	;# 
   231  000F                     	;# 
   232  0010                     	;# 
   233  0011                     	;# 
   234  0012                     	;# 
   235  0013                     	;# 
   236  0014                     	;# 
   237  0015                     	;# 
   238  0015                     	;# 
   239  0016                     	;# 
   240  0017                     	;# 
   241  0018                     	;# 
   242  0019                     	;# 
   243  001A                     	;# 
   244  001B                     	;# 
   245  001B                     	;# 
   246  001C                     	;# 
   247  001D                     	;# 
   248  001E                     	;# 
   249  001F                     	;# 
   250  0081                     	;# 
   251  0085                     	;# 
   252  0086                     	;# 
   253  0087                     	;# 
   254  0088                     	;# 
   255  0089                     	;# 
   256  008C                     	;# 
   257  008D                     	;# 
   258  008E                     	;# 
   259  008F                     	;# 
   260  0090                     	;# 
   261  0091                     	;# 
   262  0092                     	;# 
   263  0093                     	;# 
   264  0093                     	;# 
   265  0093                     	;# 
   266  0094                     	;# 
   267  0095                     	;# 
   268  0096                     	;# 
   269  0097                     	;# 
   270  0098                     	;# 
   271  0099                     	;# 
   272  009A                     	;# 
   273  009B                     	;# 
   274  009C                     	;# 
   275  009D                     	;# 
   276  009E                     	;# 
   277  009F                     	;# 
   278  0105                     	;# 
   279  0107                     	;# 
   280  0108                     	;# 
   281  0109                     	;# 
   282  010C                     	;# 
   283  010C                     	;# 
   284  010D                     	;# 
   285  010E                     	;# 
   286  010F                     	;# 
   287  0185                     	;# 
   288  0187                     	;# 
   289  0188                     	;# 
   290  0189                     	;# 
   291  018C                     	;# 
   292  018D                     	;# 
   293  0000                     	;# 
   294  0001                     	;# 
   295  0002                     	;# 
   296  0003                     	;# 
   297  0004                     	;# 
   298  0005                     	;# 
   299  0006                     	;# 
   300  0007                     	;# 
   301  0008                     	;# 
   302  0009                     	;# 
   303  000A                     	;# 
   304  000B                     	;# 
   305  000C                     	;# 
   306  000D                     	;# 
   307  000E                     	;# 
   308  000E                     	;# 
   309  000F                     	;# 
   310  0010                     	;# 
   311  0011                     	;# 
   312  0012                     	;# 
   313  0013                     	;# 
   314  0014                     	;# 
   315  0015                     	;# 
   316  0015                     	;# 
   317  0016                     	;# 
   318  0017                     	;# 
   319  0018                     	;# 
   320  0019                     	;# 
   321  001A                     	;# 
   322  001B                     	;# 
   323  001B                     	;# 
   324  001C                     	;# 
   325  001D                     	;# 
   326  001E                     	;# 
   327  001F                     	;# 
   328  0081                     	;# 
   329  0085                     	;# 
   330  0086                     	;# 
   331  0087                     	;# 
   332  0088                     	;# 
   333  0089                     	;# 
   334  008C                     	;# 
   335  008D                     	;# 
   336  008E                     	;# 
   337  008F                     	;# 
   338  0090                     	;# 
   339  0091                     	;# 
   340  0092                     	;# 
   341  0093                     	;# 
   342  0093                     	;# 
   343  0093                     	;# 
   344  0094                     	;# 
   345  0095                     	;# 
   346  0096                     	;# 
   347  0097                     	;# 
   348  0098                     	;# 
   349  0099                     	;# 
   350  009A                     	;# 
   351  009B                     	;# 
   352  009C                     	;# 
   353  009D                     	;# 
   354  009E                     	;# 
   355  009F                     	;# 
   356  0105                     	;# 
   357  0107                     	;# 
   358  0108                     	;# 
   359  0109                     	;# 
   360  010C                     	;# 
   361  010C                     	;# 
   362  010D                     	;# 
   363  010E                     	;# 
   364  010F                     	;# 
   365  0185                     	;# 
   366  0187                     	;# 
   367  0188                     	;# 
   368  0189                     	;# 
   369  018C                     	;# 
   370  018D                     	;# 
   371  0000                     	;# 
   372  0001                     	;# 
   373  0002                     	;# 
   374  0003                     	;# 
   375  0004                     	;# 
   376  0005                     	;# 
   377  0006                     	;# 
   378  0007                     	;# 
   379  0008                     	;# 
   380  0009                     	;# 
   381  000A                     	;# 
   382  000B                     	;# 
   383  000C                     	;# 
   384  000D                     	;# 
   385  000E                     	;# 
   386  000E                     	;# 
   387  000F                     	;# 
   388  0010                     	;# 
   389  0011                     	;# 
   390  0012                     	;# 
   391  0013                     	;# 
   392  0014                     	;# 
   393  0015                     	;# 
   394  0015                     	;# 
   395  0016                     	;# 
   396  0017                     	;# 
   397  0018                     	;# 
   398  0019                     	;# 
   399  001A                     	;# 
   400  001B                     	;# 
   401  001B                     	;# 
   402  001C                     	;# 
   403  001D                     	;# 
   404  001E                     	;# 
   405  001F                     	;# 
   406  0081                     	;# 
   407  0085                     	;# 
   408  0086                     	;# 
   409  0087                     	;# 
   410  0088                     	;# 
   411  0089                     	;# 
   412  008C                     	;# 
   413  008D                     	;# 
   414  008E                     	;# 
   415  008F                     	;# 
   416  0090                     	;# 
   417  0091                     	;# 
   418  0092                     	;# 
   419  0093                     	;# 
   420  0093                     	;# 
   421  0093                     	;# 
   422  0094                     	;# 
   423  0095                     	;# 
   424  0096                     	;# 
   425  0097                     	;# 
   426  0098                     	;# 
   427  0099                     	;# 
   428  009A                     	;# 
   429  009B                     	;# 
   430  009C                     	;# 
   431  009D                     	;# 
   432  009E                     	;# 
   433  009F                     	;# 
   434  0105                     	;# 
   435  0107                     	;# 
   436  0108                     	;# 
   437  0109                     	;# 
   438  010C                     	;# 
   439  010C                     	;# 
   440  010D                     	;# 
   441  010E                     	;# 
   442  010F                     	;# 
   443  0185                     	;# 
   444  0187                     	;# 
   445  0188                     	;# 
   446  0189                     	;# 
   447  018C                     	;# 
   448  018D                     	;# 
   449  0019                     _TXREG	set	25
   450  000B                     _INTCONbits	set	11
   451  0018                     _RCSTAbits	set	24
   452  0009                     _PORTE	set	9
   453  0008                     _PORTD	set	8
   454  0007                     _PORTC	set	7
   455  0006                     _PORTB	set	6
   456  0005                     _PORTA	set	5
   457  001A                     _RCREG	set	26
   458  004A                     _RE2	set	74
   459  0049                     _RE1	set	73
   460  0048                     _RE0	set	72
   461  0065                     _RCIF	set	101
   462  008C                     _PIE1bits	set	140
   463  0098                     _TXSTAbits	set	152
   464  0099                     _SPBRG	set	153
   465  008F                     _OSCCONbits	set	143
   466  0089                     _TRISE	set	137
   467  0088                     _TRISD	set	136
   468  0086                     _TRISB	set	134
   469  0085                     _TRISA	set	133
   470  04C1                     _TRMT	set	1217
   471  0189                     _ANSELH	set	393
   472  0188                     _ANSEL	set	392
   473                           
   474                           	psect	strings
   475  024F                     __pstrings:
   476  024F                     stringtab:
   477  024F                     __stringtab:
   478  024F                     stringcode:	
   479                           ;	String table - string pointers are 1 byte each
   480                           
   481  024F                     stringdir:
   482  024F  3002               	movlw	high stringdir
   483  0250  008A               	movwf	10
   484  0251  0804               	movf	4,w
   485  0252  0A84               	incf	4,f
   486  0253  0782               	addwf	2,f
   487  0254                     __stringbase:
   488  0254  3400               	retlw	0
   489  0255                     __end_of__stringtab:
   490  0255                     STR_1:
   491  0255  3453               	retlw	83	;'S'
   492  0256  3431               	retlw	49	;'1'
   493  0257  3420               	retlw	32	;' '
   494  0258  3420               	retlw	32	;' '
   495  0259  3420               	retlw	32	;' '
   496  025A  3420               	retlw	32	;' '
   497  025B  3453               	retlw	83	;'S'
   498  025C  3432               	retlw	50	;'2'
   499  025D  3420               	retlw	32	;' '
   500  025E  3420               	retlw	32	;' '
   501  025F  3420               	retlw	32	;' '
   502  0260  3420               	retlw	32	;' '
   503  0261  3453               	retlw	83	;'S'
   504  0262  3433               	retlw	51	;'3'
   505  0263  3420               	retlw	32	;' '
   506  0264  3420               	retlw	32	;' '
   507  0265  3400               	retlw	0
   508                           
   509                           	psect	cinit
   510  0013                     start_initialization:	
   511                           ; #config settings
   512                           
   513  0013                     __initialization:
   514                           
   515                           ; Clear objects allocated to BANK0
   516  0013  1283               	bcf	3,5	;RP0=0, select bank0
   517  0014  1303               	bcf	3,6	;RP1=0, select bank0
   518  0015  01B4               	clrf	__pbssBANK0& (0+127)
   519  0016  01B5               	clrf	(__pbssBANK0+1)& (0+127)
   520  0017  01B6               	clrf	(__pbssBANK0+2)& (0+127)
   521  0018  01B7               	clrf	(__pbssBANK0+3)& (0+127)
   522  0019  01B8               	clrf	(__pbssBANK0+4)& (0+127)
   523  001A  01B9               	clrf	(__pbssBANK0+5)& (0+127)
   524  001B  01BA               	clrf	(__pbssBANK0+6)& (0+127)
   525  001C  01BB               	clrf	(__pbssBANK0+7)& (0+127)
   526  001D  01BC               	clrf	(__pbssBANK0+8)& (0+127)
   527  001E  01BD               	clrf	(__pbssBANK0+9)& (0+127)
   528  001F                     end_of_initialization:	
   529                           ;End of C runtime variable initialization code
   530                           
   531  001F                     __end_of__initialization:
   532  001F  0183               	clrf	3
   533  0020  120A  118A  2A66   	ljmp	_main	;jump to C main() function
   534                           
   535                           	psect	bssBANK0
   536  0034                     __pbssBANK0:
   537  0034                     _Destination:
   538  0034                     	ds	2
   539  0036                     _O:
   540  0036                     	ds	2
   541  0038                     _Contador:
   542  0038                     	ds	1
   543  0039                     _COMPARE:
   544  0039                     	ds	5
   545                           
   546                           	psect	cstackCOMMON
   547  0070                     __pcstackCOMMON:
   548  0070                     ?_setup:
   549  0070                     ?_Lcd_Init:	
   550                           ; 1 bytes @ 0x0
   551                           
   552  0070                     ?_Lcd_Write_String:	
   553                           ; 1 bytes @ 0x0
   554                           
   555  0070                     ?_ISR:	
   556                           ; 1 bytes @ 0x0
   557                           
   558  0070                     ?_main:	
   559                           ; 1 bytes @ 0x0
   560                           
   561  0070                     ?_Lcd_Cmd:	
   562                           ; 1 bytes @ 0x0
   563                           
   564  0070                     ?_Lcd_Write_Char:	
   565                           ; 1 bytes @ 0x0
   566                           
   567  0070                     ?_CONTADOR:	
   568                           ; 1 bytes @ 0x0
   569                           
   570  0070                     ?___lwdiv:	
   571                           ; 2 bytes @ 0x0
   572                           
   573  0070                     ?___lwmod:	
   574                           ; 2 bytes @ 0x0
   575                           
   576  0070                     CONTADOR@n:	
   577                           ; 2 bytes @ 0x0
   578                           
   579  0070                     ___lwdiv@divisor:	
   580                           ; 2 bytes @ 0x0
   581                           
   582  0070                     ___lwmod@divisor:	
   583                           ; 2 bytes @ 0x0
   584                           
   585                           
   586                           ; 2 bytes @ 0x0
   587  0070                     	ds	2
   588  0072                     ??_CONTADOR:
   589  0072                     ___lwdiv@dividend:	
   590                           ; 1 bytes @ 0x2
   591                           
   592  0072                     ___lwmod@dividend:	
   593                           ; 2 bytes @ 0x2
   594                           
   595                           
   596                           ; 2 bytes @ 0x2
   597  0072                     	ds	2
   598  0074                     ??___lwdiv:
   599  0074                     ??___lwmod:	
   600                           ; 1 bytes @ 0x4
   601                           
   602                           
   603                           ; 1 bytes @ 0x4
   604  0074                     	ds	1
   605  0075                     ___lwmod@counter:
   606  0075                     ___lwdiv@quotient:	
   607                           ; 1 bytes @ 0x5
   608                           
   609                           
   610                           ; 2 bytes @ 0x5
   611  0075                     	ds	2
   612  0077                     ___lwdiv@counter:
   613                           
   614                           ; 1 bytes @ 0x7
   615  0077                     	ds	1
   616  0078                     ?_utoa:
   617  0078                     utoa@val:	
   618                           ; 1 bytes @ 0x8
   619                           
   620                           
   621                           ; 2 bytes @ 0x8
   622  0078                     	ds	2
   623  007A                     utoa@base:
   624                           
   625                           ; 2 bytes @ 0xA
   626  007A                     	ds	2
   627  007C                     ??_utoa:
   628                           
   629                           ; 1 bytes @ 0xC
   630  007C                     	ds	1
   631  007D                     ??_itoa:
   632                           
   633                           ; 1 bytes @ 0xD
   634  007D                     	ds	1
   635                           
   636                           	psect	cstackBANK0
   637  0020                     __pcstackBANK0:
   638  0020                     utoa@v:
   639                           
   640                           ; 2 bytes @ 0x0
   641  0020                     	ds	2
   642  0022                     utoa@c:
   643                           
   644                           ; 1 bytes @ 0x2
   645  0022                     	ds	1
   646  0023                     utoa@buf:
   647                           
   648                           ; 1 bytes @ 0x3
   649  0023                     	ds	1
   650  0024                     ?_itoa:
   651  0024                     itoa@val:	
   652                           ; 1 bytes @ 0x4
   653                           
   654                           
   655                           ; 2 bytes @ 0x4
   656  0024                     	ds	2
   657  0026                     itoa@base:
   658                           
   659                           ; 2 bytes @ 0x6
   660  0026                     	ds	3
   661  0029                     itoa@buf:
   662                           
   663                           ; 1 bytes @ 0x9
   664  0029                     	ds	1
   665  002A                     ??_ISR:
   666                           
   667                           ; 1 bytes @ 0xA
   668  002A                     	ds	5
   669  002F                     ??_setup:
   670  002F                     ??_Lcd_Cmd:	
   671                           ; 1 bytes @ 0xF
   672                           
   673  002F                     ??_Lcd_Write_Char:	
   674                           ; 1 bytes @ 0xF
   675                           
   676                           
   677                           ; 1 bytes @ 0xF
   678  002F                     	ds	2
   679  0031                     Lcd_Cmd@a:
   680  0031                     Lcd_Write_Char@a:	
   681                           ; 1 bytes @ 0x11
   682                           
   683                           
   684                           ; 1 bytes @ 0x11
   685  0031                     	ds	1
   686  0032                     ??_Lcd_Init:
   687  0032                     ??_Lcd_Write_String:	
   688                           ; 1 bytes @ 0x12
   689                           
   690                           
   691                           ; 1 bytes @ 0x12
   692  0032                     	ds	1
   693  0033                     Lcd_Write_String@a:
   694                           
   695                           ; 1 bytes @ 0x13
   696  0033                     	ds	1
   697  0034                     ??_main:
   698                           
   699                           	psect	maintext
   700  0266                     __pmaintext:	
   701                           ; 1 bytes @ 0x14
   702 ;;
   703 ;;Main: autosize = 0, tempsize = 0, incstack = 0, save=0
   704 ;;
   705 ;; *************** function _main *****************
   706 ;; Defined at:
   707 ;;		line 76 in file "Master.c"
   708 ;; Parameters:    Size  Location     Type
   709 ;;		None
   710 ;; Auto vars:     Size  Location     Type
   711 ;;		None
   712 ;; Return value:  Size  Location     Type
   713 ;;                  1    wreg      void 
   714 ;; Registers used:
   715 ;;		wreg, fsr0l, fsr0h, status,2, status,0, pclath, cstack
   716 ;; Tracked objects:
   717 ;;		On entry : B00/0
   718 ;;		On exit  : 0/0
   719 ;;		Unchanged: 0/0
   720 ;; Data sizes:     COMMON   BANK0   BANK1   BANK3   BANK2
   721 ;;      Params:         0       0       0       0       0
   722 ;;      Locals:         0       0       0       0       0
   723 ;;      Temps:          0       0       0       0       0
   724 ;;      Totals:         0       0       0       0       0
   725 ;;Total ram usage:        0 bytes
   726 ;; Hardware stack levels required when called:    6
   727 ;; This function calls:
   728 ;;		_Lcd_Init
   729 ;;		_Lcd_Write_String
   730 ;;		_setup
   731 ;; This function is called by:
   732 ;;		Startup code after reset
   733 ;; This function uses a non-reentrant model
   734 ;;
   735                           
   736                           
   737                           ;psect for function _main
   738  0266                     _main:
   739  0266                     l1192:	
   740                           ;incstack = 0
   741                           ; Regs used in _main: [wreg-fsr0h+status,2+status,0+pclath+cstack]
   742                           
   743                           
   744                           ;Master.c: 78:     setup();
   745  0266  120A  118A  2231  120A  118A  	fcall	_setup
   746  026B                     l57:	
   747                           ;Master.c: 84:     while (1) {
   748                           
   749                           
   750                           ;Master.c: 85:         Lcd_Init();
   751  026B  120A  118A  2212  120A  118A  	fcall	_Lcd_Init
   752  0270                     l1194:
   753                           
   754                           ;Master.c: 87:         Lcd_Write_String("S1    S2    S3  ");
   755  0270  3001               	movlw	(low ((STR_1-__stringbase)| (0+32768)))& (0+255)
   756  0271  120A  118A  21EF  120A  118A  	fcall	_Lcd_Write_String
   757  0276  2A6B               	goto	l57
   758  0277  120A  118A  2810   	ljmp	start
   759  027A                     __end_of_main:
   760                           
   761                           	psect	text1
   762  0231                     __ptext1:	
   763 ;; *************** function _setup *****************
   764 ;; Defined at:
   765 ;;		line 95 in file "Master.c"
   766 ;; Parameters:    Size  Location     Type
   767 ;;		None
   768 ;; Auto vars:     Size  Location     Type
   769 ;;		None
   770 ;; Return value:  Size  Location     Type
   771 ;;                  1    wreg      void 
   772 ;; Registers used:
   773 ;;		wreg, status,2, status,0
   774 ;; Tracked objects:
   775 ;;		On entry : 0/0
   776 ;;		On exit  : 0/0
   777 ;;		Unchanged: 0/0
   778 ;; Data sizes:     COMMON   BANK0   BANK1   BANK3   BANK2
   779 ;;      Params:         0       0       0       0       0
   780 ;;      Locals:         0       0       0       0       0
   781 ;;      Temps:          0       0       0       0       0
   782 ;;      Totals:         0       0       0       0       0
   783 ;;Total ram usage:        0 bytes
   784 ;; Hardware stack levels used:    1
   785 ;; Hardware stack levels required when called:    4
   786 ;; This function calls:
   787 ;;		Nothing
   788 ;; This function is called by:
   789 ;;		_main
   790 ;; This function uses a non-reentrant model
   791 ;;
   792                           
   793                           
   794                           ;psect for function _setup
   795  0231                     _setup:
   796  0231                     l1158:	
   797                           ;incstack = 0
   798                           ; Regs used in _setup: [wreg+status,2+status,0]
   799                           
   800                           
   801                           ;Master.c: 96:     ANSEL = 0b00001001;
   802  0231  3009               	movlw	9
   803  0232  1683               	bsf	3,5	;RP0=1, select bank3
   804  0233  1703               	bsf	3,6	;RP1=1, select bank3
   805  0234  0088               	movwf	8	;volatile
   806  0235                     l1160:
   807                           
   808                           ;Master.c: 97:     ANSELH= 0b00000000;
   809  0235  0189               	clrf	9	;volatile
   810  0236                     l1162:
   811                           
   812                           ;Master.c: 98:     TRISA = 0b00001001;
   813  0236  3009               	movlw	9
   814  0237  1683               	bsf	3,5	;RP0=1, select bank1
   815  0238  1303               	bcf	3,6	;RP1=0, select bank1
   816  0239  0085               	movwf	5	;volatile
   817                           
   818                           ;Master.c: 99:     TRISB = 0b00000000;
   819  023A  0186               	clrf	6	;volatile
   820                           
   821                           ;Master.c: 100:     TRISD = 0b00000000;
   822  023B  0188               	clrf	8	;volatile
   823                           
   824                           ;Master.c: 101:     TRISE = 0;
   825  023C  0189               	clrf	9	;volatile
   826                           
   827                           ;Master.c: 103:     PORTA = 0;
   828  023D  1283               	bcf	3,5	;RP0=0, select bank0
   829  023E  1303               	bcf	3,6	;RP1=0, select bank0
   830  023F  0185               	clrf	5	;volatile
   831                           
   832                           ;Master.c: 104:     PORTB = 0;
   833  0240  0186               	clrf	6	;volatile
   834                           
   835                           ;Master.c: 105:     PORTC = 0;
   836  0241  0187               	clrf	7	;volatile
   837                           
   838                           ;Master.c: 106:     PORTD = 0;
   839  0242  0188               	clrf	8	;volatile
   840                           
   841                           ;Master.c: 107:     PORTE = 0;
   842  0243  0189               	clrf	9	;volatile
   843  0244                     l1164:
   844                           
   845                           ;Master.c: 109:     OSCCONbits.IRCF = 0b110;
   846  0244  1683               	bsf	3,5	;RP0=1, select bank1
   847  0245  1303               	bcf	3,6	;RP1=0, select bank1
   848  0246  080F               	movf	15,w	;volatile
   849  0247  398F               	andlw	-113
   850  0248  3860               	iorlw	96
   851  0249  008F               	movwf	15	;volatile
   852  024A                     l1166:
   853                           
   854                           ;Master.c: 110:     OSCCONbits.OSTS= 0;
   855  024A  118F               	bcf	15,3	;volatile
   856  024B                     l1168:
   857                           
   858                           ;Master.c: 111:     OSCCONbits.HTS = 0;
   859  024B  110F               	bcf	15,2	;volatile
   860  024C                     l1170:
   861                           
   862                           ;Master.c: 112:     OSCCONbits.LTS = 0;
   863  024C  108F               	bcf	15,1	;volatile
   864  024D                     l1172:
   865                           
   866                           ;Master.c: 113:     OSCCONbits.SCS = 1;
   867  024D  140F               	bsf	15,0	;volatile
   868  024E                     l63:
   869  024E  0008               	return
   870  024F                     __end_of_setup:
   871                           
   872                           	psect	text2
   873  01EF                     __ptext2:	
   874 ;; *************** function _Lcd_Write_String *****************
   875 ;; Defined at:
   876 ;;		line 83 in file "LCD.c"
   877 ;; Parameters:    Size  Location     Type
   878 ;;  a               1    wreg     PTR unsigned char 
   879 ;;		 -> STR_1(17), 
   880 ;; Auto vars:     Size  Location     Type
   881 ;;  a               1   19[BANK0 ] PTR unsigned char 
   882 ;;		 -> STR_1(17), 
   883 ;; Return value:  Size  Location     Type
   884 ;;                  1    wreg      void 
   885 ;; Registers used:
   886 ;;		wreg, fsr0l, fsr0h, status,2, status,0, pclath, cstack
   887 ;; Tracked objects:
   888 ;;		On entry : 0/0
   889 ;;		On exit  : 0/0
   890 ;;		Unchanged: 0/0
   891 ;; Data sizes:     COMMON   BANK0   BANK1   BANK3   BANK2
   892 ;;      Params:         0       0       0       0       0
   893 ;;      Locals:         0       1       0       0       0
   894 ;;      Temps:          0       1       0       0       0
   895 ;;      Totals:         0       2       0       0       0
   896 ;;Total ram usage:        2 bytes
   897 ;; Hardware stack levels used:    1
   898 ;; Hardware stack levels required when called:    5
   899 ;; This function calls:
   900 ;;		_Lcd_Write_Char
   901 ;; This function is called by:
   902 ;;		_main
   903 ;; This function uses a non-reentrant model
   904 ;;
   905                           
   906                           
   907                           ;psect for function _Lcd_Write_String
   908  01EF                     _Lcd_Write_String:
   909                           
   910                           ;incstack = 0
   911                           ; Regs used in _Lcd_Write_String: [wreg-fsr0h+status,2+status,0+pclath+cstack]
   912                           ;Lcd_Write_String@a stored from wreg
   913  01EF  1283               	bcf	3,5	;RP0=0, select bank0
   914  01F0  1303               	bcf	3,6	;RP1=0, select bank0
   915  01F1  00B3               	movwf	Lcd_Write_String@a
   916  01F2                     l1176:
   917                           
   918                           ;LCD.c: 84:     while(*a != 0)
   919  01F2  2A05               	goto	l1182
   920  01F3                     l1178:
   921                           
   922                           ;LCD.c: 85:         Lcd_Write_Char(*a++);
   923  01F3  0833               	movf	Lcd_Write_String@a,w
   924  01F4  0084               	movwf	4
   925  01F5  120A  118A  224F  120A  118A  	fcall	stringdir
   926  01FA  120A  118A  20D9  120A  118A  	fcall	_Lcd_Write_Char
   927  01FF                     l1180:
   928  01FF  3001               	movlw	1
   929  0200  1283               	bcf	3,5	;RP0=0, select bank0
   930  0201  1303               	bcf	3,6	;RP1=0, select bank0
   931  0202  00B2               	movwf	??_Lcd_Write_String
   932  0203  0832               	movf	??_Lcd_Write_String,w
   933  0204  07B3               	addwf	Lcd_Write_String@a,f
   934  0205                     l1182:
   935                           
   936                           ;LCD.c: 84:     while(*a != 0)
   937  0205  0833               	movf	Lcd_Write_String@a,w
   938  0206  0084               	movwf	4
   939  0207  120A  118A  224F  120A  118A  	fcall	stringdir
   940  020C  3A00               	xorlw	0
   941  020D  1D03               	skipz
   942  020E  2A10               	goto	u451
   943  020F  2A11               	goto	u450
   944  0210                     u451:
   945  0210  29F3               	goto	l1178
   946  0211                     u450:
   947  0211                     l101:
   948  0211  0008               	return
   949  0212                     __end_of_Lcd_Write_String:
   950                           
   951                           	psect	text3
   952  00D9                     __ptext3:	
   953 ;; *************** function _Lcd_Write_Char *****************
   954 ;; Defined at:
   955 ;;		line 60 in file "LCD.c"
   956 ;; Parameters:    Size  Location     Type
   957 ;;  a               1    wreg     unsigned char 
   958 ;; Auto vars:     Size  Location     Type
   959 ;;  a               1   17[BANK0 ] unsigned char 
   960 ;; Return value:  Size  Location     Type
   961 ;;                  1    wreg      void 
   962 ;; Registers used:
   963 ;;		wreg, status,2, status,0
   964 ;; Tracked objects:
   965 ;;		On entry : 0/0
   966 ;;		On exit  : 0/0
   967 ;;		Unchanged: 0/0
   968 ;; Data sizes:     COMMON   BANK0   BANK1   BANK3   BANK2
   969 ;;      Params:         0       0       0       0       0
   970 ;;      Locals:         0       1       0       0       0
   971 ;;      Temps:          0       2       0       0       0
   972 ;;      Totals:         0       3       0       0       0
   973 ;;Total ram usage:        3 bytes
   974 ;; Hardware stack levels used:    1
   975 ;; Hardware stack levels required when called:    4
   976 ;; This function calls:
   977 ;;		Nothing
   978 ;; This function is called by:
   979 ;;		_Lcd_Write_String
   980 ;; This function uses a non-reentrant model
   981 ;;
   982                           
   983                           
   984                           ;psect for function _Lcd_Write_Char
   985  00D9                     _Lcd_Write_Char:
   986                           
   987                           ;incstack = 0
   988                           ; Regs used in _Lcd_Write_Char: [wreg+status,2+status,0]
   989                           ;Lcd_Write_Char@a stored from wreg
   990  00D9  1283               	bcf	3,5	;RP0=0, select bank0
   991  00DA  1303               	bcf	3,6	;RP1=0, select bank0
   992  00DB  00B1               	movwf	Lcd_Write_Char@a
   993  00DC                     l1080:
   994                           
   995                           ;LCD.c: 61:     PORTD = 0xFF;
   996  00DC  30FF               	movlw	255
   997  00DD  0088               	movwf	8	;volatile
   998  00DE                     l1082:
   999                           
  1000                           ;LCD.c: 62:     PORTD &= 0x80;
  1001  00DE  3080               	movlw	128
  1002  00DF  00AF               	movwf	??_Lcd_Write_Char
  1003  00E0  082F               	movf	??_Lcd_Write_Char,w
  1004  00E1  0588               	andwf	8,f	;volatile
  1005  00E2                     l1084:
  1006                           
  1007                           ;LCD.c: 63:     RE0 = 0;
  1008  00E2  1009               	bcf	9,0	;volatile
  1009  00E3                     l1086:
  1010                           
  1011                           ;LCD.c: 64:     RE1 = 1;
  1012  00E3  1489               	bsf	9,1	;volatile
  1013  00E4                     l1088:
  1014                           
  1015                           ;LCD.c: 65:     RE2 = 0;
  1016  00E4  1109               	bcf	9,2	;volatile
  1017  00E5                     l1090:
  1018                           
  1019                           ;LCD.c: 66:     _delay((unsigned long)((30)*(4000000/4000.0)));
  1020  00E5  3027               	movlw	39
  1021  00E6  1283               	bcf	3,5	;RP0=0, select bank0
  1022  00E7  1303               	bcf	3,6	;RP1=0, select bank0
  1023  00E8  00B0               	movwf	??_Lcd_Write_Char+1
  1024  00E9  30F4               	movlw	244
  1025  00EA  00AF               	movwf	??_Lcd_Write_Char
  1026  00EB                     u497:
  1027  00EB  0BAF               	decfsz	??_Lcd_Write_Char,f
  1028  00EC  28EB               	goto	u497
  1029  00ED  0BB0               	decfsz	??_Lcd_Write_Char+1,f
  1030  00EE  28EB               	goto	u497
  1031  00EF  0000               	nop
  1032  00F0                     l1092:
  1033                           
  1034                           ;LCD.c: 67:     RE2 = 1;
  1035  00F0  1283               	bcf	3,5	;RP0=0, select bank0
  1036  00F1  1303               	bcf	3,6	;RP1=0, select bank0
  1037  00F2  1509               	bsf	9,2	;volatile
  1038                           
  1039                           ;LCD.c: 68:     if (PORTD == 0x80){
  1040  00F3  3080               	movlw	128
  1041  00F4  0608               	xorwf	8,w	;volatile
  1042  00F5  1D03               	btfss	3,2
  1043  00F6  28F8               	goto	u401
  1044  00F7  28F9               	goto	u400
  1045  00F8                     u401:
  1046  00F8  2908               	goto	l1100
  1047  00F9                     u400:
  1048  00F9                     l1094:
  1049                           
  1050                           ;LCD.c: 69:     RE2 = 0;
  1051  00F9  1109               	bcf	9,2	;volatile
  1052  00FA                     l1096:
  1053                           
  1054                           ;LCD.c: 70:     _delay((unsigned long)((30)*(4000000/4000.0)));
  1055  00FA  3027               	movlw	39
  1056  00FB  1283               	bcf	3,5	;RP0=0, select bank0
  1057  00FC  1303               	bcf	3,6	;RP1=0, select bank0
  1058  00FD  00B0               	movwf	??_Lcd_Write_Char+1
  1059  00FE  30F4               	movlw	244
  1060  00FF  00AF               	movwf	??_Lcd_Write_Char
  1061  0100                     u507:
  1062  0100  0BAF               	decfsz	??_Lcd_Write_Char,f
  1063  0101  2900               	goto	u507
  1064  0102  0BB0               	decfsz	??_Lcd_Write_Char+1,f
  1065  0103  2900               	goto	u507
  1066  0104  0000               	nop
  1067  0105                     l1098:
  1068                           
  1069                           ;LCD.c: 71:     RE2 = 1;
  1070  0105  1283               	bcf	3,5	;RP0=0, select bank0
  1071  0106  1303               	bcf	3,6	;RP1=0, select bank0
  1072  0107  1509               	bsf	9,2	;volatile
  1073  0108                     l1100:	
  1074                           ;LCD.c: 72:     }
  1075                           
  1076                           
  1077                           ;LCD.c: 75:     PORTD = a;
  1078  0108  0831               	movf	Lcd_Write_Char@a,w
  1079  0109  0088               	movwf	8	;volatile
  1080  010A                     l1102:
  1081                           
  1082                           ;LCD.c: 76:     RE0 = 1;
  1083  010A  1409               	bsf	9,0	;volatile
  1084  010B                     l1104:
  1085                           
  1086                           ;LCD.c: 77:     RE1 = 0;
  1087  010B  1089               	bcf	9,1	;volatile
  1088  010C                     l1106:
  1089                           
  1090                           ;LCD.c: 78:     RE2 = 1;
  1091  010C  1509               	bsf	9,2	;volatile
  1092                           
  1093                           ;LCD.c: 79:     _delay((unsigned long)((30)*(4000000/4000.0)));
  1094  010D  3027               	movlw	39
  1095  010E  1283               	bcf	3,5	;RP0=0, select bank0
  1096  010F  1303               	bcf	3,6	;RP1=0, select bank0
  1097  0110  00B0               	movwf	??_Lcd_Write_Char+1
  1098  0111  30F4               	movlw	244
  1099  0112  00AF               	movwf	??_Lcd_Write_Char
  1100  0113                     u517:
  1101  0113  0BAF               	decfsz	??_Lcd_Write_Char,f
  1102  0114  2913               	goto	u517
  1103  0115  0BB0               	decfsz	??_Lcd_Write_Char+1,f
  1104  0116  2913               	goto	u517
  1105  0117  0000               	nop
  1106  0118                     l1108:
  1107                           
  1108                           ;LCD.c: 80:     RE2 = 0;
  1109  0118  1283               	bcf	3,5	;RP0=0, select bank0
  1110  0119  1303               	bcf	3,6	;RP1=0, select bank0
  1111  011A  1109               	bcf	9,2	;volatile
  1112  011B                     l95:
  1113  011B  0008               	return
  1114  011C                     __end_of_Lcd_Write_Char:
  1115                           
  1116                           	psect	text4
  1117  0212                     __ptext4:	
  1118 ;; *************** function _Lcd_Init *****************
  1119 ;; Defined at:
  1120 ;;		line 52 in file "LCD.c"
  1121 ;; Parameters:    Size  Location     Type
  1122 ;;		None
  1123 ;; Auto vars:     Size  Location     Type
  1124 ;;		None
  1125 ;; Return value:  Size  Location     Type
  1126 ;;                  1    wreg      void 
  1127 ;; Registers used:
  1128 ;;		wreg, status,2, status,0, pclath, cstack
  1129 ;; Tracked objects:
  1130 ;;		On entry : 0/0
  1131 ;;		On exit  : 0/0
  1132 ;;		Unchanged: 0/0
  1133 ;; Data sizes:     COMMON   BANK0   BANK1   BANK3   BANK2
  1134 ;;      Params:         0       0       0       0       0
  1135 ;;      Locals:         0       0       0       0       0
  1136 ;;      Temps:          0       0       0       0       0
  1137 ;;      Totals:         0       0       0       0       0
  1138 ;;Total ram usage:        0 bytes
  1139 ;; Hardware stack levels used:    1
  1140 ;; Hardware stack levels required when called:    5
  1141 ;; This function calls:
  1142 ;;		_Lcd_Cmd
  1143 ;; This function is called by:
  1144 ;;		_main
  1145 ;; This function uses a non-reentrant model
  1146 ;;
  1147                           
  1148                           
  1149                           ;psect for function _Lcd_Init
  1150  0212                     _Lcd_Init:
  1151  0212                     l1174:	
  1152                           ;incstack = 0
  1153                           ; Regs used in _Lcd_Init: [wreg+status,2+status,0+pclath+cstack]
  1154                           
  1155                           
  1156                           ;LCD.c: 53:     Lcd_Cmd(0x38);
  1157  0212  3038               	movlw	56
  1158  0213  120A  118A  211C  120A  118A  	fcall	_Lcd_Cmd
  1159                           
  1160                           ;LCD.c: 54:     Lcd_Cmd(0x0C);
  1161  0218  300C               	movlw	12
  1162  0219  120A  118A  211C  120A  118A  	fcall	_Lcd_Cmd
  1163                           
  1164                           ;LCD.c: 55:     Lcd_Cmd(0x01);
  1165  021E  3001               	movlw	1
  1166  021F  120A  118A  211C  120A  118A  	fcall	_Lcd_Cmd
  1167                           
  1168                           ;LCD.c: 56:     Lcd_Cmd(0x06);
  1169  0224  3006               	movlw	6
  1170  0225  120A  118A  211C  120A  118A  	fcall	_Lcd_Cmd
  1171                           
  1172                           ;LCD.c: 57:     Lcd_Cmd(0x80);
  1173  022A  3080               	movlw	128
  1174  022B  120A  118A  211C  120A  118A  	fcall	_Lcd_Cmd
  1175  0230                     l90:
  1176  0230  0008               	return
  1177  0231                     __end_of_Lcd_Init:
  1178                           
  1179                           	psect	text5
  1180  011C                     __ptext5:	
  1181 ;; *************** function _Lcd_Cmd *****************
  1182 ;; Defined at:
  1183 ;;		line 13 in file "LCD.c"
  1184 ;; Parameters:    Size  Location     Type
  1185 ;;  a               1    wreg     unsigned char 
  1186 ;; Auto vars:     Size  Location     Type
  1187 ;;  a               1   17[BANK0 ] unsigned char 
  1188 ;; Return value:  Size  Location     Type
  1189 ;;                  1    wreg      void 
  1190 ;; Registers used:
  1191 ;;		wreg, status,2, status,0
  1192 ;; Tracked objects:
  1193 ;;		On entry : 0/0
  1194 ;;		On exit  : 0/0
  1195 ;;		Unchanged: 0/0
  1196 ;; Data sizes:     COMMON   BANK0   BANK1   BANK3   BANK2
  1197 ;;      Params:         0       0       0       0       0
  1198 ;;      Locals:         0       1       0       0       0
  1199 ;;      Temps:          0       2       0       0       0
  1200 ;;      Totals:         0       3       0       0       0
  1201 ;;Total ram usage:        3 bytes
  1202 ;; Hardware stack levels used:    1
  1203 ;; Hardware stack levels required when called:    4
  1204 ;; This function calls:
  1205 ;;		Nothing
  1206 ;; This function is called by:
  1207 ;;		_Lcd_Init
  1208 ;;		_Lcd_Clear
  1209 ;;		_Lcd_Set_Cursor
  1210 ;;		_Lcd_Shift_Right
  1211 ;;		_Lcd_Shift_Left
  1212 ;; This function uses a non-reentrant model
  1213 ;;
  1214                           
  1215                           
  1216                           ;psect for function _Lcd_Cmd
  1217  011C                     _Lcd_Cmd:
  1218                           
  1219                           ;incstack = 0
  1220                           ; Regs used in _Lcd_Cmd: [wreg+status,2+status,0]
  1221                           ;Lcd_Cmd@a stored from wreg
  1222  011C  1283               	bcf	3,5	;RP0=0, select bank0
  1223  011D  1303               	bcf	3,6	;RP1=0, select bank0
  1224  011E  00B1               	movwf	Lcd_Cmd@a
  1225  011F                     l1050:
  1226                           
  1227                           ;LCD.c: 14:  PORTD = 0xFF;
  1228  011F  30FF               	movlw	255
  1229  0120  0088               	movwf	8	;volatile
  1230  0121                     l1052:
  1231                           
  1232                           ;LCD.c: 15:     PORTD &= 0x80;
  1233  0121  3080               	movlw	128
  1234  0122  00AF               	movwf	??_Lcd_Cmd
  1235  0123  082F               	movf	??_Lcd_Cmd,w
  1236  0124  0588               	andwf	8,f	;volatile
  1237  0125                     l1054:
  1238                           
  1239                           ;LCD.c: 16:     RE0 = 0;
  1240  0125  1009               	bcf	9,0	;volatile
  1241  0126                     l1056:
  1242                           
  1243                           ;LCD.c: 17:     RE1 = 1;
  1244  0126  1489               	bsf	9,1	;volatile
  1245  0127                     l1058:
  1246                           
  1247                           ;LCD.c: 18:     RE2 = 0;
  1248  0127  1109               	bcf	9,2	;volatile
  1249  0128                     l1060:
  1250                           
  1251                           ;LCD.c: 19:     _delay((unsigned long)((30)*(4000000/4000.0)));
  1252  0128  3027               	movlw	39
  1253  0129  1283               	bcf	3,5	;RP0=0, select bank0
  1254  012A  1303               	bcf	3,6	;RP1=0, select bank0
  1255  012B  00B0               	movwf	??_Lcd_Cmd+1
  1256  012C  30F4               	movlw	244
  1257  012D  00AF               	movwf	??_Lcd_Cmd
  1258  012E                     u527:
  1259  012E  0BAF               	decfsz	??_Lcd_Cmd,f
  1260  012F  292E               	goto	u527
  1261  0130  0BB0               	decfsz	??_Lcd_Cmd+1,f
  1262  0131  292E               	goto	u527
  1263  0132  0000               	nop
  1264  0133                     l1062:
  1265                           
  1266                           ;LCD.c: 20:     RE2 = 1;
  1267  0133  1283               	bcf	3,5	;RP0=0, select bank0
  1268  0134  1303               	bcf	3,6	;RP1=0, select bank0
  1269  0135  1509               	bsf	9,2	;volatile
  1270                           
  1271                           ;LCD.c: 21:     if (PORTD == 0x80){
  1272  0136  3080               	movlw	128
  1273  0137  0608               	xorwf	8,w	;volatile
  1274  0138  1D03               	btfss	3,2
  1275  0139  293B               	goto	u391
  1276  013A  293C               	goto	u390
  1277  013B                     u391:
  1278  013B  294B               	goto	l1070
  1279  013C                     u390:
  1280  013C                     l1064:
  1281                           
  1282                           ;LCD.c: 22:     RE2 = 0;
  1283  013C  1109               	bcf	9,2	;volatile
  1284  013D                     l1066:
  1285                           
  1286                           ;LCD.c: 23:     _delay((unsigned long)((30)*(4000000/4000.0)));
  1287  013D  3027               	movlw	39
  1288  013E  1283               	bcf	3,5	;RP0=0, select bank0
  1289  013F  1303               	bcf	3,6	;RP1=0, select bank0
  1290  0140  00B0               	movwf	??_Lcd_Cmd+1
  1291  0141  30F4               	movlw	244
  1292  0142  00AF               	movwf	??_Lcd_Cmd
  1293  0143                     u537:
  1294  0143  0BAF               	decfsz	??_Lcd_Cmd,f
  1295  0144  2943               	goto	u537
  1296  0145  0BB0               	decfsz	??_Lcd_Cmd+1,f
  1297  0146  2943               	goto	u537
  1298  0147  0000               	nop
  1299  0148                     l1068:
  1300                           
  1301                           ;LCD.c: 24:     RE2 = 1;
  1302  0148  1283               	bcf	3,5	;RP0=0, select bank0
  1303  0149  1303               	bcf	3,6	;RP1=0, select bank0
  1304  014A  1509               	bsf	9,2	;volatile
  1305  014B                     l1070:	
  1306                           ;LCD.c: 25:     }
  1307                           
  1308                           
  1309                           ;LCD.c: 28:     PORTD = a;
  1310  014B  0831               	movf	Lcd_Cmd@a,w
  1311  014C  0088               	movwf	8	;volatile
  1312  014D                     l1072:
  1313                           
  1314                           ;LCD.c: 29:     RE0 = 0;
  1315  014D  1009               	bcf	9,0	;volatile
  1316  014E                     l1074:
  1317                           
  1318                           ;LCD.c: 30:     RE1 = 0;
  1319  014E  1089               	bcf	9,1	;volatile
  1320  014F                     l1076:
  1321                           
  1322                           ;LCD.c: 31:     RE2 = 1;
  1323  014F  1509               	bsf	9,2	;volatile
  1324                           
  1325                           ;LCD.c: 32:     _delay((unsigned long)((30)*(4000000/4000.0)));
  1326  0150  3027               	movlw	39
  1327  0151  1283               	bcf	3,5	;RP0=0, select bank0
  1328  0152  1303               	bcf	3,6	;RP1=0, select bank0
  1329  0153  00B0               	movwf	??_Lcd_Cmd+1
  1330  0154  30F4               	movlw	244
  1331  0155  00AF               	movwf	??_Lcd_Cmd
  1332  0156                     u547:
  1333  0156  0BAF               	decfsz	??_Lcd_Cmd,f
  1334  0157  2956               	goto	u547
  1335  0158  0BB0               	decfsz	??_Lcd_Cmd+1,f
  1336  0159  2956               	goto	u547
  1337  015A  0000               	nop
  1338  015B                     l1078:
  1339                           
  1340                           ;LCD.c: 33:     RE2 = 0;
  1341  015B  1283               	bcf	3,5	;RP0=0, select bank0
  1342  015C  1303               	bcf	3,6	;RP1=0, select bank0
  1343  015D  1109               	bcf	9,2	;volatile
  1344  015E                     l78:
  1345  015E  0008               	return
  1346  015F                     __end_of_Lcd_Cmd:
  1347                           
  1348                           	psect	text6
  1349  0199                     __ptext6:	
  1350 ;; *************** function _ISR *****************
  1351 ;; Defined at:
  1352 ;;		line 67 in file "Master.c"
  1353 ;; Parameters:    Size  Location     Type
  1354 ;;		None
  1355 ;; Auto vars:     Size  Location     Type
  1356 ;;		None
  1357 ;; Return value:  Size  Location     Type
  1358 ;;                  1    wreg      void 
  1359 ;; Registers used:
  1360 ;;		wreg, fsr0l, fsr0h, status,2, status,0, pclath, cstack
  1361 ;; Tracked objects:
  1362 ;;		On entry : 0/0
  1363 ;;		On exit  : 0/0
  1364 ;;		Unchanged: 0/0
  1365 ;; Data sizes:     COMMON   BANK0   BANK1   BANK3   BANK2
  1366 ;;      Params:         0       0       0       0       0
  1367 ;;      Locals:         0       0       0       0       0
  1368 ;;      Temps:          0       5       0       0       0
  1369 ;;      Totals:         0       5       0       0       0
  1370 ;;Total ram usage:        5 bytes
  1371 ;; Hardware stack levels used:    1
  1372 ;; Hardware stack levels required when called:    3
  1373 ;; This function calls:
  1374 ;;		_CONTADOR
  1375 ;;		_itoa
  1376 ;; This function is called by:
  1377 ;;		Interrupt level 1
  1378 ;; This function uses a non-reentrant model
  1379 ;;
  1380                           
  1381                           
  1382                           ;psect for function _ISR
  1383  0199                     _ISR:
  1384  0199                     i1l1184:
  1385                           
  1386                           ;Master.c: 68:     if (RCIF==1){
  1387  0199  1E8C               	btfss	12,5	;volatile
  1388  019A  299C               	goto	u46_21
  1389  019B  299D               	goto	u46_20
  1390  019C                     u46_21:
  1391  019C  29C0               	goto	i1l52
  1392  019D                     u46_20:
  1393  019D                     i1l1186:
  1394                           
  1395                           ;Master.c: 69:         O = CONTADOR ((int)RCREG);
  1396  019D  081A               	movf	26,w	;volatile
  1397  019E  00AA               	movwf	??_ISR
  1398  019F  01AB               	clrf	??_ISR+1
  1399  01A0  082A               	movf	??_ISR,w
  1400  01A1  00F0               	movwf	CONTADOR@n
  1401  01A2  082B               	movf	??_ISR+1,w
  1402  01A3  00F1               	movwf	CONTADOR@n+1
  1403  01A4  120A  118A  227A  120A  118A  	fcall	_CONTADOR
  1404  01A9  0871               	movf	?_CONTADOR+1,w
  1405  01AA  1283               	bcf	3,5	;RP0=0, select bank0
  1406  01AB  1303               	bcf	3,6	;RP1=0, select bank0
  1407  01AC  00B7               	movwf	_O+1
  1408  01AD  0870               	movf	?_CONTADOR,w
  1409  01AE  00B6               	movwf	_O
  1410  01AF                     i1l1188:
  1411                           
  1412                           ;Master.c: 70:         itoa(COMPARE,O,10);
  1413  01AF  0837               	movf	_O+1,w
  1414  01B0  00A5               	movwf	itoa@val+1
  1415  01B1  0836               	movf	_O,w
  1416  01B2  00A4               	movwf	itoa@val
  1417  01B3  300A               	movlw	10
  1418  01B4  00A6               	movwf	itoa@base
  1419  01B5  3000               	movlw	0
  1420  01B6  00A7               	movwf	itoa@base+1
  1421  01B7  3039               	movlw	(low (_COMPARE| 0))& (0+255)
  1422  01B8  120A  118A  21C9  120A  118A  	fcall	_itoa
  1423  01BD                     i1l1190:
  1424                           
  1425                           ;Master.c: 71:         RCIF=0;
  1426  01BD  1283               	bcf	3,5	;RP0=0, select bank0
  1427  01BE  1303               	bcf	3,6	;RP1=0, select bank0
  1428  01BF  128C               	bcf	12,5	;volatile
  1429  01C0                     i1l52:
  1430  01C0  082E               	movf	??_ISR+4,w
  1431  01C1  008A               	movwf	10
  1432  01C2  082D               	movf	??_ISR+3,w
  1433  01C3  0084               	movwf	4
  1434  01C4  0E2C               	swapf	??_ISR+2,w
  1435  01C5  0083               	movwf	3
  1436  01C6  0EFE               	swapf	btemp,f
  1437  01C7  0E7E               	swapf	btemp,w
  1438  01C8  0009               	retfie
  1439  01C9                     __end_of_ISR:
  1440                           
  1441                           	psect	intentry
  1442  0004                     __pintentry:	
  1443                           ;incstack = 0
  1444                           ; Regs used in _ISR: [wreg-fsr0h+status,2+status,0+pclath+cstack]
  1445                           
  1446  0004                     interrupt_function:
  1447  007E                     saved_w	set	btemp
  1448  0004  00FE               	movwf	btemp
  1449  0005  0E03               	swapf	3,w
  1450  0006  1283               	bcf	3,5	;RP0=0, select bank0
  1451  0007  1303               	bcf	3,6	;RP1=0, select bank0
  1452  0008  00AC               	movwf	??_ISR+2
  1453  0009  0804               	movf	4,w
  1454  000A  00AD               	movwf	??_ISR+3
  1455  000B  080A               	movf	10,w
  1456  000C  00AE               	movwf	??_ISR+4
  1457  000D  120A  118A  2999   	ljmp	_ISR
  1458                           
  1459                           	psect	text7
  1460  01C9                     __ptext7:	
  1461 ;; *************** function _itoa *****************
  1462 ;; Defined at:
  1463 ;;		line 4 in file "C:\Program Files\Microchip\xc8\v2.31\pic\sources\c90\common\itoa.c"
  1464 ;; Parameters:    Size  Location     Type
  1465 ;;  buf             1    wreg     PTR unsigned char 
  1466 ;;		 -> COMPARE(5), 
  1467 ;;  val             2    4[BANK0 ] int 
  1468 ;;  base            2    6[BANK0 ] int 
  1469 ;; Auto vars:     Size  Location     Type
  1470 ;;  buf             1    9[BANK0 ] PTR unsigned char 
  1471 ;;		 -> COMPARE(5), 
  1472 ;;  cp              1    0        PTR unsigned char 
  1473 ;;		 -> COMPARE(5), 
  1474 ;; Return value:  Size  Location     Type
  1475 ;;                  1    wreg      PTR unsigned char 
  1476 ;; Registers used:
  1477 ;;		wreg, fsr0l, fsr0h, status,2, status,0, pclath, cstack
  1478 ;; Tracked objects:
  1479 ;;		On entry : 0/0
  1480 ;;		On exit  : 0/0
  1481 ;;		Unchanged: 0/0
  1482 ;; Data sizes:     COMMON   BANK0   BANK1   BANK3   BANK2
  1483 ;;      Params:         0       4       0       0       0
  1484 ;;      Locals:         0       2       0       0       0
  1485 ;;      Temps:          1       0       0       0       0
  1486 ;;      Totals:         1       6       0       0       0
  1487 ;;Total ram usage:        7 bytes
  1488 ;; Hardware stack levels used:    1
  1489 ;; Hardware stack levels required when called:    2
  1490 ;; This function calls:
  1491 ;;		_utoa
  1492 ;; This function is called by:
  1493 ;;		_ISR
  1494 ;; This function uses a non-reentrant model
  1495 ;;
  1496                           
  1497                           
  1498                           ;psect for function _itoa
  1499  01C9                     _itoa:
  1500                           
  1501                           ;incstack = 0
  1502                           ; Regs used in _itoa: [wreg-fsr0h+status,2+status,0+pclath+cstack]
  1503                           ;itoa@buf stored from wreg
  1504  01C9  1283               	bcf	3,5	;RP0=0, select bank0
  1505  01CA  1303               	bcf	3,6	;RP1=0, select bank0
  1506  01CB  00A9               	movwf	itoa@buf
  1507  01CC                     i1l1144:
  1508  01CC                     i1l1146:
  1509  01CC  1FA5               	btfss	itoa@val+1,7
  1510  01CD  29CF               	goto	u44_21
  1511  01CE  29D0               	goto	u44_20
  1512  01CF                     u44_21:
  1513  01CF  29E0               	goto	i1l1154
  1514  01D0                     u44_20:
  1515  01D0                     i1l1148:
  1516  01D0  302D               	movlw	45
  1517  01D1  00FD               	movwf	??_itoa
  1518  01D2  0829               	movf	itoa@buf,w
  1519  01D3  0084               	movwf	4
  1520  01D4  087D               	movf	??_itoa,w
  1521  01D5  1383               	bcf	3,7	;select IRP bank0
  1522  01D6  0080               	movwf	0
  1523  01D7                     i1l1150:
  1524  01D7  3001               	movlw	1
  1525  01D8  00FD               	movwf	??_itoa
  1526  01D9  087D               	movf	??_itoa,w
  1527  01DA  07A9               	addwf	itoa@buf,f
  1528  01DB                     i1l1152:
  1529  01DB  09A4               	comf	itoa@val,f
  1530  01DC  09A5               	comf	itoa@val+1,f
  1531  01DD  0AA4               	incf	itoa@val,f
  1532  01DE  1903               	skipnz
  1533  01DF  0AA5               	incf	itoa@val+1,f
  1534  01E0                     i1l1154:
  1535  01E0  0825               	movf	itoa@val+1,w
  1536  01E1  00F9               	movwf	utoa@val+1
  1537  01E2  0824               	movf	itoa@val,w
  1538  01E3  00F8               	movwf	utoa@val
  1539  01E4  0827               	movf	itoa@base+1,w
  1540  01E5  00FB               	movwf	utoa@base+1
  1541  01E6  0826               	movf	itoa@base,w
  1542  01E7  00FA               	movwf	utoa@base
  1543  01E8  0829               	movf	itoa@buf,w
  1544  01E9  120A  118A  2023  120A  118A  	fcall	_utoa
  1545  01EE                     i1l690:
  1546  01EE  0008               	return
  1547  01EF                     __end_of_itoa:
  1548                           
  1549                           	psect	text8
  1550  0023                     __ptext8:	
  1551 ;; *************** function _utoa *****************
  1552 ;; Defined at:
  1553 ;;		line 17 in file "C:\Program Files\Microchip\xc8\v2.31\pic\sources\c90\common\itoa.c"
  1554 ;; Parameters:    Size  Location     Type
  1555 ;;  buf             1    wreg     PTR unsigned char 
  1556 ;;		 -> COMPARE(5), 
  1557 ;;  val             2    8[COMMON] unsigned int 
  1558 ;;  base            2   10[COMMON] int 
  1559 ;; Auto vars:     Size  Location     Type
  1560 ;;  buf             1    3[BANK0 ] PTR unsigned char 
  1561 ;;		 -> COMPARE(5), 
  1562 ;;  v               2    0[BANK0 ] unsigned int 
  1563 ;;  c               1    2[BANK0 ] unsigned char 
  1564 ;; Return value:  Size  Location     Type
  1565 ;;                  1    wreg      PTR unsigned char 
  1566 ;; Registers used:
  1567 ;;		wreg, fsr0l, fsr0h, status,2, status,0, pclath, cstack
  1568 ;; Tracked objects:
  1569 ;;		On entry : 0/0
  1570 ;;		On exit  : 0/0
  1571 ;;		Unchanged: 0/0
  1572 ;; Data sizes:     COMMON   BANK0   BANK1   BANK3   BANK2
  1573 ;;      Params:         4       0       0       0       0
  1574 ;;      Locals:         0       4       0       0       0
  1575 ;;      Temps:          1       0       0       0       0
  1576 ;;      Totals:         5       4       0       0       0
  1577 ;;Total ram usage:        9 bytes
  1578 ;; Hardware stack levels used:    1
  1579 ;; Hardware stack levels required when called:    1
  1580 ;; This function calls:
  1581 ;;		___lwdiv
  1582 ;;		___lwmod
  1583 ;; This function is called by:
  1584 ;;		_itoa
  1585 ;; This function uses a non-reentrant model
  1586 ;;
  1587                           
  1588                           
  1589                           ;psect for function _utoa
  1590  0023                     _utoa:
  1591                           
  1592                           ;incstack = 0
  1593                           ; Regs used in _utoa: [wreg-fsr0h+status,2+status,0+pclath+cstack]
  1594                           ;utoa@buf stored from wreg
  1595  0023  1283               	bcf	3,5	;RP0=0, select bank0
  1596  0024  1303               	bcf	3,6	;RP1=0, select bank0
  1597  0025  00A3               	movwf	utoa@buf
  1598  0026                     i1l1110:
  1599  0026  0879               	movf	utoa@val+1,w
  1600  0027  00A1               	movwf	utoa@v+1
  1601  0028  0878               	movf	utoa@val,w
  1602  0029  00A0               	movwf	utoa@v
  1603  002A                     i1l1112:
  1604  002A  087B               	movf	utoa@base+1,w
  1605  002B  00F1               	movwf	___lwdiv@divisor+1
  1606  002C  087A               	movf	utoa@base,w
  1607  002D  00F0               	movwf	___lwdiv@divisor
  1608  002E  0821               	movf	utoa@v+1,w
  1609  002F  00F3               	movwf	___lwdiv@dividend+1
  1610  0030  0820               	movf	utoa@v,w
  1611  0031  00F2               	movwf	___lwdiv@dividend
  1612  0032  120A  118A  2095  120A  118A  	fcall	___lwdiv
  1613  0037  0871               	movf	?___lwdiv+1,w
  1614  0038  1283               	bcf	3,5	;RP0=0, select bank0
  1615  0039  1303               	bcf	3,6	;RP1=0, select bank0
  1616  003A  00A1               	movwf	utoa@v+1
  1617  003B  0870               	movf	?___lwdiv,w
  1618  003C  00A0               	movwf	utoa@v
  1619  003D                     i1l1114:
  1620  003D  3001               	movlw	1
  1621  003E  00FC               	movwf	??_utoa
  1622  003F  087C               	movf	??_utoa,w
  1623  0040  07A3               	addwf	utoa@buf,f
  1624  0041                     i1l1116:
  1625  0041  0820               	movf	utoa@v,w
  1626  0042  0421               	iorwf	utoa@v+1,w
  1627  0043  1D03               	btfss	3,2
  1628  0044  2846               	goto	u41_21
  1629  0045  2847               	goto	u41_20
  1630  0046                     u41_21:
  1631  0046  282A               	goto	i1l1112
  1632  0047                     u41_20:
  1633  0047                     i1l1118:
  1634  0047  0823               	movf	utoa@buf,w
  1635  0048  0084               	movwf	4
  1636  0049  1383               	bcf	3,7	;select IRP bank0
  1637  004A  0180               	clrf	0
  1638  004B                     i1l1120:
  1639  004B  3001               	movlw	1
  1640  004C  02A3               	subwf	utoa@buf,f
  1641  004D                     i1l1122:
  1642  004D  087B               	movf	utoa@base+1,w
  1643  004E  00F1               	movwf	___lwmod@divisor+1
  1644  004F  087A               	movf	utoa@base,w
  1645  0050  00F0               	movwf	___lwmod@divisor
  1646  0051  0879               	movf	utoa@val+1,w
  1647  0052  00F3               	movwf	___lwmod@dividend+1
  1648  0053  0878               	movf	utoa@val,w
  1649  0054  00F2               	movwf	___lwmod@dividend
  1650  0055  120A  118A  215F  120A  118A  	fcall	___lwmod
  1651  005A  0870               	movf	?___lwmod,w
  1652  005B  00FC               	movwf	??_utoa
  1653  005C  087C               	movf	??_utoa,w
  1654  005D  1283               	bcf	3,5	;RP0=0, select bank0
  1655  005E  1303               	bcf	3,6	;RP1=0, select bank0
  1656  005F  00A2               	movwf	utoa@c
  1657  0060                     i1l1124:
  1658  0060  087B               	movf	utoa@base+1,w
  1659  0061  00F1               	movwf	___lwdiv@divisor+1
  1660  0062  087A               	movf	utoa@base,w
  1661  0063  00F0               	movwf	___lwdiv@divisor
  1662  0064  0879               	movf	utoa@val+1,w
  1663  0065  00F3               	movwf	___lwdiv@dividend+1
  1664  0066  0878               	movf	utoa@val,w
  1665  0067  00F2               	movwf	___lwdiv@dividend
  1666  0068  120A  118A  2095  120A  118A  	fcall	___lwdiv
  1667  006D  0871               	movf	?___lwdiv+1,w
  1668  006E  00F9               	movwf	utoa@val+1
  1669  006F  0870               	movf	?___lwdiv,w
  1670  0070  00F8               	movwf	utoa@val
  1671  0071                     i1l1126:
  1672  0071  300A               	movlw	10
  1673  0072  1283               	bcf	3,5	;RP0=0, select bank0
  1674  0073  1303               	bcf	3,6	;RP1=0, select bank0
  1675  0074  0222               	subwf	utoa@c,w
  1676  0075  1C03               	skipc
  1677  0076  2878               	goto	u42_21
  1678  0077  2879               	goto	u42_20
  1679  0078                     u42_21:
  1680  0078  287D               	goto	i1l696
  1681  0079                     u42_20:
  1682  0079                     i1l1128:
  1683  0079  3007               	movlw	7
  1684  007A  00FC               	movwf	??_utoa
  1685  007B  087C               	movf	??_utoa,w
  1686  007C  07A2               	addwf	utoa@c,f
  1687  007D                     i1l696:
  1688  007D  3030               	movlw	48
  1689  007E  00FC               	movwf	??_utoa
  1690  007F  087C               	movf	??_utoa,w
  1691  0080  07A2               	addwf	utoa@c,f
  1692  0081                     i1l1130:
  1693  0081  0822               	movf	utoa@c,w
  1694  0082  00FC               	movwf	??_utoa
  1695  0083  0823               	movf	utoa@buf,w
  1696  0084  0084               	movwf	4
  1697  0085  087C               	movf	??_utoa,w
  1698  0086  1383               	bcf	3,7	;select IRP bank0
  1699  0087  0080               	movwf	0
  1700  0088                     i1l1132:
  1701  0088  3001               	movlw	1
  1702  0089  02A3               	subwf	utoa@buf,f
  1703  008A                     i1l1134:
  1704  008A  0878               	movf	utoa@val,w
  1705  008B  0479               	iorwf	utoa@val+1,w
  1706  008C  1D03               	btfss	3,2
  1707  008D  288F               	goto	u43_21
  1708  008E  2890               	goto	u43_20
  1709  008F                     u43_21:
  1710  008F  284D               	goto	i1l1122
  1711  0090                     u43_20:
  1712  0090                     i1l1136:
  1713                           
  1714                           ;	Return value of _utoa is never used
  1715  0090  3001               	movlw	1
  1716  0091  00FC               	movwf	??_utoa
  1717  0092  087C               	movf	??_utoa,w
  1718  0093  07A3               	addwf	utoa@buf,f
  1719  0094                     i1l698:
  1720  0094  0008               	return
  1721  0095                     __end_of_utoa:
  1722                           
  1723                           	psect	text9
  1724  015F                     __ptext9:	
  1725 ;; *************** function ___lwmod *****************
  1726 ;; Defined at:
  1727 ;;		line 5 in file "C:\Program Files\Microchip\xc8\v2.31\pic\sources\c90\common\lwmod.c"
  1728 ;; Parameters:    Size  Location     Type
  1729 ;;  divisor         2    0[COMMON] unsigned int 
  1730 ;;  dividend        2    2[COMMON] unsigned int 
  1731 ;; Auto vars:     Size  Location     Type
  1732 ;;  counter         1    5[COMMON] unsigned char 
  1733 ;; Return value:  Size  Location     Type
  1734 ;;                  2    0[COMMON] unsigned int 
  1735 ;; Registers used:
  1736 ;;		wreg, status,2, status,0
  1737 ;; Tracked objects:
  1738 ;;		On entry : 0/0
  1739 ;;		On exit  : 0/0
  1740 ;;		Unchanged: 0/0
  1741 ;; Data sizes:     COMMON   BANK0   BANK1   BANK3   BANK2
  1742 ;;      Params:         4       0       0       0       0
  1743 ;;      Locals:         1       0       0       0       0
  1744 ;;      Temps:          1       0       0       0       0
  1745 ;;      Totals:         6       0       0       0       0
  1746 ;;Total ram usage:        6 bytes
  1747 ;; Hardware stack levels used:    1
  1748 ;; This function calls:
  1749 ;;		Nothing
  1750 ;; This function is called by:
  1751 ;;		_utoa
  1752 ;; This function uses a non-reentrant model
  1753 ;;
  1754                           
  1755                           
  1756                           ;psect for function ___lwmod
  1757  015F                     ___lwmod:
  1758  015F                     i1l1028:	
  1759                           ;incstack = 0
  1760                           ; Regs used in ___lwmod: [wreg+status,2+status,0]
  1761                           
  1762  015F  0870               	movf	___lwmod@divisor,w
  1763  0160  0471               	iorwf	___lwmod@divisor+1,w
  1764  0161  1903               	btfsc	3,2
  1765  0162  2964               	goto	u33_21
  1766  0163  2965               	goto	u33_20
  1767  0164                     u33_21:
  1768  0164  2994               	goto	i1l1046
  1769  0165                     u33_20:
  1770  0165                     i1l1030:
  1771  0165  01F5               	clrf	___lwmod@counter
  1772  0166  0AF5               	incf	___lwmod@counter,f
  1773  0167  2973               	goto	i1l1036
  1774  0168                     i1l1032:
  1775  0168  3001               	movlw	1
  1776  0169                     u34_25:
  1777  0169  1003               	clrc
  1778  016A  0DF0               	rlf	___lwmod@divisor,f
  1779  016B  0DF1               	rlf	___lwmod@divisor+1,f
  1780  016C  3EFF               	addlw	-1
  1781  016D  1D03               	skipz
  1782  016E  2969               	goto	u34_25
  1783  016F                     i1l1034:
  1784  016F  3001               	movlw	1
  1785  0170  00F4               	movwf	??___lwmod
  1786  0171  0874               	movf	??___lwmod,w
  1787  0172  07F5               	addwf	___lwmod@counter,f
  1788  0173                     i1l1036:
  1789  0173  1FF1               	btfss	___lwmod@divisor+1,7
  1790  0174  2976               	goto	u35_21
  1791  0175  2977               	goto	u35_20
  1792  0176                     u35_21:
  1793  0176  2968               	goto	i1l1032
  1794  0177                     u35_20:
  1795  0177                     i1l1038:
  1796  0177  0871               	movf	___lwmod@divisor+1,w
  1797  0178  0273               	subwf	___lwmod@dividend+1,w
  1798  0179  1D03               	skipz
  1799  017A  297D               	goto	u36_25
  1800  017B  0870               	movf	___lwmod@divisor,w
  1801  017C  0272               	subwf	___lwmod@dividend,w
  1802  017D                     u36_25:
  1803  017D  1C03               	skipc
  1804  017E  2980               	goto	u36_21
  1805  017F  2981               	goto	u36_20
  1806  0180                     u36_21:
  1807  0180  2987               	goto	i1l1042
  1808  0181                     u36_20:
  1809  0181                     i1l1040:
  1810  0181  0870               	movf	___lwmod@divisor,w
  1811  0182  02F2               	subwf	___lwmod@dividend,f
  1812  0183  0871               	movf	___lwmod@divisor+1,w
  1813  0184  1C03               	skipc
  1814  0185  03F3               	decf	___lwmod@dividend+1,f
  1815  0186  02F3               	subwf	___lwmod@dividend+1,f
  1816  0187                     i1l1042:
  1817  0187  3001               	movlw	1
  1818  0188                     u37_25:
  1819  0188  1003               	clrc
  1820  0189  0CF1               	rrf	___lwmod@divisor+1,f
  1821  018A  0CF0               	rrf	___lwmod@divisor,f
  1822  018B  3EFF               	addlw	-1
  1823  018C  1D03               	skipz
  1824  018D  2988               	goto	u37_25
  1825  018E                     i1l1044:
  1826  018E  3001               	movlw	1
  1827  018F  02F5               	subwf	___lwmod@counter,f
  1828  0190  1D03               	btfss	3,2
  1829  0191  2993               	goto	u38_21
  1830  0192  2994               	goto	u38_20
  1831  0193                     u38_21:
  1832  0193  2977               	goto	i1l1038
  1833  0194                     u38_20:
  1834  0194                     i1l1046:
  1835  0194  0873               	movf	___lwmod@dividend+1,w
  1836  0195  00F1               	movwf	?___lwmod+1
  1837  0196  0872               	movf	___lwmod@dividend,w
  1838  0197  00F0               	movwf	?___lwmod
  1839  0198                     i1l518:
  1840  0198  0008               	return
  1841  0199                     __end_of___lwmod:
  1842                           
  1843                           	psect	text10
  1844  0095                     __ptext10:	
  1845 ;; *************** function ___lwdiv *****************
  1846 ;; Defined at:
  1847 ;;		line 5 in file "C:\Program Files\Microchip\xc8\v2.31\pic\sources\c90\common\lwdiv.c"
  1848 ;; Parameters:    Size  Location     Type
  1849 ;;  divisor         2    0[COMMON] unsigned int 
  1850 ;;  dividend        2    2[COMMON] unsigned int 
  1851 ;; Auto vars:     Size  Location     Type
  1852 ;;  quotient        2    5[COMMON] unsigned int 
  1853 ;;  counter         1    7[COMMON] unsigned char 
  1854 ;; Return value:  Size  Location     Type
  1855 ;;                  2    0[COMMON] unsigned int 
  1856 ;; Registers used:
  1857 ;;		wreg, status,2, status,0
  1858 ;; Tracked objects:
  1859 ;;		On entry : 0/0
  1860 ;;		On exit  : 0/0
  1861 ;;		Unchanged: 0/0
  1862 ;; Data sizes:     COMMON   BANK0   BANK1   BANK3   BANK2
  1863 ;;      Params:         4       0       0       0       0
  1864 ;;      Locals:         3       0       0       0       0
  1865 ;;      Temps:          1       0       0       0       0
  1866 ;;      Totals:         8       0       0       0       0
  1867 ;;Total ram usage:        8 bytes
  1868 ;; Hardware stack levels used:    1
  1869 ;; This function calls:
  1870 ;;		Nothing
  1871 ;; This function is called by:
  1872 ;;		_utoa
  1873 ;; This function uses a non-reentrant model
  1874 ;;
  1875                           
  1876                           
  1877                           ;psect for function ___lwdiv
  1878  0095                     ___lwdiv:
  1879  0095                     i1l1002:	
  1880                           ;incstack = 0
  1881                           ; Regs used in ___lwdiv: [wreg+status,2+status,0]
  1882                           
  1883  0095  01F5               	clrf	___lwdiv@quotient
  1884  0096  01F6               	clrf	___lwdiv@quotient+1
  1885  0097                     i1l1004:
  1886  0097  0870               	movf	___lwdiv@divisor,w
  1887  0098  0471               	iorwf	___lwdiv@divisor+1,w
  1888  0099  1903               	btfsc	3,2
  1889  009A  289C               	goto	u26_21
  1890  009B  289D               	goto	u26_20
  1891  009C                     u26_21:
  1892  009C  28D4               	goto	i1l1024
  1893  009D                     u26_20:
  1894  009D                     i1l1006:
  1895  009D  01F7               	clrf	___lwdiv@counter
  1896  009E  0AF7               	incf	___lwdiv@counter,f
  1897  009F  28AB               	goto	i1l1012
  1898  00A0                     i1l1008:
  1899  00A0  3001               	movlw	1
  1900  00A1                     u27_25:
  1901  00A1  1003               	clrc
  1902  00A2  0DF0               	rlf	___lwdiv@divisor,f
  1903  00A3  0DF1               	rlf	___lwdiv@divisor+1,f
  1904  00A4  3EFF               	addlw	-1
  1905  00A5  1D03               	skipz
  1906  00A6  28A1               	goto	u27_25
  1907  00A7                     i1l1010:
  1908  00A7  3001               	movlw	1
  1909  00A8  00F4               	movwf	??___lwdiv
  1910  00A9  0874               	movf	??___lwdiv,w
  1911  00AA  07F7               	addwf	___lwdiv@counter,f
  1912  00AB                     i1l1012:
  1913  00AB  1FF1               	btfss	___lwdiv@divisor+1,7
  1914  00AC  28AE               	goto	u28_21
  1915  00AD  28AF               	goto	u28_20
  1916  00AE                     u28_21:
  1917  00AE  28A0               	goto	i1l1008
  1918  00AF                     u28_20:
  1919  00AF                     i1l1014:
  1920  00AF  3001               	movlw	1
  1921  00B0                     u29_25:
  1922  00B0  1003               	clrc
  1923  00B1  0DF5               	rlf	___lwdiv@quotient,f
  1924  00B2  0DF6               	rlf	___lwdiv@quotient+1,f
  1925  00B3  3EFF               	addlw	-1
  1926  00B4  1D03               	skipz
  1927  00B5  28B0               	goto	u29_25
  1928  00B6  0871               	movf	___lwdiv@divisor+1,w
  1929  00B7  0273               	subwf	___lwdiv@dividend+1,w
  1930  00B8  1D03               	skipz
  1931  00B9  28BC               	goto	u30_25
  1932  00BA  0870               	movf	___lwdiv@divisor,w
  1933  00BB  0272               	subwf	___lwdiv@dividend,w
  1934  00BC                     u30_25:
  1935  00BC  1C03               	skipc
  1936  00BD  28BF               	goto	u30_21
  1937  00BE  28C0               	goto	u30_20
  1938  00BF                     u30_21:
  1939  00BF  28C7               	goto	i1l1020
  1940  00C0                     u30_20:
  1941  00C0                     i1l1016:
  1942  00C0  0870               	movf	___lwdiv@divisor,w
  1943  00C1  02F2               	subwf	___lwdiv@dividend,f
  1944  00C2  0871               	movf	___lwdiv@divisor+1,w
  1945  00C3  1C03               	skipc
  1946  00C4  03F3               	decf	___lwdiv@dividend+1,f
  1947  00C5  02F3               	subwf	___lwdiv@dividend+1,f
  1948  00C6                     i1l1018:
  1949  00C6  1475               	bsf	___lwdiv@quotient,0
  1950  00C7                     i1l1020:
  1951  00C7  3001               	movlw	1
  1952  00C8                     u31_25:
  1953  00C8  1003               	clrc
  1954  00C9  0CF1               	rrf	___lwdiv@divisor+1,f
  1955  00CA  0CF0               	rrf	___lwdiv@divisor,f
  1956  00CB  3EFF               	addlw	-1
  1957  00CC  1D03               	skipz
  1958  00CD  28C8               	goto	u31_25
  1959  00CE                     i1l1022:
  1960  00CE  3001               	movlw	1
  1961  00CF  02F7               	subwf	___lwdiv@counter,f
  1962  00D0  1D03               	btfss	3,2
  1963  00D1  28D3               	goto	u32_21
  1964  00D2  28D4               	goto	u32_20
  1965  00D3                     u32_21:
  1966  00D3  28AF               	goto	i1l1014
  1967  00D4                     u32_20:
  1968  00D4                     i1l1024:
  1969  00D4  0876               	movf	___lwdiv@quotient+1,w
  1970  00D5  00F1               	movwf	?___lwdiv+1
  1971  00D6  0875               	movf	___lwdiv@quotient,w
  1972  00D7  00F0               	movwf	?___lwdiv
  1973  00D8                     i1l508:
  1974  00D8  0008               	return
  1975  00D9                     __end_of___lwdiv:
  1976                           
  1977                           	psect	text11
  1978  027A                     __ptext11:	
  1979 ;; *************** function _CONTADOR *****************
  1980 ;; Defined at:
  1981 ;;		line 8 in file "UART.c"
  1982 ;; Parameters:    Size  Location     Type
  1983 ;;  n               2    0[COMMON] int 
  1984 ;; Auto vars:     Size  Location     Type
  1985 ;;		None
  1986 ;; Return value:  Size  Location     Type
  1987 ;;                  2    0[COMMON] int 
  1988 ;; Registers used:
  1989 ;;		wreg
  1990 ;; Tracked objects:
  1991 ;;		On entry : 0/0
  1992 ;;		On exit  : 0/0
  1993 ;;		Unchanged: 0/0
  1994 ;; Data sizes:     COMMON   BANK0   BANK1   BANK3   BANK2
  1995 ;;      Params:         2       0       0       0       0
  1996 ;;      Locals:         0       0       0       0       0
  1997 ;;      Temps:          0       0       0       0       0
  1998 ;;      Totals:         2       0       0       0       0
  1999 ;;Total ram usage:        2 bytes
  2000 ;; Hardware stack levels used:    1
  2001 ;; This function calls:
  2002 ;;		Nothing
  2003 ;; This function is called by:
  2004 ;;		_ISR
  2005 ;; This function uses a non-reentrant model
  2006 ;;
  2007                           
  2008                           
  2009                           ;psect for function _CONTADOR
  2010  027A                     _CONTADOR:
  2011  027A                     i1l1140:	
  2012                           ;incstack = 0
  2013                           ; Regs used in _CONTADOR: [wreg]
  2014                           
  2015                           
  2016                           ;UART.c: 9:     Destination = n;
  2017  027A  0871               	movf	CONTADOR@n+1,w
  2018  027B  1283               	bcf	3,5	;RP0=0, select bank0
  2019  027C  1303               	bcf	3,6	;RP1=0, select bank0
  2020  027D  00B5               	movwf	_Destination+1
  2021  027E  0870               	movf	CONTADOR@n,w
  2022  027F  00B4               	movwf	_Destination
  2023                           
  2024                           ;UART.c: 10:     return ((Destination)*1);
  2025  0280  0835               	movf	_Destination+1,w
  2026  0281  00F1               	movwf	?_CONTADOR+1
  2027  0282  0834               	movf	_Destination,w
  2028  0283  00F0               	movwf	?_CONTADOR
  2029  0284                     i1l132:
  2030  0284  0008               	return
  2031  0285                     __end_of_CONTADOR:
  2032  007E                     btemp	set	126	;btemp
  2033  007E                     wtemp0	set	126
  2034                           
  2035                           	psect	config
  2036                           
  2037                           ;Config register CONFIG1 @ 0x2007
  2038                           ;	Oscillator Selection bits
  2039                           ;	FOSC = INTRC_NOCLKOUT, INTOSCIO oscillator: I/O function on RA6/OSC2/CLKOUT pin, I/O f
      +                          unction on RA7/OSC1/CLKIN
  2040                           ;	Watchdog Timer Enable bit
  2041                           ;	WDTE = OFF, WDT disabled and can be enabled by SWDTEN bit of the WDTCON register
  2042                           ;	Power-up Timer Enable bit
  2043                           ;	PWRTE = OFF, PWRT disabled
  2044                           ;	RE3/MCLR pin function select bit
  2045                           ;	MCLRE = OFF, RE3/MCLR pin function is digital input, MCLR internally tied to VDD
  2046                           ;	Code Protection bit
  2047                           ;	CP = OFF, Program memory code protection is disabled
  2048                           ;	Data Code Protection bit
  2049                           ;	CPD = OFF, Data memory code protection is disabled
  2050                           ;	Brown Out Reset Selection bits
  2051                           ;	BOREN = OFF, BOR disabled
  2052                           ;	Internal External Switchover bit
  2053                           ;	IESO = OFF, Internal/External Switchover mode is disabled
  2054                           ;	Fail-Safe Clock Monitor Enabled bit
  2055                           ;	FCMEN = OFF, Fail-Safe Clock Monitor is disabled
  2056                           ;	Low Voltage Programming Enable bit
  2057                           ;	LVP = OFF, RB3 pin has digital I/O, HV on MCLR must be used for programming
  2058                           ;	In-Circuit Debugger Mode bit
  2059                           ;	DEBUG = 0x1, unprogrammed default
  2060  2007                     	org	8199
  2061  2007  20D4               	dw	8404
  2062                           
  2063                           ;Config register CONFIG2 @ 0x2008
  2064                           ;	Brown-out Reset Selection bit
  2065                           ;	BOR4V = BOR40V, Brown-out Reset set to 4.0V
  2066                           ;	Flash Program Memory Self Write Enable bits
  2067                           ;	WRT = OFF, Write protection off
  2068  2008                     	org	8200
  2069  2008  3FFF               	dw	16383

Data Sizes:
    Strings     17
    Constant    0
    Data        0
    BSS         10
    Persistent  0
    Stack       0

Auto Spaces:
    Space          Size  Autos    Used
    COMMON           14     14      14
    BANK0            80     20      30
    BANK1            80      0       0
    BANK3            96      0       0
    BANK2            96      0       0

Pointer List with Targets:

    utoa@buf	PTR unsigned char  size(1) Largest target is 5
		 -> COMPARE(BANK0[5]), 

    sp__utoa	PTR unsigned char  size(1) Largest target is 5
		 -> COMPARE(BANK0[5]), 

    itoa@buf	PTR unsigned char  size(1) Largest target is 5
		 -> COMPARE(BANK0[5]), 

    itoa@cp	PTR unsigned char  size(1) Largest target is 5
		 -> COMPARE(BANK0[5]), 

    Lcd_Write_String@a	PTR unsigned char  size(1) Largest target is 17
		 -> STR_1(CODE[17]), 

    sp__itoa	PTR unsigned char  size(1) Largest target is 5
		 -> COMPARE(BANK0[5]), 


Critical Paths under _main in COMMON

    None.

Critical Paths under _ISR in COMMON

    _ISR->_itoa
    _itoa->_utoa
    _utoa->___lwdiv

Critical Paths under _main in BANK0

    _main->_Lcd_Write_String
    _Lcd_Write_String->_Lcd_Write_Char
    _Lcd_Init->_Lcd_Cmd

Critical Paths under _ISR in BANK0

    _ISR->_itoa
    _itoa->_utoa

Critical Paths under _main in BANK1

    None.

Critical Paths under _ISR in BANK1

    None.

Critical Paths under _main in BANK3

    None.

Critical Paths under _ISR in BANK3

    None.

Critical Paths under _main in BANK2

    None.

Critical Paths under _ISR in BANK2

    None.

Call Graph Tables:

 ---------------------------------------------------------------------------------
 (Depth) Function   	        Calls       Base Space   Used Autos Params    Refs
 ---------------------------------------------------------------------------------
 (0) _main                                                 0     0      0     122
                           _Lcd_Init
                   _Lcd_Write_String
                              _setup
 ---------------------------------------------------------------------------------
 (1) _setup                                                0     0      0       0
 ---------------------------------------------------------------------------------
 (1) _Lcd_Write_String                                     2     2      0     100
                                             18 BANK0      2     2      0
                     _Lcd_Write_Char
 ---------------------------------------------------------------------------------
 (2) _Lcd_Write_Char                                       3     3      0      22
                                             15 BANK0      3     3      0
 ---------------------------------------------------------------------------------
 (1) _Lcd_Init                                             0     0      0      22
                            _Lcd_Cmd
 ---------------------------------------------------------------------------------
 (2) _Lcd_Cmd                                              3     3      0      22
                                             15 BANK0      3     3      0
 ---------------------------------------------------------------------------------
 Estimated maximum stack depth 2
 ---------------------------------------------------------------------------------
 (Depth) Function   	        Calls       Base Space   Used Autos Params    Refs
 ---------------------------------------------------------------------------------
 (3) _ISR                                                  5     5      0    1710
                                             10 BANK0      5     5      0
                           _CONTADOR
                               _itoa
 ---------------------------------------------------------------------------------
 (4) _itoa                                                 7     3      4    1612
                                             13 COMMON     1     1      0
                                              4 BANK0      6     2      4
                               _utoa
 ---------------------------------------------------------------------------------
 (5) _utoa                                                 9     5      4    1264
                                              8 COMMON     5     1      4
                                              0 BANK0      4     4      0
                            ___lwdiv
                            ___lwmod
 ---------------------------------------------------------------------------------
 (6) ___lwmod                                              6     2      4     311
                                              0 COMMON     6     2      4
 ---------------------------------------------------------------------------------
 (6) ___lwdiv                                              8     4      4     466
                                              0 COMMON     8     4      4
 ---------------------------------------------------------------------------------
 (4) _CONTADOR                                             2     0      2      98
                                              0 COMMON     2     0      2
 ---------------------------------------------------------------------------------
 Estimated maximum stack depth 6
 ---------------------------------------------------------------------------------

 Call Graph Graphs:

 _main (ROOT)
   _Lcd_Init
     _Lcd_Cmd
   _Lcd_Write_String
     _Lcd_Write_Char
   _setup

 _ISR (ROOT)
   _CONTADOR
   _itoa
     _utoa
       ___lwdiv
       ___lwmod

 Address spaces:
Name               Size   Autos  Total    Cost      Usage
BITCOMMON            E      0       0       0        0.0%
EEDATA             100      0       0       0        0.0%
NULL                 0      0       0       0        0.0%
CODE                 0      0       0       0        0.0%
COMMON               E      E       E       1      100.0%
BITSFR0              0      0       0       1        0.0%
SFR0                 0      0       0       1        0.0%
BITSFR1              0      0       0       2        0.0%
SFR1                 0      0       0       2        0.0%
STACK                0      0       0       2        0.0%
ABS                  0      0      2C       3        0.0%
BITBANK0            50      0       0       4        0.0%
BITSFR3              0      0       0       4        0.0%
SFR3                 0      0       0       4        0.0%
BANK0               50     14      1E       5       37.5%
BITSFR2              0      0       0       5        0.0%
SFR2                 0      0       0       5        0.0%
BITBANK1            50      0       0       6        0.0%
BANK1               50      0       0       7        0.0%
BITBANK3            60      0       0       8        0.0%
BANK3               60      0       0       9        0.0%
BITBANK2            60      0       0      10        0.0%
BANK2               60      0       0      11        0.0%
DATA                 0      0      2C      12        0.0%


Microchip Technology PIC Macro Assembler V2.31 build 20201012212115 
Symbol Table                                                                                   Mon Feb 22 17:15:58 2021

                        _O 0036                          pc 0002                         l63 024E  
                       l57 026B                         l90 0230                         l78 015E  
                       l95 011B                         fsr 0004                        l101 0211  
                      _RE0 0048                        _RE1 0049                        _RE2 004A  
                      u400 00F9                        u401 00F8                        u450 0211  
                      u507 0100                        u451 0210                        _ISR 0199  
                      u517 0113                        u390 013C                        u391 013B  
                      u527 012E                        u537 0143                        u547 0156  
                      u497 00EB                        fsr0 0004                        indf 0000  
                     ?_ISR 0070                       l1100 0108                       l1102 010A  
                     l1104 010B                       l1050 011F                       l1106 010C  
                     l1060 0128                       l1052 0121                       l1108 0118  
                     l1070 014B                       l1062 0133                       l1054 0125  
                     l1072 014D                       l1064 013C                       l1056 0126  
                     l1080 00DC                       l1160 0235                       l1074 014E  
                     l1066 013D                       l1058 0127                       l1090 00E5  
                     l1082 00DE                       l1170 024C                       l1162 0236  
                     l1076 014F                       l1068 0148                       l1092 00F0  
                     l1084 00E2                       l1180 01FF                       l1172 024D  
                     l1164 0244                       l1078 015B                       l1174 0212  
                     l1094 00F9                       l1086 00E3                       l1182 0205  
                     l1166 024A                       l1158 0231                       l1096 00FA  
                     l1088 00E4                       l1176 01F2                       l1168 024B  
                     l1192 0266                       l1098 0105                       l1178 01F3  
                     l1194 0270                       STR_1 0255                       i1l52 01C0  
                     _RCIF 0065                       _TRMT 04C1          ?_Lcd_Write_String 0070  
                     _main 0266                       _itoa 01C9                       btemp 007E  
                     _utoa 0023                       start 0010         ??_Lcd_Write_String 0032  
          __end_of_Lcd_Cmd 015F           __end_of_CONTADOR 0285                      ??_ISR 002A  
                    ?_main 0070                      ?_itoa 0024                      _ANSEL 0188  
                    ?_utoa 0078            __end_of___lwdiv 00D9                      i1l132 0284  
          __end_of___lwmod 0199                      i1l508 00D8                      i1l518 0198  
                    i1l690 01EE                      i1l696 007D                      i1l698 0094  
                    _RCREG 001A                      u30_20 00C0                      u30_21 00BF  
                    u30_25 00BC                      u31_25 00C8                      u32_20 00D4  
                    u32_21 00D3                      u33_20 0165                      u41_20 0047  
                    u33_21 0164                      u41_21 0046                      u26_20 009D  
                    u42_20 0079                      u26_21 009C                      u42_21 0078  
                    _SPBRG 0099                      u34_25 0169                      u35_20 0177  
                    u43_20 0090                      u35_21 0176                      u43_21 008F  
                    _PORTA 0005                      _PORTB 0006                      _PORTC 0007  
                    _PORTD 0008                      u27_25 00A1                      _PORTE 0009  
                    u28_20 00AF                      u36_20 0181                      u44_20 01D0  
                    u28_21 00AE                      u36_21 0180                      u44_21 01CF  
                    u36_25 017D                      u29_25 00B0                      u37_25 0188  
                    u38_20 0194                      u46_20 019D                      u38_21 0193  
                    u46_21 019C                      _TRISA 0085                      _TRISB 0086  
                    _TRISD 0088                      _TRISE 0089                      _TXREG 0019  
                    _setup 0231                      pclath 000A                      utoa@c 0022  
                    utoa@v 0020                      status 0003                      wtemp0 007E  
         __end_of_Lcd_Init 0231            __initialization 0013               __end_of_main 027A  
             __end_of_itoa 01EF               __end_of_utoa 0095                     ??_main 0034  
                   ??_itoa 007D                     ??_utoa 007C                     ?_setup 0070  
                   _ANSELH 0189                _Destination 0034                     i1l1010 00A7  
                   i1l1002 0095                     i1l1020 00C7                     i1l1012 00AB  
                   i1l1004 0097                     i1l1022 00CE                     i1l1014 00AF  
                   i1l1006 009D                     i1l1030 0165                     i1l1110 0026  
                   i1l1016 00C0                     i1l1008 00A0                     i1l1024 00D4  
                   i1l1040 0181                     i1l1032 0168                     i1l1120 004B  
                   i1l1112 002A                     i1l1018 00C6                     i1l1042 0187  
                   i1l1034 016F                     i1l1130 0081                     i1l1122 004D  
                   i1l1114 003D                     i1l1140 027A                     i1l1044 018E  
                   i1l1036 0173                     i1l1028 015F                     i1l1132 0088  
                   i1l1124 0060                     i1l1116 0041                     i1l1038 0177  
                   i1l1046 0194                     i1l1134 008A                     i1l1126 0071  
                   i1l1118 0047                     i1l1150 01D7                     i1l1136 0090  
                   i1l1128 0079                     i1l1152 01DB                     i1l1144 01CC  
                   i1l1154 01E0                     i1l1146 01CC                     i1l1148 01D0  
                   i1l1190 01BD                     i1l1184 0199                     i1l1186 019D  
                   i1l1188 01AF                  ??_Lcd_Cmd 002F    __size_of_Lcd_Write_Char 0043  
                ??___lwdiv 0074                  ??___lwmod 0074                  CONTADOR@n 0070  
                   saved_w 007E                  ?_CONTADOR 0070    __end_of__initialization 001F  
           __pcstackCOMMON 0070              __end_of_setup 024F                  ?_Lcd_Init 0070  
                  ??_setup 002F                 ??_CONTADOR 0072                 __pbssBANK0 0034  
               __pmaintext 0266                 __pintentry 0004  __size_of_Lcd_Write_String 0023  
                  _COMPARE 0039                 ??_Lcd_Init 0032                 __stringtab 024F  
           _Lcd_Write_Char 00D9                    _Lcd_Cmd 011C                    ___lwdiv 0095  
                  ___lwmod 015F                    __ptext1 0231                    __ptext2 01EF  
                  __ptext3 00D9                    __ptext4 0212                    __ptext5 011C  
                  __ptext6 0199                    __ptext7 01C9                    __ptext8 0023  
                  __ptext9 015F               __size_of_ISR 0030     __end_of_Lcd_Write_Char 011C  
     end_of_initialization 001F                    itoa@buf 0029                    itoa@val 0024  
                _RCSTAbits 0018                    utoa@buf 0023                    utoa@val 0078  
          ?_Lcd_Write_Char 0070          Lcd_Write_String@a 0033          __size_of_CONTADOR 000B  
                _TXSTAbits 0098           _Lcd_Write_String 01EF        start_initialization 0013  
              __end_of_ISR 01C9          __size_of_Lcd_Init 001F            Lcd_Write_Char@a 0031  
                ___latbits 0002              __pcstackBANK0 0020                   ?_Lcd_Cmd 0070  
         ___lwdiv@dividend 0072                   ?___lwdiv 0070                   ?___lwmod 0070  
                __pstrings 024F           ___lwdiv@quotient 0075                   _CONTADOR 027A  
           __size_of_setup 001E          interrupt_function 0004                   _PIE1bits 008C  
                 Lcd_Cmd@a 0031                __stringbase 0254           ??_Lcd_Write_Char 002F  
                 _Lcd_Init 0212                   _Contador 0038   __end_of_Lcd_Write_String 0212  
         __size_of_Lcd_Cmd 0043           __size_of___lwdiv 0044           __size_of___lwmod 003A  
       __end_of__stringtab 0255            ___lwdiv@divisor 0070            ___lwdiv@counter 0077  
                 __ptext10 0095                   __ptext11 027A              __size_of_main 0014  
            __size_of_itoa 0026              __size_of_utoa 0072                 _INTCONbits 000B  
                 itoa@base 0026                   intlevel1 0000           ___lwmod@dividend 0072  
                stringcode 024F                 _OSCCONbits 008F                   utoa@base 007A  
          ___lwmod@divisor 0070            ___lwmod@counter 0075                   stringdir 024F  
                 stringtab 024F  
