

Microchip MPLAB XC8 Assembler V2.31 build 20201012212115 
                                                                                               Tue Feb 09 16:11:21 2021

Microchip MPLAB XC8 C Compiler v2.31 (Free license) build 20201012212115 Og1 
     1                           	processor	16F887
     2                           	pagewidth 120
     3                           	opt	flic
     4                           	psect	strings,global,class=STRING,delta=2,noexec
     5                           	psect	cinit,global,class=CODE,merge=1,delta=2
     6                           	psect	bssBANK0,global,class=BANK0,space=1,delta=1,noexec
     7                           	psect	bssBANK1,global,class=BANK1,space=1,delta=1,noexec
     8                           	psect	bssBANK3,global,class=BANK3,space=1,delta=1,noexec
     9                           	psect	clrtext,global,class=CODE,delta=2
    10                           	psect	cstackBANK3,global,class=BANK3,space=1,delta=1,noexec
    11                           	psect	cstackBANK1,global,class=BANK1,space=1,delta=1,noexec
    12                           	psect	cstackCOMMON,global,class=COMMON,space=1,delta=1,noexec
    13                           	psect	cstackBANK0,global,class=BANK0,space=1,delta=1,noexec
    14                           	psect	maintext,global,class=CODE,split=1,delta=2
    15                           	psect	text1,local,class=CODE,merge=1,delta=2,group=2
    16                           	psect	text2,local,class=CODE,merge=1,delta=2,group=2
    17                           	psect	text3,local,class=CODE,merge=1,delta=2
    18                           	psect	text4,local,class=CODE,merge=1,delta=2,group=2
    19                           	psect	text5,local,class=CODE,merge=1,delta=2,group=2
    20                           	psect	text6,local,class=CODE,merge=1,delta=2,group=1
    21                           	psect	text7,local,class=CODE,merge=1,delta=2,group=1
    22                           	psect	text8,local,class=CODE,merge=1,delta=2,group=1
    23                           	psect	text9,local,class=CODE,merge=1,delta=2,group=1
    24                           	psect	text10,local,class=CODE,merge=1,delta=2,group=1
    25                           	psect	text11,local,class=CODE,merge=1,delta=2,group=1
    26                           	psect	text12,local,class=CODE,merge=1,delta=2,group=1
    27                           	psect	text13,local,class=CODE,merge=1,delta=2,group=1
    28                           	psect	text14,local,class=CODE,merge=1,delta=2,group=1
    29                           	psect	text15,local,class=CODE,merge=1,delta=2
    30                           	psect	text16,local,class=CODE,merge=1,delta=2
    31                           	psect	text17,local,class=CODE,merge=1,delta=2
    32                           	psect	text18,local,class=CODE,merge=1,delta=2
    33                           	psect	text19,local,class=CODE,merge=1,delta=2
    34                           	psect	text20,local,class=CODE,merge=1,delta=2
    35                           	psect	text21,local,class=CODE,merge=1,delta=2
    36                           	psect	text22,local,class=CODE,merge=1,delta=2
    37                           	psect	intentry,global,class=CODE,delta=2
    38                           	psect	text23,local,class=CODE,merge=1,delta=2
    39                           	psect	text24,local,class=CODE,merge=1,delta=2
    40                           	psect	text25,local,class=CODE,merge=1,delta=2
    41                           	psect	text26,local,class=CODE,merge=1,delta=2
    42                           	psect	text27,local,class=CODE,merge=1,delta=2
    43                           	psect	config,global,abs,ovrld,class=CONFIG,space=4,delta=2,noexec
    44                           	dabs	1,0x7E,2
    45  0000                     
    46                           ; Version 2.20
    47                           ; Generated 12/02/2020 GMT
    48                           ; 
    49                           ; Copyright © 2020, Microchip Technology Inc. and its subsidiaries ("Microchip")
    50                           ; All rights reserved.
    51                           ; 
    52                           ; This software is developed by Microchip Technology Inc. and its subsidiaries ("Microch
      +                          ip").
    53                           ; 
    54                           ; Redistribution and use in source and binary forms, with or without modification, are
    55                           ; permitted provided that the following conditions are met:
    56                           ; 
    57                           ;     1. Redistributions of source code must retain the above copyright notice, this lis
      +                          t of
    58                           ;        conditions and the following disclaimer.
    59                           ; 
    60                           ;     2. Redistributions in binary form must reproduce the above copyright notice, this 
      +                          list
    61                           ;        of conditions and the following disclaimer in the documentation and/or other
    62                           ;        materials provided with the distribution.
    63                           ; 
    64                           ;     3. Microchip's name may not be used to endorse or promote products derived from th
      +                          is
    65                           ;        software without specific prior written permission.
    66                           ; 
    67                           ; THIS SOFTWARE IS PROVIDED BY MICROCHIP "AS IS" AND ANY EXPRESS OR IMPLIED WARRANTIES,
    68                           ; INCLUDING, BUT NOT LIMITED TO, THE IMPLIED WARRANTIES OF MERCHANTABILITY AND FITNESS F
      +                          OR
    69                           ; PURPOSE ARE DISCLAIMED.  IN NO EVENT SHALL MICROCHIP BE LIABLE FOR ANY DIRECT, INDIREC
      +                          T,
    70                           ; INCIDENTAL, SPECIAL, EXEMPLARY, OR CONSEQUENTIAL DAMAGES (INCLUDING BUT NOT LIMITED TO
    71                           ; PROCUREMENT OF SUBSTITUTE GOODS OR SERVICES; LOSS OF USE, DATA OR PROFITS; OR BUSINESS
    72                           ; INTERRUPTION) HOWSOEVER CAUSED AND ON ANY THEORY OF LIABILITY, WHETHER IN CONTRACT, ST
      +                          RICT
    73                           ; LIABILITY, OR TORT (INCLUDING NEGLIGENCE OR OTHERWISE) ARISING IN ANY WAY OUT OF THE U
      +                          SE OF
    74                           ; THIS SOFTWARE, EVEN IF ADVISED OF THE POSSIBILITY OF SUCH DAMAGE.
    75                           ; 
    76                           ; 
    77                           ; Code-generator required, PIC16F887 Definitions
    78                           ; 
    79                           ; SFR Addresses
    80  0000                     	;# 
    81  0001                     	;# 
    82  0002                     	;# 
    83  0003                     	;# 
    84  0004                     	;# 
    85  0005                     	;# 
    86  0006                     	;# 
    87  0007                     	;# 
    88  0008                     	;# 
    89  0009                     	;# 
    90  000A                     	;# 
    91  000B                     	;# 
    92  000C                     	;# 
    93  000D                     	;# 
    94  000E                     	;# 
    95  000E                     	;# 
    96  000F                     	;# 
    97  0010                     	;# 
    98  0011                     	;# 
    99  0012                     	;# 
   100  0013                     	;# 
   101  0014                     	;# 
   102  0015                     	;# 
   103  0015                     	;# 
   104  0016                     	;# 
   105  0017                     	;# 
   106  0018                     	;# 
   107  0019                     	;# 
   108  001A                     	;# 
   109  001B                     	;# 
   110  001B                     	;# 
   111  001C                     	;# 
   112  001D                     	;# 
   113  001E                     	;# 
   114  001F                     	;# 
   115  0081                     	;# 
   116  0085                     	;# 
   117  0086                     	;# 
   118  0087                     	;# 
   119  0088                     	;# 
   120  0089                     	;# 
   121  008C                     	;# 
   122  008D                     	;# 
   123  008E                     	;# 
   124  008F                     	;# 
   125  0090                     	;# 
   126  0091                     	;# 
   127  0092                     	;# 
   128  0093                     	;# 
   129  0093                     	;# 
   130  0093                     	;# 
   131  0094                     	;# 
   132  0095                     	;# 
   133  0096                     	;# 
   134  0097                     	;# 
   135  0098                     	;# 
   136  0099                     	;# 
   137  009A                     	;# 
   138  009B                     	;# 
   139  009C                     	;# 
   140  009D                     	;# 
   141  009E                     	;# 
   142  009F                     	;# 
   143  0105                     	;# 
   144  0107                     	;# 
   145  0108                     	;# 
   146  0109                     	;# 
   147  010C                     	;# 
   148  010C                     	;# 
   149  010D                     	;# 
   150  010E                     	;# 
   151  010F                     	;# 
   152  0185                     	;# 
   153  0187                     	;# 
   154  0188                     	;# 
   155  0189                     	;# 
   156  018C                     	;# 
   157  018D                     	;# 
   158  0000                     	;# 
   159  0001                     	;# 
   160  0002                     	;# 
   161  0003                     	;# 
   162  0004                     	;# 
   163  0005                     	;# 
   164  0006                     	;# 
   165  0007                     	;# 
   166  0008                     	;# 
   167  0009                     	;# 
   168  000A                     	;# 
   169  000B                     	;# 
   170  000C                     	;# 
   171  000D                     	;# 
   172  000E                     	;# 
   173  000E                     	;# 
   174  000F                     	;# 
   175  0010                     	;# 
   176  0011                     	;# 
   177  0012                     	;# 
   178  0013                     	;# 
   179  0014                     	;# 
   180  0015                     	;# 
   181  0015                     	;# 
   182  0016                     	;# 
   183  0017                     	;# 
   184  0018                     	;# 
   185  0019                     	;# 
   186  001A                     	;# 
   187  001B                     	;# 
   188  001B                     	;# 
   189  001C                     	;# 
   190  001D                     	;# 
   191  001E                     	;# 
   192  001F                     	;# 
   193  0081                     	;# 
   194  0085                     	;# 
   195  0086                     	;# 
   196  0087                     	;# 
   197  0088                     	;# 
   198  0089                     	;# 
   199  008C                     	;# 
   200  008D                     	;# 
   201  008E                     	;# 
   202  008F                     	;# 
   203  0090                     	;# 
   204  0091                     	;# 
   205  0092                     	;# 
   206  0093                     	;# 
   207  0093                     	;# 
   208  0093                     	;# 
   209  0094                     	;# 
   210  0095                     	;# 
   211  0096                     	;# 
   212  0097                     	;# 
   213  0098                     	;# 
   214  0099                     	;# 
   215  009A                     	;# 
   216  009B                     	;# 
   217  009C                     	;# 
   218  009D                     	;# 
   219  009E                     	;# 
   220  009F                     	;# 
   221  0105                     	;# 
   222  0107                     	;# 
   223  0108                     	;# 
   224  0109                     	;# 
   225  010C                     	;# 
   226  010C                     	;# 
   227  010D                     	;# 
   228  010E                     	;# 
   229  010F                     	;# 
   230  0185                     	;# 
   231  0187                     	;# 
   232  0188                     	;# 
   233  0189                     	;# 
   234  018C                     	;# 
   235  018D                     	;# 
   236  0000                     	;# 
   237  0001                     	;# 
   238  0002                     	;# 
   239  0003                     	;# 
   240  0004                     	;# 
   241  0005                     	;# 
   242  0006                     	;# 
   243  0007                     	;# 
   244  0008                     	;# 
   245  0009                     	;# 
   246  000A                     	;# 
   247  000B                     	;# 
   248  000C                     	;# 
   249  000D                     	;# 
   250  000E                     	;# 
   251  000E                     	;# 
   252  000F                     	;# 
   253  0010                     	;# 
   254  0011                     	;# 
   255  0012                     	;# 
   256  0013                     	;# 
   257  0014                     	;# 
   258  0015                     	;# 
   259  0015                     	;# 
   260  0016                     	;# 
   261  0017                     	;# 
   262  0018                     	;# 
   263  0019                     	;# 
   264  001A                     	;# 
   265  001B                     	;# 
   266  001B                     	;# 
   267  001C                     	;# 
   268  001D                     	;# 
   269  001E                     	;# 
   270  001F                     	;# 
   271  0081                     	;# 
   272  0085                     	;# 
   273  0086                     	;# 
   274  0087                     	;# 
   275  0088                     	;# 
   276  0089                     	;# 
   277  008C                     	;# 
   278  008D                     	;# 
   279  008E                     	;# 
   280  008F                     	;# 
   281  0090                     	;# 
   282  0091                     	;# 
   283  0092                     	;# 
   284  0093                     	;# 
   285  0093                     	;# 
   286  0093                     	;# 
   287  0094                     	;# 
   288  0095                     	;# 
   289  0096                     	;# 
   290  0097                     	;# 
   291  0098                     	;# 
   292  0099                     	;# 
   293  009A                     	;# 
   294  009B                     	;# 
   295  009C                     	;# 
   296  009D                     	;# 
   297  009E                     	;# 
   298  009F                     	;# 
   299  0105                     	;# 
   300  0107                     	;# 
   301  0108                     	;# 
   302  0109                     	;# 
   303  010C                     	;# 
   304  010C                     	;# 
   305  010D                     	;# 
   306  010E                     	;# 
   307  010F                     	;# 
   308  0185                     	;# 
   309  0187                     	;# 
   310  0188                     	;# 
   311  0189                     	;# 
   312  018C                     	;# 
   313  018D                     	;# 
   314  0000                     	;# 
   315  0001                     	;# 
   316  0002                     	;# 
   317  0003                     	;# 
   318  0004                     	;# 
   319  0005                     	;# 
   320  0006                     	;# 
   321  0007                     	;# 
   322  0008                     	;# 
   323  0009                     	;# 
   324  000A                     	;# 
   325  000B                     	;# 
   326  000C                     	;# 
   327  000D                     	;# 
   328  000E                     	;# 
   329  000E                     	;# 
   330  000F                     	;# 
   331  0010                     	;# 
   332  0011                     	;# 
   333  0012                     	;# 
   334  0013                     	;# 
   335  0014                     	;# 
   336  0015                     	;# 
   337  0015                     	;# 
   338  0016                     	;# 
   339  0017                     	;# 
   340  0018                     	;# 
   341  0019                     	;# 
   342  001A                     	;# 
   343  001B                     	;# 
   344  001B                     	;# 
   345  001C                     	;# 
   346  001D                     	;# 
   347  001E                     	;# 
   348  001F                     	;# 
   349  0081                     	;# 
   350  0085                     	;# 
   351  0086                     	;# 
   352  0087                     	;# 
   353  0088                     	;# 
   354  0089                     	;# 
   355  008C                     	;# 
   356  008D                     	;# 
   357  008E                     	;# 
   358  008F                     	;# 
   359  0090                     	;# 
   360  0091                     	;# 
   361  0092                     	;# 
   362  0093                     	;# 
   363  0093                     	;# 
   364  0093                     	;# 
   365  0094                     	;# 
   366  0095                     	;# 
   367  0096                     	;# 
   368  0097                     	;# 
   369  0098                     	;# 
   370  0099                     	;# 
   371  009A                     	;# 
   372  009B                     	;# 
   373  009C                     	;# 
   374  009D                     	;# 
   375  009E                     	;# 
   376  009F                     	;# 
   377  0105                     	;# 
   378  0107                     	;# 
   379  0108                     	;# 
   380  0109                     	;# 
   381  010C                     	;# 
   382  010C                     	;# 
   383  010D                     	;# 
   384  010E                     	;# 
   385  010F                     	;# 
   386  0185                     	;# 
   387  0187                     	;# 
   388  0188                     	;# 
   389  0189                     	;# 
   390  018C                     	;# 
   391  018D                     	;# 
   392  0000                     	;# 
   393  0001                     	;# 
   394  0002                     	;# 
   395  0003                     	;# 
   396  0004                     	;# 
   397  0005                     	;# 
   398  0006                     	;# 
   399  0007                     	;# 
   400  0008                     	;# 
   401  0009                     	;# 
   402  000A                     	;# 
   403  000B                     	;# 
   404  000C                     	;# 
   405  000D                     	;# 
   406  000E                     	;# 
   407  000E                     	;# 
   408  000F                     	;# 
   409  0010                     	;# 
   410  0011                     	;# 
   411  0012                     	;# 
   412  0013                     	;# 
   413  0014                     	;# 
   414  0015                     	;# 
   415  0015                     	;# 
   416  0016                     	;# 
   417  0017                     	;# 
   418  0018                     	;# 
   419  0019                     	;# 
   420  001A                     	;# 
   421  001B                     	;# 
   422  001B                     	;# 
   423  001C                     	;# 
   424  001D                     	;# 
   425  001E                     	;# 
   426  001F                     	;# 
   427  0081                     	;# 
   428  0085                     	;# 
   429  0086                     	;# 
   430  0087                     	;# 
   431  0088                     	;# 
   432  0089                     	;# 
   433  008C                     	;# 
   434  008D                     	;# 
   435  008E                     	;# 
   436  008F                     	;# 
   437  0090                     	;# 
   438  0091                     	;# 
   439  0092                     	;# 
   440  0093                     	;# 
   441  0093                     	;# 
   442  0093                     	;# 
   443  0094                     	;# 
   444  0095                     	;# 
   445  0096                     	;# 
   446  0097                     	;# 
   447  0098                     	;# 
   448  0099                     	;# 
   449  009A                     	;# 
   450  009B                     	;# 
   451  009C                     	;# 
   452  009D                     	;# 
   453  009E                     	;# 
   454  009F                     	;# 
   455  0105                     	;# 
   456  0107                     	;# 
   457  0108                     	;# 
   458  0109                     	;# 
   459  010C                     	;# 
   460  010C                     	;# 
   461  010D                     	;# 
   462  010E                     	;# 
   463  010F                     	;# 
   464  0185                     	;# 
   465  0187                     	;# 
   466  0188                     	;# 
   467  0189                     	;# 
   468  018C                     	;# 
   469  018D                     	;# 
   470  0019                     _TXREG	set	25
   471  000B                     _INTCONbits	set	11
   472  0018                     _RCSTAbits	set	24
   473  001E                     _ADRESH	set	30
   474  000C                     _PIR1bits	set	12
   475  001F                     _ADCON0bits	set	31
   476  0009                     _PORTE	set	9
   477  0008                     _PORTD	set	8
   478  0007                     _PORTC	set	7
   479  0006                     _PORTB	set	6
   480  0005                     _PORTA	set	5
   481  001A                     _RCREG	set	26
   482  004A                     _RE2	set	74
   483  0049                     _RE1	set	73
   484  0048                     _RE0	set	72
   485  0065                     _RCIF	set	101
   486  008C                     _PIE1bits	set	140
   487  0098                     _TXSTAbits	set	152
   488  0099                     _SPBRG	set	153
   489  009F                     _ADCON1bits	set	159
   490  008F                     _OSCCONbits	set	143
   491  0089                     _TRISE	set	137
   492  0088                     _TRISD	set	136
   493  0086                     _TRISB	set	134
   494  0085                     _TRISA	set	133
   495  04C1                     _TRMT	set	1217
   496  0189                     _ANSELH	set	393
   497  0188                     _ANSEL	set	392
   498                           
   499                           	psect	strings
   500  1000                     __pstrings:
   501  1000                     stringtab:
   502  1000                     __stringtab:
   503                           
   504                           ;	String table - string pointers are 1 byte each
   505  1000  1BFF               	btfsc	btemp+1,7
   506  1001  280A               	ljmp	stringcode
   507  1002  1383               	bcf	3,7
   508  1003  187F               	btfsc	btemp+1,0
   509  1004  1783               	bsf	3,7
   510  1005  0800               	movf	0,w
   511  1006  0A84               	incf	4,f
   512  1007  1903               	skipnz
   513  1008  0AFF               	incf	btemp+1,f
   514  1009  0008               	return
   515  100A                     stringcode:
   516  100A                     stringdir:
   517  100A  3010               	movlw	high stringdir
   518  100B  008A               	movwf	10
   519  100C  0804               	movf	4,w
   520  100D  0A84               	incf	4,f
   521  100E  0782               	addwf	2,f
   522  100F                     __stringbase:
   523  100F  3400               	retlw	0
   524  1010                     __end_of__stringtab:
   525  1010                     STR_1:
   526  1010  3453               	retlw	83	;'S'
   527  1011  3431               	retlw	49	;'1'
   528  1012  3420               	retlw	32	;' '
   529  1013  3420               	retlw	32	;' '
   530  1014  3420               	retlw	32	;' '
   531  1015  3420               	retlw	32	;' '
   532  1016  3453               	retlw	83	;'S'
   533  1017  3432               	retlw	50	;'2'
   534  1018  3420               	retlw	32	;' '
   535  1019  3420               	retlw	32	;' '
   536  101A  3420               	retlw	32	;' '
   537  101B  3420               	retlw	32	;' '
   538  101C  3453               	retlw	83	;'S'
   539  101D  3433               	retlw	51	;'3'
   540  101E  3420               	retlw	32	;' '
   541  101F  3420               	retlw	32	;' '
   542  1020  3400               	retlw	0
   543  1021                     STR_2:
   544  1021  342E               	retlw	46	;'.'
   545  1022  3400               	retlw	0
   546  101F                     
   547                           	psect	cinit
   548  0013                     start_initialization:	
   549                           ; #config settings
   550                           
   551  0013                     __initialization:
   552                           
   553                           ; Clear objects allocated to BANK0
   554  0013  1383               	bcf	3,7	;select IRP bank0
   555  0014  304D               	movlw	low __pbssBANK0
   556  0015  0084               	movwf	4
   557  0016  305D               	movlw	low (__pbssBANK0+16)
   558  0017  120A  158A  2001  120A  118A  	fcall	clear_ram0
   559                           
   560                           ; Clear objects allocated to BANK1
   561  001C  30A0               	movlw	low __pbssBANK1
   562  001D  0084               	movwf	4
   563  001E  30D6               	movlw	low (__pbssBANK1+54)
   564  001F  120A  158A  2001  120A  118A  	fcall	clear_ram0
   565                           
   566                           ; Clear objects allocated to BANK3
   567  0024  1683               	bsf	3,5	;RP0=1, select bank3
   568  0025  1703               	bsf	3,6	;RP1=1, select bank3
   569  0026  01A1               	clrf	__pbssBANK3& (0+127)
   570  0027  01A2               	clrf	(__pbssBANK3+1)& (0+127)
   571  0028  01A3               	clrf	(__pbssBANK3+2)& (0+127)
   572  0029  01A4               	clrf	(__pbssBANK3+3)& (0+127)
   573  002A  01A5               	clrf	(__pbssBANK3+4)& (0+127)
   574  002B                     end_of_initialization:	
   575                           ;End of C runtime variable initialization code
   576                           
   577  002B                     __end_of__initialization:
   578  002B  0183               	clrf	3
   579  002C  120A  158A  2C3A   	ljmp	_main	;jump to C main() function
   580                           
   581                           	psect	bssBANK0
   582  004D                     __pbssBANK0:
   583  004D                     _V2:
   584  004D                     	ds	2
   585  004F                     _POT1C:
   586  004F                     	ds	2
   587  0051                     _POT1B:
   588  0051                     	ds	2
   589  0053                     _POT1A:
   590  0053                     	ds	2
   591  0055                     _V1:
   592  0055                     	ds	2
   593  0057                     _Destination:
   594  0057                     	ds	2
   595  0059                     _O:
   596  0059                     	ds	2
   597  005B                     _Contador:
   598  005B                     	ds	1
   599  005C                     _adc:
   600  005C                     	ds	1
   601                           
   602                           	psect	bssBANK1
   603  00A0                     __pbssBANK1:
   604  00A0                     _voltaje2:
   605  00A0                     	ds	4
   606  00A4                     _voltaje:
   607  00A4                     	ds	4
   608  00A8                     _POT2C:
   609  00A8                     	ds	2
   610  00AA                     _POT2B:
   611  00AA                     	ds	2
   612  00AC                     _POT2A:
   613  00AC                     	ds	2
   614  00AE                     _PUNTO2:
   615  00AE                     	ds	5
   616  00B3                     _POT2SC:
   617  00B3                     	ds	5
   618  00B8                     _POT2SB:
   619  00B8                     	ds	5
   620  00BD                     _POT2SA:
   621  00BD                     	ds	5
   622  00C2                     _PUNTO1:
   623  00C2                     	ds	5
   624  00C7                     _POT1SC:
   625  00C7                     	ds	5
   626  00CC                     _POT1SB:
   627  00CC                     	ds	5
   628  00D1                     _POT1SA:
   629  00D1                     	ds	5
   630                           
   631                           	psect	bssBANK3
   632  01A1                     __pbssBANK3:
   633  01A1                     _COMPARE:
   634  01A1                     	ds	5
   635                           
   636                           	psect	clrtext
   637  0801                     clear_ram0:	
   638                           ;	Called with FSR containing the base address, and
   639                           ;	W with the last address+1
   640                           
   641  0801  0064               	clrwdt	;clear the watchdog before getting into this loop
   642  0802                     clrloop0:
   643  0802  0180               	clrf	0	;clear RAM location pointed to by FSR
   644  0803  0A84               	incf	4,f	;increment pointer
   645  0804  0604               	xorwf	4,w	;XOR with final address
   646  0805  1903               	btfsc	3,2	;have we reached the end yet?
   647  0806  3400               	retlw	0	;all done for this memory range, return
   648  0807  0604               	xorwf	4,w	;XOR again to restore value
   649  0808  2802               	goto	clrloop0	;do the next byte
   650                           
   651                           	psect	cstackBANK3
   652  0190                     __pcstackBANK3:
   653  0190                     ___fldiv@rem:
   654                           
   655                           ; 4 bytes @ 0x0
   656  0190                     	ds	4
   657  0194                     ___fldiv@sign:
   658                           
   659                           ; 1 bytes @ 0x4
   660  0194                     	ds	1
   661  0195                     ___fldiv@new_exp:
   662                           
   663                           ; 2 bytes @ 0x5
   664  0195                     	ds	2
   665  0197                     ___fldiv@grs:
   666                           
   667                           ; 4 bytes @ 0x7
   668  0197                     	ds	4
   669  019B                     ___fldiv@bexp:
   670                           
   671                           ; 1 bytes @ 0xB
   672  019B                     	ds	1
   673  019C                     ___fldiv@aexp:
   674                           
   675                           ; 1 bytes @ 0xC
   676  019C                     	ds	1
   677  019D                     ??_main:
   678                           
   679                           ; 1 bytes @ 0xD
   680  019D                     	ds	4
   681                           
   682                           	psect	cstackBANK1
   683  00D6                     __pcstackBANK1:
   684  00D6                     ___flmul@sign:
   685                           
   686                           ; 1 bytes @ 0x0
   687  00D6                     	ds	1
   688  00D7                     ___flmul@aexp:
   689                           
   690                           ; 1 bytes @ 0x1
   691  00D7                     	ds	1
   692  00D8                     ___flmul@grs:
   693                           
   694                           ; 4 bytes @ 0x2
   695  00D8                     	ds	4
   696  00DC                     ___flmul@bexp:
   697                           
   698                           ; 1 bytes @ 0x6
   699  00DC                     	ds	1
   700  00DD                     ___flmul@prod:
   701                           
   702                           ; 4 bytes @ 0x7
   703  00DD                     	ds	4
   704  00E1                     ___flmul@temp:
   705                           
   706                           ; 2 bytes @ 0xB
   707  00E1                     	ds	2
   708  00E3                     ?___fltol:
   709  00E3                     ?___fldiv:	
   710                           ; 4 bytes @ 0xD
   711                           
   712  00E3                     ___fltol@f1:	
   713                           ; 4 bytes @ 0xD
   714                           
   715  00E3                     ___fldiv@a:	
   716                           ; 4 bytes @ 0xD
   717                           
   718                           
   719                           ; 4 bytes @ 0xD
   720  00E3                     	ds	4
   721  00E7                     ??___fltol:
   722  00E7                     ___fldiv@b:	
   723                           ; 1 bytes @ 0x11
   724                           
   725                           
   726                           ; 4 bytes @ 0x11
   727  00E7                     	ds	4
   728  00EB                     ??___fldiv:
   729                           
   730                           ; 1 bytes @ 0x15
   731  00EB                     	ds	1
   732  00EC                     ___fltol@sign1:
   733                           
   734                           ; 1 bytes @ 0x16
   735  00EC                     	ds	1
   736  00ED                     ___fltol@exp1:
   737                           
   738                           ; 1 bytes @ 0x17
   739  00ED                     	ds	3
   740                           
   741                           	psect	cstackCOMMON
   742  0070                     __pcstackCOMMON:
   743  0070                     ?_setup:
   744  0070                     ?_Lcd_Init:	
   745                           ; 1 bytes @ 0x0
   746                           
   747  0070                     ?_SERIAL_Init:	
   748                           ; 1 bytes @ 0x0
   749                           
   750  0070                     ?_ADC_Init:	
   751                           ; 1 bytes @ 0x0
   752                           
   753  0070                     ?_Lcd_Cmd:	
   754                           ; 1 bytes @ 0x0
   755                           
   756  0070                     ?_ISR:	
   757                           ; 1 bytes @ 0x0
   758                           
   759  0070                     ?_main:	
   760                           ; 1 bytes @ 0x0
   761                           
   762  0070                     ?_Lcd_Write_Char:	
   763                           ; 1 bytes @ 0x0
   764                           
   765  0070                     ?_CONTADOR:	
   766                           ; 1 bytes @ 0x0
   767                           
   768  0070                     ?i1___lwdiv:	
   769                           ; 2 bytes @ 0x0
   770                           
   771  0070                     ?i1___lwmod:	
   772                           ; 2 bytes @ 0x0
   773                           
   774  0070                     CONTADOR@n:	
   775                           ; 2 bytes @ 0x0
   776                           
   777  0070                     i1___lwdiv@divisor:	
   778                           ; 2 bytes @ 0x0
   779                           
   780  0070                     i1___lwmod@divisor:	
   781                           ; 2 bytes @ 0x0
   782                           
   783                           
   784                           ; 2 bytes @ 0x0
   785  0070                     	ds	2
   786  0072                     ??_CONTADOR:
   787  0072                     i1___lwdiv@dividend:	
   788                           ; 1 bytes @ 0x2
   789                           
   790  0072                     i1___lwmod@dividend:	
   791                           ; 2 bytes @ 0x2
   792                           
   793                           
   794                           ; 2 bytes @ 0x2
   795  0072                     	ds	2
   796  0074                     ??i1___lwdiv:
   797  0074                     ??i1___lwmod:	
   798                           ; 1 bytes @ 0x4
   799                           
   800                           
   801                           ; 1 bytes @ 0x4
   802  0074                     	ds	1
   803  0075                     i1___lwmod@counter:
   804  0075                     i1___lwdiv@quotient:	
   805                           ; 1 bytes @ 0x5
   806                           
   807                           
   808                           ; 2 bytes @ 0x5
   809  0075                     	ds	2
   810  0077                     i1___lwdiv@counter:
   811                           
   812                           ; 1 bytes @ 0x7
   813  0077                     	ds	1
   814  0078                     ?i1_utoa:
   815  0078                     i1utoa@buf:	
   816                           ; 1 bytes @ 0x8
   817                           
   818                           
   819                           ; 2 bytes @ 0x8
   820  0078                     	ds	2
   821  007A                     i1utoa@val:
   822                           
   823                           ; 2 bytes @ 0xA
   824  007A                     	ds	2
   825  007C                     i1utoa@base:
   826                           
   827                           ; 2 bytes @ 0xC
   828  007C                     	ds	2
   829                           
   830                           	psect	cstackBANK0
   831  0020                     __pcstackBANK0:
   832  0020                     ??i1_utoa:
   833                           
   834                           ; 1 bytes @ 0x0
   835  0020                     	ds	1
   836  0021                     i1utoa@v:
   837                           
   838                           ; 2 bytes @ 0x1
   839  0021                     	ds	2
   840  0023                     i1utoa@c:
   841                           
   842                           ; 1 bytes @ 0x3
   843  0023                     	ds	1
   844  0024                     ?i1_itoa:
   845  0024                     i1itoa@buf:	
   846                           ; 1 bytes @ 0x4
   847                           
   848                           
   849                           ; 2 bytes @ 0x4
   850  0024                     	ds	2
   851  0026                     i1itoa@val:
   852                           
   853                           ; 2 bytes @ 0x6
   854  0026                     	ds	2
   855  0028                     i1itoa@base:
   856                           
   857                           ; 2 bytes @ 0x8
   858  0028                     	ds	2
   859  002A                     ??i1_itoa:
   860                           
   861                           ; 1 bytes @ 0xA
   862  002A                     	ds	3
   863  002D                     ??_ISR:
   864                           
   865                           ; 1 bytes @ 0xD
   866  002D                     	ds	5
   867  0032                     ??_setup:
   868  0032                     ??_SERIAL_Init:	
   869                           ; 1 bytes @ 0x12
   870                           
   871  0032                     ??_ADC_Init:	
   872                           ; 1 bytes @ 0x12
   873                           
   874  0032                     ?_ADC_Read:	
   875                           ; 1 bytes @ 0x12
   876                           
   877  0032                     ?_strcpy:	
   878                           ; 1 bytes @ 0x12
   879                           
   880  0032                     ?_strcat:	
   881                           ; 1 bytes @ 0x12
   882                           
   883  0032                     ??_Lcd_Cmd:	
   884                           ; 1 bytes @ 0x12
   885                           
   886  0032                     ??_Lcd_Write_Char:	
   887                           ; 1 bytes @ 0x12
   888                           
   889  0032                     ?__Umul8_16:	
   890                           ; 1 bytes @ 0x12
   891                           
   892  0032                     ?___awdiv:	
   893                           ; 2 bytes @ 0x12
   894                           
   895  0032                     ?___lwdiv:	
   896                           ; 2 bytes @ 0x12
   897                           
   898  0032                     ?___lwmod:	
   899                           ; 2 bytes @ 0x12
   900                           
   901  0032                     ?___xxtofl:	
   902                           ; 2 bytes @ 0x12
   903                           
   904  0032                     __Umul8_16@multiplicand:	
   905                           ; 4 bytes @ 0x12
   906                           
   907  0032                     strcat@from:	
   908                           ; 1 bytes @ 0x12
   909                           
   910  0032                     strcpy@from:	
   911                           ; 1 bytes @ 0x12
   912                           
   913  0032                     ADC_Read@a:	
   914                           ; 1 bytes @ 0x12
   915                           
   916  0032                     ___awdiv@divisor:	
   917                           ; 2 bytes @ 0x12
   918                           
   919  0032                     ___lwdiv@divisor:	
   920                           ; 2 bytes @ 0x12
   921                           
   922  0032                     ___lwmod@divisor:	
   923                           ; 2 bytes @ 0x12
   924                           
   925  0032                     ___xxtofl@val:	
   926                           ; 2 bytes @ 0x12
   927                           
   928                           
   929                           ; 4 bytes @ 0x12
   930  0032                     	ds	1
   931  0033                     ??_strcpy:
   932  0033                     ??_strcat:	
   933                           ; 1 bytes @ 0x13
   934                           
   935                           
   936                           ; 1 bytes @ 0x13
   937  0033                     	ds	1
   938  0034                     ??__Umul8_16:
   939  0034                     Lcd_Cmd@a:	
   940                           ; 1 bytes @ 0x14
   941                           
   942  0034                     Lcd_Write_Char@a:	
   943                           ; 1 bytes @ 0x14
   944                           
   945  0034                     strcat@cp:	
   946                           ; 1 bytes @ 0x14
   947                           
   948  0034                     strcpy@cp:	
   949                           ; 1 bytes @ 0x14
   950                           
   951  0034                     ADC_Read@b:	
   952                           ; 1 bytes @ 0x14
   953                           
   954  0034                     ___awdiv@dividend:	
   955                           ; 2 bytes @ 0x14
   956                           
   957  0034                     ___lwdiv@dividend:	
   958                           ; 2 bytes @ 0x14
   959                           
   960  0034                     ___lwmod@dividend:	
   961                           ; 2 bytes @ 0x14
   962                           
   963                           
   964                           ; 2 bytes @ 0x14
   965  0034                     	ds	1
   966  0035                     ??_Lcd_Init:
   967  0035                     ?_Lcd_Write_String:	
   968                           ; 1 bytes @ 0x15
   969                           
   970  0035                     strcat@to:	
   971                           ; 1 bytes @ 0x15
   972                           
   973  0035                     strcpy@to:	
   974                           ; 1 bytes @ 0x15
   975                           
   976  0035                     Lcd_Write_String@a:	
   977                           ; 1 bytes @ 0x15
   978                           
   979                           
   980                           ; 2 bytes @ 0x15
   981  0035                     	ds	1
   982  0036                     ??_ADC_Read:
   983  0036                     ??___awdiv:	
   984                           ; 1 bytes @ 0x16
   985                           
   986  0036                     ??___lwdiv:	
   987                           ; 1 bytes @ 0x16
   988                           
   989  0036                     ??___lwmod:	
   990                           ; 1 bytes @ 0x16
   991                           
   992  0036                     ??___xxtofl:	
   993                           ; 1 bytes @ 0x16
   994                           
   995  0036                     __Umul8_16@product:	
   996                           ; 1 bytes @ 0x16
   997                           
   998                           
   999                           ; 2 bytes @ 0x16
  1000  0036                     	ds	1
  1001  0037                     ??_Lcd_Write_String:
  1002  0037                     ___awdiv@counter:	
  1003                           ; 1 bytes @ 0x17
  1004                           
  1005  0037                     ___lwmod@counter:	
  1006                           ; 1 bytes @ 0x17
  1007                           
  1008  0037                     ___lwdiv@quotient:	
  1009                           ; 1 bytes @ 0x17
  1010                           
  1011                           
  1012                           ; 2 bytes @ 0x17
  1013  0037                     	ds	1
  1014  0038                     ___awdiv@sign:
  1015  0038                     __Umul8_16@word_mpld:	
  1016                           ; 1 bytes @ 0x18
  1017                           
  1018                           
  1019                           ; 2 bytes @ 0x18
  1020  0038                     	ds	1
  1021  0039                     ___lwdiv@counter:
  1022  0039                     ___awdiv@quotient:	
  1023                           ; 1 bytes @ 0x19
  1024                           
  1025                           
  1026                           ; 2 bytes @ 0x19
  1027  0039                     	ds	1
  1028  003A                     ?_utoa:
  1029  003A                     __Umul8_16@multiplier:	
  1030                           ; 2 bytes @ 0x1A
  1031                           
  1032  003A                     ___xxtofl@sign:	
  1033                           ; 1 bytes @ 0x1A
  1034                           
  1035  003A                     utoa@buf:	
  1036                           ; 1 bytes @ 0x1A
  1037                           
  1038                           
  1039                           ; 2 bytes @ 0x1A
  1040  003A                     	ds	1
  1041  003B                     ?___awmod:
  1042  003B                     ___xxtofl@exp:	
  1043                           ; 2 bytes @ 0x1B
  1044                           
  1045  003B                     ___awmod@divisor:	
  1046                           ; 1 bytes @ 0x1B
  1047                           
  1048                           
  1049                           ; 2 bytes @ 0x1B
  1050  003B                     	ds	1
  1051  003C                     utoa@val:
  1052  003C                     ___xxtofl@arg:	
  1053                           ; 2 bytes @ 0x1C
  1054                           
  1055                           
  1056                           ; 4 bytes @ 0x1C
  1057  003C                     	ds	1
  1058  003D                     ___awmod@dividend:
  1059                           
  1060                           ; 2 bytes @ 0x1D
  1061  003D                     	ds	1
  1062  003E                     utoa@base:
  1063                           
  1064                           ; 2 bytes @ 0x1E
  1065  003E                     	ds	1
  1066  003F                     ??___awmod:
  1067                           
  1068                           ; 1 bytes @ 0x1F
  1069  003F                     	ds	1
  1070  0040                     ??_utoa:
  1071  0040                     ?___flmul:	
  1072                           ; 1 bytes @ 0x20
  1073                           
  1074  0040                     ___awmod@counter:	
  1075                           ; 4 bytes @ 0x20
  1076                           
  1077  0040                     ___flmul@b:	
  1078                           ; 1 bytes @ 0x20
  1079                           
  1080                           
  1081                           ; 4 bytes @ 0x20
  1082  0040                     	ds	1
  1083  0041                     ___awmod@sign:
  1084  0041                     utoa@v:	
  1085                           ; 1 bytes @ 0x21
  1086                           
  1087                           
  1088                           ; 2 bytes @ 0x21
  1089  0041                     	ds	2
  1090  0043                     utoa@c:
  1091                           
  1092                           ; 1 bytes @ 0x23
  1093  0043                     	ds	1
  1094  0044                     ?_itoa:
  1095  0044                     itoa@buf:	
  1096                           ; 2 bytes @ 0x24
  1097                           
  1098  0044                     ___flmul@a:	
  1099                           ; 2 bytes @ 0x24
  1100                           
  1101                           
  1102                           ; 4 bytes @ 0x24
  1103  0044                     	ds	2
  1104  0046                     itoa@val:
  1105                           
  1106                           ; 2 bytes @ 0x26
  1107  0046                     	ds	2
  1108  0048                     ??___flmul:
  1109  0048                     itoa@base:	
  1110                           ; 1 bytes @ 0x28
  1111                           
  1112                           
  1113                           ; 2 bytes @ 0x28
  1114  0048                     	ds	2
  1115  004A                     ??_itoa:
  1116                           
  1117                           ; 1 bytes @ 0x2A
  1118  004A                     	ds	3
  1119                           
  1120                           	psect	maintext
  1121  0C3A                     __pmaintext:	
  1122 ;;
  1123 ;;Main: autosize = 0, tempsize = 4, incstack = 0, save=0
  1124 ;;
  1125 ;; *************** function _main *****************
  1126 ;; Defined at:
  1127 ;;		line 95 in file "LAB3.c"
  1128 ;; Parameters:    Size  Location     Type
  1129 ;;		None
  1130 ;; Auto vars:     Size  Location     Type
  1131 ;;		None
  1132 ;; Return value:  Size  Location     Type
  1133 ;;                  1    wreg      void 
  1134 ;; Registers used:
  1135 ;;		wreg, fsr0l, fsr0h, status,2, status,0, btemp+1, pclath, cstack
  1136 ;; Tracked objects:
  1137 ;;		On entry : B00/0
  1138 ;;		On exit  : 0/0
  1139 ;;		Unchanged: 0/0
  1140 ;; Data sizes:     COMMON   BANK0   BANK1   BANK3   BANK2
  1141 ;;      Params:         0       0       0       0       0
  1142 ;;      Locals:         0       0       0       0       0
  1143 ;;      Temps:          0       0       0       4       0
  1144 ;;      Totals:         0       0       0       4       0
  1145 ;;Total ram usage:        4 bytes
  1146 ;; Hardware stack levels required when called:    7
  1147 ;; This function calls:
  1148 ;;		_ADC_Init
  1149 ;;		_ADC_Read
  1150 ;;		_Lcd_Cmd
  1151 ;;		_Lcd_Init
  1152 ;;		_Lcd_Write_String
  1153 ;;		_SERIAL_Init
  1154 ;;		___awdiv
  1155 ;;		___awmod
  1156 ;;		___fldiv
  1157 ;;		___flmul
  1158 ;;		___fltol
  1159 ;;		___xxtofl
  1160 ;;		_itoa
  1161 ;;		_setup
  1162 ;;		_strcat
  1163 ;;		_strcpy
  1164 ;; This function is called by:
  1165 ;;		Startup code after reset
  1166 ;; This function uses a non-reentrant model
  1167 ;;
  1168                           
  1169                           
  1170                           ;psect for function _main
  1171  0C3A                     _main:
  1172  0C3A                     l3053:	
  1173                           ;incstack = 0
  1174                           ; Regs used in _main: [wreg-fsr0h+status,2+status,0+btemp+1+pclath+cstack]
  1175                           
  1176                           
  1177                           ;LAB3.c: 97:     setup();
  1178  0C3A  160A  118A  2613  120A  158A  	fcall	_setup
  1179  0C3F                     l109:	
  1180                           ;LAB3.c: 103:     while (1) {
  1181                           
  1182                           
  1183                           ;LAB3.c: 104:         Lcd_Init();
  1184  0C3F  160A  118A  2631  120A  158A  	fcall	_Lcd_Init
  1185                           
  1186                           ;LAB3.c: 105:         SERIAL_Init();
  1187  0C44  160A  118A  2600  120A  158A  	fcall	_SERIAL_Init
  1188  0C49                     l3055:
  1189                           
  1190                           ;LAB3.c: 106:         ADC_Init();
  1191  0C49  160A  118A  25E2  120A  158A  	fcall	_ADC_Init
  1192  0C4E                     l3057:
  1193                           
  1194                           ;LAB3.c: 108:         Lcd_Write_String("S1    S2    S3  ");
  1195  0C4E  3001               	movlw	(low ((STR_1-__stringbase)| (0+32768)))& (0+255)
  1196  0C4F  1283               	bcf	3,5	;RP0=0, select bank0
  1197  0C50  1303               	bcf	3,6	;RP1=0, select bank0
  1198  0C51  00B5               	movwf	Lcd_Write_String@a
  1199  0C52  3080               	movlw	128
  1200  0C53  00B6               	movwf	Lcd_Write_String@a+1
  1201  0C54  160A  118A  2673  120A  158A  	fcall	_Lcd_Write_String
  1202  0C59                     l3059:
  1203                           
  1204                           ;LAB3.c: 110:         _delay((unsigned long)((1)*(4000000/4000.0)));
  1205  0C59  30C7               	movlw	199
  1206  0C5A  1683               	bsf	3,5	;RP0=1, select bank3
  1207  0C5B  1703               	bsf	3,6	;RP1=1, select bank3
  1208  0C5C  009D               	movwf	??_main^(0+384)
  1209  0C5D                     u4037:
  1210  0C5D  2C5E               	nop2
  1211  0C5E  0B9D               	decfsz	??_main^(0+384),f
  1212  0C5F  2C5D               	goto	u4037
  1213  0C60  2C61               	nop2
  1214  0C61                     l3061:
  1215                           
  1216                           ;LAB3.c: 111:         adc=ADC_Read(0,0);
  1217  0C61  3000               	movlw	0
  1218  0C62  1283               	bcf	3,5	;RP0=0, select bank0
  1219  0C63  1303               	bcf	3,6	;RP1=0, select bank0
  1220  0C64  00B2               	movwf	ADC_Read@a
  1221  0C65  00B3               	movwf	ADC_Read@a+1
  1222  0C66  3000               	movlw	0
  1223  0C67  00B4               	movwf	ADC_Read@b
  1224  0C68  00B5               	movwf	ADC_Read@b+1
  1225  0C69  160A  118A  25ED  120A  158A  	fcall	_ADC_Read
  1226  0C6E  1683               	bsf	3,5	;RP0=1, select bank3
  1227  0C6F  1703               	bsf	3,6	;RP1=1, select bank3
  1228  0C70  009D               	movwf	??_main^(0+384)
  1229  0C71  081D               	movf	??_main^(0+384),w
  1230  0C72  1283               	bcf	3,5	;RP0=0, select bank0
  1231  0C73  1303               	bcf	3,6	;RP1=0, select bank0
  1232  0C74  00DC               	movwf	_adc
  1233  0C75                     l3063:
  1234                           
  1235                           ;LAB3.c: 113:         voltaje = (adc*5.0)/255.0;
  1236  0C75  3043               	movlw	67
  1237  0C76  1683               	bsf	3,5	;RP0=1, select bank1
  1238  0C77  1303               	bcf	3,6	;RP1=0, select bank1
  1239  0C78  00E6               	movwf	(___fldiv@a+3)^(0+128)
  1240  0C79  307F               	movlw	127
  1241  0C7A  00E5               	movwf	(___fldiv@a+2)^(0+128)
  1242  0C7B  3000               	movlw	0
  1243  0C7C  00E4               	movwf	(___fldiv@a+1)^(0+128)
  1244  0C7D  3000               	movlw	0
  1245  0C7E  00E3               	movwf	___fldiv@a^(0+128)
  1246  0C7F  3040               	movlw	64
  1247  0C80  1283               	bcf	3,5	;RP0=0, select bank0
  1248  0C81  1303               	bcf	3,6	;RP1=0, select bank0
  1249  0C82  00C3               	movwf	___flmul@b+3
  1250  0C83  30A0               	movlw	160
  1251  0C84  00C2               	movwf	___flmul@b+2
  1252  0C85  3000               	movlw	0
  1253  0C86  00C1               	movwf	___flmul@b+1
  1254  0C87  3000               	movlw	0
  1255  0C88  00C0               	movwf	___flmul@b
  1256  0C89  085C               	movf	_adc,w
  1257  0C8A  1683               	bsf	3,5	;RP0=1, select bank3
  1258  0C8B  1703               	bsf	3,6	;RP1=1, select bank3
  1259  0C8C  009D               	movwf	??_main^(0+384)
  1260  0C8D  019E               	clrf	(??_main^(0+384)+1)
  1261  0C8E  019F               	clrf	(??_main^(0+384)+2)
  1262  0C8F  01A0               	clrf	(??_main^(0+384)+3)
  1263  0C90  0820               	movf	(??_main+3)^(0+384),w
  1264  0C91  1283               	bcf	3,5	;RP0=0, select bank0
  1265  0C92  1303               	bcf	3,6	;RP1=0, select bank0
  1266  0C93  00B5               	movwf	___xxtofl@val+3
  1267  0C94  1683               	bsf	3,5	;RP0=1, select bank3
  1268  0C95  1703               	bsf	3,6	;RP1=1, select bank3
  1269  0C96  081F               	movf	(??_main+2)^(0+384),w
  1270  0C97  1283               	bcf	3,5	;RP0=0, select bank0
  1271  0C98  1303               	bcf	3,6	;RP1=0, select bank0
  1272  0C99  00B4               	movwf	___xxtofl@val+2
  1273  0C9A  1683               	bsf	3,5	;RP0=1, select bank3
  1274  0C9B  1703               	bsf	3,6	;RP1=1, select bank3
  1275  0C9C  081E               	movf	(??_main+1)^(0+384),w
  1276  0C9D  1283               	bcf	3,5	;RP0=0, select bank0
  1277  0C9E  1303               	bcf	3,6	;RP1=0, select bank0
  1278  0C9F  00B3               	movwf	___xxtofl@val+1
  1279  0CA0  1683               	bsf	3,5	;RP0=1, select bank3
  1280  0CA1  1703               	bsf	3,6	;RP1=1, select bank3
  1281  0CA2  081D               	movf	??_main^(0+384),w
  1282  0CA3  1283               	bcf	3,5	;RP0=0, select bank0
  1283  0CA4  1303               	bcf	3,6	;RP1=0, select bank0
  1284  0CA5  00B2               	movwf	___xxtofl@val
  1285  0CA6  3001               	movlw	1
  1286  0CA7  120A  118A  258E  120A  158A  	fcall	___xxtofl
  1287  0CAC  1283               	bcf	3,5	;RP0=0, select bank0
  1288  0CAD  1303               	bcf	3,6	;RP1=0, select bank0
  1289  0CAE  0835               	movf	?___xxtofl+3,w
  1290  0CAF  00C7               	movwf	___flmul@a+3
  1291  0CB0  0834               	movf	?___xxtofl+2,w
  1292  0CB1  00C6               	movwf	___flmul@a+2
  1293  0CB2  0833               	movf	?___xxtofl+1,w
  1294  0CB3  00C5               	movwf	___flmul@a+1
  1295  0CB4  0832               	movf	?___xxtofl,w
  1296  0CB5  00C4               	movwf	___flmul@a
  1297  0CB6  120A  118A  202F  120A  158A  	fcall	___flmul
  1298  0CBB  1283               	bcf	3,5	;RP0=0, select bank0
  1299  0CBC  1303               	bcf	3,6	;RP1=0, select bank0
  1300  0CBD  0843               	movf	?___flmul+3,w
  1301  0CBE  1683               	bsf	3,5	;RP0=1, select bank1
  1302  0CBF  1303               	bcf	3,6	;RP1=0, select bank1
  1303  0CC0  00EA               	movwf	(___fldiv@b+3)^(0+128)
  1304  0CC1  1283               	bcf	3,5	;RP0=0, select bank0
  1305  0CC2  1303               	bcf	3,6	;RP1=0, select bank0
  1306  0CC3  0842               	movf	?___flmul+2,w
  1307  0CC4  1683               	bsf	3,5	;RP0=1, select bank1
  1308  0CC5  1303               	bcf	3,6	;RP1=0, select bank1
  1309  0CC6  00E9               	movwf	(___fldiv@b+2)^(0+128)
  1310  0CC7  1283               	bcf	3,5	;RP0=0, select bank0
  1311  0CC8  1303               	bcf	3,6	;RP1=0, select bank0
  1312  0CC9  0841               	movf	?___flmul+1,w
  1313  0CCA  1683               	bsf	3,5	;RP0=1, select bank1
  1314  0CCB  1303               	bcf	3,6	;RP1=0, select bank1
  1315  0CCC  00E8               	movwf	(___fldiv@b+1)^(0+128)
  1316  0CCD  1283               	bcf	3,5	;RP0=0, select bank0
  1317  0CCE  1303               	bcf	3,6	;RP1=0, select bank0
  1318  0CCF  0840               	movf	?___flmul,w
  1319  0CD0  1683               	bsf	3,5	;RP0=1, select bank1
  1320  0CD1  1303               	bcf	3,6	;RP1=0, select bank1
  1321  0CD2  00E7               	movwf	___fldiv@b^(0+128)
  1322  0CD3  120A  158A  219A  120A  158A  	fcall	___fldiv
  1323  0CD8  1683               	bsf	3,5	;RP0=1, select bank1
  1324  0CD9  1303               	bcf	3,6	;RP1=0, select bank1
  1325  0CDA  0866               	movf	(?___fldiv+3)^(0+128),w
  1326  0CDB  00A7               	movwf	(_voltaje+3)^(0+128)
  1327  0CDC  0865               	movf	(?___fldiv+2)^(0+128),w
  1328  0CDD  00A6               	movwf	(_voltaje+2)^(0+128)
  1329  0CDE  0864               	movf	(?___fldiv+1)^(0+128),w
  1330  0CDF  00A5               	movwf	(_voltaje+1)^(0+128)
  1331  0CE0  0863               	movf	?___fldiv^(0+128),w
  1332  0CE1  00A4               	movwf	_voltaje^(0+128)
  1333  0CE2                     l3065:
  1334                           
  1335                           ;LAB3.c: 114:         V1 = (voltaje)*100;
  1336  0CE2  0827               	movf	(_voltaje+3)^(0+128),w
  1337  0CE3  1283               	bcf	3,5	;RP0=0, select bank0
  1338  0CE4  1303               	bcf	3,6	;RP1=0, select bank0
  1339  0CE5  00C7               	movwf	___flmul@a+3
  1340  0CE6  1683               	bsf	3,5	;RP0=1, select bank1
  1341  0CE7  1303               	bcf	3,6	;RP1=0, select bank1
  1342  0CE8  0826               	movf	(_voltaje+2)^(0+128),w
  1343  0CE9  1283               	bcf	3,5	;RP0=0, select bank0
  1344  0CEA  1303               	bcf	3,6	;RP1=0, select bank0
  1345  0CEB  00C6               	movwf	___flmul@a+2
  1346  0CEC  1683               	bsf	3,5	;RP0=1, select bank1
  1347  0CED  1303               	bcf	3,6	;RP1=0, select bank1
  1348  0CEE  0825               	movf	(_voltaje+1)^(0+128),w
  1349  0CEF  1283               	bcf	3,5	;RP0=0, select bank0
  1350  0CF0  1303               	bcf	3,6	;RP1=0, select bank0
  1351  0CF1  00C5               	movwf	___flmul@a+1
  1352  0CF2  1683               	bsf	3,5	;RP0=1, select bank1
  1353  0CF3  1303               	bcf	3,6	;RP1=0, select bank1
  1354  0CF4  0824               	movf	_voltaje^(0+128),w
  1355  0CF5  1283               	bcf	3,5	;RP0=0, select bank0
  1356  0CF6  1303               	bcf	3,6	;RP1=0, select bank0
  1357  0CF7  00C4               	movwf	___flmul@a
  1358  0CF8  3042               	movlw	66
  1359  0CF9  00C3               	movwf	___flmul@b+3
  1360  0CFA  30C8               	movlw	200
  1361  0CFB  00C2               	movwf	___flmul@b+2
  1362  0CFC  3000               	movlw	0
  1363  0CFD  00C1               	movwf	___flmul@b+1
  1364  0CFE  3000               	movlw	0
  1365  0CFF  00C0               	movwf	___flmul@b
  1366  0D00  120A  118A  202F  120A  158A  	fcall	___flmul
  1367  0D05  1283               	bcf	3,5	;RP0=0, select bank0
  1368  0D06  1303               	bcf	3,6	;RP1=0, select bank0
  1369  0D07  0843               	movf	?___flmul+3,w
  1370  0D08  1683               	bsf	3,5	;RP0=1, select bank1
  1371  0D09  1303               	bcf	3,6	;RP1=0, select bank1
  1372  0D0A  00E6               	movwf	(___fltol@f1+3)^(0+128)
  1373  0D0B  1283               	bcf	3,5	;RP0=0, select bank0
  1374  0D0C  1303               	bcf	3,6	;RP1=0, select bank0
  1375  0D0D  0842               	movf	?___flmul+2,w
  1376  0D0E  1683               	bsf	3,5	;RP0=1, select bank1
  1377  0D0F  1303               	bcf	3,6	;RP1=0, select bank1
  1378  0D10  00E5               	movwf	(___fltol@f1+2)^(0+128)
  1379  0D11  1283               	bcf	3,5	;RP0=0, select bank0
  1380  0D12  1303               	bcf	3,6	;RP1=0, select bank0
  1381  0D13  0841               	movf	?___flmul+1,w
  1382  0D14  1683               	bsf	3,5	;RP0=1, select bank1
  1383  0D15  1303               	bcf	3,6	;RP1=0, select bank1
  1384  0D16  00E4               	movwf	(___fltol@f1+1)^(0+128)
  1385  0D17  1283               	bcf	3,5	;RP0=0, select bank0
  1386  0D18  1303               	bcf	3,6	;RP1=0, select bank0
  1387  0D19  0840               	movf	?___flmul,w
  1388  0D1A  1683               	bsf	3,5	;RP0=1, select bank1
  1389  0D1B  1303               	bcf	3,6	;RP1=0, select bank1
  1390  0D1C  00E3               	movwf	___fltol@f1^(0+128)
  1391  0D1D  120A  118A  274C  120A  158A  	fcall	___fltol
  1392  0D22  1683               	bsf	3,5	;RP0=1, select bank1
  1393  0D23  1303               	bcf	3,6	;RP1=0, select bank1
  1394  0D24  0864               	movf	(?___fltol+1)^(0+128),w
  1395  0D25  1283               	bcf	3,5	;RP0=0, select bank0
  1396  0D26  1303               	bcf	3,6	;RP1=0, select bank0
  1397  0D27  00D6               	movwf	_V1+1
  1398  0D28  1683               	bsf	3,5	;RP0=1, select bank1
  1399  0D29  1303               	bcf	3,6	;RP1=0, select bank1
  1400  0D2A  0863               	movf	?___fltol^(0+128),w
  1401  0D2B  1283               	bcf	3,5	;RP0=0, select bank0
  1402  0D2C  1303               	bcf	3,6	;RP1=0, select bank0
  1403  0D2D  00D5               	movwf	_V1
  1404  0D2E                     l3067:
  1405                           
  1406                           ;LAB3.c: 115:         POT1A = V1%10;
  1407  0D2E  300A               	movlw	10
  1408  0D2F  00BB               	movwf	___awmod@divisor
  1409  0D30  3000               	movlw	0
  1410  0D31  00BC               	movwf	___awmod@divisor+1
  1411  0D32  0856               	movf	_V1+1,w
  1412  0D33  00BE               	movwf	___awmod@dividend+1
  1413  0D34  0855               	movf	_V1,w
  1414  0D35  00BD               	movwf	___awmod@dividend
  1415  0D36  120A  158A  20D6  120A  158A  	fcall	___awmod
  1416  0D3B  1283               	bcf	3,5	;RP0=0, select bank0
  1417  0D3C  1303               	bcf	3,6	;RP1=0, select bank0
  1418  0D3D  083C               	movf	?___awmod+1,w
  1419  0D3E  00D4               	movwf	_POT1A+1
  1420  0D3F  083B               	movf	?___awmod,w
  1421  0D40  00D3               	movwf	_POT1A
  1422  0D41                     l3069:
  1423                           
  1424                           ;LAB3.c: 116:         itoa(POT1SA,POT1A,10);
  1425  0D41  30D1               	movlw	(low (_POT1SA| 0))& (0+255)
  1426  0D42  00C4               	movwf	itoa@buf
  1427  0D43  3000               	movlw	0
  1428  0D44  00C5               	movwf	itoa@buf+1
  1429  0D45  0854               	movf	_POT1A+1,w
  1430  0D46  00C7               	movwf	itoa@val+1
  1431  0D47  0853               	movf	_POT1A,w
  1432  0D48  00C6               	movwf	itoa@val
  1433  0D49  300A               	movlw	10
  1434  0D4A  00C8               	movwf	itoa@base
  1435  0D4B  3000               	movlw	0
  1436  0D4C  00C9               	movwf	itoa@base+1
  1437  0D4D  160A  118A  271B  120A  158A  	fcall	_itoa
  1438  0D52                     l3071:
  1439                           
  1440                           ;LAB3.c: 117:         POT1B = (V1/10)%10;
  1441  0D52  300A               	movlw	10
  1442  0D53  1283               	bcf	3,5	;RP0=0, select bank0
  1443  0D54  1303               	bcf	3,6	;RP1=0, select bank0
  1444  0D55  00BB               	movwf	___awmod@divisor
  1445  0D56  3000               	movlw	0
  1446  0D57  00BC               	movwf	___awmod@divisor+1
  1447  0D58  300A               	movlw	10
  1448  0D59  00B2               	movwf	___awdiv@divisor
  1449  0D5A  3000               	movlw	0
  1450  0D5B  00B3               	movwf	___awdiv@divisor+1
  1451  0D5C  0856               	movf	_V1+1,w
  1452  0D5D  00B5               	movwf	___awdiv@dividend+1
  1453  0D5E  0855               	movf	_V1,w
  1454  0D5F  00B4               	movwf	___awdiv@dividend
  1455  0D60  120A  158A  2131  120A  158A  	fcall	___awdiv
  1456  0D65  1283               	bcf	3,5	;RP0=0, select bank0
  1457  0D66  1303               	bcf	3,6	;RP1=0, select bank0
  1458  0D67  0833               	movf	?___awdiv+1,w
  1459  0D68  00BE               	movwf	___awmod@dividend+1
  1460  0D69  0832               	movf	?___awdiv,w
  1461  0D6A  00BD               	movwf	___awmod@dividend
  1462  0D6B  120A  158A  20D6  120A  158A  	fcall	___awmod
  1463  0D70  1283               	bcf	3,5	;RP0=0, select bank0
  1464  0D71  1303               	bcf	3,6	;RP1=0, select bank0
  1465  0D72  083C               	movf	?___awmod+1,w
  1466  0D73  00D2               	movwf	_POT1B+1
  1467  0D74  083B               	movf	?___awmod,w
  1468  0D75  00D1               	movwf	_POT1B
  1469  0D76                     l3073:
  1470                           
  1471                           ;LAB3.c: 118:         itoa(POT1SB,POT1B,10);
  1472  0D76  30CC               	movlw	(low (_POT1SB| 0))& (0+255)
  1473  0D77  00C4               	movwf	itoa@buf
  1474  0D78  3000               	movlw	0
  1475  0D79  00C5               	movwf	itoa@buf+1
  1476  0D7A  0852               	movf	_POT1B+1,w
  1477  0D7B  00C7               	movwf	itoa@val+1
  1478  0D7C  0851               	movf	_POT1B,w
  1479  0D7D  00C6               	movwf	itoa@val
  1480  0D7E  300A               	movlw	10
  1481  0D7F  00C8               	movwf	itoa@base
  1482  0D80  3000               	movlw	0
  1483  0D81  00C9               	movwf	itoa@base+1
  1484  0D82  160A  118A  271B  120A  158A  	fcall	_itoa
  1485  0D87                     l3075:
  1486                           
  1487                           ;LAB3.c: 119:         POT1C = (V1/100)%10;
  1488  0D87  300A               	movlw	10
  1489  0D88  1283               	bcf	3,5	;RP0=0, select bank0
  1490  0D89  1303               	bcf	3,6	;RP1=0, select bank0
  1491  0D8A  00BB               	movwf	___awmod@divisor
  1492  0D8B  3000               	movlw	0
  1493  0D8C  00BC               	movwf	___awmod@divisor+1
  1494  0D8D  3064               	movlw	100
  1495  0D8E  00B2               	movwf	___awdiv@divisor
  1496  0D8F  3000               	movlw	0
  1497  0D90  00B3               	movwf	___awdiv@divisor+1
  1498  0D91  0856               	movf	_V1+1,w
  1499  0D92  00B5               	movwf	___awdiv@dividend+1
  1500  0D93  0855               	movf	_V1,w
  1501  0D94  00B4               	movwf	___awdiv@dividend
  1502  0D95  120A  158A  2131  120A  158A  	fcall	___awdiv
  1503  0D9A  1283               	bcf	3,5	;RP0=0, select bank0
  1504  0D9B  1303               	bcf	3,6	;RP1=0, select bank0
  1505  0D9C  0833               	movf	?___awdiv+1,w
  1506  0D9D  00BE               	movwf	___awmod@dividend+1
  1507  0D9E  0832               	movf	?___awdiv,w
  1508  0D9F  00BD               	movwf	___awmod@dividend
  1509  0DA0  120A  158A  20D6  120A  158A  	fcall	___awmod
  1510  0DA5  1283               	bcf	3,5	;RP0=0, select bank0
  1511  0DA6  1303               	bcf	3,6	;RP1=0, select bank0
  1512  0DA7  083C               	movf	?___awmod+1,w
  1513  0DA8  00D0               	movwf	_POT1C+1
  1514  0DA9  083B               	movf	?___awmod,w
  1515  0DAA  00CF               	movwf	_POT1C
  1516  0DAB                     l3077:
  1517                           
  1518                           ;LAB3.c: 120:         itoa(POT1SC,POT1C,10);
  1519  0DAB  30C7               	movlw	(low (_POT1SC| 0))& (0+255)
  1520  0DAC  00C4               	movwf	itoa@buf
  1521  0DAD  3000               	movlw	0
  1522  0DAE  00C5               	movwf	itoa@buf+1
  1523  0DAF  0850               	movf	_POT1C+1,w
  1524  0DB0  00C7               	movwf	itoa@val+1
  1525  0DB1  084F               	movf	_POT1C,w
  1526  0DB2  00C6               	movwf	itoa@val
  1527  0DB3  300A               	movlw	10
  1528  0DB4  00C8               	movwf	itoa@base
  1529  0DB5  3000               	movlw	0
  1530  0DB6  00C9               	movwf	itoa@base+1
  1531  0DB7  160A  118A  271B  120A  158A  	fcall	_itoa
  1532  0DBC                     l3079:
  1533                           
  1534                           ;LAB3.c: 121:         strcpy(PUNTO1,".");
  1535  0DBC  3012               	movlw	(low ((STR_2-__stringbase)| (0+32768)))& (0+255)
  1536  0DBD  1683               	bsf	3,5	;RP0=1, select bank3
  1537  0DBE  1703               	bsf	3,6	;RP1=1, select bank3
  1538  0DBF  009D               	movwf	??_main^(0+384)
  1539  0DC0  081D               	movf	??_main^(0+384),w
  1540  0DC1  1283               	bcf	3,5	;RP0=0, select bank0
  1541  0DC2  1303               	bcf	3,6	;RP1=0, select bank0
  1542  0DC3  00B2               	movwf	strcpy@from
  1543  0DC4  30C2               	movlw	(low (_PUNTO1| 0))& (0+255)
  1544  0DC5  160A  118A  2650  120A  158A  	fcall	_strcpy
  1545  0DCA                     l3081:
  1546                           
  1547                           ;LAB3.c: 122:         strcat(POT1SB,POT1SA);
  1548  0DCA  30D1               	movlw	(low (_POT1SA| 0))& (0+255)
  1549  0DCB  1683               	bsf	3,5	;RP0=1, select bank3
  1550  0DCC  1703               	bsf	3,6	;RP1=1, select bank3
  1551  0DCD  009D               	movwf	??_main^(0+384)
  1552  0DCE  081D               	movf	??_main^(0+384),w
  1553  0DCF  1283               	bcf	3,5	;RP0=0, select bank0
  1554  0DD0  1303               	bcf	3,6	;RP1=0, select bank0
  1555  0DD1  00B2               	movwf	strcat@from
  1556  0DD2  30CC               	movlw	(low (_POT1SB| 0))& (0+255)
  1557  0DD3  160A  118A  26C4  120A  158A  	fcall	_strcat
  1558  0DD8                     l3083:
  1559                           
  1560                           ;LAB3.c: 123:         strcat(PUNTO1,POT1SB);
  1561  0DD8  30CC               	movlw	(low (_POT1SB| 0))& (0+255)
  1562  0DD9  1683               	bsf	3,5	;RP0=1, select bank3
  1563  0DDA  1703               	bsf	3,6	;RP1=1, select bank3
  1564  0DDB  009D               	movwf	??_main^(0+384)
  1565  0DDC  081D               	movf	??_main^(0+384),w
  1566  0DDD  1283               	bcf	3,5	;RP0=0, select bank0
  1567  0DDE  1303               	bcf	3,6	;RP1=0, select bank0
  1568  0DDF  00B2               	movwf	strcat@from
  1569  0DE0  30C2               	movlw	(low (_PUNTO1| 0))& (0+255)
  1570  0DE1  160A  118A  26C4  120A  158A  	fcall	_strcat
  1571  0DE6                     l3085:
  1572                           
  1573                           ;LAB3.c: 124:         strcat(POT1SC,PUNTO1);
  1574  0DE6  30C2               	movlw	(low (_PUNTO1| 0))& (0+255)
  1575  0DE7  1683               	bsf	3,5	;RP0=1, select bank3
  1576  0DE8  1703               	bsf	3,6	;RP1=1, select bank3
  1577  0DE9  009D               	movwf	??_main^(0+384)
  1578  0DEA  081D               	movf	??_main^(0+384),w
  1579  0DEB  1283               	bcf	3,5	;RP0=0, select bank0
  1580  0DEC  1303               	bcf	3,6	;RP1=0, select bank0
  1581  0DED  00B2               	movwf	strcat@from
  1582  0DEE  30C7               	movlw	(low (_POT1SC| 0))& (0+255)
  1583  0DEF  160A  118A  26C4  120A  158A  	fcall	_strcat
  1584  0DF4                     l3087:
  1585                           
  1586                           ;LAB3.c: 126:         _delay((unsigned long)((600)*(4000000/4000000.0)));
  1587  0DF4  30C7               	movlw	199
  1588  0DF5  1683               	bsf	3,5	;RP0=1, select bank3
  1589  0DF6  1703               	bsf	3,6	;RP1=1, select bank3
  1590  0DF7  009D               	movwf	??_main^(0+384)
  1591  0DF8                     u4047:
  1592  0DF8  0B9D               	decfsz	??_main^(0+384),f
  1593  0DF9  2DF8               	goto	u4047
  1594  0DFA                     l3089:
  1595                           
  1596                           ;LAB3.c: 127:         adc=ADC_Read(1,1);
  1597  0DFA  3001               	movlw	1
  1598  0DFB  1283               	bcf	3,5	;RP0=0, select bank0
  1599  0DFC  1303               	bcf	3,6	;RP1=0, select bank0
  1600  0DFD  00B2               	movwf	ADC_Read@a
  1601  0DFE  3000               	movlw	0
  1602  0DFF  00B3               	movwf	ADC_Read@a+1
  1603  0E00  3001               	movlw	1
  1604  0E01  00B4               	movwf	ADC_Read@b
  1605  0E02  3000               	movlw	0
  1606  0E03  00B5               	movwf	ADC_Read@b+1
  1607  0E04  160A  118A  25ED  120A  158A  	fcall	_ADC_Read
  1608  0E09  1683               	bsf	3,5	;RP0=1, select bank3
  1609  0E0A  1703               	bsf	3,6	;RP1=1, select bank3
  1610  0E0B  009D               	movwf	??_main^(0+384)
  1611  0E0C  081D               	movf	??_main^(0+384),w
  1612  0E0D  1283               	bcf	3,5	;RP0=0, select bank0
  1613  0E0E  1303               	bcf	3,6	;RP1=0, select bank0
  1614  0E0F  00DC               	movwf	_adc
  1615  0E10                     l3091:
  1616                           
  1617                           ;LAB3.c: 129:         voltaje2 = adc*5.0/255.0;
  1618  0E10  3043               	movlw	67
  1619  0E11  1683               	bsf	3,5	;RP0=1, select bank1
  1620  0E12  1303               	bcf	3,6	;RP1=0, select bank1
  1621  0E13  00E6               	movwf	(___fldiv@a+3)^(0+128)
  1622  0E14  307F               	movlw	127
  1623  0E15  00E5               	movwf	(___fldiv@a+2)^(0+128)
  1624  0E16  3000               	movlw	0
  1625  0E17  00E4               	movwf	(___fldiv@a+1)^(0+128)
  1626  0E18  3000               	movlw	0
  1627  0E19  00E3               	movwf	___fldiv@a^(0+128)
  1628  0E1A  3040               	movlw	64
  1629  0E1B  1283               	bcf	3,5	;RP0=0, select bank0
  1630  0E1C  1303               	bcf	3,6	;RP1=0, select bank0
  1631  0E1D  00C3               	movwf	___flmul@b+3
  1632  0E1E  30A0               	movlw	160
  1633  0E1F  00C2               	movwf	___flmul@b+2
  1634  0E20  3000               	movlw	0
  1635  0E21  00C1               	movwf	___flmul@b+1
  1636  0E22  3000               	movlw	0
  1637  0E23  00C0               	movwf	___flmul@b
  1638  0E24  085C               	movf	_adc,w
  1639  0E25  1683               	bsf	3,5	;RP0=1, select bank3
  1640  0E26  1703               	bsf	3,6	;RP1=1, select bank3
  1641  0E27  009D               	movwf	??_main^(0+384)
  1642  0E28  019E               	clrf	(??_main^(0+384)+1)
  1643  0E29  019F               	clrf	(??_main^(0+384)+2)
  1644  0E2A  01A0               	clrf	(??_main^(0+384)+3)
  1645  0E2B  0820               	movf	(??_main+3)^(0+384),w
  1646  0E2C  1283               	bcf	3,5	;RP0=0, select bank0
  1647  0E2D  1303               	bcf	3,6	;RP1=0, select bank0
  1648  0E2E  00B5               	movwf	___xxtofl@val+3
  1649  0E2F  1683               	bsf	3,5	;RP0=1, select bank3
  1650  0E30  1703               	bsf	3,6	;RP1=1, select bank3
  1651  0E31  081F               	movf	(??_main+2)^(0+384),w
  1652  0E32  1283               	bcf	3,5	;RP0=0, select bank0
  1653  0E33  1303               	bcf	3,6	;RP1=0, select bank0
  1654  0E34  00B4               	movwf	___xxtofl@val+2
  1655  0E35  1683               	bsf	3,5	;RP0=1, select bank3
  1656  0E36  1703               	bsf	3,6	;RP1=1, select bank3
  1657  0E37  081E               	movf	(??_main+1)^(0+384),w
  1658  0E38  1283               	bcf	3,5	;RP0=0, select bank0
  1659  0E39  1303               	bcf	3,6	;RP1=0, select bank0
  1660  0E3A  00B3               	movwf	___xxtofl@val+1
  1661  0E3B  1683               	bsf	3,5	;RP0=1, select bank3
  1662  0E3C  1703               	bsf	3,6	;RP1=1, select bank3
  1663  0E3D  081D               	movf	??_main^(0+384),w
  1664  0E3E  1283               	bcf	3,5	;RP0=0, select bank0
  1665  0E3F  1303               	bcf	3,6	;RP1=0, select bank0
  1666  0E40  00B2               	movwf	___xxtofl@val
  1667  0E41  3001               	movlw	1
  1668  0E42  120A  118A  258E  120A  158A  	fcall	___xxtofl
  1669  0E47  1283               	bcf	3,5	;RP0=0, select bank0
  1670  0E48  1303               	bcf	3,6	;RP1=0, select bank0
  1671  0E49  0835               	movf	?___xxtofl+3,w
  1672  0E4A  00C7               	movwf	___flmul@a+3
  1673  0E4B  0834               	movf	?___xxtofl+2,w
  1674  0E4C  00C6               	movwf	___flmul@a+2
  1675  0E4D  0833               	movf	?___xxtofl+1,w
  1676  0E4E  00C5               	movwf	___flmul@a+1
  1677  0E4F  0832               	movf	?___xxtofl,w
  1678  0E50  00C4               	movwf	___flmul@a
  1679  0E51  120A  118A  202F  120A  158A  	fcall	___flmul
  1680  0E56  1283               	bcf	3,5	;RP0=0, select bank0
  1681  0E57  1303               	bcf	3,6	;RP1=0, select bank0
  1682  0E58  0843               	movf	?___flmul+3,w
  1683  0E59  1683               	bsf	3,5	;RP0=1, select bank1
  1684  0E5A  1303               	bcf	3,6	;RP1=0, select bank1
  1685  0E5B  00EA               	movwf	(___fldiv@b+3)^(0+128)
  1686  0E5C  1283               	bcf	3,5	;RP0=0, select bank0
  1687  0E5D  1303               	bcf	3,6	;RP1=0, select bank0
  1688  0E5E  0842               	movf	?___flmul+2,w
  1689  0E5F  1683               	bsf	3,5	;RP0=1, select bank1
  1690  0E60  1303               	bcf	3,6	;RP1=0, select bank1
  1691  0E61  00E9               	movwf	(___fldiv@b+2)^(0+128)
  1692  0E62  1283               	bcf	3,5	;RP0=0, select bank0
  1693  0E63  1303               	bcf	3,6	;RP1=0, select bank0
  1694  0E64  0841               	movf	?___flmul+1,w
  1695  0E65  1683               	bsf	3,5	;RP0=1, select bank1
  1696  0E66  1303               	bcf	3,6	;RP1=0, select bank1
  1697  0E67  00E8               	movwf	(___fldiv@b+1)^(0+128)
  1698  0E68  1283               	bcf	3,5	;RP0=0, select bank0
  1699  0E69  1303               	bcf	3,6	;RP1=0, select bank0
  1700  0E6A  0840               	movf	?___flmul,w
  1701  0E6B  1683               	bsf	3,5	;RP0=1, select bank1
  1702  0E6C  1303               	bcf	3,6	;RP1=0, select bank1
  1703  0E6D  00E7               	movwf	___fldiv@b^(0+128)
  1704  0E6E  120A  158A  219A  120A  158A  	fcall	___fldiv
  1705  0E73  1683               	bsf	3,5	;RP0=1, select bank1
  1706  0E74  1303               	bcf	3,6	;RP1=0, select bank1
  1707  0E75  0866               	movf	(?___fldiv+3)^(0+128),w
  1708  0E76  00A3               	movwf	(_voltaje2+3)^(0+128)
  1709  0E77  0865               	movf	(?___fldiv+2)^(0+128),w
  1710  0E78  00A2               	movwf	(_voltaje2+2)^(0+128)
  1711  0E79  0864               	movf	(?___fldiv+1)^(0+128),w
  1712  0E7A  00A1               	movwf	(_voltaje2+1)^(0+128)
  1713  0E7B  0863               	movf	?___fldiv^(0+128),w
  1714  0E7C  00A0               	movwf	_voltaje2^(0+128)
  1715  0E7D                     l3093:
  1716                           
  1717                           ;LAB3.c: 130:         V2 = (voltaje2)*100;
  1718  0E7D  0823               	movf	(_voltaje2+3)^(0+128),w
  1719  0E7E  1283               	bcf	3,5	;RP0=0, select bank0
  1720  0E7F  1303               	bcf	3,6	;RP1=0, select bank0
  1721  0E80  00C7               	movwf	___flmul@a+3
  1722  0E81  1683               	bsf	3,5	;RP0=1, select bank1
  1723  0E82  1303               	bcf	3,6	;RP1=0, select bank1
  1724  0E83  0822               	movf	(_voltaje2+2)^(0+128),w
  1725  0E84  1283               	bcf	3,5	;RP0=0, select bank0
  1726  0E85  1303               	bcf	3,6	;RP1=0, select bank0
  1727  0E86  00C6               	movwf	___flmul@a+2
  1728  0E87  1683               	bsf	3,5	;RP0=1, select bank1
  1729  0E88  1303               	bcf	3,6	;RP1=0, select bank1
  1730  0E89  0821               	movf	(_voltaje2+1)^(0+128),w
  1731  0E8A  1283               	bcf	3,5	;RP0=0, select bank0
  1732  0E8B  1303               	bcf	3,6	;RP1=0, select bank0
  1733  0E8C  00C5               	movwf	___flmul@a+1
  1734  0E8D  1683               	bsf	3,5	;RP0=1, select bank1
  1735  0E8E  1303               	bcf	3,6	;RP1=0, select bank1
  1736  0E8F  0820               	movf	_voltaje2^(0+128),w
  1737  0E90  1283               	bcf	3,5	;RP0=0, select bank0
  1738  0E91  1303               	bcf	3,6	;RP1=0, select bank0
  1739  0E92  00C4               	movwf	___flmul@a
  1740  0E93  3042               	movlw	66
  1741  0E94  00C3               	movwf	___flmul@b+3
  1742  0E95  30C8               	movlw	200
  1743  0E96  00C2               	movwf	___flmul@b+2
  1744  0E97  3000               	movlw	0
  1745  0E98  00C1               	movwf	___flmul@b+1
  1746  0E99  3000               	movlw	0
  1747  0E9A  00C0               	movwf	___flmul@b
  1748  0E9B  120A  118A  202F  120A  158A  	fcall	___flmul
  1749  0EA0  1283               	bcf	3,5	;RP0=0, select bank0
  1750  0EA1  1303               	bcf	3,6	;RP1=0, select bank0
  1751  0EA2  0843               	movf	?___flmul+3,w
  1752  0EA3  1683               	bsf	3,5	;RP0=1, select bank1
  1753  0EA4  1303               	bcf	3,6	;RP1=0, select bank1
  1754  0EA5  00E6               	movwf	(___fltol@f1+3)^(0+128)
  1755  0EA6  1283               	bcf	3,5	;RP0=0, select bank0
  1756  0EA7  1303               	bcf	3,6	;RP1=0, select bank0
  1757  0EA8  0842               	movf	?___flmul+2,w
  1758  0EA9  1683               	bsf	3,5	;RP0=1, select bank1
  1759  0EAA  1303               	bcf	3,6	;RP1=0, select bank1
  1760  0EAB  00E5               	movwf	(___fltol@f1+2)^(0+128)
  1761  0EAC  1283               	bcf	3,5	;RP0=0, select bank0
  1762  0EAD  1303               	bcf	3,6	;RP1=0, select bank0
  1763  0EAE  0841               	movf	?___flmul+1,w
  1764  0EAF  1683               	bsf	3,5	;RP0=1, select bank1
  1765  0EB0  1303               	bcf	3,6	;RP1=0, select bank1
  1766  0EB1  00E4               	movwf	(___fltol@f1+1)^(0+128)
  1767  0EB2  1283               	bcf	3,5	;RP0=0, select bank0
  1768  0EB3  1303               	bcf	3,6	;RP1=0, select bank0
  1769  0EB4  0840               	movf	?___flmul,w
  1770  0EB5  1683               	bsf	3,5	;RP0=1, select bank1
  1771  0EB6  1303               	bcf	3,6	;RP1=0, select bank1
  1772  0EB7  00E3               	movwf	___fltol@f1^(0+128)
  1773  0EB8  120A  118A  274C  120A  158A  	fcall	___fltol
  1774  0EBD  1683               	bsf	3,5	;RP0=1, select bank1
  1775  0EBE  1303               	bcf	3,6	;RP1=0, select bank1
  1776  0EBF  0864               	movf	(?___fltol+1)^(0+128),w
  1777  0EC0  1283               	bcf	3,5	;RP0=0, select bank0
  1778  0EC1  1303               	bcf	3,6	;RP1=0, select bank0
  1779  0EC2  00CE               	movwf	_V2+1
  1780  0EC3  1683               	bsf	3,5	;RP0=1, select bank1
  1781  0EC4  1303               	bcf	3,6	;RP1=0, select bank1
  1782  0EC5  0863               	movf	?___fltol^(0+128),w
  1783  0EC6  1283               	bcf	3,5	;RP0=0, select bank0
  1784  0EC7  1303               	bcf	3,6	;RP1=0, select bank0
  1785  0EC8  00CD               	movwf	_V2
  1786  0EC9                     l3095:
  1787                           
  1788                           ;LAB3.c: 131:         POT2A = V2%10;
  1789  0EC9  300A               	movlw	10
  1790  0ECA  00BB               	movwf	___awmod@divisor
  1791  0ECB  3000               	movlw	0
  1792  0ECC  00BC               	movwf	___awmod@divisor+1
  1793  0ECD  084E               	movf	_V2+1,w
  1794  0ECE  00BE               	movwf	___awmod@dividend+1
  1795  0ECF  084D               	movf	_V2,w
  1796  0ED0  00BD               	movwf	___awmod@dividend
  1797  0ED1  120A  158A  20D6  120A  158A  	fcall	___awmod
  1798  0ED6  1283               	bcf	3,5	;RP0=0, select bank0
  1799  0ED7  1303               	bcf	3,6	;RP1=0, select bank0
  1800  0ED8  083C               	movf	?___awmod+1,w
  1801  0ED9  1683               	bsf	3,5	;RP0=1, select bank1
  1802  0EDA  1303               	bcf	3,6	;RP1=0, select bank1
  1803  0EDB  00AD               	movwf	(_POT2A+1)^(0+128)
  1804  0EDC  1283               	bcf	3,5	;RP0=0, select bank0
  1805  0EDD  1303               	bcf	3,6	;RP1=0, select bank0
  1806  0EDE  083B               	movf	?___awmod,w
  1807  0EDF  1683               	bsf	3,5	;RP0=1, select bank1
  1808  0EE0  1303               	bcf	3,6	;RP1=0, select bank1
  1809  0EE1  00AC               	movwf	_POT2A^(0+128)
  1810  0EE2                     l3097:
  1811                           
  1812                           ;LAB3.c: 132:         itoa(POT2SA,POT2A,10);
  1813  0EE2  30BD               	movlw	(low (_POT2SA| 0))& (0+255)
  1814  0EE3  1283               	bcf	3,5	;RP0=0, select bank0
  1815  0EE4  1303               	bcf	3,6	;RP1=0, select bank0
  1816  0EE5  00C4               	movwf	itoa@buf
  1817  0EE6  3000               	movlw	0
  1818  0EE7  00C5               	movwf	itoa@buf+1
  1819  0EE8  1683               	bsf	3,5	;RP0=1, select bank1
  1820  0EE9  1303               	bcf	3,6	;RP1=0, select bank1
  1821  0EEA  082D               	movf	(_POT2A+1)^(0+128),w
  1822  0EEB  1283               	bcf	3,5	;RP0=0, select bank0
  1823  0EEC  1303               	bcf	3,6	;RP1=0, select bank0
  1824  0EED  00C7               	movwf	itoa@val+1
  1825  0EEE  1683               	bsf	3,5	;RP0=1, select bank1
  1826  0EEF  1303               	bcf	3,6	;RP1=0, select bank1
  1827  0EF0  082C               	movf	_POT2A^(0+128),w
  1828  0EF1  1283               	bcf	3,5	;RP0=0, select bank0
  1829  0EF2  1303               	bcf	3,6	;RP1=0, select bank0
  1830  0EF3  00C6               	movwf	itoa@val
  1831  0EF4  300A               	movlw	10
  1832  0EF5  00C8               	movwf	itoa@base
  1833  0EF6  3000               	movlw	0
  1834  0EF7  00C9               	movwf	itoa@base+1
  1835  0EF8  160A  118A  271B  120A  158A  	fcall	_itoa
  1836  0EFD                     l3099:
  1837                           
  1838                           ;LAB3.c: 133:         POT2B = (V2/10)%10;
  1839  0EFD  300A               	movlw	10
  1840  0EFE  1283               	bcf	3,5	;RP0=0, select bank0
  1841  0EFF  1303               	bcf	3,6	;RP1=0, select bank0
  1842  0F00  00BB               	movwf	___awmod@divisor
  1843  0F01  3000               	movlw	0
  1844  0F02  00BC               	movwf	___awmod@divisor+1
  1845  0F03  300A               	movlw	10
  1846  0F04  00B2               	movwf	___awdiv@divisor
  1847  0F05  3000               	movlw	0
  1848  0F06  00B3               	movwf	___awdiv@divisor+1
  1849  0F07  084E               	movf	_V2+1,w
  1850  0F08  00B5               	movwf	___awdiv@dividend+1
  1851  0F09  084D               	movf	_V2,w
  1852  0F0A  00B4               	movwf	___awdiv@dividend
  1853  0F0B  120A  158A  2131  120A  158A  	fcall	___awdiv
  1854  0F10  1283               	bcf	3,5	;RP0=0, select bank0
  1855  0F11  1303               	bcf	3,6	;RP1=0, select bank0
  1856  0F12  0833               	movf	?___awdiv+1,w
  1857  0F13  00BE               	movwf	___awmod@dividend+1
  1858  0F14  0832               	movf	?___awdiv,w
  1859  0F15  00BD               	movwf	___awmod@dividend
  1860  0F16  120A  158A  20D6  120A  158A  	fcall	___awmod
  1861  0F1B  1283               	bcf	3,5	;RP0=0, select bank0
  1862  0F1C  1303               	bcf	3,6	;RP1=0, select bank0
  1863  0F1D  083C               	movf	?___awmod+1,w
  1864  0F1E  1683               	bsf	3,5	;RP0=1, select bank1
  1865  0F1F  1303               	bcf	3,6	;RP1=0, select bank1
  1866  0F20  00AB               	movwf	(_POT2B+1)^(0+128)
  1867  0F21  1283               	bcf	3,5	;RP0=0, select bank0
  1868  0F22  1303               	bcf	3,6	;RP1=0, select bank0
  1869  0F23  083B               	movf	?___awmod,w
  1870  0F24  1683               	bsf	3,5	;RP0=1, select bank1
  1871  0F25  1303               	bcf	3,6	;RP1=0, select bank1
  1872  0F26  00AA               	movwf	_POT2B^(0+128)
  1873  0F27                     l3101:
  1874                           
  1875                           ;LAB3.c: 134:         itoa(POT2SB,POT2B,10);
  1876  0F27  30B8               	movlw	(low (_POT2SB| 0))& (0+255)
  1877  0F28  1283               	bcf	3,5	;RP0=0, select bank0
  1878  0F29  1303               	bcf	3,6	;RP1=0, select bank0
  1879  0F2A  00C4               	movwf	itoa@buf
  1880  0F2B  3000               	movlw	0
  1881  0F2C  00C5               	movwf	itoa@buf+1
  1882  0F2D  1683               	bsf	3,5	;RP0=1, select bank1
  1883  0F2E  1303               	bcf	3,6	;RP1=0, select bank1
  1884  0F2F  082B               	movf	(_POT2B+1)^(0+128),w
  1885  0F30  1283               	bcf	3,5	;RP0=0, select bank0
  1886  0F31  1303               	bcf	3,6	;RP1=0, select bank0
  1887  0F32  00C7               	movwf	itoa@val+1
  1888  0F33  1683               	bsf	3,5	;RP0=1, select bank1
  1889  0F34  1303               	bcf	3,6	;RP1=0, select bank1
  1890  0F35  082A               	movf	_POT2B^(0+128),w
  1891  0F36  1283               	bcf	3,5	;RP0=0, select bank0
  1892  0F37  1303               	bcf	3,6	;RP1=0, select bank0
  1893  0F38  00C6               	movwf	itoa@val
  1894  0F39  300A               	movlw	10
  1895  0F3A  00C8               	movwf	itoa@base
  1896  0F3B  3000               	movlw	0
  1897  0F3C  00C9               	movwf	itoa@base+1
  1898  0F3D  160A  118A  271B  120A  158A  	fcall	_itoa
  1899  0F42                     l3103:
  1900                           
  1901                           ;LAB3.c: 135:         POT2C = (V2/100)%10;
  1902  0F42  300A               	movlw	10
  1903  0F43  1283               	bcf	3,5	;RP0=0, select bank0
  1904  0F44  1303               	bcf	3,6	;RP1=0, select bank0
  1905  0F45  00BB               	movwf	___awmod@divisor
  1906  0F46  3000               	movlw	0
  1907  0F47  00BC               	movwf	___awmod@divisor+1
  1908  0F48  3064               	movlw	100
  1909  0F49  00B2               	movwf	___awdiv@divisor
  1910  0F4A  3000               	movlw	0
  1911  0F4B  00B3               	movwf	___awdiv@divisor+1
  1912  0F4C  084E               	movf	_V2+1,w
  1913  0F4D  00B5               	movwf	___awdiv@dividend+1
  1914  0F4E  084D               	movf	_V2,w
  1915  0F4F  00B4               	movwf	___awdiv@dividend
  1916  0F50  120A  158A  2131  120A  158A  	fcall	___awdiv
  1917  0F55  1283               	bcf	3,5	;RP0=0, select bank0
  1918  0F56  1303               	bcf	3,6	;RP1=0, select bank0
  1919  0F57  0833               	movf	?___awdiv+1,w
  1920  0F58  00BE               	movwf	___awmod@dividend+1
  1921  0F59  0832               	movf	?___awdiv,w
  1922  0F5A  00BD               	movwf	___awmod@dividend
  1923  0F5B  120A  158A  20D6  120A  158A  	fcall	___awmod
  1924  0F60  1283               	bcf	3,5	;RP0=0, select bank0
  1925  0F61  1303               	bcf	3,6	;RP1=0, select bank0
  1926  0F62  083C               	movf	?___awmod+1,w
  1927  0F63  1683               	bsf	3,5	;RP0=1, select bank1
  1928  0F64  1303               	bcf	3,6	;RP1=0, select bank1
  1929  0F65  00A9               	movwf	(_POT2C+1)^(0+128)
  1930  0F66  1283               	bcf	3,5	;RP0=0, select bank0
  1931  0F67  1303               	bcf	3,6	;RP1=0, select bank0
  1932  0F68  083B               	movf	?___awmod,w
  1933  0F69  1683               	bsf	3,5	;RP0=1, select bank1
  1934  0F6A  1303               	bcf	3,6	;RP1=0, select bank1
  1935  0F6B  00A8               	movwf	_POT2C^(0+128)
  1936  0F6C                     l3105:
  1937                           
  1938                           ;LAB3.c: 136:         itoa(POT2SC,POT2C,10);
  1939  0F6C  30B3               	movlw	(low (_POT2SC| 0))& (0+255)
  1940  0F6D  1283               	bcf	3,5	;RP0=0, select bank0
  1941  0F6E  1303               	bcf	3,6	;RP1=0, select bank0
  1942  0F6F  00C4               	movwf	itoa@buf
  1943  0F70  3000               	movlw	0
  1944  0F71  00C5               	movwf	itoa@buf+1
  1945  0F72  1683               	bsf	3,5	;RP0=1, select bank1
  1946  0F73  1303               	bcf	3,6	;RP1=0, select bank1
  1947  0F74  0829               	movf	(_POT2C+1)^(0+128),w
  1948  0F75  1283               	bcf	3,5	;RP0=0, select bank0
  1949  0F76  1303               	bcf	3,6	;RP1=0, select bank0
  1950  0F77  00C7               	movwf	itoa@val+1
  1951  0F78  1683               	bsf	3,5	;RP0=1, select bank1
  1952  0F79  1303               	bcf	3,6	;RP1=0, select bank1
  1953  0F7A  0828               	movf	_POT2C^(0+128),w
  1954  0F7B  1283               	bcf	3,5	;RP0=0, select bank0
  1955  0F7C  1303               	bcf	3,6	;RP1=0, select bank0
  1956  0F7D  00C6               	movwf	itoa@val
  1957  0F7E  300A               	movlw	10
  1958  0F7F  00C8               	movwf	itoa@base
  1959  0F80  3000               	movlw	0
  1960  0F81  00C9               	movwf	itoa@base+1
  1961  0F82  160A  118A  271B  120A  158A  	fcall	_itoa
  1962  0F87                     l3107:
  1963                           
  1964                           ;LAB3.c: 137:         strcpy(PUNTO2,".");
  1965  0F87  3012               	movlw	(low ((STR_2-__stringbase)| (0+32768)))& (0+255)
  1966  0F88  1683               	bsf	3,5	;RP0=1, select bank3
  1967  0F89  1703               	bsf	3,6	;RP1=1, select bank3
  1968  0F8A  009D               	movwf	??_main^(0+384)
  1969  0F8B  081D               	movf	??_main^(0+384),w
  1970  0F8C  1283               	bcf	3,5	;RP0=0, select bank0
  1971  0F8D  1303               	bcf	3,6	;RP1=0, select bank0
  1972  0F8E  00B2               	movwf	strcpy@from
  1973  0F8F  30AE               	movlw	(low (_PUNTO2| 0))& (0+255)
  1974  0F90  160A  118A  2650  120A  158A  	fcall	_strcpy
  1975  0F95                     l3109:
  1976                           
  1977                           ;LAB3.c: 138:         strcat(POT2SB,POT2SA);
  1978  0F95  30BD               	movlw	(low (_POT2SA| 0))& (0+255)
  1979  0F96  1683               	bsf	3,5	;RP0=1, select bank3
  1980  0F97  1703               	bsf	3,6	;RP1=1, select bank3
  1981  0F98  009D               	movwf	??_main^(0+384)
  1982  0F99  081D               	movf	??_main^(0+384),w
  1983  0F9A  1283               	bcf	3,5	;RP0=0, select bank0
  1984  0F9B  1303               	bcf	3,6	;RP1=0, select bank0
  1985  0F9C  00B2               	movwf	strcat@from
  1986  0F9D  30B8               	movlw	(low (_POT2SB| 0))& (0+255)
  1987  0F9E  160A  118A  26C4  120A  158A  	fcall	_strcat
  1988  0FA3                     l3111:
  1989                           
  1990                           ;LAB3.c: 139:         strcat(PUNTO2,POT2SB);
  1991  0FA3  30B8               	movlw	(low (_POT2SB| 0))& (0+255)
  1992  0FA4  1683               	bsf	3,5	;RP0=1, select bank3
  1993  0FA5  1703               	bsf	3,6	;RP1=1, select bank3
  1994  0FA6  009D               	movwf	??_main^(0+384)
  1995  0FA7  081D               	movf	??_main^(0+384),w
  1996  0FA8  1283               	bcf	3,5	;RP0=0, select bank0
  1997  0FA9  1303               	bcf	3,6	;RP1=0, select bank0
  1998  0FAA  00B2               	movwf	strcat@from
  1999  0FAB  30AE               	movlw	(low (_PUNTO2| 0))& (0+255)
  2000  0FAC  160A  118A  26C4  120A  158A  	fcall	_strcat
  2001  0FB1                     l3113:
  2002                           
  2003                           ;LAB3.c: 140:         strcat(POT2SC,PUNTO2);
  2004  0FB1  30AE               	movlw	(low (_PUNTO2| 0))& (0+255)
  2005  0FB2  1683               	bsf	3,5	;RP0=1, select bank3
  2006  0FB3  1703               	bsf	3,6	;RP1=1, select bank3
  2007  0FB4  009D               	movwf	??_main^(0+384)
  2008  0FB5  081D               	movf	??_main^(0+384),w
  2009  0FB6  1283               	bcf	3,5	;RP0=0, select bank0
  2010  0FB7  1303               	bcf	3,6	;RP1=0, select bank0
  2011  0FB8  00B2               	movwf	strcat@from
  2012  0FB9  30B3               	movlw	(low (_POT2SC| 0))& (0+255)
  2013  0FBA  160A  118A  26C4  120A  158A  	fcall	_strcat
  2014  0FBF                     l3115:
  2015                           
  2016                           ;LAB3.c: 142:         Lcd_Cmd(0xC0);
  2017  0FBF  30C0               	movlw	192
  2018  0FC0  160A  118A  27BD  120A  158A  	fcall	_Lcd_Cmd
  2019  0FC5                     l3117:
  2020                           
  2021                           ;LAB3.c: 143:         Lcd_Write_String(POT1SC);
  2022  0FC5  30C7               	movlw	(low (_POT1SC| 0))& (0+255)
  2023  0FC6  1283               	bcf	3,5	;RP0=0, select bank0
  2024  0FC7  1303               	bcf	3,6	;RP1=0, select bank0
  2025  0FC8  00B5               	movwf	Lcd_Write_String@a
  2026  0FC9  3000               	movlw	0
  2027  0FCA  00B6               	movwf	Lcd_Write_String@a+1
  2028  0FCB  160A  118A  2673  120A  158A  	fcall	_Lcd_Write_String
  2029  0FD0                     l3119:
  2030                           
  2031                           ;LAB3.c: 144:         Lcd_Write_String(" ");
  2032  0FD0  3010               	movlw	(low (((STR_1+15)-__stringbase)| (0+32768)))& (0+255)
  2033  0FD1  1283               	bcf	3,5	;RP0=0, select bank0
  2034  0FD2  1303               	bcf	3,6	;RP1=0, select bank0
  2035  0FD3  00B5               	movwf	Lcd_Write_String@a
  2036  0FD4  3080               	movlw	128
  2037  0FD5  00B6               	movwf	Lcd_Write_String@a+1
  2038  0FD6  160A  118A  2673  120A  158A  	fcall	_Lcd_Write_String
  2039  0FDB                     l3121:
  2040                           
  2041                           ;LAB3.c: 145:         Lcd_Write_String(POT2SC);
  2042  0FDB  30B3               	movlw	(low (_POT2SC| 0))& (0+255)
  2043  0FDC  1283               	bcf	3,5	;RP0=0, select bank0
  2044  0FDD  1303               	bcf	3,6	;RP1=0, select bank0
  2045  0FDE  00B5               	movwf	Lcd_Write_String@a
  2046  0FDF  3000               	movlw	0
  2047  0FE0  00B6               	movwf	Lcd_Write_String@a+1
  2048  0FE1  160A  118A  2673  120A  158A  	fcall	_Lcd_Write_String
  2049  0FE6                     l3123:
  2050                           
  2051                           ;LAB3.c: 146:         Lcd_Write_String(" ");
  2052  0FE6  3010               	movlw	(low (((STR_1+15)-__stringbase)| (0+32768)))& (0+255)
  2053  0FE7  1283               	bcf	3,5	;RP0=0, select bank0
  2054  0FE8  1303               	bcf	3,6	;RP1=0, select bank0
  2055  0FE9  00B5               	movwf	Lcd_Write_String@a
  2056  0FEA  3080               	movlw	128
  2057  0FEB  00B6               	movwf	Lcd_Write_String@a+1
  2058  0FEC  160A  118A  2673  120A  158A  	fcall	_Lcd_Write_String
  2059  0FF1                     l3125:
  2060                           
  2061                           ;LAB3.c: 147:         Lcd_Write_String(COMPARE);
  2062  0FF1  30A1               	movlw	(low (_COMPARE| (0+256)))& (0+255)
  2063  0FF2  1283               	bcf	3,5	;RP0=0, select bank0
  2064  0FF3  1303               	bcf	3,6	;RP1=0, select bank0
  2065  0FF4  00B5               	movwf	Lcd_Write_String@a
  2066  0FF5  3001               	movlw	1
  2067  0FF6  00B6               	movwf	Lcd_Write_String@a+1
  2068  0FF7  160A  118A  2673  120A  158A  	fcall	_Lcd_Write_String
  2069  0FFC  2C3F               	goto	l109
  2070  0FFD  120A  118A  2810   	ljmp	start
  2071  1000                     __end_of_main:
  2072                           
  2073                           	psect	text1
  2074  1650                     __ptext1:	
  2075 ;; *************** function _strcpy *****************
  2076 ;; Defined at:
  2077 ;;		line 8 in file "C:\Program Files\Microchip\xc8\v2.31\pic\sources\c90\common\strcpy.c"
  2078 ;; Parameters:    Size  Location     Type
  2079 ;;  to              1    wreg     PTR unsigned char 
  2080 ;;		 -> PUNTO2(5), PUNTO1(5), 
  2081 ;;  from            1   18[BANK0 ] PTR const unsigned char 
  2082 ;;		 -> STR_3(2), STR_2(2), 
  2083 ;; Auto vars:     Size  Location     Type
  2084 ;;  to              1   21[BANK0 ] PTR unsigned char 
  2085 ;;		 -> PUNTO2(5), PUNTO1(5), 
  2086 ;;  cp              1   20[BANK0 ] PTR unsigned char 
  2087 ;;		 -> PUNTO2(5), PUNTO1(5), 
  2088 ;; Return value:  Size  Location     Type
  2089 ;;                  1    wreg      PTR unsigned char 
  2090 ;; Registers used:
  2091 ;;		wreg, fsr0l, fsr0h, status,2, status,0, pclath
  2092 ;; Tracked objects:
  2093 ;;		On entry : 0/0
  2094 ;;		On exit  : 0/0
  2095 ;;		Unchanged: 0/0
  2096 ;; Data sizes:     COMMON   BANK0   BANK1   BANK3   BANK2
  2097 ;;      Params:         0       1       0       0       0
  2098 ;;      Locals:         0       2       0       0       0
  2099 ;;      Temps:          0       1       0       0       0
  2100 ;;      Totals:         0       4       0       0       0
  2101 ;;Total ram usage:        4 bytes
  2102 ;; Hardware stack levels used:    1
  2103 ;; Hardware stack levels required when called:    4
  2104 ;; This function calls:
  2105 ;;		Nothing
  2106 ;; This function is called by:
  2107 ;;		_main
  2108 ;; This function uses a non-reentrant model
  2109 ;;
  2110                           
  2111                           
  2112                           ;psect for function _strcpy
  2113  1650                     _strcpy:
  2114                           
  2115                           ;incstack = 0
  2116                           ; Regs used in _strcpy: [wreg-fsr0h+status,2+status,0+pclath]
  2117                           ;strcpy@to stored from wreg
  2118  1650  1283               	bcf	3,5	;RP0=0, select bank0
  2119  1651  1303               	bcf	3,6	;RP1=0, select bank0
  2120  1652  00B5               	movwf	strcpy@to
  2121  1653                     l2051:
  2122  1653  0835               	movf	strcpy@to,w
  2123  1654  00B3               	movwf	??_strcpy
  2124  1655  0833               	movf	??_strcpy,w
  2125  1656  00B4               	movwf	strcpy@cp
  2126  1657  2E60               	goto	l2055
  2127  1658                     l2053:
  2128  1658  3001               	movlw	1
  2129  1659  00B3               	movwf	??_strcpy
  2130  165A  0833               	movf	??_strcpy,w
  2131  165B  07B4               	addwf	strcpy@cp,f
  2132  165C  3001               	movlw	1
  2133  165D  00B3               	movwf	??_strcpy
  2134  165E  0833               	movf	??_strcpy,w
  2135  165F  07B2               	addwf	strcpy@from,f
  2136  1660                     l2055:
  2137  1660  0832               	movf	strcpy@from,w
  2138  1661  0084               	movwf	4
  2139  1662  160A  118A  200A  160A  118A  	fcall	stringdir
  2140  1667  00B3               	movwf	??_strcpy
  2141  1668  0834               	movf	strcpy@cp,w
  2142  1669  0084               	movwf	4
  2143  166A  0833               	movf	??_strcpy,w
  2144  166B  1383               	bcf	3,7	;select IRP bank0
  2145  166C  0080               	movwf	0
  2146  166D  0800               	movf	0,w
  2147  166E  1D03               	btfss	3,2
  2148  166F  2E71               	goto	u1971
  2149  1670  2E72               	goto	u1970
  2150  1671                     u1971:
  2151  1671  2E58               	goto	l2053
  2152  1672                     u1970:
  2153  1672                     l779:
  2154  1672  0008               	return
  2155  1673                     __end_of_strcpy:
  2156                           
  2157                           	psect	text2
  2158  16C4                     __ptext2:	
  2159 ;; *************** function _strcat *****************
  2160 ;; Defined at:
  2161 ;;		line 8 in file "C:\Program Files\Microchip\xc8\v2.31\pic\sources\c90\common\strcat.c"
  2162 ;; Parameters:    Size  Location     Type
  2163 ;;  to              1    wreg     PTR unsigned char 
  2164 ;;		 -> PUNTO2(5), POT2SC(5), POT2SB(5), PUNTO1(5), 
  2165 ;;		 -> POT1SC(5), POT1SB(5), 
  2166 ;;  from            1   18[BANK0 ] PTR const unsigned char 
  2167 ;;		 -> PUNTO2(5), POT2SB(5), POT2SA(5), PUNTO1(5), 
  2168 ;;		 -> POT1SB(5), POT1SA(5), 
  2169 ;; Auto vars:     Size  Location     Type
  2170 ;;  to              1   21[BANK0 ] PTR unsigned char 
  2171 ;;		 -> PUNTO2(5), POT2SC(5), POT2SB(5), PUNTO1(5), 
  2172 ;;		 -> POT1SC(5), POT1SB(5), 
  2173 ;;  cp              1   20[BANK0 ] PTR unsigned char 
  2174 ;;		 -> PUNTO2(5), POT2SC(5), POT2SB(5), PUNTO1(5), 
  2175 ;;		 -> POT1SC(5), POT1SB(5), 
  2176 ;; Return value:  Size  Location     Type
  2177 ;;                  1    wreg      PTR unsigned char 
  2178 ;; Registers used:
  2179 ;;		wreg, fsr0l, fsr0h, status,2, status,0
  2180 ;; Tracked objects:
  2181 ;;		On entry : 0/0
  2182 ;;		On exit  : 0/0
  2183 ;;		Unchanged: 0/0
  2184 ;; Data sizes:     COMMON   BANK0   BANK1   BANK3   BANK2
  2185 ;;      Params:         0       1       0       0       0
  2186 ;;      Locals:         0       2       0       0       0
  2187 ;;      Temps:          0       1       0       0       0
  2188 ;;      Totals:         0       4       0       0       0
  2189 ;;Total ram usage:        4 bytes
  2190 ;; Hardware stack levels used:    1
  2191 ;; Hardware stack levels required when called:    4
  2192 ;; This function calls:
  2193 ;;		Nothing
  2194 ;; This function is called by:
  2195 ;;		_main
  2196 ;; This function uses a non-reentrant model
  2197 ;;
  2198                           
  2199                           
  2200                           ;psect for function _strcat
  2201  16C4                     _strcat:
  2202                           
  2203                           ;incstack = 0
  2204                           ; Regs used in _strcat: [wreg-fsr0h+status,2+status,0]
  2205                           ;strcat@to stored from wreg
  2206  16C4  1283               	bcf	3,5	;RP0=0, select bank0
  2207  16C5  1303               	bcf	3,6	;RP1=0, select bank0
  2208  16C6  00B5               	movwf	strcat@to
  2209  16C7                     l2057:
  2210  16C7  0835               	movf	strcat@to,w
  2211  16C8  00B3               	movwf	??_strcat
  2212  16C9  0833               	movf	??_strcat,w
  2213  16CA  00B4               	movwf	strcat@cp
  2214  16CB  2ED0               	goto	l2061
  2215  16CC                     l2059:
  2216  16CC  3001               	movlw	1
  2217  16CD  00B3               	movwf	??_strcat
  2218  16CE  0833               	movf	??_strcat,w
  2219  16CF  07B4               	addwf	strcat@cp,f
  2220  16D0                     l2061:
  2221  16D0  0834               	movf	strcat@cp,w
  2222  16D1  0084               	movwf	4
  2223  16D2  1383               	bcf	3,7	;select IRP bank0
  2224  16D3  0800               	movf	0,w
  2225  16D4  1D03               	btfss	3,2
  2226  16D5  2ED7               	goto	u1981
  2227  16D6  2ED8               	goto	u1980
  2228  16D7                     u1981:
  2229  16D7  2ECC               	goto	l2059
  2230  16D8                     u1980:
  2231  16D8  2EE1               	goto	l2065
  2232  16D9                     l2063:
  2233  16D9  3001               	movlw	1
  2234  16DA  00B3               	movwf	??_strcat
  2235  16DB  0833               	movf	??_strcat,w
  2236  16DC  07B4               	addwf	strcat@cp,f
  2237  16DD  3001               	movlw	1
  2238  16DE  00B3               	movwf	??_strcat
  2239  16DF  0833               	movf	??_strcat,w
  2240  16E0  07B2               	addwf	strcat@from,f
  2241  16E1                     l2065:
  2242  16E1  0832               	movf	strcat@from,w
  2243  16E2  0084               	movwf	4
  2244  16E3  0800               	movf	0,w
  2245  16E4  00B3               	movwf	??_strcat
  2246  16E5  0834               	movf	strcat@cp,w
  2247  16E6  0084               	movwf	4
  2248  16E7  0833               	movf	??_strcat,w
  2249  16E8  0080               	movwf	0
  2250  16E9  0800               	movf	0,w
  2251  16EA  1D03               	btfss	3,2
  2252  16EB  2EED               	goto	u1991
  2253  16EC  2EEE               	goto	u1990
  2254  16ED                     u1991:
  2255  16ED  2ED9               	goto	l2063
  2256  16EE                     u1990:
  2257  16EE                     l773:
  2258  16EE  0008               	return
  2259  16EF                     __end_of_strcat:
  2260                           
  2261                           	psect	text3
  2262  1613                     __ptext3:	
  2263 ;; *************** function _setup *****************
  2264 ;; Defined at:
  2265 ;;		line 157 in file "LAB3.c"
  2266 ;; Parameters:    Size  Location     Type
  2267 ;;		None
  2268 ;; Auto vars:     Size  Location     Type
  2269 ;;		None
  2270 ;; Return value:  Size  Location     Type
  2271 ;;                  1    wreg      void 
  2272 ;; Registers used:
  2273 ;;		wreg, status,2, status,0
  2274 ;; Tracked objects:
  2275 ;;		On entry : 0/0
  2276 ;;		On exit  : 0/0
  2277 ;;		Unchanged: 0/0
  2278 ;; Data sizes:     COMMON   BANK0   BANK1   BANK3   BANK2
  2279 ;;      Params:         0       0       0       0       0
  2280 ;;      Locals:         0       0       0       0       0
  2281 ;;      Temps:          0       0       0       0       0
  2282 ;;      Totals:         0       0       0       0       0
  2283 ;;Total ram usage:        0 bytes
  2284 ;; Hardware stack levels used:    1
  2285 ;; Hardware stack levels required when called:    4
  2286 ;; This function calls:
  2287 ;;		Nothing
  2288 ;; This function is called by:
  2289 ;;		_main
  2290 ;; This function uses a non-reentrant model
  2291 ;;
  2292                           
  2293                           
  2294                           ;psect for function _setup
  2295  1613                     _setup:
  2296  1613                     l1985:	
  2297                           ;incstack = 0
  2298                           ; Regs used in _setup: [wreg+status,2+status,0]
  2299                           
  2300                           
  2301                           ;LAB3.c: 158:     ANSEL = 0b00001001;
  2302  1613  3009               	movlw	9
  2303  1614  1683               	bsf	3,5	;RP0=1, select bank3
  2304  1615  1703               	bsf	3,6	;RP1=1, select bank3
  2305  1616  0088               	movwf	8	;volatile
  2306  1617                     l1987:
  2307                           
  2308                           ;LAB3.c: 159:     ANSELH= 0b00000000;
  2309  1617  0189               	clrf	9	;volatile
  2310  1618                     l1989:
  2311                           
  2312                           ;LAB3.c: 160:     TRISA = 0b00001001;
  2313  1618  3009               	movlw	9
  2314  1619  1683               	bsf	3,5	;RP0=1, select bank1
  2315  161A  1303               	bcf	3,6	;RP1=0, select bank1
  2316  161B  0085               	movwf	5	;volatile
  2317                           
  2318                           ;LAB3.c: 161:     TRISB = 0b00000000;
  2319  161C  0186               	clrf	6	;volatile
  2320                           
  2321                           ;LAB3.c: 162:     TRISD = 0b00000000;
  2322  161D  0188               	clrf	8	;volatile
  2323                           
  2324                           ;LAB3.c: 163:     TRISE = 0;
  2325  161E  0189               	clrf	9	;volatile
  2326                           
  2327                           ;LAB3.c: 165:     PORTA = 0;
  2328  161F  1283               	bcf	3,5	;RP0=0, select bank0
  2329  1620  1303               	bcf	3,6	;RP1=0, select bank0
  2330  1621  0185               	clrf	5	;volatile
  2331                           
  2332                           ;LAB3.c: 166:     PORTB = 0;
  2333  1622  0186               	clrf	6	;volatile
  2334                           
  2335                           ;LAB3.c: 167:     PORTC = 0;
  2336  1623  0187               	clrf	7	;volatile
  2337                           
  2338                           ;LAB3.c: 168:     PORTD = 0;
  2339  1624  0188               	clrf	8	;volatile
  2340                           
  2341                           ;LAB3.c: 169:     PORTE = 0;
  2342  1625  0189               	clrf	9	;volatile
  2343  1626                     l1991:
  2344                           
  2345                           ;LAB3.c: 171:     OSCCONbits.IRCF = 0b110;
  2346  1626  1683               	bsf	3,5	;RP0=1, select bank1
  2347  1627  1303               	bcf	3,6	;RP1=0, select bank1
  2348  1628  080F               	movf	15,w	;volatile
  2349  1629  398F               	andlw	-113
  2350  162A  3860               	iorlw	96
  2351  162B  008F               	movwf	15	;volatile
  2352  162C                     l1993:
  2353                           
  2354                           ;LAB3.c: 172:     OSCCONbits.OSTS= 0;
  2355  162C  118F               	bcf	15,3	;volatile
  2356  162D                     l1995:
  2357                           
  2358                           ;LAB3.c: 173:     OSCCONbits.HTS = 0;
  2359  162D  110F               	bcf	15,2	;volatile
  2360  162E                     l1997:
  2361                           
  2362                           ;LAB3.c: 174:     OSCCONbits.LTS = 0;
  2363  162E  108F               	bcf	15,1	;volatile
  2364  162F                     l1999:
  2365                           
  2366                           ;LAB3.c: 175:     OSCCONbits.SCS = 1;
  2367  162F  140F               	bsf	15,0	;volatile
  2368  1630                     l115:
  2369  1630  0008               	return
  2370  1631                     __end_of_setup:
  2371                           
  2372                           	psect	text4
  2373  171B                     __ptext4:	
  2374 ;; *************** function _itoa *****************
  2375 ;; Defined at:
  2376 ;;		line 4 in file "C:\Program Files\Microchip\xc8\v2.31\pic\sources\c90\common\itoa.c"
  2377 ;; Parameters:    Size  Location     Type
  2378 ;;  buf             2   36[BANK0 ] PTR unsigned char 
  2379 ;;		 -> POT2SC(5), POT2SB(5), POT2SA(5), POT1SC(5), 
  2380 ;;		 -> POT1SB(5), POT1SA(5), COMPARE(5), 
  2381 ;;  val             2   38[BANK0 ] int 
  2382 ;;  base            2   40[BANK0 ] int 
  2383 ;; Auto vars:     Size  Location     Type
  2384 ;;  cp              2    0        PTR unsigned char 
  2385 ;;		 -> POT2SC(5), POT2SB(5), POT2SA(5), POT1SC(5), 
  2386 ;;		 -> POT1SB(5), POT1SA(5), COMPARE(5), 
  2387 ;; Return value:  Size  Location     Type
  2388 ;;                  2   36[BANK0 ] PTR unsigned char 
  2389 ;; Registers used:
  2390 ;;		wreg, fsr0l, fsr0h, status,2, status,0, pclath, cstack
  2391 ;; Tracked objects:
  2392 ;;		On entry : 0/0
  2393 ;;		On exit  : 0/0
  2394 ;;		Unchanged: 0/0
  2395 ;; Data sizes:     COMMON   BANK0   BANK1   BANK3   BANK2
  2396 ;;      Params:         0       6       0       0       0
  2397 ;;      Locals:         0       2       0       0       0
  2398 ;;      Temps:          0       1       0       0       0
  2399 ;;      Totals:         0       9       0       0       0
  2400 ;;Total ram usage:        9 bytes
  2401 ;; Hardware stack levels used:    1
  2402 ;; Hardware stack levels required when called:    6
  2403 ;; This function calls:
  2404 ;;		_utoa
  2405 ;; This function is called by:
  2406 ;;		_main
  2407 ;; This function uses a non-reentrant model
  2408 ;;
  2409                           
  2410                           
  2411                           ;psect for function _itoa
  2412  171B                     _itoa:
  2413  171B                     l2699:	
  2414                           ;incstack = 0
  2415                           ; Regs used in _itoa: [wreg-fsr0h+status,2+status,0+pclath+cstack]
  2416                           
  2417  171B                     l2701:
  2418  171B  1283               	bcf	3,5	;RP0=0, select bank0
  2419  171C  1303               	bcf	3,6	;RP1=0, select bank0
  2420  171D  1FC7               	btfss	itoa@val+1,7
  2421  171E  2F20               	goto	u3231
  2422  171F  2F21               	goto	u3230
  2423  1720                     u3231:
  2424  1720  2F35               	goto	l2709
  2425  1721                     u3230:
  2426  1721                     l2703:
  2427  1721  302D               	movlw	45
  2428  1722  00CA               	movwf	??_itoa
  2429  1723  0844               	movf	itoa@buf,w
  2430  1724  0084               	movwf	4
  2431  1725  1783               	bsf	3,7
  2432  1726  1C45               	btfss	itoa@buf+1,0
  2433  1727  1383               	bcf	3,7
  2434  1728  084A               	movf	??_itoa,w
  2435  1729  0080               	movwf	0
  2436  172A                     l2705:
  2437  172A  3001               	movlw	1
  2438  172B  07C4               	addwf	itoa@buf,f
  2439  172C  1803               	skipnc
  2440  172D  0AC5               	incf	itoa@buf+1,f
  2441  172E  3000               	movlw	0
  2442  172F  07C5               	addwf	itoa@buf+1,f
  2443  1730                     l2707:
  2444  1730  09C6               	comf	itoa@val,f
  2445  1731  09C7               	comf	itoa@val+1,f
  2446  1732  0AC6               	incf	itoa@val,f
  2447  1733  1903               	skipnz
  2448  1734  0AC7               	incf	itoa@val+1,f
  2449  1735                     l2709:
  2450  1735  0844               	movf	itoa@buf,w
  2451  1736  00BA               	movwf	utoa@buf
  2452  1737  0845               	movf	itoa@buf+1,w
  2453  1738  00BB               	movwf	utoa@buf+1
  2454  1739  0847               	movf	itoa@val+1,w
  2455  173A  00BD               	movwf	utoa@val+1
  2456  173B  0846               	movf	itoa@val,w
  2457  173C  00BC               	movwf	utoa@val
  2458  173D  0849               	movf	itoa@base+1,w
  2459  173E  00BF               	movwf	utoa@base+1
  2460  173F  0848               	movf	itoa@base,w
  2461  1740  00BE               	movwf	utoa@base
  2462  1741  120A  118A  264A  160A  118A  	fcall	_utoa
  2463  1746                     l756:
  2464  1746  0008               	return
  2465  1747                     __end_of_itoa:
  2466                           
  2467                           	psect	text5
  2468  064A                     __ptext5:	
  2469 ;; *************** function _utoa *****************
  2470 ;; Defined at:
  2471 ;;		line 17 in file "C:\Program Files\Microchip\xc8\v2.31\pic\sources\c90\common\itoa.c"
  2472 ;; Parameters:    Size  Location     Type
  2473 ;;  buf             2   26[BANK0 ] PTR unsigned char 
  2474 ;;		 -> POT2SC(5), POT2SB(5), POT2SA(5), POT1SC(5), 
  2475 ;;		 -> POT1SB(5), POT1SA(5), COMPARE(5), 
  2476 ;;  val             2   28[BANK0 ] unsigned int 
  2477 ;;  base            2   30[BANK0 ] int 
  2478 ;; Auto vars:     Size  Location     Type
  2479 ;;  v               2   33[BANK0 ] unsigned int 
  2480 ;;  c               1   35[BANK0 ] unsigned char 
  2481 ;; Return value:  Size  Location     Type
  2482 ;;                  2   26[BANK0 ] PTR unsigned char 
  2483 ;; Registers used:
  2484 ;;		wreg, fsr0l, fsr0h, status,2, status,0, pclath, cstack
  2485 ;; Tracked objects:
  2486 ;;		On entry : 0/0
  2487 ;;		On exit  : 0/0
  2488 ;;		Unchanged: 0/0
  2489 ;; Data sizes:     COMMON   BANK0   BANK1   BANK3   BANK2
  2490 ;;      Params:         0       6       0       0       0
  2491 ;;      Locals:         0       3       0       0       0
  2492 ;;      Temps:          0       1       0       0       0
  2493 ;;      Totals:         0      10       0       0       0
  2494 ;;Total ram usage:       10 bytes
  2495 ;; Hardware stack levels used:    1
  2496 ;; Hardware stack levels required when called:    5
  2497 ;; This function calls:
  2498 ;;		___lwdiv
  2499 ;;		___lwmod
  2500 ;; This function is called by:
  2501 ;;		_itoa
  2502 ;; This function uses a non-reentrant model
  2503 ;;
  2504                           
  2505                           
  2506                           ;psect for function _utoa
  2507  064A                     _utoa:
  2508  064A                     l2639:	
  2509                           ;incstack = 0
  2510                           ; Regs used in _utoa: [wreg-fsr0h+status,2+status,0+pclath+cstack]
  2511                           
  2512  064A  1283               	bcf	3,5	;RP0=0, select bank0
  2513  064B  1303               	bcf	3,6	;RP1=0, select bank0
  2514  064C  083D               	movf	utoa@val+1,w
  2515  064D  00C2               	movwf	utoa@v+1
  2516  064E  083C               	movf	utoa@val,w
  2517  064F  00C1               	movwf	utoa@v
  2518  0650                     l2641:
  2519  0650  083F               	movf	utoa@base+1,w
  2520  0651  00B3               	movwf	___lwdiv@divisor+1
  2521  0652  083E               	movf	utoa@base,w
  2522  0653  00B2               	movwf	___lwdiv@divisor
  2523  0654  0842               	movf	utoa@v+1,w
  2524  0655  00B5               	movwf	___lwdiv@dividend+1
  2525  0656  0841               	movf	utoa@v,w
  2526  0657  00B4               	movwf	___lwdiv@dividend
  2527  0658  120A  158A  2090  120A  118A  	fcall	___lwdiv
  2528  065D  1283               	bcf	3,5	;RP0=0, select bank0
  2529  065E  1303               	bcf	3,6	;RP1=0, select bank0
  2530  065F  0833               	movf	?___lwdiv+1,w
  2531  0660  00C2               	movwf	utoa@v+1
  2532  0661  0832               	movf	?___lwdiv,w
  2533  0662  00C1               	movwf	utoa@v
  2534  0663                     l2643:
  2535  0663  3001               	movlw	1
  2536  0664  07BA               	addwf	utoa@buf,f
  2537  0665  1803               	skipnc
  2538  0666  0ABB               	incf	utoa@buf+1,f
  2539  0667  3000               	movlw	0
  2540  0668  07BB               	addwf	utoa@buf+1,f
  2541  0669                     l2645:
  2542  0669  0841               	movf	utoa@v,w
  2543  066A  0442               	iorwf	utoa@v+1,w
  2544  066B  1D03               	btfss	3,2
  2545  066C  2E6E               	goto	u3171
  2546  066D  2E6F               	goto	u3170
  2547  066E                     u3171:
  2548  066E  2E50               	goto	l2641
  2549  066F                     u3170:
  2550  066F                     l2647:
  2551  066F  083A               	movf	utoa@buf,w
  2552  0670  0084               	movwf	4
  2553  0671  1783               	bsf	3,7
  2554  0672  1C3B               	btfss	utoa@buf+1,0
  2555  0673  1383               	bcf	3,7
  2556  0674  0180               	clrf	0
  2557  0675                     l2649:
  2558  0675  3001               	movlw	1
  2559  0676  02BA               	subwf	utoa@buf,f
  2560  0677  3000               	movlw	0
  2561  0678  1C03               	skipc
  2562  0679  03BB               	decf	utoa@buf+1,f
  2563  067A  02BB               	subwf	utoa@buf+1,f
  2564  067B                     l2651:
  2565  067B  083F               	movf	utoa@base+1,w
  2566  067C  00B3               	movwf	___lwmod@divisor+1
  2567  067D  083E               	movf	utoa@base,w
  2568  067E  00B2               	movwf	___lwmod@divisor
  2569  067F  083D               	movf	utoa@val+1,w
  2570  0680  00B5               	movwf	___lwmod@dividend+1
  2571  0681  083C               	movf	utoa@val,w
  2572  0682  00B4               	movwf	___lwmod@dividend
  2573  0683  160A  118A  2781  120A  118A  	fcall	___lwmod
  2574  0688  1283               	bcf	3,5	;RP0=0, select bank0
  2575  0689  1303               	bcf	3,6	;RP1=0, select bank0
  2576  068A  0832               	movf	?___lwmod,w
  2577  068B  00C0               	movwf	??_utoa
  2578  068C  0840               	movf	??_utoa,w
  2579  068D  00C3               	movwf	utoa@c
  2580  068E                     l2653:
  2581  068E  083F               	movf	utoa@base+1,w
  2582  068F  00B3               	movwf	___lwdiv@divisor+1
  2583  0690  083E               	movf	utoa@base,w
  2584  0691  00B2               	movwf	___lwdiv@divisor
  2585  0692  083D               	movf	utoa@val+1,w
  2586  0693  00B5               	movwf	___lwdiv@dividend+1
  2587  0694  083C               	movf	utoa@val,w
  2588  0695  00B4               	movwf	___lwdiv@dividend
  2589  0696  120A  158A  2090  120A  118A  	fcall	___lwdiv
  2590  069B  1283               	bcf	3,5	;RP0=0, select bank0
  2591  069C  1303               	bcf	3,6	;RP1=0, select bank0
  2592  069D  0833               	movf	?___lwdiv+1,w
  2593  069E  00BD               	movwf	utoa@val+1
  2594  069F  0832               	movf	?___lwdiv,w
  2595  06A0  00BC               	movwf	utoa@val
  2596  06A1                     l2655:
  2597  06A1  300A               	movlw	10
  2598  06A2  0243               	subwf	utoa@c,w
  2599  06A3  1C03               	skipc
  2600  06A4  2EA6               	goto	u3181
  2601  06A5  2EA7               	goto	u3180
  2602  06A6                     u3181:
  2603  06A6  2EAB               	goto	l762
  2604  06A7                     u3180:
  2605  06A7                     l2657:
  2606  06A7  3007               	movlw	7
  2607  06A8  00C0               	movwf	??_utoa
  2608  06A9  0840               	movf	??_utoa,w
  2609  06AA  07C3               	addwf	utoa@c,f
  2610  06AB                     l762:
  2611  06AB  3030               	movlw	48
  2612  06AC  00C0               	movwf	??_utoa
  2613  06AD  0840               	movf	??_utoa,w
  2614  06AE  07C3               	addwf	utoa@c,f
  2615  06AF                     l2659:
  2616  06AF  0843               	movf	utoa@c,w
  2617  06B0  00C0               	movwf	??_utoa
  2618  06B1  083A               	movf	utoa@buf,w
  2619  06B2  0084               	movwf	4
  2620  06B3  1783               	bsf	3,7
  2621  06B4  1C3B               	btfss	utoa@buf+1,0
  2622  06B5  1383               	bcf	3,7
  2623  06B6  0840               	movf	??_utoa,w
  2624  06B7  0080               	movwf	0
  2625  06B8                     l2661:
  2626  06B8  3001               	movlw	1
  2627  06B9  02BA               	subwf	utoa@buf,f
  2628  06BA  3000               	movlw	0
  2629  06BB  1C03               	skipc
  2630  06BC  03BB               	decf	utoa@buf+1,f
  2631  06BD  02BB               	subwf	utoa@buf+1,f
  2632  06BE                     l2663:
  2633  06BE  083C               	movf	utoa@val,w
  2634  06BF  043D               	iorwf	utoa@val+1,w
  2635  06C0  1D03               	btfss	3,2
  2636  06C1  2EC3               	goto	u3191
  2637  06C2  2EC4               	goto	u3190
  2638  06C3                     u3191:
  2639  06C3  2E7B               	goto	l2651
  2640  06C4                     u3190:
  2641  06C4                     l2665:
  2642                           
  2643                           ;	Return value of _utoa is never used
  2644  06C4  3001               	movlw	1
  2645  06C5  07BA               	addwf	utoa@buf,f
  2646  06C6  1803               	skipnc
  2647  06C7  0ABB               	incf	utoa@buf+1,f
  2648  06C8  3000               	movlw	0
  2649  06C9  07BB               	addwf	utoa@buf+1,f
  2650  06CA                     l764:
  2651  06CA  0008               	return
  2652  06CB                     __end_of_utoa:
  2653                           
  2654                           	psect	text6
  2655  1781                     __ptext6:	
  2656 ;; *************** function ___lwmod *****************
  2657 ;; Defined at:
  2658 ;;		line 5 in file "C:\Program Files\Microchip\xc8\v2.31\pic\sources\c90\common\lwmod.c"
  2659 ;; Parameters:    Size  Location     Type
  2660 ;;  divisor         2   18[BANK0 ] unsigned int 
  2661 ;;  dividend        2   20[BANK0 ] unsigned int 
  2662 ;; Auto vars:     Size  Location     Type
  2663 ;;  counter         1   23[BANK0 ] unsigned char 
  2664 ;; Return value:  Size  Location     Type
  2665 ;;                  2   18[BANK0 ] unsigned int 
  2666 ;; Registers used:
  2667 ;;		wreg, status,2, status,0
  2668 ;; Tracked objects:
  2669 ;;		On entry : 0/0
  2670 ;;		On exit  : 0/0
  2671 ;;		Unchanged: 0/0
  2672 ;; Data sizes:     COMMON   BANK0   BANK1   BANK3   BANK2
  2673 ;;      Params:         0       4       0       0       0
  2674 ;;      Locals:         0       1       0       0       0
  2675 ;;      Temps:          0       1       0       0       0
  2676 ;;      Totals:         0       6       0       0       0
  2677 ;;Total ram usage:        6 bytes
  2678 ;; Hardware stack levels used:    1
  2679 ;; Hardware stack levels required when called:    4
  2680 ;; This function calls:
  2681 ;;		Nothing
  2682 ;; This function is called by:
  2683 ;;		_utoa
  2684 ;; This function uses a non-reentrant model
  2685 ;;
  2686                           
  2687                           
  2688                           ;psect for function ___lwmod
  2689  1781                     ___lwmod:
  2690  1781                     l1763:	
  2691                           ;incstack = 0
  2692                           ; Regs used in ___lwmod: [wreg+status,2+status,0]
  2693                           
  2694  1781  1283               	bcf	3,5	;RP0=0, select bank0
  2695  1782  1303               	bcf	3,6	;RP1=0, select bank0
  2696  1783  0832               	movf	___lwmod@divisor,w
  2697  1784  0433               	iorwf	___lwmod@divisor+1,w
  2698  1785  1903               	btfsc	3,2
  2699  1786  2F88               	goto	u1651
  2700  1787  2F89               	goto	u1650
  2701  1788                     u1651:
  2702  1788  2FB8               	goto	l1781
  2703  1789                     u1650:
  2704  1789                     l1765:
  2705  1789  01B7               	clrf	___lwmod@counter
  2706  178A  0AB7               	incf	___lwmod@counter,f
  2707  178B  2F97               	goto	l1771
  2708  178C                     l1767:
  2709  178C  3001               	movlw	1
  2710  178D                     u1665:
  2711  178D  1003               	clrc
  2712  178E  0DB2               	rlf	___lwmod@divisor,f
  2713  178F  0DB3               	rlf	___lwmod@divisor+1,f
  2714  1790  3EFF               	addlw	-1
  2715  1791  1D03               	skipz
  2716  1792  2F8D               	goto	u1665
  2717  1793                     l1769:
  2718  1793  3001               	movlw	1
  2719  1794  00B6               	movwf	??___lwmod
  2720  1795  0836               	movf	??___lwmod,w
  2721  1796  07B7               	addwf	___lwmod@counter,f
  2722  1797                     l1771:
  2723  1797  1FB3               	btfss	___lwmod@divisor+1,7
  2724  1798  2F9A               	goto	u1671
  2725  1799  2F9B               	goto	u1670
  2726  179A                     u1671:
  2727  179A  2F8C               	goto	l1767
  2728  179B                     u1670:
  2729  179B                     l1773:
  2730  179B  0833               	movf	___lwmod@divisor+1,w
  2731  179C  0235               	subwf	___lwmod@dividend+1,w
  2732  179D  1D03               	skipz
  2733  179E  2FA1               	goto	u1685
  2734  179F  0832               	movf	___lwmod@divisor,w
  2735  17A0  0234               	subwf	___lwmod@dividend,w
  2736  17A1                     u1685:
  2737  17A1  1C03               	skipc
  2738  17A2  2FA4               	goto	u1681
  2739  17A3  2FA5               	goto	u1680
  2740  17A4                     u1681:
  2741  17A4  2FAB               	goto	l1777
  2742  17A5                     u1680:
  2743  17A5                     l1775:
  2744  17A5  0832               	movf	___lwmod@divisor,w
  2745  17A6  02B4               	subwf	___lwmod@dividend,f
  2746  17A7  0833               	movf	___lwmod@divisor+1,w
  2747  17A8  1C03               	skipc
  2748  17A9  03B5               	decf	___lwmod@dividend+1,f
  2749  17AA  02B5               	subwf	___lwmod@dividend+1,f
  2750  17AB                     l1777:
  2751  17AB  3001               	movlw	1
  2752  17AC                     u1695:
  2753  17AC  1003               	clrc
  2754  17AD  0CB3               	rrf	___lwmod@divisor+1,f
  2755  17AE  0CB2               	rrf	___lwmod@divisor,f
  2756  17AF  3EFF               	addlw	-1
  2757  17B0  1D03               	skipz
  2758  17B1  2FAC               	goto	u1695
  2759  17B2                     l1779:
  2760  17B2  3001               	movlw	1
  2761  17B3  02B7               	subwf	___lwmod@counter,f
  2762  17B4  1D03               	btfss	3,2
  2763  17B5  2FB7               	goto	u1701
  2764  17B6  2FB8               	goto	u1700
  2765  17B7                     u1701:
  2766  17B7  2F9B               	goto	l1773
  2767  17B8                     u1700:
  2768  17B8                     l1781:
  2769  17B8  0835               	movf	___lwmod@dividend+1,w
  2770  17B9  00B3               	movwf	?___lwmod+1
  2771  17BA  0834               	movf	___lwmod@dividend,w
  2772  17BB  00B2               	movwf	?___lwmod
  2773  17BC                     l584:
  2774  17BC  0008               	return
  2775  17BD                     __end_of___lwmod:
  2776                           
  2777                           	psect	text7
  2778  0890                     __ptext7:	
  2779 ;; *************** function ___lwdiv *****************
  2780 ;; Defined at:
  2781 ;;		line 5 in file "C:\Program Files\Microchip\xc8\v2.31\pic\sources\c90\common\lwdiv.c"
  2782 ;; Parameters:    Size  Location     Type
  2783 ;;  divisor         2   18[BANK0 ] unsigned int 
  2784 ;;  dividend        2   20[BANK0 ] unsigned int 
  2785 ;; Auto vars:     Size  Location     Type
  2786 ;;  quotient        2   23[BANK0 ] unsigned int 
  2787 ;;  counter         1   25[BANK0 ] unsigned char 
  2788 ;; Return value:  Size  Location     Type
  2789 ;;                  2   18[BANK0 ] unsigned int 
  2790 ;; Registers used:
  2791 ;;		wreg, status,2, status,0
  2792 ;; Tracked objects:
  2793 ;;		On entry : 0/0
  2794 ;;		On exit  : 0/0
  2795 ;;		Unchanged: 0/0
  2796 ;; Data sizes:     COMMON   BANK0   BANK1   BANK3   BANK2
  2797 ;;      Params:         0       4       0       0       0
  2798 ;;      Locals:         0       3       0       0       0
  2799 ;;      Temps:          0       1       0       0       0
  2800 ;;      Totals:         0       8       0       0       0
  2801 ;;Total ram usage:        8 bytes
  2802 ;; Hardware stack levels used:    1
  2803 ;; Hardware stack levels required when called:    4
  2804 ;; This function calls:
  2805 ;;		Nothing
  2806 ;; This function is called by:
  2807 ;;		_utoa
  2808 ;; This function uses a non-reentrant model
  2809 ;;
  2810                           
  2811                           
  2812                           ;psect for function ___lwdiv
  2813  0890                     ___lwdiv:
  2814  0890                     l1737:	
  2815                           ;incstack = 0
  2816                           ; Regs used in ___lwdiv: [wreg+status,2+status,0]
  2817                           
  2818  0890  1283               	bcf	3,5	;RP0=0, select bank0
  2819  0891  1303               	bcf	3,6	;RP1=0, select bank0
  2820  0892  01B7               	clrf	___lwdiv@quotient
  2821  0893  01B8               	clrf	___lwdiv@quotient+1
  2822  0894                     l1739:
  2823  0894  0832               	movf	___lwdiv@divisor,w
  2824  0895  0433               	iorwf	___lwdiv@divisor+1,w
  2825  0896  1903               	btfsc	3,2
  2826  0897  2899               	goto	u1581
  2827  0898  289A               	goto	u1580
  2828  0899                     u1581:
  2829  0899  28D1               	goto	l1759
  2830  089A                     u1580:
  2831  089A                     l1741:
  2832  089A  01B9               	clrf	___lwdiv@counter
  2833  089B  0AB9               	incf	___lwdiv@counter,f
  2834  089C  28A8               	goto	l1747
  2835  089D                     l1743:
  2836  089D  3001               	movlw	1
  2837  089E                     u1595:
  2838  089E  1003               	clrc
  2839  089F  0DB2               	rlf	___lwdiv@divisor,f
  2840  08A0  0DB3               	rlf	___lwdiv@divisor+1,f
  2841  08A1  3EFF               	addlw	-1
  2842  08A2  1D03               	skipz
  2843  08A3  289E               	goto	u1595
  2844  08A4                     l1745:
  2845  08A4  3001               	movlw	1
  2846  08A5  00B6               	movwf	??___lwdiv
  2847  08A6  0836               	movf	??___lwdiv,w
  2848  08A7  07B9               	addwf	___lwdiv@counter,f
  2849  08A8                     l1747:
  2850  08A8  1FB3               	btfss	___lwdiv@divisor+1,7
  2851  08A9  28AB               	goto	u1601
  2852  08AA  28AC               	goto	u1600
  2853  08AB                     u1601:
  2854  08AB  289D               	goto	l1743
  2855  08AC                     u1600:
  2856  08AC                     l1749:
  2857  08AC  3001               	movlw	1
  2858  08AD                     u1615:
  2859  08AD  1003               	clrc
  2860  08AE  0DB7               	rlf	___lwdiv@quotient,f
  2861  08AF  0DB8               	rlf	___lwdiv@quotient+1,f
  2862  08B0  3EFF               	addlw	-1
  2863  08B1  1D03               	skipz
  2864  08B2  28AD               	goto	u1615
  2865  08B3  0833               	movf	___lwdiv@divisor+1,w
  2866  08B4  0235               	subwf	___lwdiv@dividend+1,w
  2867  08B5  1D03               	skipz
  2868  08B6  28B9               	goto	u1625
  2869  08B7  0832               	movf	___lwdiv@divisor,w
  2870  08B8  0234               	subwf	___lwdiv@dividend,w
  2871  08B9                     u1625:
  2872  08B9  1C03               	skipc
  2873  08BA  28BC               	goto	u1621
  2874  08BB  28BD               	goto	u1620
  2875  08BC                     u1621:
  2876  08BC  28C4               	goto	l1755
  2877  08BD                     u1620:
  2878  08BD                     l1751:
  2879  08BD  0832               	movf	___lwdiv@divisor,w
  2880  08BE  02B4               	subwf	___lwdiv@dividend,f
  2881  08BF  0833               	movf	___lwdiv@divisor+1,w
  2882  08C0  1C03               	skipc
  2883  08C1  03B5               	decf	___lwdiv@dividend+1,f
  2884  08C2  02B5               	subwf	___lwdiv@dividend+1,f
  2885  08C3                     l1753:
  2886  08C3  1437               	bsf	___lwdiv@quotient,0
  2887  08C4                     l1755:
  2888  08C4  3001               	movlw	1
  2889  08C5                     u1635:
  2890  08C5  1003               	clrc
  2891  08C6  0CB3               	rrf	___lwdiv@divisor+1,f
  2892  08C7  0CB2               	rrf	___lwdiv@divisor,f
  2893  08C8  3EFF               	addlw	-1
  2894  08C9  1D03               	skipz
  2895  08CA  28C5               	goto	u1635
  2896  08CB                     l1757:
  2897  08CB  3001               	movlw	1
  2898  08CC  02B9               	subwf	___lwdiv@counter,f
  2899  08CD  1D03               	btfss	3,2
  2900  08CE  28D0               	goto	u1641
  2901  08CF  28D1               	goto	u1640
  2902  08D0                     u1641:
  2903  08D0  28AC               	goto	l1749
  2904  08D1                     u1640:
  2905  08D1                     l1759:
  2906  08D1  0838               	movf	___lwdiv@quotient+1,w
  2907  08D2  00B3               	movwf	?___lwdiv+1
  2908  08D3  0837               	movf	___lwdiv@quotient,w
  2909  08D4  00B2               	movwf	?___lwdiv
  2910  08D5                     l574:
  2911  08D5  0008               	return
  2912  08D6                     __end_of___lwdiv:
  2913                           
  2914                           	psect	text8
  2915  058E                     __ptext8:	
  2916 ;; *************** function ___xxtofl *****************
  2917 ;; Defined at:
  2918 ;;		line 10 in file "C:\Program Files\Microchip\xc8\v2.31\pic\sources\c90\common\xxtofl.c"
  2919 ;; Parameters:    Size  Location     Type
  2920 ;;  sign            1    wreg     unsigned char 
  2921 ;;  val             4   18[BANK0 ] long 
  2922 ;; Auto vars:     Size  Location     Type
  2923 ;;  sign            1   26[BANK0 ] unsigned char 
  2924 ;;  arg             4   28[BANK0 ] unsigned long 
  2925 ;;  exp             1   27[BANK0 ] unsigned char 
  2926 ;; Return value:  Size  Location     Type
  2927 ;;                  4   18[BANK0 ] unsigned char 
  2928 ;; Registers used:
  2929 ;;		wreg, status,2, status,0
  2930 ;; Tracked objects:
  2931 ;;		On entry : 0/0
  2932 ;;		On exit  : 0/0
  2933 ;;		Unchanged: 0/0
  2934 ;; Data sizes:     COMMON   BANK0   BANK1   BANK3   BANK2
  2935 ;;      Params:         0       4       0       0       0
  2936 ;;      Locals:         0       6       0       0       0
  2937 ;;      Temps:          0       4       0       0       0
  2938 ;;      Totals:         0      14       0       0       0
  2939 ;;Total ram usage:       14 bytes
  2940 ;; Hardware stack levels used:    1
  2941 ;; Hardware stack levels required when called:    4
  2942 ;; This function calls:
  2943 ;;		Nothing
  2944 ;; This function is called by:
  2945 ;;		_main
  2946 ;; This function uses a non-reentrant model
  2947 ;;
  2948                           
  2949                           
  2950                           ;psect for function ___xxtofl
  2951  058E                     ___xxtofl:
  2952                           
  2953                           ;incstack = 0
  2954                           ; Regs used in ___xxtofl: [wreg+status,2+status,0]
  2955                           ;___xxtofl@sign stored from wreg
  2956  058E  1283               	bcf	3,5	;RP0=0, select bank0
  2957  058F  1303               	bcf	3,6	;RP1=0, select bank0
  2958  0590  00BA               	movwf	___xxtofl@sign
  2959  0591                     l2467:
  2960  0591  083A               	movf	___xxtofl@sign,w
  2961  0592  1903               	btfsc	3,2
  2962  0593  2D95               	goto	u2961
  2963  0594  2D96               	goto	u2960
  2964  0595                     u2961:
  2965  0595  2DAA               	goto	l2473
  2966  0596                     u2960:
  2967  0596                     l2469:
  2968  0596  1FB5               	btfss	___xxtofl@val+3,7
  2969  0597  2D99               	goto	u2971
  2970  0598  2D9A               	goto	u2970
  2971  0599                     u2971:
  2972  0599  2DAA               	goto	l2473
  2973  059A                     u2970:
  2974  059A                     l2471:
  2975  059A  0932               	comf	___xxtofl@val,w
  2976  059B  00BC               	movwf	___xxtofl@arg
  2977  059C  0933               	comf	___xxtofl@val+1,w
  2978  059D  00BD               	movwf	___xxtofl@arg+1
  2979  059E  0934               	comf	___xxtofl@val+2,w
  2980  059F  00BE               	movwf	___xxtofl@arg+2
  2981  05A0  0935               	comf	___xxtofl@val+3,w
  2982  05A1  00BF               	movwf	___xxtofl@arg+3
  2983  05A2  0ABC               	incf	___xxtofl@arg,f
  2984  05A3  1903               	skipnz
  2985  05A4  0ABD               	incf	___xxtofl@arg+1,f
  2986  05A5  1903               	skipnz
  2987  05A6  0ABE               	incf	___xxtofl@arg+2,f
  2988  05A7  1903               	skipnz
  2989  05A8  0ABF               	incf	___xxtofl@arg+3,f
  2990  05A9  2DB2               	goto	l735
  2991  05AA                     l2473:
  2992  05AA  0835               	movf	___xxtofl@val+3,w
  2993  05AB  00BF               	movwf	___xxtofl@arg+3
  2994  05AC  0834               	movf	___xxtofl@val+2,w
  2995  05AD  00BE               	movwf	___xxtofl@arg+2
  2996  05AE  0833               	movf	___xxtofl@val+1,w
  2997  05AF  00BD               	movwf	___xxtofl@arg+1
  2998  05B0  0832               	movf	___xxtofl@val,w
  2999  05B1  00BC               	movwf	___xxtofl@arg
  3000  05B2                     l735:
  3001  05B2  0835               	movf	___xxtofl@val+3,w
  3002  05B3  0434               	iorwf	___xxtofl@val+2,w
  3003  05B4  0433               	iorwf	___xxtofl@val+1,w
  3004  05B5  0432               	iorwf	___xxtofl@val,w
  3005  05B6  1D03               	skipz
  3006  05B7  2DB9               	goto	u2981
  3007  05B8  2DBA               	goto	u2980
  3008  05B9                     u2981:
  3009  05B9  2DC3               	goto	l2479
  3010  05BA                     u2980:
  3011  05BA                     l2475:
  3012  05BA  3000               	movlw	0
  3013  05BB  00B5               	movwf	?___xxtofl+3
  3014  05BC  3000               	movlw	0
  3015  05BD  00B4               	movwf	?___xxtofl+2
  3016  05BE  3000               	movlw	0
  3017  05BF  00B3               	movwf	?___xxtofl+1
  3018  05C0  3000               	movlw	0
  3019  05C1  00B2               	movwf	?___xxtofl
  3020  05C2  2E49               	goto	l737
  3021  05C3                     l2479:
  3022  05C3  3096               	movlw	150
  3023  05C4  00B6               	movwf	??___xxtofl
  3024  05C5  0836               	movf	??___xxtofl,w
  3025  05C6  00BB               	movwf	___xxtofl@exp
  3026  05C7  2DD5               	goto	l2483
  3027  05C8                     l2481:
  3028  05C8  3001               	movlw	1
  3029  05C9  00B6               	movwf	??___xxtofl
  3030  05CA  0836               	movf	??___xxtofl,w
  3031  05CB  07BB               	addwf	___xxtofl@exp,f
  3032  05CC  3001               	movlw	1
  3033  05CD                     u2995:
  3034  05CD  1003               	clrc
  3035  05CE  0CBF               	rrf	___xxtofl@arg+3,f
  3036  05CF  0CBE               	rrf	___xxtofl@arg+2,f
  3037  05D0  0CBD               	rrf	___xxtofl@arg+1,f
  3038  05D1  0CBC               	rrf	___xxtofl@arg,f
  3039  05D2  3EFF               	addlw	-1
  3040  05D3  1D03               	skipz
  3041  05D4  2DCD               	goto	u2995
  3042  05D5                     l2483:
  3043  05D5  30FE               	movlw	254
  3044  05D6  053F               	andwf	___xxtofl@arg+3,w
  3045  05D7  1D03               	btfss	3,2
  3046  05D8  2DDA               	goto	u3001
  3047  05D9  2DDB               	goto	u3000
  3048  05DA                     u3001:
  3049  05DA  2DC8               	goto	l2481
  3050  05DB                     u3000:
  3051  05DB  2DF7               	goto	l741
  3052  05DC                     l2485:
  3053  05DC  3001               	movlw	1
  3054  05DD  00B6               	movwf	??___xxtofl
  3055  05DE  0836               	movf	??___xxtofl,w
  3056  05DF  07BB               	addwf	___xxtofl@exp,f
  3057  05E0                     l2487:
  3058  05E0  3001               	movlw	1
  3059  05E1  07BC               	addwf	___xxtofl@arg,f
  3060  05E2  3000               	movlw	0
  3061  05E3  1803               	skipnc
  3062  05E4  3001               	movlw	1
  3063  05E5  07BD               	addwf	___xxtofl@arg+1,f
  3064  05E6  3000               	movlw	0
  3065  05E7  1803               	skipnc
  3066  05E8  3001               	movlw	1
  3067  05E9  07BE               	addwf	___xxtofl@arg+2,f
  3068  05EA  3000               	movlw	0
  3069  05EB  1803               	skipnc
  3070  05EC  3001               	movlw	1
  3071  05ED  07BF               	addwf	___xxtofl@arg+3,f
  3072  05EE                     l2489:
  3073  05EE  3001               	movlw	1
  3074  05EF                     u3015:
  3075  05EF  1003               	clrc
  3076  05F0  0CBF               	rrf	___xxtofl@arg+3,f
  3077  05F1  0CBE               	rrf	___xxtofl@arg+2,f
  3078  05F2  0CBD               	rrf	___xxtofl@arg+1,f
  3079  05F3  0CBC               	rrf	___xxtofl@arg,f
  3080  05F4  3EFF               	addlw	-1
  3081  05F5  1D03               	skipz
  3082  05F6  2DEF               	goto	u3015
  3083  05F7                     l741:
  3084  05F7  30FF               	movlw	255
  3085  05F8  053F               	andwf	___xxtofl@arg+3,w
  3086  05F9  1D03               	btfss	3,2
  3087  05FA  2DFC               	goto	u3021
  3088  05FB  2DFD               	goto	u3020
  3089  05FC                     u3021:
  3090  05FC  2DDC               	goto	l2485
  3091  05FD                     u3020:
  3092  05FD  2E09               	goto	l2493
  3093  05FE                     l2491:
  3094  05FE  3001               	movlw	1
  3095  05FF  02BB               	subwf	___xxtofl@exp,f
  3096  0600  3001               	movlw	1
  3097  0601  00B6               	movwf	??___xxtofl
  3098  0602                     u3035:
  3099  0602  1003               	clrc
  3100  0603  0DBC               	rlf	___xxtofl@arg,f
  3101  0604  0DBD               	rlf	___xxtofl@arg+1,f
  3102  0605  0DBE               	rlf	___xxtofl@arg+2,f
  3103  0606  0DBF               	rlf	___xxtofl@arg+3,f
  3104  0607  0BB6               	decfsz	??___xxtofl,f
  3105  0608  2E02               	goto	u3035
  3106  0609                     l2493:
  3107  0609  1BBE               	btfsc	___xxtofl@arg+2,7
  3108  060A  2E0C               	goto	u3041
  3109  060B  2E0D               	goto	u3040
  3110  060C                     u3041:
  3111  060C  2E13               	goto	l748
  3112  060D                     u3040:
  3113  060D                     l2495:
  3114  060D  3002               	movlw	2
  3115  060E  023B               	subwf	___xxtofl@exp,w
  3116  060F  1803               	skipnc
  3117  0610  2E12               	goto	u3051
  3118  0611  2E13               	goto	u3050
  3119  0612                     u3051:
  3120  0612  2DFE               	goto	l2491
  3121  0613                     u3050:
  3122  0613                     l748:
  3123  0613  183B               	btfsc	___xxtofl@exp,0
  3124  0614  2E16               	goto	u3061
  3125  0615  2E17               	goto	u3060
  3126  0616                     u3061:
  3127  0616  2E1F               	goto	l749
  3128  0617                     u3060:
  3129  0617                     l2497:
  3130  0617  30FF               	movlw	255
  3131  0618  05BC               	andwf	___xxtofl@arg,f
  3132  0619  30FF               	movlw	255
  3133  061A  05BD               	andwf	___xxtofl@arg+1,f
  3134  061B  307F               	movlw	127
  3135  061C  05BE               	andwf	___xxtofl@arg+2,f
  3136  061D  30FF               	movlw	255
  3137  061E  05BF               	andwf	___xxtofl@arg+3,f
  3138  061F                     l749:
  3139  061F  1003               	clrc
  3140  0620  0CBB               	rrf	___xxtofl@exp,f
  3141  0621                     l2499:
  3142  0621  083B               	movf	___xxtofl@exp,w
  3143  0622  00B6               	movwf	??___xxtofl
  3144  0623  01B7               	clrf	??___xxtofl+1
  3145  0624  01B8               	clrf	??___xxtofl+2
  3146  0625  01B9               	clrf	??___xxtofl+3
  3147  0626  3018               	movlw	24
  3148  0627                     u3075:
  3149  0627  1003               	clrc
  3150  0628  0DB6               	rlf	??___xxtofl,f
  3151  0629  0DB7               	rlf	??___xxtofl+1,f
  3152  062A  0DB8               	rlf	??___xxtofl+2,f
  3153  062B  0DB9               	rlf	??___xxtofl+3,f
  3154  062C                     u3070:
  3155  062C  3EFF               	addlw	-1
  3156  062D  1D03               	skipz
  3157  062E  2E27               	goto	u3075
  3158  062F  0836               	movf	??___xxtofl,w
  3159  0630  04BC               	iorwf	___xxtofl@arg,f
  3160  0631  0837               	movf	??___xxtofl+1,w
  3161  0632  04BD               	iorwf	___xxtofl@arg+1,f
  3162  0633  0838               	movf	??___xxtofl+2,w
  3163  0634  04BE               	iorwf	___xxtofl@arg+2,f
  3164  0635  0839               	movf	??___xxtofl+3,w
  3165  0636  04BF               	iorwf	___xxtofl@arg+3,f
  3166  0637                     l2501:
  3167  0637  083A               	movf	___xxtofl@sign,w
  3168  0638  1903               	btfsc	3,2
  3169  0639  2E3B               	goto	u3081
  3170  063A  2E3C               	goto	u3080
  3171  063B                     u3081:
  3172  063B  2E41               	goto	l2507
  3173  063C                     u3080:
  3174  063C                     l2503:
  3175  063C  1FB5               	btfss	___xxtofl@val+3,7
  3176  063D  2E3F               	goto	u3091
  3177  063E  2E40               	goto	u3090
  3178  063F                     u3091:
  3179  063F  2E41               	goto	l2507
  3180  0640                     u3090:
  3181  0640                     l2505:
  3182  0640  17BF               	bsf	___xxtofl@arg+3,7
  3183  0641                     l2507:
  3184  0641  083F               	movf	___xxtofl@arg+3,w
  3185  0642  00B5               	movwf	?___xxtofl+3
  3186  0643  083E               	movf	___xxtofl@arg+2,w
  3187  0644  00B4               	movwf	?___xxtofl+2
  3188  0645  083D               	movf	___xxtofl@arg+1,w
  3189  0646  00B3               	movwf	?___xxtofl+1
  3190  0647  083C               	movf	___xxtofl@arg,w
  3191  0648  00B2               	movwf	?___xxtofl
  3192  0649                     l737:
  3193  0649  0008               	return
  3194  064A                     __end_of___xxtofl:
  3195                           
  3196                           	psect	text9
  3197  074C                     __ptext9:	
  3198 ;; *************** function ___fltol *****************
  3199 ;; Defined at:
  3200 ;;		line 43 in file "C:\Program Files\Microchip\xc8\v2.31\pic\sources\c90\common\fltol.c"
  3201 ;; Parameters:    Size  Location     Type
  3202 ;;  f1              4   13[BANK1 ] unsigned char 
  3203 ;; Auto vars:     Size  Location     Type
  3204 ;;  exp1            1   23[BANK1 ] unsigned char 
  3205 ;;  sign1           1   22[BANK1 ] unsigned char 
  3206 ;; Return value:  Size  Location     Type
  3207 ;;                  4   13[BANK1 ] long 
  3208 ;; Registers used:
  3209 ;;		wreg, status,2, status,0
  3210 ;; Tracked objects:
  3211 ;;		On entry : 0/0
  3212 ;;		On exit  : 0/0
  3213 ;;		Unchanged: 0/0
  3214 ;; Data sizes:     COMMON   BANK0   BANK1   BANK3   BANK2
  3215 ;;      Params:         0       0       4       0       0
  3216 ;;      Locals:         0       0       2       0       0
  3217 ;;      Temps:          0       0       5       0       0
  3218 ;;      Totals:         0       0      11       0       0
  3219 ;;Total ram usage:       11 bytes
  3220 ;; Hardware stack levels used:    1
  3221 ;; Hardware stack levels required when called:    4
  3222 ;; This function calls:
  3223 ;;		Nothing
  3224 ;; This function is called by:
  3225 ;;		_main
  3226 ;; This function uses a non-reentrant model
  3227 ;;
  3228                           
  3229                           
  3230                           ;psect for function ___fltol
  3231  074C                     ___fltol:
  3232  074C                     l2713:	
  3233                           ;incstack = 0
  3234                           ; Regs used in ___fltol: [wreg+status,2+status,0]
  3235                           
  3236  074C  1003               	clrc
  3237  074D  1683               	bsf	3,5	;RP0=1, select bank1
  3238  074E  1303               	bcf	3,6	;RP1=0, select bank1
  3239  074F  0D65               	rlf	(___fltol@f1+2)^(0+128),w
  3240  0750  0D66               	rlf	(___fltol@f1+3)^(0+128),w
  3241  0751  00E7               	movwf	??___fltol^(0+128)
  3242  0752  0867               	movf	??___fltol^(0+128),w
  3243  0753  00ED               	movwf	___fltol@exp1^(0+128)
  3244  0754  086D               	movf	___fltol@exp1^(0+128),w
  3245  0755  1D03               	btfss	3,2
  3246  0756  2F58               	goto	u3241
  3247  0757  2F59               	goto	u3240
  3248  0758                     u3241:
  3249  0758  2F62               	goto	l2719
  3250  0759                     u3240:
  3251  0759                     l2715:
  3252  0759  3000               	movlw	0
  3253  075A  00E6               	movwf	(?___fltol+3)^(0+128)
  3254  075B  3000               	movlw	0
  3255  075C  00E5               	movwf	(?___fltol+2)^(0+128)
  3256  075D  3000               	movlw	0
  3257  075E  00E4               	movwf	(?___fltol+1)^(0+128)
  3258  075F  3000               	movlw	0
  3259  0760  00E3               	movwf	?___fltol^(0+128)
  3260  0761  2FC7               	goto	l488
  3261  0762                     l2719:
  3262  0762  0863               	movf	___fltol@f1^(0+128),w
  3263  0763  00E7               	movwf	??___fltol^(0+128)
  3264  0764  0864               	movf	(___fltol@f1+1)^(0+128),w
  3265  0765  00E8               	movwf	(??___fltol^(0+128)+1)
  3266  0766  0865               	movf	(___fltol@f1+2)^(0+128),w
  3267  0767  00E9               	movwf	(??___fltol^(0+128)+2)
  3268  0768  0866               	movf	(___fltol@f1+3)^(0+128),w
  3269  0769  00EA               	movwf	(??___fltol^(0+128)+3)
  3270  076A  301F               	movlw	31
  3271  076B                     u3255:
  3272  076B  1003               	clrc
  3273  076C  0CEA               	rrf	(??___fltol^(0+128)+3),f
  3274  076D  0CE9               	rrf	(??___fltol^(0+128)+2),f
  3275  076E  0CE8               	rrf	(??___fltol^(0+128)+1),f
  3276  076F  0CE7               	rrf	??___fltol^(0+128),f
  3277  0770                     u3250:
  3278  0770  3EFF               	addlw	-1
  3279  0771  1D03               	skipz
  3280  0772  2F6B               	goto	u3255
  3281  0773  0867               	movf	??___fltol^(0+128),w
  3282  0774  00EB               	movwf	(??___fltol+4)^(0+128)
  3283  0775  086B               	movf	(??___fltol+4)^(0+128),w
  3284  0776  00EC               	movwf	___fltol@sign1^(0+128)
  3285  0777                     l2721:
  3286  0777  17E5               	bsf	(___fltol@f1^(0+128)+2),7
  3287  0778                     l2723:
  3288  0778  30FF               	movlw	255
  3289  0779  05E3               	andwf	___fltol@f1^(0+128),f
  3290  077A  30FF               	movlw	255
  3291  077B  05E4               	andwf	(___fltol@f1+1)^(0+128),f
  3292  077C  30FF               	movlw	255
  3293  077D  05E5               	andwf	(___fltol@f1+2)^(0+128),f
  3294  077E  3000               	movlw	0
  3295  077F  05E6               	andwf	(___fltol@f1+3)^(0+128),f
  3296  0780                     l2725:
  3297  0780  3096               	movlw	150
  3298  0781  02ED               	subwf	___fltol@exp1^(0+128),f
  3299  0782                     l2727:
  3300  0782  1FED               	btfss	___fltol@exp1^(0+128),7
  3301  0783  2F85               	goto	u3261
  3302  0784  2F86               	goto	u3260
  3303  0785                     u3261:
  3304  0785  2FA0               	goto	l2737
  3305  0786                     u3260:
  3306  0786                     l2729:
  3307  0786  086D               	movf	___fltol@exp1^(0+128),w
  3308  0787  3A80               	xorlw	128
  3309  0788  3E97               	addlw	151
  3310  0789  1803               	skipnc
  3311  078A  2F8C               	goto	u3271
  3312  078B  2F8D               	goto	u3270
  3313  078C                     u3271:
  3314  078C  2F8E               	goto	l2735
  3315  078D                     u3270:
  3316  078D  2F59               	goto	l2715
  3317  078E                     l2735:
  3318  078E  3001               	movlw	1
  3319  078F                     u3285:
  3320  078F  1003               	clrc
  3321  0790  0CE6               	rrf	(___fltol@f1+3)^(0+128),f
  3322  0791  0CE5               	rrf	(___fltol@f1+2)^(0+128),f
  3323  0792  0CE4               	rrf	(___fltol@f1+1)^(0+128),f
  3324  0793  0CE3               	rrf	___fltol@f1^(0+128),f
  3325  0794  3EFF               	addlw	-1
  3326  0795  1D03               	skipz
  3327  0796  2F8F               	goto	u3285
  3328  0797  3001               	movlw	1
  3329  0798  00E7               	movwf	??___fltol^(0+128)
  3330  0799  0867               	movf	??___fltol^(0+128),w
  3331  079A  07ED               	addwf	___fltol@exp1^(0+128),f
  3332  079B  1D03               	btfss	3,2
  3333  079C  2F9E               	goto	u3291
  3334  079D  2F9F               	goto	u3290
  3335  079E                     u3291:
  3336  079E  2F8E               	goto	l2735
  3337  079F                     u3290:
  3338  079F  2FB7               	goto	l2745
  3339  07A0                     l2737:
  3340  07A0  3020               	movlw	32
  3341  07A1  026D               	subwf	___fltol@exp1^(0+128),w
  3342  07A2  1C03               	skipc
  3343  07A3  2FA5               	goto	u3301
  3344  07A4  2FA6               	goto	u3300
  3345  07A5                     u3301:
  3346  07A5  2FB2               	goto	l495
  3347  07A6                     u3300:
  3348  07A6  2F59               	goto	l2715
  3349  07A7                     l2743:
  3350  07A7  3001               	movlw	1
  3351  07A8  00E7               	movwf	??___fltol^(0+128)
  3352  07A9                     u3315:
  3353  07A9  1003               	clrc
  3354  07AA  0DE3               	rlf	___fltol@f1^(0+128),f
  3355  07AB  0DE4               	rlf	(___fltol@f1+1)^(0+128),f
  3356  07AC  0DE5               	rlf	(___fltol@f1+2)^(0+128),f
  3357  07AD  0DE6               	rlf	(___fltol@f1+3)^(0+128),f
  3358  07AE  0BE7               	decfsz	??___fltol^(0+128),f
  3359  07AF  2FA9               	goto	u3315
  3360  07B0  3001               	movlw	1
  3361  07B1  02ED               	subwf	___fltol@exp1^(0+128),f
  3362  07B2                     l495:
  3363  07B2  086D               	movf	___fltol@exp1^(0+128),w
  3364  07B3  1D03               	btfss	3,2
  3365  07B4  2FB6               	goto	u3321
  3366  07B5  2FB7               	goto	u3320
  3367  07B6                     u3321:
  3368  07B6  2FA7               	goto	l2743
  3369  07B7                     u3320:
  3370  07B7                     l2745:
  3371  07B7  086C               	movf	___fltol@sign1^(0+128),w
  3372  07B8  1903               	btfsc	3,2
  3373  07B9  2FBB               	goto	u3331
  3374  07BA  2FBC               	goto	u3330
  3375  07BB                     u3331:
  3376  07BB  2FC7               	goto	l498
  3377  07BC                     u3330:
  3378  07BC                     l2747:
  3379  07BC  09E3               	comf	___fltol@f1^(0+128),f
  3380  07BD  09E4               	comf	(___fltol@f1+1)^(0+128),f
  3381  07BE  09E5               	comf	(___fltol@f1+2)^(0+128),f
  3382  07BF  09E6               	comf	(___fltol@f1+3)^(0+128),f
  3383  07C0  0AE3               	incf	___fltol@f1^(0+128),f
  3384  07C1  1903               	skipnz
  3385  07C2  0AE4               	incf	(___fltol@f1+1)^(0+128),f
  3386  07C3  1903               	skipnz
  3387  07C4  0AE5               	incf	(___fltol@f1+2)^(0+128),f
  3388  07C5  1903               	skipnz
  3389  07C6  0AE6               	incf	(___fltol@f1+3)^(0+128),f
  3390  07C7                     l498:
  3391  07C7                     l488:
  3392  07C7  0008               	return
  3393  07C8                     __end_of___fltol:
  3394                           
  3395                           	psect	text10
  3396  002F                     __ptext10:	
  3397 ;; *************** function ___flmul *****************
  3398 ;; Defined at:
  3399 ;;		line 8 in file "C:\Program Files\Microchip\xc8\v2.31\pic\sources\c90\common\sprcmul.c"
  3400 ;; Parameters:    Size  Location     Type
  3401 ;;  b               4   32[BANK0 ] long 
  3402 ;;  a               4   36[BANK0 ] long 
  3403 ;; Auto vars:     Size  Location     Type
  3404 ;;  prod            4    7[BANK1 ] struct .
  3405 ;;  grs             4    2[BANK1 ] unsigned long 
  3406 ;;  temp            2   11[BANK1 ] struct .
  3407 ;;  bexp            1    6[BANK1 ] unsigned char 
  3408 ;;  aexp            1    1[BANK1 ] unsigned char 
  3409 ;;  sign            1    0[BANK1 ] unsigned char 
  3410 ;; Return value:  Size  Location     Type
  3411 ;;                  4   32[BANK0 ] unsigned char 
  3412 ;; Registers used:
  3413 ;;		wreg, status,2, status,0, btemp+1, pclath, cstack
  3414 ;; Tracked objects:
  3415 ;;		On entry : 0/0
  3416 ;;		On exit  : 0/0
  3417 ;;		Unchanged: 0/0
  3418 ;; Data sizes:     COMMON   BANK0   BANK1   BANK3   BANK2
  3419 ;;      Params:         0       8       0       0       0
  3420 ;;      Locals:         0       0      13       0       0
  3421 ;;      Temps:          0       5       0       0       0
  3422 ;;      Totals:         0      13      13       0       0
  3423 ;;Total ram usage:       26 bytes
  3424 ;; Hardware stack levels used:    1
  3425 ;; Hardware stack levels required when called:    5
  3426 ;; This function calls:
  3427 ;;		__Umul8_16
  3428 ;; This function is called by:
  3429 ;;		_main
  3430 ;; This function uses a non-reentrant model
  3431 ;;
  3432                           
  3433                           
  3434                           ;psect for function ___flmul
  3435  002F                     ___flmul:
  3436  002F                     l2891:	
  3437                           ;incstack = 0
  3438                           ; Regs used in ___flmul: [wreg+status,2+status,0+btemp+1+pclath+cstack]
  3439                           
  3440  002F  1283               	bcf	3,5	;RP0=0, select bank0
  3441  0030  1303               	bcf	3,6	;RP1=0, select bank0
  3442  0031  0843               	movf	___flmul@b+3,w
  3443  0032  3980               	andlw	128
  3444  0033  00C8               	movwf	??___flmul
  3445  0034  0848               	movf	??___flmul,w
  3446  0035  1683               	bsf	3,5	;RP0=1, select bank1
  3447  0036  1303               	bcf	3,6	;RP1=0, select bank1
  3448  0037  00D6               	movwf	___flmul@sign^(0+128)
  3449  0038                     l2893:
  3450  0038  1283               	bcf	3,5	;RP0=0, select bank0
  3451  0039  1303               	bcf	3,6	;RP1=0, select bank0
  3452  003A  0843               	movf	___flmul@b+3,w
  3453  003B  00C8               	movwf	??___flmul
  3454  003C  0748               	addwf	??___flmul,w
  3455  003D  00C9               	movwf	??___flmul+1
  3456  003E  0849               	movf	??___flmul+1,w
  3457  003F  1683               	bsf	3,5	;RP0=1, select bank1
  3458  0040  1303               	bcf	3,6	;RP1=0, select bank1
  3459  0041  00DC               	movwf	___flmul@bexp^(0+128)
  3460  0042                     l2895:
  3461  0042  1283               	bcf	3,5	;RP0=0, select bank0
  3462  0043  1303               	bcf	3,6	;RP1=0, select bank0
  3463  0044  1FC2               	btfss	___flmul@b+2,7
  3464  0045  2847               	goto	u3641
  3465  0046  2848               	goto	u3640
  3466  0047                     u3641:
  3467  0047  284B               	goto	l2899
  3468  0048                     u3640:
  3469  0048                     l2897:
  3470  0048  1683               	bsf	3,5	;RP0=1, select bank1
  3471  0049  1303               	bcf	3,6	;RP1=0, select bank1
  3472  004A  145C               	bsf	___flmul@bexp^(0+128),0
  3473  004B                     l2899:
  3474  004B  1683               	bsf	3,5	;RP0=1, select bank1
  3475  004C  1303               	bcf	3,6	;RP1=0, select bank1
  3476  004D  085C               	movf	___flmul@bexp^(0+128),w
  3477  004E  1903               	btfsc	3,2
  3478  004F  2851               	goto	u3651
  3479  0050  2852               	goto	u3650
  3480  0051                     u3651:
  3481  0051  2864               	goto	l2907
  3482  0052                     u3650:
  3483  0052                     l2901:
  3484  0052  0A5C               	incf	___flmul@bexp^(0+128),w
  3485  0053  1D03               	btfss	3,2
  3486  0054  2856               	goto	u3661
  3487  0055  2857               	goto	u3660
  3488  0056                     u3661:
  3489  0056  2861               	goto	l2905
  3490  0057                     u3660:
  3491  0057                     l2903:
  3492  0057  3000               	movlw	0
  3493  0058  1283               	bcf	3,5	;RP0=0, select bank0
  3494  0059  1303               	bcf	3,6	;RP1=0, select bank0
  3495  005A  00C3               	movwf	___flmul@b+3
  3496  005B  3000               	movlw	0
  3497  005C  00C2               	movwf	___flmul@b+2
  3498  005D  3000               	movlw	0
  3499  005E  00C1               	movwf	___flmul@b+1
  3500  005F  3000               	movlw	0
  3501  0060  00C0               	movwf	___flmul@b
  3502  0061                     l2905:
  3503  0061  1283               	bcf	3,5	;RP0=0, select bank0
  3504  0062  17C2               	bsf	___flmul@b+2,7
  3505  0063  286E               	goto	l2909
  3506  0064                     l2907:
  3507  0064  3000               	movlw	0
  3508  0065  1283               	bcf	3,5	;RP0=0, select bank0
  3509  0066  1303               	bcf	3,6	;RP1=0, select bank0
  3510  0067  00C3               	movwf	___flmul@b+3
  3511  0068  3000               	movlw	0
  3512  0069  00C2               	movwf	___flmul@b+2
  3513  006A  3000               	movlw	0
  3514  006B  00C1               	movwf	___flmul@b+1
  3515  006C  3000               	movlw	0
  3516  006D  00C0               	movwf	___flmul@b
  3517  006E                     l2909:
  3518  006E  0847               	movf	___flmul@a+3,w
  3519  006F  3980               	andlw	128
  3520  0070  00C8               	movwf	??___flmul
  3521  0071  0848               	movf	??___flmul,w
  3522  0072  1683               	bsf	3,5	;RP0=1, select bank1
  3523  0073  1303               	bcf	3,6	;RP1=0, select bank1
  3524  0074  06D6               	xorwf	___flmul@sign^(0+128),f
  3525  0075                     l2911:
  3526  0075  1283               	bcf	3,5	;RP0=0, select bank0
  3527  0076  1303               	bcf	3,6	;RP1=0, select bank0
  3528  0077  0847               	movf	___flmul@a+3,w
  3529  0078  00C8               	movwf	??___flmul
  3530  0079  0748               	addwf	??___flmul,w
  3531  007A  00C9               	movwf	??___flmul+1
  3532  007B  0849               	movf	??___flmul+1,w
  3533  007C  1683               	bsf	3,5	;RP0=1, select bank1
  3534  007D  1303               	bcf	3,6	;RP1=0, select bank1
  3535  007E  00D7               	movwf	___flmul@aexp^(0+128)
  3536  007F                     l2913:
  3537  007F  1283               	bcf	3,5	;RP0=0, select bank0
  3538  0080  1303               	bcf	3,6	;RP1=0, select bank0
  3539  0081  1FC6               	btfss	___flmul@a+2,7
  3540  0082  2884               	goto	u3671
  3541  0083  2885               	goto	u3670
  3542  0084                     u3671:
  3543  0084  2888               	goto	l2917
  3544  0085                     u3670:
  3545  0085                     l2915:
  3546  0085  1683               	bsf	3,5	;RP0=1, select bank1
  3547  0086  1303               	bcf	3,6	;RP1=0, select bank1
  3548  0087  1457               	bsf	___flmul@aexp^(0+128),0
  3549  0088                     l2917:
  3550  0088  1683               	bsf	3,5	;RP0=1, select bank1
  3551  0089  1303               	bcf	3,6	;RP1=0, select bank1
  3552  008A  0857               	movf	___flmul@aexp^(0+128),w
  3553  008B  1903               	btfsc	3,2
  3554  008C  288E               	goto	u3681
  3555  008D  288F               	goto	u3680
  3556  008E                     u3681:
  3557  008E  28A1               	goto	l2925
  3558  008F                     u3680:
  3559  008F                     l2919:
  3560  008F  0A57               	incf	___flmul@aexp^(0+128),w
  3561  0090  1D03               	btfss	3,2
  3562  0091  2893               	goto	u3691
  3563  0092  2894               	goto	u3690
  3564  0093                     u3691:
  3565  0093  289E               	goto	l2923
  3566  0094                     u3690:
  3567  0094                     l2921:
  3568  0094  3000               	movlw	0
  3569  0095  1283               	bcf	3,5	;RP0=0, select bank0
  3570  0096  1303               	bcf	3,6	;RP1=0, select bank0
  3571  0097  00C7               	movwf	___flmul@a+3
  3572  0098  3000               	movlw	0
  3573  0099  00C6               	movwf	___flmul@a+2
  3574  009A  3000               	movlw	0
  3575  009B  00C5               	movwf	___flmul@a+1
  3576  009C  3000               	movlw	0
  3577  009D  00C4               	movwf	___flmul@a
  3578  009E                     l2923:
  3579  009E  1283               	bcf	3,5	;RP0=0, select bank0
  3580  009F  17C6               	bsf	___flmul@a+2,7
  3581  00A0  28AB               	goto	l2927
  3582  00A1                     l2925:
  3583  00A1  3000               	movlw	0
  3584  00A2  1283               	bcf	3,5	;RP0=0, select bank0
  3585  00A3  1303               	bcf	3,6	;RP1=0, select bank0
  3586  00A4  00C7               	movwf	___flmul@a+3
  3587  00A5  3000               	movlw	0
  3588  00A6  00C6               	movwf	___flmul@a+2
  3589  00A7  3000               	movlw	0
  3590  00A8  00C5               	movwf	___flmul@a+1
  3591  00A9  3000               	movlw	0
  3592  00AA  00C4               	movwf	___flmul@a
  3593  00AB                     l2927:
  3594  00AB  1683               	bsf	3,5	;RP0=1, select bank1
  3595  00AC  1303               	bcf	3,6	;RP1=0, select bank1
  3596  00AD  0857               	movf	___flmul@aexp^(0+128),w
  3597  00AE  1903               	btfsc	3,2
  3598  00AF  28B1               	goto	u3701
  3599  00B0  28B2               	goto	u3700
  3600  00B1                     u3701:
  3601  00B1  28B7               	goto	l2931
  3602  00B2                     u3700:
  3603  00B2                     l2929:
  3604  00B2  085C               	movf	___flmul@bexp^(0+128),w
  3605  00B3  1D03               	btfss	3,2
  3606  00B4  28B6               	goto	u3711
  3607  00B5  28B7               	goto	u3710
  3608  00B6                     u3711:
  3609  00B6  28C2               	goto	l2935
  3610  00B7                     u3710:
  3611  00B7                     l2931:
  3612  00B7  3000               	movlw	0
  3613  00B8  1283               	bcf	3,5	;RP0=0, select bank0
  3614  00B9  1303               	bcf	3,6	;RP1=0, select bank0
  3615  00BA  00C3               	movwf	?___flmul+3
  3616  00BB  3000               	movlw	0
  3617  00BC  00C2               	movwf	?___flmul+2
  3618  00BD  3000               	movlw	0
  3619  00BE  00C1               	movwf	?___flmul+1
  3620  00BF  3000               	movlw	0
  3621  00C0  00C0               	movwf	?___flmul
  3622  00C1  2D8D               	goto	l691
  3623  00C2                     l2935:
  3624  00C2  1283               	bcf	3,5	;RP0=0, select bank0
  3625  00C3  1303               	bcf	3,6	;RP1=0, select bank0
  3626  00C4  0840               	movf	___flmul@b,w
  3627  00C5  00C8               	movwf	??___flmul
  3628  00C6  0848               	movf	??___flmul,w
  3629  00C7  00B2               	movwf	__Umul8_16@multiplicand
  3630  00C8  0846               	movf	___flmul@a+2,w
  3631  00C9  160A  118A  269B  120A  118A  	fcall	__Umul8_16
  3632  00CE  1283               	bcf	3,5	;RP0=0, select bank0
  3633  00CF  1303               	bcf	3,6	;RP1=0, select bank0
  3634  00D0  0833               	movf	?__Umul8_16+1,w
  3635  00D1  1683               	bsf	3,5	;RP0=1, select bank1
  3636  00D2  1303               	bcf	3,6	;RP1=0, select bank1
  3637  00D3  00E2               	movwf	(___flmul@temp+1)^(0+128)
  3638  00D4  1283               	bcf	3,5	;RP0=0, select bank0
  3639  00D5  1303               	bcf	3,6	;RP1=0, select bank0
  3640  00D6  0832               	movf	?__Umul8_16,w
  3641  00D7  1683               	bsf	3,5	;RP0=1, select bank1
  3642  00D8  1303               	bcf	3,6	;RP1=0, select bank1
  3643  00D9  00E1               	movwf	___flmul@temp^(0+128)
  3644  00DA                     l2937:
  3645  00DA  0861               	movf	___flmul@temp^(0+128),w
  3646  00DB  1283               	bcf	3,5	;RP0=0, select bank0
  3647  00DC  1303               	bcf	3,6	;RP1=0, select bank0
  3648  00DD  00C8               	movwf	??___flmul
  3649  00DE  01C9               	clrf	??___flmul+1
  3650  00DF  01CA               	clrf	??___flmul+2
  3651  00E0  01CB               	clrf	??___flmul+3
  3652  00E1  084B               	movf	??___flmul+3,w
  3653  00E2  1683               	bsf	3,5	;RP0=1, select bank1
  3654  00E3  1303               	bcf	3,6	;RP1=0, select bank1
  3655  00E4  00DB               	movwf	(___flmul@grs+3)^(0+128)
  3656  00E5  1283               	bcf	3,5	;RP0=0, select bank0
  3657  00E6  1303               	bcf	3,6	;RP1=0, select bank0
  3658  00E7  084A               	movf	??___flmul+2,w
  3659  00E8  1683               	bsf	3,5	;RP0=1, select bank1
  3660  00E9  1303               	bcf	3,6	;RP1=0, select bank1
  3661  00EA  00DA               	movwf	(___flmul@grs+2)^(0+128)
  3662  00EB  1283               	bcf	3,5	;RP0=0, select bank0
  3663  00EC  1303               	bcf	3,6	;RP1=0, select bank0
  3664  00ED  0849               	movf	??___flmul+1,w
  3665  00EE  1683               	bsf	3,5	;RP0=1, select bank1
  3666  00EF  1303               	bcf	3,6	;RP1=0, select bank1
  3667  00F0  00D9               	movwf	(___flmul@grs+1)^(0+128)
  3668  00F1  1283               	bcf	3,5	;RP0=0, select bank0
  3669  00F2  1303               	bcf	3,6	;RP1=0, select bank0
  3670  00F3  0848               	movf	??___flmul,w
  3671  00F4  1683               	bsf	3,5	;RP0=1, select bank1
  3672  00F5  1303               	bcf	3,6	;RP1=0, select bank1
  3673  00F6  00D8               	movwf	___flmul@grs^(0+128)
  3674  00F7                     l2939:
  3675  00F7  0862               	movf	(___flmul@temp^(0+128)+1),w
  3676  00F8  1283               	bcf	3,5	;RP0=0, select bank0
  3677  00F9  1303               	bcf	3,6	;RP1=0, select bank0
  3678  00FA  00C8               	movwf	??___flmul
  3679  00FB  01C9               	clrf	??___flmul+1
  3680  00FC  01CA               	clrf	??___flmul+2
  3681  00FD  01CB               	clrf	??___flmul+3
  3682  00FE  084B               	movf	??___flmul+3,w
  3683  00FF  1683               	bsf	3,5	;RP0=1, select bank1
  3684  0100  1303               	bcf	3,6	;RP1=0, select bank1
  3685  0101  00E0               	movwf	(___flmul@prod+3)^(0+128)
  3686  0102  1283               	bcf	3,5	;RP0=0, select bank0
  3687  0103  1303               	bcf	3,6	;RP1=0, select bank0
  3688  0104  084A               	movf	??___flmul+2,w
  3689  0105  1683               	bsf	3,5	;RP0=1, select bank1
  3690  0106  1303               	bcf	3,6	;RP1=0, select bank1
  3691  0107  00DF               	movwf	(___flmul@prod+2)^(0+128)
  3692  0108  1283               	bcf	3,5	;RP0=0, select bank0
  3693  0109  1303               	bcf	3,6	;RP1=0, select bank0
  3694  010A  0849               	movf	??___flmul+1,w
  3695  010B  1683               	bsf	3,5	;RP0=1, select bank1
  3696  010C  1303               	bcf	3,6	;RP1=0, select bank1
  3697  010D  00DE               	movwf	(___flmul@prod+1)^(0+128)
  3698  010E  1283               	bcf	3,5	;RP0=0, select bank0
  3699  010F  1303               	bcf	3,6	;RP1=0, select bank0
  3700  0110  0848               	movf	??___flmul,w
  3701  0111  1683               	bsf	3,5	;RP0=1, select bank1
  3702  0112  1303               	bcf	3,6	;RP1=0, select bank1
  3703  0113  00DD               	movwf	___flmul@prod^(0+128)
  3704  0114  1283               	bcf	3,5	;RP0=0, select bank0
  3705  0115  1303               	bcf	3,6	;RP1=0, select bank0
  3706  0116  0841               	movf	___flmul@b+1,w
  3707  0117  00C8               	movwf	??___flmul
  3708  0118  0848               	movf	??___flmul,w
  3709  0119  00B2               	movwf	__Umul8_16@multiplicand
  3710  011A  0845               	movf	___flmul@a+1,w
  3711  011B  160A  118A  269B  120A  118A  	fcall	__Umul8_16
  3712  0120  1283               	bcf	3,5	;RP0=0, select bank0
  3713  0121  1303               	bcf	3,6	;RP1=0, select bank0
  3714  0122  0833               	movf	?__Umul8_16+1,w
  3715  0123  1683               	bsf	3,5	;RP0=1, select bank1
  3716  0124  1303               	bcf	3,6	;RP1=0, select bank1
  3717  0125  00E2               	movwf	(___flmul@temp+1)^(0+128)
  3718  0126  1283               	bcf	3,5	;RP0=0, select bank0
  3719  0127  1303               	bcf	3,6	;RP1=0, select bank0
  3720  0128  0832               	movf	?__Umul8_16,w
  3721  0129  1683               	bsf	3,5	;RP0=1, select bank1
  3722  012A  1303               	bcf	3,6	;RP1=0, select bank1
  3723  012B  00E1               	movwf	___flmul@temp^(0+128)
  3724  012C                     l2941:
  3725  012C  0861               	movf	___flmul@temp^(0+128),w
  3726  012D  1283               	bcf	3,5	;RP0=0, select bank0
  3727  012E  1303               	bcf	3,6	;RP1=0, select bank0
  3728  012F  00C8               	movwf	??___flmul
  3729  0130  01C9               	clrf	??___flmul+1
  3730  0131  01CA               	clrf	??___flmul+2
  3731  0132  01CB               	clrf	??___flmul+3
  3732  0133  0848               	movf	??___flmul,w
  3733  0134  1683               	bsf	3,5	;RP0=1, select bank1
  3734  0135  1303               	bcf	3,6	;RP1=0, select bank1
  3735  0136  07D8               	addwf	___flmul@grs^(0+128),f
  3736  0137  1283               	bcf	3,5	;RP0=0, select bank0
  3737  0138  1303               	bcf	3,6	;RP1=0, select bank0
  3738  0139  0849               	movf	??___flmul+1,w
  3739  013A  1103               	clrz
  3740  013B  1803               	skipnc
  3741  013C  3E01               	addlw	1
  3742  013D  1903               	skipnz
  3743  013E  2942               	goto	u3721
  3744  013F  1683               	bsf	3,5	;RP0=1, select bank1
  3745  0140  1303               	bcf	3,6	;RP1=0, select bank1
  3746  0141  07D9               	addwf	(___flmul@grs+1)^(0+128),f
  3747  0142                     u3721:
  3748  0142  1283               	bcf	3,5	;RP0=0, select bank0
  3749  0143  1303               	bcf	3,6	;RP1=0, select bank0
  3750  0144  084A               	movf	??___flmul+2,w
  3751  0145  1103               	clrz
  3752  0146  1803               	skipnc
  3753  0147  3E01               	addlw	1
  3754  0148  1903               	skipnz
  3755  0149  294D               	goto	u3722
  3756  014A  1683               	bsf	3,5	;RP0=1, select bank1
  3757  014B  1303               	bcf	3,6	;RP1=0, select bank1
  3758  014C  07DA               	addwf	(___flmul@grs+2)^(0+128),f
  3759  014D                     u3722:
  3760  014D  1283               	bcf	3,5	;RP0=0, select bank0
  3761  014E  1303               	bcf	3,6	;RP1=0, select bank0
  3762  014F  084B               	movf	??___flmul+3,w
  3763  0150  1103               	clrz
  3764  0151  1803               	skipnc
  3765  0152  3E01               	addlw	1
  3766  0153  1903               	skipnz
  3767  0154  2958               	goto	u3723
  3768  0155  1683               	bsf	3,5	;RP0=1, select bank1
  3769  0156  1303               	bcf	3,6	;RP1=0, select bank1
  3770  0157  07DB               	addwf	(___flmul@grs+3)^(0+128),f
  3771  0158                     u3723:
  3772  0158  1283               	bcf	3,5	;RP0=0, select bank0
  3773  0159  1303               	bcf	3,6	;RP1=0, select bank0
  3774  015A  1683               	bsf	3,5	;RP0=1, select bank1
  3775  015B  1303               	bcf	3,6	;RP1=0, select bank1
  3776  015C                     l2943:
  3777  015C  0862               	movf	(___flmul@temp^(0+128)+1),w
  3778  015D  1283               	bcf	3,5	;RP0=0, select bank0
  3779  015E  1303               	bcf	3,6	;RP1=0, select bank0
  3780  015F  00C8               	movwf	??___flmul
  3781  0160  01C9               	clrf	??___flmul+1
  3782  0161  01CA               	clrf	??___flmul+2
  3783  0162  01CB               	clrf	??___flmul+3
  3784  0163  0848               	movf	??___flmul,w
  3785  0164  1683               	bsf	3,5	;RP0=1, select bank1
  3786  0165  1303               	bcf	3,6	;RP1=0, select bank1
  3787  0166  07DD               	addwf	___flmul@prod^(0+128),f
  3788  0167  1283               	bcf	3,5	;RP0=0, select bank0
  3789  0168  1303               	bcf	3,6	;RP1=0, select bank0
  3790  0169  0849               	movf	??___flmul+1,w
  3791  016A  1103               	clrz
  3792  016B  1803               	skipnc
  3793  016C  3E01               	addlw	1
  3794  016D  1903               	skipnz
  3795  016E  2972               	goto	u3731
  3796  016F  1683               	bsf	3,5	;RP0=1, select bank1
  3797  0170  1303               	bcf	3,6	;RP1=0, select bank1
  3798  0171  07DE               	addwf	(___flmul@prod+1)^(0+128),f
  3799  0172                     u3731:
  3800  0172  1283               	bcf	3,5	;RP0=0, select bank0
  3801  0173  1303               	bcf	3,6	;RP1=0, select bank0
  3802  0174  084A               	movf	??___flmul+2,w
  3803  0175  1103               	clrz
  3804  0176  1803               	skipnc
  3805  0177  3E01               	addlw	1
  3806  0178  1903               	skipnz
  3807  0179  297D               	goto	u3732
  3808  017A  1683               	bsf	3,5	;RP0=1, select bank1
  3809  017B  1303               	bcf	3,6	;RP1=0, select bank1
  3810  017C  07DF               	addwf	(___flmul@prod+2)^(0+128),f
  3811  017D                     u3732:
  3812  017D  1283               	bcf	3,5	;RP0=0, select bank0
  3813  017E  1303               	bcf	3,6	;RP1=0, select bank0
  3814  017F  084B               	movf	??___flmul+3,w
  3815  0180  1103               	clrz
  3816  0181  1803               	skipnc
  3817  0182  3E01               	addlw	1
  3818  0183  1903               	skipnz
  3819  0184  2988               	goto	u3733
  3820  0185  1683               	bsf	3,5	;RP0=1, select bank1
  3821  0186  1303               	bcf	3,6	;RP1=0, select bank1
  3822  0187  07E0               	addwf	(___flmul@prod+3)^(0+128),f
  3823  0188                     u3733:
  3824  0188  1283               	bcf	3,5	;RP0=0, select bank0
  3825  0189  1303               	bcf	3,6	;RP1=0, select bank0
  3826  018A  1683               	bsf	3,5	;RP0=1, select bank1
  3827  018B  1303               	bcf	3,6	;RP1=0, select bank1
  3828  018C  1283               	bcf	3,5	;RP0=0, select bank0
  3829  018D  1303               	bcf	3,6	;RP1=0, select bank0
  3830  018E  0842               	movf	___flmul@b+2,w
  3831  018F  00C8               	movwf	??___flmul
  3832  0190  0848               	movf	??___flmul,w
  3833  0191  00B2               	movwf	__Umul8_16@multiplicand
  3834  0192  0844               	movf	___flmul@a,w
  3835  0193  160A  118A  269B  120A  118A  	fcall	__Umul8_16
  3836  0198  1283               	bcf	3,5	;RP0=0, select bank0
  3837  0199  1303               	bcf	3,6	;RP1=0, select bank0
  3838  019A  0833               	movf	?__Umul8_16+1,w
  3839  019B  1683               	bsf	3,5	;RP0=1, select bank1
  3840  019C  1303               	bcf	3,6	;RP1=0, select bank1
  3841  019D  00E2               	movwf	(___flmul@temp+1)^(0+128)
  3842  019E  1283               	bcf	3,5	;RP0=0, select bank0
  3843  019F  1303               	bcf	3,6	;RP1=0, select bank0
  3844  01A0  0832               	movf	?__Umul8_16,w
  3845  01A1  1683               	bsf	3,5	;RP0=1, select bank1
  3846  01A2  1303               	bcf	3,6	;RP1=0, select bank1
  3847  01A3  00E1               	movwf	___flmul@temp^(0+128)
  3848  01A4                     l2945:
  3849  01A4  0861               	movf	___flmul@temp^(0+128),w
  3850  01A5  1283               	bcf	3,5	;RP0=0, select bank0
  3851  01A6  1303               	bcf	3,6	;RP1=0, select bank0
  3852  01A7  00C8               	movwf	??___flmul
  3853  01A8  01C9               	clrf	??___flmul+1
  3854  01A9  01CA               	clrf	??___flmul+2
  3855  01AA  01CB               	clrf	??___flmul+3
  3856  01AB  0848               	movf	??___flmul,w
  3857  01AC  1683               	bsf	3,5	;RP0=1, select bank1
  3858  01AD  1303               	bcf	3,6	;RP1=0, select bank1
  3859  01AE  07D8               	addwf	___flmul@grs^(0+128),f
  3860  01AF  1283               	bcf	3,5	;RP0=0, select bank0
  3861  01B0  1303               	bcf	3,6	;RP1=0, select bank0
  3862  01B1  0849               	movf	??___flmul+1,w
  3863  01B2  1103               	clrz
  3864  01B3  1803               	skipnc
  3865  01B4  3E01               	addlw	1
  3866  01B5  1903               	skipnz
  3867  01B6  29BA               	goto	u3741
  3868  01B7  1683               	bsf	3,5	;RP0=1, select bank1
  3869  01B8  1303               	bcf	3,6	;RP1=0, select bank1
  3870  01B9  07D9               	addwf	(___flmul@grs+1)^(0+128),f
  3871  01BA                     u3741:
  3872  01BA  1283               	bcf	3,5	;RP0=0, select bank0
  3873  01BB  1303               	bcf	3,6	;RP1=0, select bank0
  3874  01BC  084A               	movf	??___flmul+2,w
  3875  01BD  1103               	clrz
  3876  01BE  1803               	skipnc
  3877  01BF  3E01               	addlw	1
  3878  01C0  1903               	skipnz
  3879  01C1  29C5               	goto	u3742
  3880  01C2  1683               	bsf	3,5	;RP0=1, select bank1
  3881  01C3  1303               	bcf	3,6	;RP1=0, select bank1
  3882  01C4  07DA               	addwf	(___flmul@grs+2)^(0+128),f
  3883  01C5                     u3742:
  3884  01C5  1283               	bcf	3,5	;RP0=0, select bank0
  3885  01C6  1303               	bcf	3,6	;RP1=0, select bank0
  3886  01C7  084B               	movf	??___flmul+3,w
  3887  01C8  1103               	clrz
  3888  01C9  1803               	skipnc
  3889  01CA  3E01               	addlw	1
  3890  01CB  1903               	skipnz
  3891  01CC  29D0               	goto	u3743
  3892  01CD  1683               	bsf	3,5	;RP0=1, select bank1
  3893  01CE  1303               	bcf	3,6	;RP1=0, select bank1
  3894  01CF  07DB               	addwf	(___flmul@grs+3)^(0+128),f
  3895  01D0                     u3743:
  3896  01D0  1283               	bcf	3,5	;RP0=0, select bank0
  3897  01D1  1303               	bcf	3,6	;RP1=0, select bank0
  3898  01D2  1683               	bsf	3,5	;RP0=1, select bank1
  3899  01D3  1303               	bcf	3,6	;RP1=0, select bank1
  3900  01D4                     l2947:
  3901  01D4  0862               	movf	(___flmul@temp^(0+128)+1),w
  3902  01D5  1283               	bcf	3,5	;RP0=0, select bank0
  3903  01D6  1303               	bcf	3,6	;RP1=0, select bank0
  3904  01D7  00C8               	movwf	??___flmul
  3905  01D8  01C9               	clrf	??___flmul+1
  3906  01D9  01CA               	clrf	??___flmul+2
  3907  01DA  01CB               	clrf	??___flmul+3
  3908  01DB  0848               	movf	??___flmul,w
  3909  01DC  1683               	bsf	3,5	;RP0=1, select bank1
  3910  01DD  1303               	bcf	3,6	;RP1=0, select bank1
  3911  01DE  07DD               	addwf	___flmul@prod^(0+128),f
  3912  01DF  1283               	bcf	3,5	;RP0=0, select bank0
  3913  01E0  1303               	bcf	3,6	;RP1=0, select bank0
  3914  01E1  0849               	movf	??___flmul+1,w
  3915  01E2  1103               	clrz
  3916  01E3  1803               	skipnc
  3917  01E4  3E01               	addlw	1
  3918  01E5  1903               	skipnz
  3919  01E6  29EA               	goto	u3751
  3920  01E7  1683               	bsf	3,5	;RP0=1, select bank1
  3921  01E8  1303               	bcf	3,6	;RP1=0, select bank1
  3922  01E9  07DE               	addwf	(___flmul@prod+1)^(0+128),f
  3923  01EA                     u3751:
  3924  01EA  1283               	bcf	3,5	;RP0=0, select bank0
  3925  01EB  1303               	bcf	3,6	;RP1=0, select bank0
  3926  01EC  084A               	movf	??___flmul+2,w
  3927  01ED  1103               	clrz
  3928  01EE  1803               	skipnc
  3929  01EF  3E01               	addlw	1
  3930  01F0  1903               	skipnz
  3931  01F1  29F5               	goto	u3752
  3932  01F2  1683               	bsf	3,5	;RP0=1, select bank1
  3933  01F3  1303               	bcf	3,6	;RP1=0, select bank1
  3934  01F4  07DF               	addwf	(___flmul@prod+2)^(0+128),f
  3935  01F5                     u3752:
  3936  01F5  1283               	bcf	3,5	;RP0=0, select bank0
  3937  01F6  1303               	bcf	3,6	;RP1=0, select bank0
  3938  01F7  084B               	movf	??___flmul+3,w
  3939  01F8  1103               	clrz
  3940  01F9  1803               	skipnc
  3941  01FA  3E01               	addlw	1
  3942  01FB  1903               	skipnz
  3943  01FC  2A00               	goto	u3753
  3944  01FD  1683               	bsf	3,5	;RP0=1, select bank1
  3945  01FE  1303               	bcf	3,6	;RP1=0, select bank1
  3946  01FF  07E0               	addwf	(___flmul@prod+3)^(0+128),f
  3947  0200                     u3753:
  3948  0200  1283               	bcf	3,5	;RP0=0, select bank0
  3949  0201  1303               	bcf	3,6	;RP1=0, select bank0
  3950  0202  1683               	bsf	3,5	;RP0=1, select bank1
  3951  0203  1303               	bcf	3,6	;RP1=0, select bank1
  3952  0204                     l2949:
  3953  0204  3008               	movlw	8
  3954  0205  1283               	bcf	3,5	;RP0=0, select bank0
  3955  0206  1303               	bcf	3,6	;RP1=0, select bank0
  3956  0207  00C8               	movwf	??___flmul
  3957  0208                     u3765:
  3958  0208  1003               	clrc
  3959  0209  1683               	bsf	3,5	;RP0=1, select bank1
  3960  020A  1303               	bcf	3,6	;RP1=0, select bank1
  3961  020B  0DD8               	rlf	___flmul@grs^(0+128),f
  3962  020C  0DD9               	rlf	(___flmul@grs+1)^(0+128),f
  3963  020D  0DDA               	rlf	(___flmul@grs+2)^(0+128),f
  3964  020E  0DDB               	rlf	(___flmul@grs+3)^(0+128),f
  3965  020F  1283               	bcf	3,5	;RP0=0, select bank0
  3966  0210  1303               	bcf	3,6	;RP1=0, select bank0
  3967  0211  0BC8               	decfsz	??___flmul,f
  3968  0212  2A08               	goto	u3765
  3969  0213                     l2951:
  3970  0213  0841               	movf	___flmul@b+1,w
  3971  0214  00C8               	movwf	??___flmul
  3972  0215  0848               	movf	??___flmul,w
  3973  0216  00B2               	movwf	__Umul8_16@multiplicand
  3974  0217  0844               	movf	___flmul@a,w
  3975  0218  160A  118A  269B  120A  118A  	fcall	__Umul8_16
  3976  021D  1283               	bcf	3,5	;RP0=0, select bank0
  3977  021E  1303               	bcf	3,6	;RP1=0, select bank0
  3978  021F  0833               	movf	?__Umul8_16+1,w
  3979  0220  1683               	bsf	3,5	;RP0=1, select bank1
  3980  0221  1303               	bcf	3,6	;RP1=0, select bank1
  3981  0222  00E2               	movwf	(___flmul@temp+1)^(0+128)
  3982  0223  1283               	bcf	3,5	;RP0=0, select bank0
  3983  0224  1303               	bcf	3,6	;RP1=0, select bank0
  3984  0225  0832               	movf	?__Umul8_16,w
  3985  0226  1683               	bsf	3,5	;RP0=1, select bank1
  3986  0227  1303               	bcf	3,6	;RP1=0, select bank1
  3987  0228  00E1               	movwf	___flmul@temp^(0+128)
  3988  0229                     l2953:
  3989  0229  0861               	movf	___flmul@temp^(0+128),w
  3990  022A  1283               	bcf	3,5	;RP0=0, select bank0
  3991  022B  1303               	bcf	3,6	;RP1=0, select bank0
  3992  022C  00C8               	movwf	??___flmul
  3993  022D  1683               	bsf	3,5	;RP0=1, select bank1
  3994  022E  1303               	bcf	3,6	;RP1=0, select bank1
  3995  022F  0862               	movf	(___flmul@temp+1)^(0+128),w
  3996  0230  1283               	bcf	3,5	;RP0=0, select bank0
  3997  0231  1303               	bcf	3,6	;RP1=0, select bank0
  3998  0232  00C9               	movwf	??___flmul+1
  3999  0233  01CA               	clrf	??___flmul+2
  4000  0234  01CB               	clrf	??___flmul+3
  4001  0235  0848               	movf	??___flmul,w
  4002  0236  1683               	bsf	3,5	;RP0=1, select bank1
  4003  0237  1303               	bcf	3,6	;RP1=0, select bank1
  4004  0238  07D8               	addwf	___flmul@grs^(0+128),f
  4005  0239  1283               	bcf	3,5	;RP0=0, select bank0
  4006  023A  1303               	bcf	3,6	;RP1=0, select bank0
  4007  023B  0849               	movf	??___flmul+1,w
  4008  023C  1103               	clrz
  4009  023D  1803               	skipnc
  4010  023E  3E01               	addlw	1
  4011  023F  1903               	skipnz
  4012  0240  2A44               	goto	u3771
  4013  0241  1683               	bsf	3,5	;RP0=1, select bank1
  4014  0242  1303               	bcf	3,6	;RP1=0, select bank1
  4015  0243  07D9               	addwf	(___flmul@grs+1)^(0+128),f
  4016  0244                     u3771:
  4017  0244  1283               	bcf	3,5	;RP0=0, select bank0
  4018  0245  1303               	bcf	3,6	;RP1=0, select bank0
  4019  0246  084A               	movf	??___flmul+2,w
  4020  0247  1103               	clrz
  4021  0248  1803               	skipnc
  4022  0249  3E01               	addlw	1
  4023  024A  1903               	skipnz
  4024  024B  2A4F               	goto	u3772
  4025  024C  1683               	bsf	3,5	;RP0=1, select bank1
  4026  024D  1303               	bcf	3,6	;RP1=0, select bank1
  4027  024E  07DA               	addwf	(___flmul@grs+2)^(0+128),f
  4028  024F                     u3772:
  4029  024F  1283               	bcf	3,5	;RP0=0, select bank0
  4030  0250  1303               	bcf	3,6	;RP1=0, select bank0
  4031  0251  084B               	movf	??___flmul+3,w
  4032  0252  1103               	clrz
  4033  0253  1803               	skipnc
  4034  0254  3E01               	addlw	1
  4035  0255  1903               	skipnz
  4036  0256  2A5A               	goto	u3773
  4037  0257  1683               	bsf	3,5	;RP0=1, select bank1
  4038  0258  1303               	bcf	3,6	;RP1=0, select bank1
  4039  0259  07DB               	addwf	(___flmul@grs+3)^(0+128),f
  4040  025A                     u3773:
  4041  025A  1283               	bcf	3,5	;RP0=0, select bank0
  4042  025B  1303               	bcf	3,6	;RP1=0, select bank0
  4043  025C  1683               	bsf	3,5	;RP0=1, select bank1
  4044  025D  1303               	bcf	3,6	;RP1=0, select bank1
  4045  025E                     l2955:
  4046  025E  1283               	bcf	3,5	;RP0=0, select bank0
  4047  025F  1303               	bcf	3,6	;RP1=0, select bank0
  4048  0260  0840               	movf	___flmul@b,w
  4049  0261  00C8               	movwf	??___flmul
  4050  0262  0848               	movf	??___flmul,w
  4051  0263  00B2               	movwf	__Umul8_16@multiplicand
  4052  0264  0845               	movf	___flmul@a+1,w
  4053  0265  160A  118A  269B  120A  118A  	fcall	__Umul8_16
  4054  026A  1283               	bcf	3,5	;RP0=0, select bank0
  4055  026B  1303               	bcf	3,6	;RP1=0, select bank0
  4056  026C  0833               	movf	?__Umul8_16+1,w
  4057  026D  1683               	bsf	3,5	;RP0=1, select bank1
  4058  026E  1303               	bcf	3,6	;RP1=0, select bank1
  4059  026F  00E2               	movwf	(___flmul@temp+1)^(0+128)
  4060  0270  1283               	bcf	3,5	;RP0=0, select bank0
  4061  0271  1303               	bcf	3,6	;RP1=0, select bank0
  4062  0272  0832               	movf	?__Umul8_16,w
  4063  0273  1683               	bsf	3,5	;RP0=1, select bank1
  4064  0274  1303               	bcf	3,6	;RP1=0, select bank1
  4065  0275  00E1               	movwf	___flmul@temp^(0+128)
  4066  0276                     l2957:
  4067  0276  0861               	movf	___flmul@temp^(0+128),w
  4068  0277  1283               	bcf	3,5	;RP0=0, select bank0
  4069  0278  1303               	bcf	3,6	;RP1=0, select bank0
  4070  0279  00C8               	movwf	??___flmul
  4071  027A  1683               	bsf	3,5	;RP0=1, select bank1
  4072  027B  1303               	bcf	3,6	;RP1=0, select bank1
  4073  027C  0862               	movf	(___flmul@temp+1)^(0+128),w
  4074  027D  1283               	bcf	3,5	;RP0=0, select bank0
  4075  027E  1303               	bcf	3,6	;RP1=0, select bank0
  4076  027F  00C9               	movwf	??___flmul+1
  4077  0280  01CA               	clrf	??___flmul+2
  4078  0281  01CB               	clrf	??___flmul+3
  4079  0282  0848               	movf	??___flmul,w
  4080  0283  1683               	bsf	3,5	;RP0=1, select bank1
  4081  0284  1303               	bcf	3,6	;RP1=0, select bank1
  4082  0285  07D8               	addwf	___flmul@grs^(0+128),f
  4083  0286  1283               	bcf	3,5	;RP0=0, select bank0
  4084  0287  1303               	bcf	3,6	;RP1=0, select bank0
  4085  0288  0849               	movf	??___flmul+1,w
  4086  0289  1103               	clrz
  4087  028A  1803               	skipnc
  4088  028B  3E01               	addlw	1
  4089  028C  1903               	skipnz
  4090  028D  2A91               	goto	u3781
  4091  028E  1683               	bsf	3,5	;RP0=1, select bank1
  4092  028F  1303               	bcf	3,6	;RP1=0, select bank1
  4093  0290  07D9               	addwf	(___flmul@grs+1)^(0+128),f
  4094  0291                     u3781:
  4095  0291  1283               	bcf	3,5	;RP0=0, select bank0
  4096  0292  1303               	bcf	3,6	;RP1=0, select bank0
  4097  0293  084A               	movf	??___flmul+2,w
  4098  0294  1103               	clrz
  4099  0295  1803               	skipnc
  4100  0296  3E01               	addlw	1
  4101  0297  1903               	skipnz
  4102  0298  2A9C               	goto	u3782
  4103  0299  1683               	bsf	3,5	;RP0=1, select bank1
  4104  029A  1303               	bcf	3,6	;RP1=0, select bank1
  4105  029B  07DA               	addwf	(___flmul@grs+2)^(0+128),f
  4106  029C                     u3782:
  4107  029C  1283               	bcf	3,5	;RP0=0, select bank0
  4108  029D  1303               	bcf	3,6	;RP1=0, select bank0
  4109  029E  084B               	movf	??___flmul+3,w
  4110  029F  1103               	clrz
  4111  02A0  1803               	skipnc
  4112  02A1  3E01               	addlw	1
  4113  02A2  1903               	skipnz
  4114  02A3  2AA7               	goto	u3783
  4115  02A4  1683               	bsf	3,5	;RP0=1, select bank1
  4116  02A5  1303               	bcf	3,6	;RP1=0, select bank1
  4117  02A6  07DB               	addwf	(___flmul@grs+3)^(0+128),f
  4118  02A7                     u3783:
  4119  02A7  1283               	bcf	3,5	;RP0=0, select bank0
  4120  02A8  1303               	bcf	3,6	;RP1=0, select bank0
  4121  02A9  1683               	bsf	3,5	;RP0=1, select bank1
  4122  02AA  1303               	bcf	3,6	;RP1=0, select bank1
  4123  02AB                     l2959:
  4124  02AB  3008               	movlw	8
  4125  02AC  1283               	bcf	3,5	;RP0=0, select bank0
  4126  02AD  1303               	bcf	3,6	;RP1=0, select bank0
  4127  02AE  00C8               	movwf	??___flmul
  4128  02AF                     u3795:
  4129  02AF  1003               	clrc
  4130  02B0  1683               	bsf	3,5	;RP0=1, select bank1
  4131  02B1  1303               	bcf	3,6	;RP1=0, select bank1
  4132  02B2  0DD8               	rlf	___flmul@grs^(0+128),f
  4133  02B3  0DD9               	rlf	(___flmul@grs+1)^(0+128),f
  4134  02B4  0DDA               	rlf	(___flmul@grs+2)^(0+128),f
  4135  02B5  0DDB               	rlf	(___flmul@grs+3)^(0+128),f
  4136  02B6  1283               	bcf	3,5	;RP0=0, select bank0
  4137  02B7  1303               	bcf	3,6	;RP1=0, select bank0
  4138  02B8  0BC8               	decfsz	??___flmul,f
  4139  02B9  2AAF               	goto	u3795
  4140  02BA  0840               	movf	___flmul@b,w
  4141  02BB  00C8               	movwf	??___flmul
  4142  02BC  0848               	movf	??___flmul,w
  4143  02BD  00B2               	movwf	__Umul8_16@multiplicand
  4144  02BE  0844               	movf	___flmul@a,w
  4145  02BF  160A  118A  269B  120A  118A  	fcall	__Umul8_16
  4146  02C4  1283               	bcf	3,5	;RP0=0, select bank0
  4147  02C5  1303               	bcf	3,6	;RP1=0, select bank0
  4148  02C6  0833               	movf	?__Umul8_16+1,w
  4149  02C7  1683               	bsf	3,5	;RP0=1, select bank1
  4150  02C8  1303               	bcf	3,6	;RP1=0, select bank1
  4151  02C9  00E2               	movwf	(___flmul@temp+1)^(0+128)
  4152  02CA  1283               	bcf	3,5	;RP0=0, select bank0
  4153  02CB  1303               	bcf	3,6	;RP1=0, select bank0
  4154  02CC  0832               	movf	?__Umul8_16,w
  4155  02CD  1683               	bsf	3,5	;RP0=1, select bank1
  4156  02CE  1303               	bcf	3,6	;RP1=0, select bank1
  4157  02CF  00E1               	movwf	___flmul@temp^(0+128)
  4158  02D0                     l2961:
  4159  02D0  0861               	movf	___flmul@temp^(0+128),w
  4160  02D1  1283               	bcf	3,5	;RP0=0, select bank0
  4161  02D2  1303               	bcf	3,6	;RP1=0, select bank0
  4162  02D3  00C8               	movwf	??___flmul
  4163  02D4  1683               	bsf	3,5	;RP0=1, select bank1
  4164  02D5  1303               	bcf	3,6	;RP1=0, select bank1
  4165  02D6  0862               	movf	(___flmul@temp+1)^(0+128),w
  4166  02D7  1283               	bcf	3,5	;RP0=0, select bank0
  4167  02D8  1303               	bcf	3,6	;RP1=0, select bank0
  4168  02D9  00C9               	movwf	??___flmul+1
  4169  02DA  01CA               	clrf	??___flmul+2
  4170  02DB  01CB               	clrf	??___flmul+3
  4171  02DC  0848               	movf	??___flmul,w
  4172  02DD  1683               	bsf	3,5	;RP0=1, select bank1
  4173  02DE  1303               	bcf	3,6	;RP1=0, select bank1
  4174  02DF  07D8               	addwf	___flmul@grs^(0+128),f
  4175  02E0  1283               	bcf	3,5	;RP0=0, select bank0
  4176  02E1  1303               	bcf	3,6	;RP1=0, select bank0
  4177  02E2  0849               	movf	??___flmul+1,w
  4178  02E3  1103               	clrz
  4179  02E4  1803               	skipnc
  4180  02E5  3E01               	addlw	1
  4181  02E6  1903               	skipnz
  4182  02E7  2AEB               	goto	u3801
  4183  02E8  1683               	bsf	3,5	;RP0=1, select bank1
  4184  02E9  1303               	bcf	3,6	;RP1=0, select bank1
  4185  02EA  07D9               	addwf	(___flmul@grs+1)^(0+128),f
  4186  02EB                     u3801:
  4187  02EB  1283               	bcf	3,5	;RP0=0, select bank0
  4188  02EC  1303               	bcf	3,6	;RP1=0, select bank0
  4189  02ED  084A               	movf	??___flmul+2,w
  4190  02EE  1103               	clrz
  4191  02EF  1803               	skipnc
  4192  02F0  3E01               	addlw	1
  4193  02F1  1903               	skipnz
  4194  02F2  2AF6               	goto	u3802
  4195  02F3  1683               	bsf	3,5	;RP0=1, select bank1
  4196  02F4  1303               	bcf	3,6	;RP1=0, select bank1
  4197  02F5  07DA               	addwf	(___flmul@grs+2)^(0+128),f
  4198  02F6                     u3802:
  4199  02F6  1283               	bcf	3,5	;RP0=0, select bank0
  4200  02F7  1303               	bcf	3,6	;RP1=0, select bank0
  4201  02F8  084B               	movf	??___flmul+3,w
  4202  02F9  1103               	clrz
  4203  02FA  1803               	skipnc
  4204  02FB  3E01               	addlw	1
  4205  02FC  1903               	skipnz
  4206  02FD  2B01               	goto	u3803
  4207  02FE  1683               	bsf	3,5	;RP0=1, select bank1
  4208  02FF  1303               	bcf	3,6	;RP1=0, select bank1
  4209  0300  07DB               	addwf	(___flmul@grs+3)^(0+128),f
  4210  0301                     u3803:
  4211  0301  1283               	bcf	3,5	;RP0=0, select bank0
  4212  0302  1303               	bcf	3,6	;RP1=0, select bank0
  4213  0303  1683               	bsf	3,5	;RP0=1, select bank1
  4214  0304  1303               	bcf	3,6	;RP1=0, select bank1
  4215  0305                     l2963:
  4216  0305  1283               	bcf	3,5	;RP0=0, select bank0
  4217  0306  1303               	bcf	3,6	;RP1=0, select bank0
  4218  0307  0841               	movf	___flmul@b+1,w
  4219  0308  00C8               	movwf	??___flmul
  4220  0309  0848               	movf	??___flmul,w
  4221  030A  00B2               	movwf	__Umul8_16@multiplicand
  4222  030B  0846               	movf	___flmul@a+2,w
  4223  030C  160A  118A  269B  120A  118A  	fcall	__Umul8_16
  4224  0311  1283               	bcf	3,5	;RP0=0, select bank0
  4225  0312  1303               	bcf	3,6	;RP1=0, select bank0
  4226  0313  0833               	movf	?__Umul8_16+1,w
  4227  0314  1683               	bsf	3,5	;RP0=1, select bank1
  4228  0315  1303               	bcf	3,6	;RP1=0, select bank1
  4229  0316  00E2               	movwf	(___flmul@temp+1)^(0+128)
  4230  0317  1283               	bcf	3,5	;RP0=0, select bank0
  4231  0318  1303               	bcf	3,6	;RP1=0, select bank0
  4232  0319  0832               	movf	?__Umul8_16,w
  4233  031A  1683               	bsf	3,5	;RP0=1, select bank1
  4234  031B  1303               	bcf	3,6	;RP1=0, select bank1
  4235  031C  00E1               	movwf	___flmul@temp^(0+128)
  4236  031D  0861               	movf	___flmul@temp^(0+128),w
  4237  031E  1283               	bcf	3,5	;RP0=0, select bank0
  4238  031F  1303               	bcf	3,6	;RP1=0, select bank0
  4239  0320  00C8               	movwf	??___flmul
  4240  0321  1683               	bsf	3,5	;RP0=1, select bank1
  4241  0322  1303               	bcf	3,6	;RP1=0, select bank1
  4242  0323  0862               	movf	(___flmul@temp+1)^(0+128),w
  4243  0324  1283               	bcf	3,5	;RP0=0, select bank0
  4244  0325  1303               	bcf	3,6	;RP1=0, select bank0
  4245  0326  00C9               	movwf	??___flmul+1
  4246  0327  01CA               	clrf	??___flmul+2
  4247  0328  01CB               	clrf	??___flmul+3
  4248  0329  0848               	movf	??___flmul,w
  4249  032A  1683               	bsf	3,5	;RP0=1, select bank1
  4250  032B  1303               	bcf	3,6	;RP1=0, select bank1
  4251  032C  07DD               	addwf	___flmul@prod^(0+128),f
  4252  032D  1283               	bcf	3,5	;RP0=0, select bank0
  4253  032E  1303               	bcf	3,6	;RP1=0, select bank0
  4254  032F  0849               	movf	??___flmul+1,w
  4255  0330  1103               	clrz
  4256  0331  1803               	skipnc
  4257  0332  3E01               	addlw	1
  4258  0333  1903               	skipnz
  4259  0334  2B38               	goto	u3811
  4260  0335  1683               	bsf	3,5	;RP0=1, select bank1
  4261  0336  1303               	bcf	3,6	;RP1=0, select bank1
  4262  0337  07DE               	addwf	(___flmul@prod+1)^(0+128),f
  4263  0338                     u3811:
  4264  0338  1283               	bcf	3,5	;RP0=0, select bank0
  4265  0339  1303               	bcf	3,6	;RP1=0, select bank0
  4266  033A  084A               	movf	??___flmul+2,w
  4267  033B  1103               	clrz
  4268  033C  1803               	skipnc
  4269  033D  3E01               	addlw	1
  4270  033E  1903               	skipnz
  4271  033F  2B43               	goto	u3812
  4272  0340  1683               	bsf	3,5	;RP0=1, select bank1
  4273  0341  1303               	bcf	3,6	;RP1=0, select bank1
  4274  0342  07DF               	addwf	(___flmul@prod+2)^(0+128),f
  4275  0343                     u3812:
  4276  0343  1283               	bcf	3,5	;RP0=0, select bank0
  4277  0344  1303               	bcf	3,6	;RP1=0, select bank0
  4278  0345  084B               	movf	??___flmul+3,w
  4279  0346  1103               	clrz
  4280  0347  1803               	skipnc
  4281  0348  3E01               	addlw	1
  4282  0349  1903               	skipnz
  4283  034A  2B4E               	goto	u3813
  4284  034B  1683               	bsf	3,5	;RP0=1, select bank1
  4285  034C  1303               	bcf	3,6	;RP1=0, select bank1
  4286  034D  07E0               	addwf	(___flmul@prod+3)^(0+128),f
  4287  034E                     u3813:
  4288  034E  1283               	bcf	3,5	;RP0=0, select bank0
  4289  034F  1303               	bcf	3,6	;RP1=0, select bank0
  4290  0350  1683               	bsf	3,5	;RP0=1, select bank1
  4291  0351  1303               	bcf	3,6	;RP1=0, select bank1
  4292  0352                     l2965:
  4293  0352  1283               	bcf	3,5	;RP0=0, select bank0
  4294  0353  1303               	bcf	3,6	;RP1=0, select bank0
  4295  0354  0842               	movf	___flmul@b+2,w
  4296  0355  00C8               	movwf	??___flmul
  4297  0356  0848               	movf	??___flmul,w
  4298  0357  00B2               	movwf	__Umul8_16@multiplicand
  4299  0358  0845               	movf	___flmul@a+1,w
  4300  0359  160A  118A  269B  120A  118A  	fcall	__Umul8_16
  4301  035E  1283               	bcf	3,5	;RP0=0, select bank0
  4302  035F  1303               	bcf	3,6	;RP1=0, select bank0
  4303  0360  0833               	movf	?__Umul8_16+1,w
  4304  0361  1683               	bsf	3,5	;RP0=1, select bank1
  4305  0362  1303               	bcf	3,6	;RP1=0, select bank1
  4306  0363  00E2               	movwf	(___flmul@temp+1)^(0+128)
  4307  0364  1283               	bcf	3,5	;RP0=0, select bank0
  4308  0365  1303               	bcf	3,6	;RP1=0, select bank0
  4309  0366  0832               	movf	?__Umul8_16,w
  4310  0367  1683               	bsf	3,5	;RP0=1, select bank1
  4311  0368  1303               	bcf	3,6	;RP1=0, select bank1
  4312  0369  00E1               	movwf	___flmul@temp^(0+128)
  4313  036A                     l2967:
  4314  036A  0861               	movf	___flmul@temp^(0+128),w
  4315  036B  1283               	bcf	3,5	;RP0=0, select bank0
  4316  036C  1303               	bcf	3,6	;RP1=0, select bank0
  4317  036D  00C8               	movwf	??___flmul
  4318  036E  1683               	bsf	3,5	;RP0=1, select bank1
  4319  036F  1303               	bcf	3,6	;RP1=0, select bank1
  4320  0370  0862               	movf	(___flmul@temp+1)^(0+128),w
  4321  0371  1283               	bcf	3,5	;RP0=0, select bank0
  4322  0372  1303               	bcf	3,6	;RP1=0, select bank0
  4323  0373  00C9               	movwf	??___flmul+1
  4324  0374  01CA               	clrf	??___flmul+2
  4325  0375  01CB               	clrf	??___flmul+3
  4326  0376  0848               	movf	??___flmul,w
  4327  0377  1683               	bsf	3,5	;RP0=1, select bank1
  4328  0378  1303               	bcf	3,6	;RP1=0, select bank1
  4329  0379  07DD               	addwf	___flmul@prod^(0+128),f
  4330  037A  1283               	bcf	3,5	;RP0=0, select bank0
  4331  037B  1303               	bcf	3,6	;RP1=0, select bank0
  4332  037C  0849               	movf	??___flmul+1,w
  4333  037D  1103               	clrz
  4334  037E  1803               	skipnc
  4335  037F  3E01               	addlw	1
  4336  0380  1903               	skipnz
  4337  0381  2B85               	goto	u3821
  4338  0382  1683               	bsf	3,5	;RP0=1, select bank1
  4339  0383  1303               	bcf	3,6	;RP1=0, select bank1
  4340  0384  07DE               	addwf	(___flmul@prod+1)^(0+128),f
  4341  0385                     u3821:
  4342  0385  1283               	bcf	3,5	;RP0=0, select bank0
  4343  0386  1303               	bcf	3,6	;RP1=0, select bank0
  4344  0387  084A               	movf	??___flmul+2,w
  4345  0388  1103               	clrz
  4346  0389  1803               	skipnc
  4347  038A  3E01               	addlw	1
  4348  038B  1903               	skipnz
  4349  038C  2B90               	goto	u3822
  4350  038D  1683               	bsf	3,5	;RP0=1, select bank1
  4351  038E  1303               	bcf	3,6	;RP1=0, select bank1
  4352  038F  07DF               	addwf	(___flmul@prod+2)^(0+128),f
  4353  0390                     u3822:
  4354  0390  1283               	bcf	3,5	;RP0=0, select bank0
  4355  0391  1303               	bcf	3,6	;RP1=0, select bank0
  4356  0392  084B               	movf	??___flmul+3,w
  4357  0393  1103               	clrz
  4358  0394  1803               	skipnc
  4359  0395  3E01               	addlw	1
  4360  0396  1903               	skipnz
  4361  0397  2B9B               	goto	u3823
  4362  0398  1683               	bsf	3,5	;RP0=1, select bank1
  4363  0399  1303               	bcf	3,6	;RP1=0, select bank1
  4364  039A  07E0               	addwf	(___flmul@prod+3)^(0+128),f
  4365  039B                     u3823:
  4366  039B  1283               	bcf	3,5	;RP0=0, select bank0
  4367  039C  1303               	bcf	3,6	;RP1=0, select bank0
  4368  039D  1683               	bsf	3,5	;RP0=1, select bank1
  4369  039E  1303               	bcf	3,6	;RP1=0, select bank1
  4370  039F  1283               	bcf	3,5	;RP0=0, select bank0
  4371  03A0  1303               	bcf	3,6	;RP1=0, select bank0
  4372  03A1  0842               	movf	___flmul@b+2,w
  4373  03A2  00C8               	movwf	??___flmul
  4374  03A3  0848               	movf	??___flmul,w
  4375  03A4  00B2               	movwf	__Umul8_16@multiplicand
  4376  03A5  0846               	movf	___flmul@a+2,w
  4377  03A6  160A  118A  269B  120A  118A  	fcall	__Umul8_16
  4378  03AB  1283               	bcf	3,5	;RP0=0, select bank0
  4379  03AC  1303               	bcf	3,6	;RP1=0, select bank0
  4380  03AD  0833               	movf	?__Umul8_16+1,w
  4381  03AE  1683               	bsf	3,5	;RP0=1, select bank1
  4382  03AF  1303               	bcf	3,6	;RP1=0, select bank1
  4383  03B0  00E2               	movwf	(___flmul@temp+1)^(0+128)
  4384  03B1  1283               	bcf	3,5	;RP0=0, select bank0
  4385  03B2  1303               	bcf	3,6	;RP1=0, select bank0
  4386  03B3  0832               	movf	?__Umul8_16,w
  4387  03B4  1683               	bsf	3,5	;RP0=1, select bank1
  4388  03B5  1303               	bcf	3,6	;RP1=0, select bank1
  4389  03B6  00E1               	movwf	___flmul@temp^(0+128)
  4390  03B7                     l2969:
  4391  03B7  0861               	movf	___flmul@temp^(0+128),w
  4392  03B8  1283               	bcf	3,5	;RP0=0, select bank0
  4393  03B9  1303               	bcf	3,6	;RP1=0, select bank0
  4394  03BA  00C8               	movwf	??___flmul
  4395  03BB  1683               	bsf	3,5	;RP0=1, select bank1
  4396  03BC  1303               	bcf	3,6	;RP1=0, select bank1
  4397  03BD  0862               	movf	(___flmul@temp+1)^(0+128),w
  4398  03BE  1283               	bcf	3,5	;RP0=0, select bank0
  4399  03BF  1303               	bcf	3,6	;RP1=0, select bank0
  4400  03C0  00C9               	movwf	??___flmul+1
  4401  03C1  01CA               	clrf	??___flmul+2
  4402  03C2  01CB               	clrf	??___flmul+3
  4403  03C3  3008               	movlw	8
  4404  03C4                     u3835:
  4405  03C4  1003               	clrc
  4406  03C5  0DC8               	rlf	??___flmul,f
  4407  03C6  0DC9               	rlf	??___flmul+1,f
  4408  03C7  0DCA               	rlf	??___flmul+2,f
  4409  03C8  0DCB               	rlf	??___flmul+3,f
  4410  03C9                     u3830:
  4411  03C9  3EFF               	addlw	-1
  4412  03CA  1D03               	skipz
  4413  03CB  2BC4               	goto	u3835
  4414  03CC  0848               	movf	??___flmul,w
  4415  03CD  1683               	bsf	3,5	;RP0=1, select bank1
  4416  03CE  1303               	bcf	3,6	;RP1=0, select bank1
  4417  03CF  07DD               	addwf	___flmul@prod^(0+128),f
  4418  03D0  1283               	bcf	3,5	;RP0=0, select bank0
  4419  03D1  1303               	bcf	3,6	;RP1=0, select bank0
  4420  03D2  0849               	movf	??___flmul+1,w
  4421  03D3  1103               	clrz
  4422  03D4  1803               	skipnc
  4423  03D5  3E01               	addlw	1
  4424  03D6  1903               	skipnz
  4425  03D7  2BDB               	goto	u3841
  4426  03D8  1683               	bsf	3,5	;RP0=1, select bank1
  4427  03D9  1303               	bcf	3,6	;RP1=0, select bank1
  4428  03DA  07DE               	addwf	(___flmul@prod+1)^(0+128),f
  4429  03DB                     u3841:
  4430  03DB  1283               	bcf	3,5	;RP0=0, select bank0
  4431  03DC  1303               	bcf	3,6	;RP1=0, select bank0
  4432  03DD  084A               	movf	??___flmul+2,w
  4433  03DE  1103               	clrz
  4434  03DF  1803               	skipnc
  4435  03E0  3E01               	addlw	1
  4436  03E1  1903               	skipnz
  4437  03E2  2BE6               	goto	u3842
  4438  03E3  1683               	bsf	3,5	;RP0=1, select bank1
  4439  03E4  1303               	bcf	3,6	;RP1=0, select bank1
  4440  03E5  07DF               	addwf	(___flmul@prod+2)^(0+128),f
  4441  03E6                     u3842:
  4442  03E6  1283               	bcf	3,5	;RP0=0, select bank0
  4443  03E7  1303               	bcf	3,6	;RP1=0, select bank0
  4444  03E8  084B               	movf	??___flmul+3,w
  4445  03E9  1103               	clrz
  4446  03EA  1803               	skipnc
  4447  03EB  3E01               	addlw	1
  4448  03EC  1903               	skipnz
  4449  03ED  2BF1               	goto	u3843
  4450  03EE  1683               	bsf	3,5	;RP0=1, select bank1
  4451  03EF  1303               	bcf	3,6	;RP1=0, select bank1
  4452  03F0  07E0               	addwf	(___flmul@prod+3)^(0+128),f
  4453  03F1                     u3843:
  4454  03F1  1283               	bcf	3,5	;RP0=0, select bank0
  4455  03F2  1303               	bcf	3,6	;RP1=0, select bank0
  4456  03F3  1683               	bsf	3,5	;RP0=1, select bank1
  4457  03F4  1303               	bcf	3,6	;RP1=0, select bank1
  4458  03F5                     l2971:
  4459  03F5  0858               	movf	___flmul@grs^(0+128),w
  4460  03F6  1283               	bcf	3,5	;RP0=0, select bank0
  4461  03F7  1303               	bcf	3,6	;RP1=0, select bank0
  4462  03F8  00C8               	movwf	??___flmul
  4463  03F9  1683               	bsf	3,5	;RP0=1, select bank1
  4464  03FA  1303               	bcf	3,6	;RP1=0, select bank1
  4465  03FB  0859               	movf	(___flmul@grs+1)^(0+128),w
  4466  03FC  1283               	bcf	3,5	;RP0=0, select bank0
  4467  03FD  1303               	bcf	3,6	;RP1=0, select bank0
  4468  03FE  00C9               	movwf	??___flmul+1
  4469  03FF  1683               	bsf	3,5	;RP0=1, select bank1
  4470  0400  1303               	bcf	3,6	;RP1=0, select bank1
  4471  0401  085A               	movf	(___flmul@grs+2)^(0+128),w
  4472  0402  1283               	bcf	3,5	;RP0=0, select bank0
  4473  0403  1303               	bcf	3,6	;RP1=0, select bank0
  4474  0404  00CA               	movwf	??___flmul+2
  4475  0405  1683               	bsf	3,5	;RP0=1, select bank1
  4476  0406  1303               	bcf	3,6	;RP1=0, select bank1
  4477  0407  085B               	movf	(___flmul@grs+3)^(0+128),w
  4478  0408  1283               	bcf	3,5	;RP0=0, select bank0
  4479  0409  1303               	bcf	3,6	;RP1=0, select bank0
  4480  040A  00CB               	movwf	??___flmul+3
  4481  040B  3018               	movlw	24
  4482  040C                     u3855:
  4483  040C  1003               	clrc
  4484  040D  0CCB               	rrf	??___flmul+3,f
  4485  040E  0CCA               	rrf	??___flmul+2,f
  4486  040F  0CC9               	rrf	??___flmul+1,f
  4487  0410  0CC8               	rrf	??___flmul,f
  4488  0411                     u3850:
  4489  0411  3EFF               	addlw	-1
  4490  0412  1D03               	skipz
  4491  0413  2C0C               	goto	u3855
  4492  0414  0848               	movf	??___flmul,w
  4493  0415  1683               	bsf	3,5	;RP0=1, select bank1
  4494  0416  1303               	bcf	3,6	;RP1=0, select bank1
  4495  0417  07DD               	addwf	___flmul@prod^(0+128),f
  4496  0418  1283               	bcf	3,5	;RP0=0, select bank0
  4497  0419  1303               	bcf	3,6	;RP1=0, select bank0
  4498  041A  0849               	movf	??___flmul+1,w
  4499  041B  1103               	clrz
  4500  041C  1803               	skipnc
  4501  041D  3E01               	addlw	1
  4502  041E  1903               	skipnz
  4503  041F  2C23               	goto	u3861
  4504  0420  1683               	bsf	3,5	;RP0=1, select bank1
  4505  0421  1303               	bcf	3,6	;RP1=0, select bank1
  4506  0422  07DE               	addwf	(___flmul@prod+1)^(0+128),f
  4507  0423                     u3861:
  4508  0423  1283               	bcf	3,5	;RP0=0, select bank0
  4509  0424  1303               	bcf	3,6	;RP1=0, select bank0
  4510  0425  084A               	movf	??___flmul+2,w
  4511  0426  1103               	clrz
  4512  0427  1803               	skipnc
  4513  0428  3E01               	addlw	1
  4514  0429  1903               	skipnz
  4515  042A  2C2E               	goto	u3862
  4516  042B  1683               	bsf	3,5	;RP0=1, select bank1
  4517  042C  1303               	bcf	3,6	;RP1=0, select bank1
  4518  042D  07DF               	addwf	(___flmul@prod+2)^(0+128),f
  4519  042E                     u3862:
  4520  042E  1283               	bcf	3,5	;RP0=0, select bank0
  4521  042F  1303               	bcf	3,6	;RP1=0, select bank0
  4522  0430  084B               	movf	??___flmul+3,w
  4523  0431  1103               	clrz
  4524  0432  1803               	skipnc
  4525  0433  3E01               	addlw	1
  4526  0434  1903               	skipnz
  4527  0435  2C39               	goto	u3863
  4528  0436  1683               	bsf	3,5	;RP0=1, select bank1
  4529  0437  1303               	bcf	3,6	;RP1=0, select bank1
  4530  0438  07E0               	addwf	(___flmul@prod+3)^(0+128),f
  4531  0439                     u3863:
  4532  0439  1283               	bcf	3,5	;RP0=0, select bank0
  4533  043A  1303               	bcf	3,6	;RP1=0, select bank0
  4534  043B  1683               	bsf	3,5	;RP0=1, select bank1
  4535  043C  1303               	bcf	3,6	;RP1=0, select bank1
  4536  043D                     l2973:
  4537  043D  3008               	movlw	8
  4538  043E  1283               	bcf	3,5	;RP0=0, select bank0
  4539  043F  1303               	bcf	3,6	;RP1=0, select bank0
  4540  0440  00C8               	movwf	??___flmul
  4541  0441                     u3875:
  4542  0441  1003               	clrc
  4543  0442  1683               	bsf	3,5	;RP0=1, select bank1
  4544  0443  1303               	bcf	3,6	;RP1=0, select bank1
  4545  0444  0DD8               	rlf	___flmul@grs^(0+128),f
  4546  0445  0DD9               	rlf	(___flmul@grs+1)^(0+128),f
  4547  0446  0DDA               	rlf	(___flmul@grs+2)^(0+128),f
  4548  0447  0DDB               	rlf	(___flmul@grs+3)^(0+128),f
  4549  0448  1283               	bcf	3,5	;RP0=0, select bank0
  4550  0449  1303               	bcf	3,6	;RP1=0, select bank0
  4551  044A  0BC8               	decfsz	??___flmul,f
  4552  044B  2C41               	goto	u3875
  4553  044C                     l2975:
  4554  044C  1683               	bsf	3,5	;RP0=1, select bank1
  4555  044D  1303               	bcf	3,6	;RP1=0, select bank1
  4556  044E  085C               	movf	___flmul@bexp^(0+128),w
  4557  044F  0757               	addwf	___flmul@aexp^(0+128),w
  4558  0450  1283               	bcf	3,5	;RP0=0, select bank0
  4559  0451  1303               	bcf	3,6	;RP1=0, select bank0
  4560  0452  00C8               	movwf	??___flmul
  4561  0453  01C9               	clrf	??___flmul+1
  4562  0454  0DC9               	rlf	??___flmul+1,f
  4563  0455  0848               	movf	??___flmul,w
  4564  0456  3E82               	addlw	130
  4565  0457  1683               	bsf	3,5	;RP0=1, select bank1
  4566  0458  1303               	bcf	3,6	;RP1=0, select bank1
  4567  0459  00E1               	movwf	___flmul@temp^(0+128)
  4568  045A  1283               	bcf	3,5	;RP0=0, select bank0
  4569  045B  1303               	bcf	3,6	;RP1=0, select bank0
  4570  045C  0849               	movf	??___flmul+1,w
  4571  045D  1803               	skipnc
  4572  045E  3E01               	addlw	1
  4573  045F  3EFF               	addlw	255
  4574  0460  1683               	bsf	3,5	;RP0=1, select bank1
  4575  0461  1303               	bcf	3,6	;RP1=0, select bank1
  4576  0462  00E2               	movwf	(___flmul@temp+1)^(0+128)
  4577  0463  2C91               	goto	l2987
  4578  0464                     l2977:
  4579  0464  3001               	movlw	1
  4580  0465  1283               	bcf	3,5	;RP0=0, select bank0
  4581  0466  1303               	bcf	3,6	;RP1=0, select bank0
  4582  0467  00C8               	movwf	??___flmul
  4583  0468                     u3885:
  4584  0468  1003               	clrc
  4585  0469  1683               	bsf	3,5	;RP0=1, select bank1
  4586  046A  1303               	bcf	3,6	;RP1=0, select bank1
  4587  046B  0DDD               	rlf	___flmul@prod^(0+128),f
  4588  046C  0DDE               	rlf	(___flmul@prod+1)^(0+128),f
  4589  046D  0DDF               	rlf	(___flmul@prod+2)^(0+128),f
  4590  046E  0DE0               	rlf	(___flmul@prod+3)^(0+128),f
  4591  046F  1283               	bcf	3,5	;RP0=0, select bank0
  4592  0470  1303               	bcf	3,6	;RP1=0, select bank0
  4593  0471  0BC8               	decfsz	??___flmul,f
  4594  0472  2C68               	goto	u3885
  4595  0473                     l2979:
  4596  0473  1683               	bsf	3,5	;RP0=1, select bank1
  4597  0474  1303               	bcf	3,6	;RP1=0, select bank1
  4598  0475  1FDB               	btfss	(___flmul@grs+3)^(0+128),7
  4599  0476  2C78               	goto	u3891
  4600  0477  2C79               	goto	u3890
  4601  0478                     u3891:
  4602  0478  2C7A               	goto	l2983
  4603  0479                     u3890:
  4604  0479                     l2981:
  4605  0479  145D               	bsf	___flmul@prod^(0+128),0
  4606  047A                     l2983:
  4607  047A  3001               	movlw	1
  4608  047B  1283               	bcf	3,5	;RP0=0, select bank0
  4609  047C  1303               	bcf	3,6	;RP1=0, select bank0
  4610  047D  00C8               	movwf	??___flmul
  4611  047E                     u3905:
  4612  047E  1003               	clrc
  4613  047F  1683               	bsf	3,5	;RP0=1, select bank1
  4614  0480  1303               	bcf	3,6	;RP1=0, select bank1
  4615  0481  0DD8               	rlf	___flmul@grs^(0+128),f
  4616  0482  0DD9               	rlf	(___flmul@grs+1)^(0+128),f
  4617  0483  0DDA               	rlf	(___flmul@grs+2)^(0+128),f
  4618  0484  0DDB               	rlf	(___flmul@grs+3)^(0+128),f
  4619  0485  1283               	bcf	3,5	;RP0=0, select bank0
  4620  0486  1303               	bcf	3,6	;RP1=0, select bank0
  4621  0487  0BC8               	decfsz	??___flmul,f
  4622  0488  2C7E               	goto	u3905
  4623  0489                     l2985:
  4624  0489  30FF               	movlw	255
  4625  048A  1683               	bsf	3,5	;RP0=1, select bank1
  4626  048B  1303               	bcf	3,6	;RP1=0, select bank1
  4627  048C  07E1               	addwf	___flmul@temp^(0+128),f
  4628  048D  1803               	skipnc
  4629  048E  0AE2               	incf	(___flmul@temp+1)^(0+128),f
  4630  048F  30FF               	movlw	255
  4631  0490  07E2               	addwf	(___flmul@temp+1)^(0+128),f
  4632  0491                     l2987:
  4633  0491  1FDF               	btfss	(___flmul@prod+2)^(0+128),7
  4634  0492  2C94               	goto	u3911
  4635  0493  2C95               	goto	u3910
  4636  0494                     u3911:
  4637  0494  2C64               	goto	l2977
  4638  0495                     u3910:
  4639  0495                     l2989:
  4640  0495  01D7               	clrf	___flmul@aexp^(0+128)
  4641  0496                     l2991:
  4642  0496  1FDB               	btfss	(___flmul@grs+3)^(0+128),7
  4643  0497  2C99               	goto	u3921
  4644  0498  2C9A               	goto	u3920
  4645  0499                     u3921:
  4646  0499  2CC8               	goto	l2999
  4647  049A                     u3920:
  4648  049A                     l2993:
  4649  049A  30FF               	movlw	255
  4650  049B  0558               	andwf	___flmul@grs^(0+128),w
  4651  049C  1283               	bcf	3,5	;RP0=0, select bank0
  4652  049D  1303               	bcf	3,6	;RP1=0, select bank0
  4653  049E  00C8               	movwf	??___flmul
  4654  049F  30FF               	movlw	255
  4655  04A0  1683               	bsf	3,5	;RP0=1, select bank1
  4656  04A1  1303               	bcf	3,6	;RP1=0, select bank1
  4657  04A2  0559               	andwf	(___flmul@grs+1)^(0+128),w
  4658  04A3  1283               	bcf	3,5	;RP0=0, select bank0
  4659  04A4  1303               	bcf	3,6	;RP1=0, select bank0
  4660  04A5  00C9               	movwf	??___flmul+1
  4661  04A6  30FF               	movlw	255
  4662  04A7  1683               	bsf	3,5	;RP0=1, select bank1
  4663  04A8  1303               	bcf	3,6	;RP1=0, select bank1
  4664  04A9  055A               	andwf	(___flmul@grs+2)^(0+128),w
  4665  04AA  1283               	bcf	3,5	;RP0=0, select bank0
  4666  04AB  1303               	bcf	3,6	;RP1=0, select bank0
  4667  04AC  00CA               	movwf	??___flmul+2
  4668  04AD  307F               	movlw	127
  4669  04AE  1683               	bsf	3,5	;RP0=1, select bank1
  4670  04AF  1303               	bcf	3,6	;RP1=0, select bank1
  4671  04B0  055B               	andwf	(___flmul@grs+3)^(0+128),w
  4672  04B1  1283               	bcf	3,5	;RP0=0, select bank0
  4673  04B2  1303               	bcf	3,6	;RP1=0, select bank0
  4674  04B3  00CB               	movwf	??___flmul+3
  4675  04B4  084B               	movf	??___flmul+3,w
  4676  04B5  044A               	iorwf	??___flmul+2,w
  4677  04B6  0449               	iorwf	??___flmul+1,w
  4678  04B7  0448               	iorwf	??___flmul,w
  4679  04B8  1903               	skipnz
  4680  04B9  2CBB               	goto	u3931
  4681  04BA  2CBC               	goto	u3930
  4682  04BB                     u3931:
  4683  04BB  2CC1               	goto	l697
  4684  04BC                     u3930:
  4685  04BC                     l2995:
  4686  04BC  1683               	bsf	3,5	;RP0=1, select bank1
  4687  04BD  1303               	bcf	3,6	;RP1=0, select bank1
  4688  04BE  01D7               	clrf	___flmul@aexp^(0+128)
  4689  04BF  0AD7               	incf	___flmul@aexp^(0+128),f
  4690  04C0  2CC8               	goto	l2999
  4691  04C1                     l697:
  4692  04C1  1683               	bsf	3,5	;RP0=1, select bank1
  4693  04C2  1303               	bcf	3,6	;RP1=0, select bank1
  4694  04C3  1C5D               	btfss	___flmul@prod^(0+128),0
  4695  04C4  2CC6               	goto	u3941
  4696  04C5  2CC7               	goto	u3940
  4697  04C6                     u3941:
  4698  04C6  2CC8               	goto	l2999
  4699  04C7                     u3940:
  4700  04C7  2CBC               	goto	l2995
  4701  04C8                     l2999:
  4702  04C8  0857               	movf	___flmul@aexp^(0+128),w
  4703  04C9  1903               	btfsc	3,2
  4704  04CA  2CCC               	goto	u3951
  4705  04CB  2CCD               	goto	u3950
  4706  04CC                     u3951:
  4707  04CC  2D1A               	goto	l3009
  4708  04CD                     u3950:
  4709  04CD                     l3001:
  4710  04CD  3001               	movlw	1
  4711  04CE  07DD               	addwf	___flmul@prod^(0+128),f
  4712  04CF  3000               	movlw	0
  4713  04D0  1803               	skipnc
  4714  04D1  3001               	movlw	1
  4715  04D2  07DE               	addwf	(___flmul@prod+1)^(0+128),f
  4716  04D3  3000               	movlw	0
  4717  04D4  1803               	skipnc
  4718  04D5  3001               	movlw	1
  4719  04D6  07DF               	addwf	(___flmul@prod+2)^(0+128),f
  4720  04D7  3000               	movlw	0
  4721  04D8  1803               	skipnc
  4722  04D9  3001               	movlw	1
  4723  04DA  07E0               	addwf	(___flmul@prod+3)^(0+128),f
  4724  04DB                     l3003:
  4725  04DB  1C60               	btfss	(___flmul@prod+3)^(0+128),0
  4726  04DC  2CDE               	goto	u3961
  4727  04DD  2CDF               	goto	u3960
  4728  04DE                     u3961:
  4729  04DE  2D1A               	goto	l3009
  4730  04DF                     u3960:
  4731  04DF                     l3005:
  4732  04DF  085D               	movf	___flmul@prod^(0+128),w
  4733  04E0  1283               	bcf	3,5	;RP0=0, select bank0
  4734  04E1  1303               	bcf	3,6	;RP1=0, select bank0
  4735  04E2  00C8               	movwf	??___flmul
  4736  04E3  1683               	bsf	3,5	;RP0=1, select bank1
  4737  04E4  1303               	bcf	3,6	;RP1=0, select bank1
  4738  04E5  085E               	movf	(___flmul@prod+1)^(0+128),w
  4739  04E6  1283               	bcf	3,5	;RP0=0, select bank0
  4740  04E7  1303               	bcf	3,6	;RP1=0, select bank0
  4741  04E8  00C9               	movwf	??___flmul+1
  4742  04E9  1683               	bsf	3,5	;RP0=1, select bank1
  4743  04EA  1303               	bcf	3,6	;RP1=0, select bank1
  4744  04EB  085F               	movf	(___flmul@prod+2)^(0+128),w
  4745  04EC  1283               	bcf	3,5	;RP0=0, select bank0
  4746  04ED  1303               	bcf	3,6	;RP1=0, select bank0
  4747  04EE  00CA               	movwf	??___flmul+2
  4748  04EF  1683               	bsf	3,5	;RP0=1, select bank1
  4749  04F0  1303               	bcf	3,6	;RP1=0, select bank1
  4750  04F1  0860               	movf	(___flmul@prod+3)^(0+128),w
  4751  04F2  1283               	bcf	3,5	;RP0=0, select bank0
  4752  04F3  1303               	bcf	3,6	;RP1=0, select bank0
  4753  04F4  00CB               	movwf	??___flmul+3
  4754  04F5  3001               	movlw	1
  4755  04F6  00CC               	movwf	??___flmul+4
  4756  04F7                     u3975:
  4757  04F7  0D4B               	rlf	??___flmul+3,w
  4758  04F8  0CCB               	rrf	??___flmul+3,f
  4759  04F9  0CCA               	rrf	??___flmul+2,f
  4760  04FA  0CC9               	rrf	??___flmul+1,f
  4761  04FB  0CC8               	rrf	??___flmul,f
  4762  04FC                     u3970:
  4763  04FC  0BCC               	decfsz	??___flmul+4,f
  4764  04FD  2CF7               	goto	u3975
  4765  04FE  084B               	movf	??___flmul+3,w
  4766  04FF  1683               	bsf	3,5	;RP0=1, select bank1
  4767  0500  1303               	bcf	3,6	;RP1=0, select bank1
  4768  0501  00E0               	movwf	(___flmul@prod+3)^(0+128)
  4769  0502  1283               	bcf	3,5	;RP0=0, select bank0
  4770  0503  1303               	bcf	3,6	;RP1=0, select bank0
  4771  0504  084A               	movf	??___flmul+2,w
  4772  0505  1683               	bsf	3,5	;RP0=1, select bank1
  4773  0506  1303               	bcf	3,6	;RP1=0, select bank1
  4774  0507  00DF               	movwf	(___flmul@prod+2)^(0+128)
  4775  0508  1283               	bcf	3,5	;RP0=0, select bank0
  4776  0509  1303               	bcf	3,6	;RP1=0, select bank0
  4777  050A  0849               	movf	??___flmul+1,w
  4778  050B  1683               	bsf	3,5	;RP0=1, select bank1
  4779  050C  1303               	bcf	3,6	;RP1=0, select bank1
  4780  050D  00DE               	movwf	(___flmul@prod+1)^(0+128)
  4781  050E  1283               	bcf	3,5	;RP0=0, select bank0
  4782  050F  1303               	bcf	3,6	;RP1=0, select bank0
  4783  0510  0848               	movf	??___flmul,w
  4784  0511  1683               	bsf	3,5	;RP0=1, select bank1
  4785  0512  1303               	bcf	3,6	;RP1=0, select bank1
  4786  0513  00DD               	movwf	___flmul@prod^(0+128)
  4787  0514                     l3007:
  4788  0514  3001               	movlw	1
  4789  0515  07E1               	addwf	___flmul@temp^(0+128),f
  4790  0516  1803               	skipnc
  4791  0517  0AE2               	incf	(___flmul@temp+1)^(0+128),f
  4792  0518  3000               	movlw	0
  4793  0519  07E2               	addwf	(___flmul@temp+1)^(0+128),f
  4794  051A                     l3009:
  4795  051A  0862               	movf	(___flmul@temp+1)^(0+128),w
  4796  051B  3A80               	xorlw	128
  4797  051C  00FF               	movwf	btemp+1
  4798  051D  3080               	movlw	128
  4799  051E  027F               	subwf	btemp+1,w
  4800  051F  1D03               	skipz
  4801  0520  2D23               	goto	u3985
  4802  0521  30FF               	movlw	255
  4803  0522  0261               	subwf	___flmul@temp^(0+128),w
  4804  0523                     u3985:
  4805  0523  1C03               	skipc
  4806  0524  2D26               	goto	u3981
  4807  0525  2D27               	goto	u3980
  4808  0526                     u3981:
  4809  0526  2D32               	goto	l3013
  4810  0527                     u3980:
  4811  0527                     l3011:
  4812  0527  307F               	movlw	127
  4813  0528  1683               	bsf	3,5	;RP0=1, select bank1
  4814  0529  1303               	bcf	3,6	;RP1=0, select bank1
  4815  052A  00E0               	movwf	(___flmul@prod+3)^(0+128)
  4816  052B  3080               	movlw	128
  4817  052C  00DF               	movwf	(___flmul@prod+2)^(0+128)
  4818  052D  3000               	movlw	0
  4819  052E  00DE               	movwf	(___flmul@prod+1)^(0+128)
  4820  052F  3000               	movlw	0
  4821  0530  00DD               	movwf	___flmul@prod^(0+128)
  4822  0531  2D6F               	goto	l703
  4823  0532                     l3013:
  4824  0532  1683               	bsf	3,5	;RP0=1, select bank1
  4825  0533  1303               	bcf	3,6	;RP1=0, select bank1
  4826  0534  0862               	movf	(___flmul@temp+1)^(0+128),w
  4827  0535  3A80               	xorlw	128
  4828  0536  00FF               	movwf	btemp+1
  4829  0537  3080               	movlw	128
  4830  0538  027F               	subwf	btemp+1,w
  4831  0539  1D03               	skipz
  4832  053A  2D3D               	goto	u3995
  4833  053B  3001               	movlw	1
  4834  053C  0261               	subwf	___flmul@temp^(0+128),w
  4835  053D                     u3995:
  4836  053D  1803               	skipnc
  4837  053E  2D40               	goto	u3991
  4838  053F  2D41               	goto	u3990
  4839  0540                     u3991:
  4840  0540  2D4D               	goto	l3019
  4841  0541                     u3990:
  4842  0541                     l3015:
  4843  0541  3000               	movlw	0
  4844  0542  1683               	bsf	3,5	;RP0=1, select bank1
  4845  0543  1303               	bcf	3,6	;RP1=0, select bank1
  4846  0544  00E0               	movwf	(___flmul@prod+3)^(0+128)
  4847  0545  3000               	movlw	0
  4848  0546  00DF               	movwf	(___flmul@prod+2)^(0+128)
  4849  0547  3000               	movlw	0
  4850  0548  00DE               	movwf	(___flmul@prod+1)^(0+128)
  4851  0549  3000               	movlw	0
  4852  054A  00DD               	movwf	___flmul@prod^(0+128)
  4853  054B                     l3017:
  4854  054B  01D6               	clrf	___flmul@sign^(0+128)
  4855  054C  2D6F               	goto	l703
  4856  054D                     l3019:
  4857  054D  1683               	bsf	3,5	;RP0=1, select bank1
  4858  054E  1303               	bcf	3,6	;RP1=0, select bank1
  4859  054F  0861               	movf	___flmul@temp^(0+128),w
  4860  0550  1283               	bcf	3,5	;RP0=0, select bank0
  4861  0551  1303               	bcf	3,6	;RP1=0, select bank0
  4862  0552  00C8               	movwf	??___flmul
  4863  0553  0848               	movf	??___flmul,w
  4864  0554  1683               	bsf	3,5	;RP0=1, select bank1
  4865  0555  1303               	bcf	3,6	;RP1=0, select bank1
  4866  0556  00DC               	movwf	___flmul@bexp^(0+128)
  4867  0557  30FF               	movlw	255
  4868  0558  05DD               	andwf	___flmul@prod^(0+128),f
  4869  0559  30FF               	movlw	255
  4870  055A  05DE               	andwf	(___flmul@prod+1)^(0+128),f
  4871  055B  307F               	movlw	127
  4872  055C  05DF               	andwf	(___flmul@prod+2)^(0+128),f
  4873  055D  3000               	movlw	0
  4874  055E  05E0               	andwf	(___flmul@prod+3)^(0+128),f
  4875  055F                     l3021:
  4876  055F  1C5C               	btfss	___flmul@bexp^(0+128),0
  4877  0560  2D62               	goto	u4001
  4878  0561  2D63               	goto	u4000
  4879  0562                     u4001:
  4880  0562  2D64               	goto	l3025
  4881  0563                     u4000:
  4882  0563                     l3023:
  4883  0563  17DF               	bsf	(___flmul@prod^(0+128)+2),7
  4884  0564                     l3025:
  4885  0564  085C               	movf	___flmul@bexp^(0+128),w
  4886  0565  1283               	bcf	3,5	;RP0=0, select bank0
  4887  0566  1303               	bcf	3,6	;RP1=0, select bank0
  4888  0567  00C8               	movwf	??___flmul
  4889  0568  1003               	clrc
  4890  0569  0C48               	rrf	??___flmul,w
  4891  056A  00C9               	movwf	??___flmul+1
  4892  056B  0849               	movf	??___flmul+1,w
  4893  056C  1683               	bsf	3,5	;RP0=1, select bank1
  4894  056D  1303               	bcf	3,6	;RP1=0, select bank1
  4895  056E  00E0               	movwf	(___flmul@prod^(0+128)+3)
  4896  056F                     l703:
  4897  056F  0856               	movf	___flmul@sign^(0+128),w
  4898  0570  1283               	bcf	3,5	;RP0=0, select bank0
  4899  0571  1303               	bcf	3,6	;RP1=0, select bank0
  4900  0572  00C8               	movwf	??___flmul
  4901  0573  0848               	movf	??___flmul,w
  4902  0574  1683               	bsf	3,5	;RP0=1, select bank1
  4903  0575  1303               	bcf	3,6	;RP1=0, select bank1
  4904  0576  04E0               	iorwf	(___flmul@prod^(0+128)+3),f
  4905  0577                     l3027:
  4906  0577  0860               	movf	(___flmul@prod+3)^(0+128),w
  4907  0578  1283               	bcf	3,5	;RP0=0, select bank0
  4908  0579  1303               	bcf	3,6	;RP1=0, select bank0
  4909  057A  00C3               	movwf	?___flmul+3
  4910  057B  1683               	bsf	3,5	;RP0=1, select bank1
  4911  057C  1303               	bcf	3,6	;RP1=0, select bank1
  4912  057D  085F               	movf	(___flmul@prod+2)^(0+128),w
  4913  057E  1283               	bcf	3,5	;RP0=0, select bank0
  4914  057F  1303               	bcf	3,6	;RP1=0, select bank0
  4915  0580  00C2               	movwf	?___flmul+2
  4916  0581  1683               	bsf	3,5	;RP0=1, select bank1
  4917  0582  1303               	bcf	3,6	;RP1=0, select bank1
  4918  0583  085E               	movf	(___flmul@prod+1)^(0+128),w
  4919  0584  1283               	bcf	3,5	;RP0=0, select bank0
  4920  0585  1303               	bcf	3,6	;RP1=0, select bank0
  4921  0586  00C1               	movwf	?___flmul+1
  4922  0587  1683               	bsf	3,5	;RP0=1, select bank1
  4923  0588  1303               	bcf	3,6	;RP1=0, select bank1
  4924  0589  085D               	movf	___flmul@prod^(0+128),w
  4925  058A  1283               	bcf	3,5	;RP0=0, select bank0
  4926  058B  1303               	bcf	3,6	;RP1=0, select bank0
  4927  058C  00C0               	movwf	?___flmul
  4928  058D                     l691:
  4929  058D  0008               	return
  4930  058E                     __end_of___flmul:
  4931                           
  4932                           	psect	text11
  4933  169B                     __ptext11:	
  4934 ;; *************** function __Umul8_16 *****************
  4935 ;; Defined at:
  4936 ;;		line 4 in file "C:\Program Files\Microchip\xc8\v2.31\pic\sources\c90\common\Umul8_16.c"
  4937 ;; Parameters:    Size  Location     Type
  4938 ;;  multiplier      1    wreg     unsigned char 
  4939 ;;  multiplicand    1   18[BANK0 ] unsigned char 
  4940 ;; Auto vars:     Size  Location     Type
  4941 ;;  multiplier      1   26[BANK0 ] unsigned char 
  4942 ;;  word_mpld       2   24[BANK0 ] unsigned int 
  4943 ;;  product         2   22[BANK0 ] unsigned int 
  4944 ;; Return value:  Size  Location     Type
  4945 ;;                  2   18[BANK0 ] unsigned int 
  4946 ;; Registers used:
  4947 ;;		wreg, status,2, status,0
  4948 ;; Tracked objects:
  4949 ;;		On entry : 0/0
  4950 ;;		On exit  : 0/0
  4951 ;;		Unchanged: 0/0
  4952 ;; Data sizes:     COMMON   BANK0   BANK1   BANK3   BANK2
  4953 ;;      Params:         0       2       0       0       0
  4954 ;;      Locals:         0       5       0       0       0
  4955 ;;      Temps:          0       2       0       0       0
  4956 ;;      Totals:         0       9       0       0       0
  4957 ;;Total ram usage:        9 bytes
  4958 ;; Hardware stack levels used:    1
  4959 ;; Hardware stack levels required when called:    4
  4960 ;; This function calls:
  4961 ;;		Nothing
  4962 ;; This function is called by:
  4963 ;;		___flmul
  4964 ;; This function uses a non-reentrant model
  4965 ;;
  4966                           
  4967                           
  4968                           ;psect for function __Umul8_16
  4969  169B                     __Umul8_16:
  4970                           
  4971                           ;incstack = 0
  4972                           ; Regs used in __Umul8_16: [wreg+status,2+status,0]
  4973                           ;__Umul8_16@multiplier stored from wreg
  4974  169B  1283               	bcf	3,5	;RP0=0, select bank0
  4975  169C  1303               	bcf	3,6	;RP1=0, select bank0
  4976  169D  00BA               	movwf	__Umul8_16@multiplier
  4977  169E                     l2625:
  4978  169E  01B6               	clrf	__Umul8_16@product
  4979  169F  01B7               	clrf	__Umul8_16@product+1
  4980  16A0                     l2627:
  4981  16A0  0832               	movf	__Umul8_16@multiplicand,w
  4982  16A1  00B4               	movwf	??__Umul8_16
  4983  16A2  01B5               	clrf	??__Umul8_16+1
  4984  16A3  0834               	movf	??__Umul8_16,w
  4985  16A4  00B8               	movwf	__Umul8_16@word_mpld
  4986  16A5  0835               	movf	??__Umul8_16+1,w
  4987  16A6  00B9               	movwf	__Umul8_16@word_mpld+1
  4988  16A7                     l2629:
  4989  16A7  1C3A               	btfss	__Umul8_16@multiplier,0
  4990  16A8  2EAA               	goto	u3141
  4991  16A9  2EAB               	goto	u3140
  4992  16AA                     u3141:
  4993  16AA  2EB1               	goto	l710
  4994  16AB                     u3140:
  4995  16AB                     l2631:
  4996  16AB  0838               	movf	__Umul8_16@word_mpld,w
  4997  16AC  07B6               	addwf	__Umul8_16@product,f
  4998  16AD  1803               	skipnc
  4999  16AE  0AB7               	incf	__Umul8_16@product+1,f
  5000  16AF  0839               	movf	__Umul8_16@word_mpld+1,w
  5001  16B0  07B7               	addwf	__Umul8_16@product+1,f
  5002  16B1                     l710:
  5003  16B1  3001               	movlw	1
  5004  16B2                     u3155:
  5005  16B2  1003               	clrc
  5006  16B3  0DB8               	rlf	__Umul8_16@word_mpld,f
  5007  16B4  0DB9               	rlf	__Umul8_16@word_mpld+1,f
  5008  16B5  3EFF               	addlw	-1
  5009  16B6  1D03               	skipz
  5010  16B7  2EB2               	goto	u3155
  5011  16B8  1003               	clrc
  5012  16B9  0CBA               	rrf	__Umul8_16@multiplier,f
  5013  16BA                     l2633:
  5014  16BA  083A               	movf	__Umul8_16@multiplier,w
  5015  16BB  1D03               	btfss	3,2
  5016  16BC  2EBE               	goto	u3161
  5017  16BD  2EBF               	goto	u3160
  5018  16BE                     u3161:
  5019  16BE  2EA7               	goto	l2629
  5020  16BF                     u3160:
  5021  16BF                     l2635:
  5022  16BF  0837               	movf	__Umul8_16@product+1,w
  5023  16C0  00B3               	movwf	?__Umul8_16+1
  5024  16C1  0836               	movf	__Umul8_16@product,w
  5025  16C2  00B2               	movwf	?__Umul8_16
  5026  16C3                     l712:
  5027  16C3  0008               	return
  5028  16C4                     __end_of__Umul8_16:
  5029                           
  5030                           	psect	text12
  5031  099A                     __ptext12:	
  5032 ;; *************** function ___fldiv *****************
  5033 ;; Defined at:
  5034 ;;		line 8 in file "C:\Program Files\Microchip\xc8\v2.31\pic\sources\c90\common\sprcdiv.c"
  5035 ;; Parameters:    Size  Location     Type
  5036 ;;  a               4   13[BANK1 ] unsigned int 
  5037 ;;  b               4   17[BANK1 ] unsigned int 
  5038 ;; Auto vars:     Size  Location     Type
  5039 ;;  grs             4    7[BANK3 ] unsigned long 
  5040 ;;  rem             4    0[BANK3 ] unsigned long 
  5041 ;;  new_exp         2    5[BANK3 ] int 
  5042 ;;  aexp            1   12[BANK3 ] unsigned char 
  5043 ;;  bexp            1   11[BANK3 ] unsigned char 
  5044 ;;  sign            1    4[BANK3 ] unsigned char 
  5045 ;; Return value:  Size  Location     Type
  5046 ;;                  4   13[BANK1 ] unsigned char 
  5047 ;; Registers used:
  5048 ;;		wreg, status,2, status,0, btemp+1
  5049 ;; Tracked objects:
  5050 ;;		On entry : 0/0
  5051 ;;		On exit  : 0/0
  5052 ;;		Unchanged: 0/0
  5053 ;; Data sizes:     COMMON   BANK0   BANK1   BANK3   BANK2
  5054 ;;      Params:         0       0       8       0       0
  5055 ;;      Locals:         0       0       0      13       0
  5056 ;;      Temps:          0       0       5       0       0
  5057 ;;      Totals:         0       0      13      13       0
  5058 ;;Total ram usage:       26 bytes
  5059 ;; Hardware stack levels used:    1
  5060 ;; Hardware stack levels required when called:    4
  5061 ;; This function calls:
  5062 ;;		Nothing
  5063 ;; This function is called by:
  5064 ;;		_main
  5065 ;; This function uses a non-reentrant model
  5066 ;;
  5067                           
  5068                           
  5069                           ;psect for function ___fldiv
  5070  099A                     ___fldiv:
  5071  099A                     l2749:	
  5072                           ;incstack = 0
  5073                           ; Regs used in ___fldiv: [wreg+status,2+status,0+btemp+1]
  5074                           
  5075  099A  1683               	bsf	3,5	;RP0=1, select bank1
  5076  099B  1303               	bcf	3,6	;RP1=0, select bank1
  5077  099C  086A               	movf	(___fldiv@b^(0+128)+3),w
  5078  099D  3980               	andlw	128
  5079  099E  00EB               	movwf	??___fldiv^(0+128)
  5080  099F  086B               	movf	??___fldiv^(0+128),w
  5081  09A0  1683               	bsf	3,5	;RP0=1, select bank3
  5082  09A1  1703               	bsf	3,6	;RP1=1, select bank3
  5083  09A2  0094               	movwf	___fldiv@sign^(0+384)
  5084  09A3                     l2751:
  5085  09A3  1683               	bsf	3,5	;RP0=1, select bank1
  5086  09A4  1303               	bcf	3,6	;RP1=0, select bank1
  5087  09A5  086A               	movf	(___fldiv@b^(0+128)+3),w
  5088  09A6  00EB               	movwf	??___fldiv^(0+128)
  5089  09A7  076B               	addwf	??___fldiv^(0+128),w
  5090  09A8  00EC               	movwf	(??___fldiv+1)^(0+128)
  5091  09A9  086C               	movf	(??___fldiv+1)^(0+128),w
  5092  09AA  1683               	bsf	3,5	;RP0=1, select bank3
  5093  09AB  1703               	bsf	3,6	;RP1=1, select bank3
  5094  09AC  009B               	movwf	___fldiv@bexp^(0+384)
  5095  09AD                     l2753:
  5096  09AD  1683               	bsf	3,5	;RP0=1, select bank1
  5097  09AE  1303               	bcf	3,6	;RP1=0, select bank1
  5098  09AF  1FE9               	btfss	(___fldiv@b^(0+128)+2),7
  5099  09B0  29B2               	goto	u3341
  5100  09B1  29B3               	goto	u3340
  5101  09B2                     u3341:
  5102  09B2  29B6               	goto	l2757
  5103  09B3                     u3340:
  5104  09B3                     l2755:
  5105  09B3  1683               	bsf	3,5	;RP0=1, select bank3
  5106  09B4  1703               	bsf	3,6	;RP1=1, select bank3
  5107  09B5  141B               	bsf	___fldiv@bexp^(0+384),0
  5108  09B6                     l2757:
  5109  09B6  1683               	bsf	3,5	;RP0=1, select bank3
  5110  09B7  1703               	bsf	3,6	;RP1=1, select bank3
  5111  09B8  081B               	movf	___fldiv@bexp^(0+384),w
  5112  09B9  1903               	btfsc	3,2
  5113  09BA  29BC               	goto	u3351
  5114  09BB  29BD               	goto	u3350
  5115  09BC                     u3351:
  5116  09BC  29D0               	goto	l2767
  5117  09BD                     u3350:
  5118  09BD                     l2759:
  5119  09BD  0A1B               	incf	___fldiv@bexp^(0+384),w
  5120  09BE  1D03               	btfss	3,2
  5121  09BF  29C1               	goto	u3361
  5122  09C0  29C2               	goto	u3360
  5123  09C1                     u3361:
  5124  09C1  29CC               	goto	l2763
  5125  09C2                     u3360:
  5126  09C2                     l2761:
  5127  09C2  3000               	movlw	0
  5128  09C3  1683               	bsf	3,5	;RP0=1, select bank1
  5129  09C4  1303               	bcf	3,6	;RP1=0, select bank1
  5130  09C5  00EA               	movwf	(___fldiv@b+3)^(0+128)
  5131  09C6  3000               	movlw	0
  5132  09C7  00E9               	movwf	(___fldiv@b+2)^(0+128)
  5133  09C8  3000               	movlw	0
  5134  09C9  00E8               	movwf	(___fldiv@b+1)^(0+128)
  5135  09CA  3000               	movlw	0
  5136  09CB  00E7               	movwf	___fldiv@b^(0+128)
  5137  09CC                     l2763:
  5138  09CC  1303               	bcf	3,6	;RP1=0, select bank1
  5139  09CD  17E9               	bsf	(___fldiv@b^(0+128)+2),7
  5140  09CE                     l2765:
  5141  09CE  01EA               	clrf	(___fldiv@b^(0+128)+3)
  5142  09CF  29DA               	goto	l2769
  5143  09D0                     l2767:
  5144  09D0  3000               	movlw	0
  5145  09D1  1683               	bsf	3,5	;RP0=1, select bank1
  5146  09D2  1303               	bcf	3,6	;RP1=0, select bank1
  5147  09D3  00EA               	movwf	(___fldiv@b+3)^(0+128)
  5148  09D4  3000               	movlw	0
  5149  09D5  00E9               	movwf	(___fldiv@b+2)^(0+128)
  5150  09D6  3000               	movlw	0
  5151  09D7  00E8               	movwf	(___fldiv@b+1)^(0+128)
  5152  09D8  3000               	movlw	0
  5153  09D9  00E7               	movwf	___fldiv@b^(0+128)
  5154  09DA                     l2769:
  5155  09DA  0866               	movf	(___fldiv@a^(0+128)+3),w
  5156  09DB  3980               	andlw	128
  5157  09DC  00EB               	movwf	??___fldiv^(0+128)
  5158  09DD  086B               	movf	??___fldiv^(0+128),w
  5159  09DE  1683               	bsf	3,5	;RP0=1, select bank3
  5160  09DF  1703               	bsf	3,6	;RP1=1, select bank3
  5161  09E0  0694               	xorwf	___fldiv@sign^(0+384),f
  5162  09E1                     l2771:
  5163  09E1  1683               	bsf	3,5	;RP0=1, select bank1
  5164  09E2  1303               	bcf	3,6	;RP1=0, select bank1
  5165  09E3  0866               	movf	(___fldiv@a^(0+128)+3),w
  5166  09E4  00EB               	movwf	??___fldiv^(0+128)
  5167  09E5  076B               	addwf	??___fldiv^(0+128),w
  5168  09E6  00EC               	movwf	(??___fldiv+1)^(0+128)
  5169  09E7  086C               	movf	(??___fldiv+1)^(0+128),w
  5170  09E8  1683               	bsf	3,5	;RP0=1, select bank3
  5171  09E9  1703               	bsf	3,6	;RP1=1, select bank3
  5172  09EA  009C               	movwf	___fldiv@aexp^(0+384)
  5173  09EB                     l2773:
  5174  09EB  1683               	bsf	3,5	;RP0=1, select bank1
  5175  09EC  1303               	bcf	3,6	;RP1=0, select bank1
  5176  09ED  1FE5               	btfss	(___fldiv@a^(0+128)+2),7
  5177  09EE  29F0               	goto	u3371
  5178  09EF  29F1               	goto	u3370
  5179  09F0                     u3371:
  5180  09F0  29F4               	goto	l2777
  5181  09F1                     u3370:
  5182  09F1                     l2775:
  5183  09F1  1683               	bsf	3,5	;RP0=1, select bank3
  5184  09F2  1703               	bsf	3,6	;RP1=1, select bank3
  5185  09F3  141C               	bsf	___fldiv@aexp^(0+384),0
  5186  09F4                     l2777:
  5187  09F4  1683               	bsf	3,5	;RP0=1, select bank3
  5188  09F5  1703               	bsf	3,6	;RP1=1, select bank3
  5189  09F6  081C               	movf	___fldiv@aexp^(0+384),w
  5190  09F7  1903               	btfsc	3,2
  5191  09F8  29FA               	goto	u3381
  5192  09F9  29FB               	goto	u3380
  5193  09FA                     u3381:
  5194  09FA  2A0E               	goto	l2787
  5195  09FB                     u3380:
  5196  09FB                     l2779:
  5197  09FB  0A1C               	incf	___fldiv@aexp^(0+384),w
  5198  09FC  1D03               	btfss	3,2
  5199  09FD  29FF               	goto	u3391
  5200  09FE  2A00               	goto	u3390
  5201  09FF                     u3391:
  5202  09FF  2A0A               	goto	l2783
  5203  0A00                     u3390:
  5204  0A00                     l2781:
  5205  0A00  3000               	movlw	0
  5206  0A01  1683               	bsf	3,5	;RP0=1, select bank1
  5207  0A02  1303               	bcf	3,6	;RP1=0, select bank1
  5208  0A03  00E6               	movwf	(___fldiv@a+3)^(0+128)
  5209  0A04  3000               	movlw	0
  5210  0A05  00E5               	movwf	(___fldiv@a+2)^(0+128)
  5211  0A06  3000               	movlw	0
  5212  0A07  00E4               	movwf	(___fldiv@a+1)^(0+128)
  5213  0A08  3000               	movlw	0
  5214  0A09  00E3               	movwf	___fldiv@a^(0+128)
  5215  0A0A                     l2783:
  5216  0A0A  1303               	bcf	3,6	;RP1=0, select bank1
  5217  0A0B  17E5               	bsf	(___fldiv@a^(0+128)+2),7
  5218  0A0C                     l2785:
  5219  0A0C  01E6               	clrf	(___fldiv@a^(0+128)+3)
  5220  0A0D  2A18               	goto	l651
  5221  0A0E                     l2787:
  5222  0A0E  3000               	movlw	0
  5223  0A0F  1683               	bsf	3,5	;RP0=1, select bank1
  5224  0A10  1303               	bcf	3,6	;RP1=0, select bank1
  5225  0A11  00E6               	movwf	(___fldiv@a+3)^(0+128)
  5226  0A12  3000               	movlw	0
  5227  0A13  00E5               	movwf	(___fldiv@a+2)^(0+128)
  5228  0A14  3000               	movlw	0
  5229  0A15  00E4               	movwf	(___fldiv@a+1)^(0+128)
  5230  0A16  3000               	movlw	0
  5231  0A17  00E3               	movwf	___fldiv@a^(0+128)
  5232  0A18                     l651:
  5233  0A18  0866               	movf	(___fldiv@a+3)^(0+128),w
  5234  0A19  0465               	iorwf	(___fldiv@a+2)^(0+128),w
  5235  0A1A  0464               	iorwf	(___fldiv@a+1)^(0+128),w
  5236  0A1B  0463               	iorwf	___fldiv@a^(0+128),w
  5237  0A1C  1D03               	skipz
  5238  0A1D  2A1F               	goto	u3401
  5239  0A1E  2A20               	goto	u3400
  5240  0A1F                     u3401:
  5241  0A1F  2A3D               	goto	l2797
  5242  0A20                     u3400:
  5243  0A20                     l2789:
  5244  0A20  3000               	movlw	0
  5245  0A21  00EA               	movwf	(___fldiv@b+3)^(0+128)
  5246  0A22  3000               	movlw	0
  5247  0A23  00E9               	movwf	(___fldiv@b+2)^(0+128)
  5248  0A24  3000               	movlw	0
  5249  0A25  00E8               	movwf	(___fldiv@b+1)^(0+128)
  5250  0A26  3000               	movlw	0
  5251  0A27  00E7               	movwf	___fldiv@b^(0+128)
  5252  0A28  3080               	movlw	128
  5253  0A29  04E9               	iorwf	(___fldiv@b^(0+128)+2),f
  5254  0A2A  307F               	movlw	127
  5255  0A2B  04EA               	iorwf	((___fldiv@b+1)^(0+128)+2),f
  5256  0A2C                     l2791:
  5257  0A2C  1683               	bsf	3,5	;RP0=1, select bank3
  5258  0A2D  1703               	bsf	3,6	;RP1=1, select bank3
  5259  0A2E  0814               	movf	___fldiv@sign^(0+384),w
  5260  0A2F  1683               	bsf	3,5	;RP0=1, select bank1
  5261  0A30  1303               	bcf	3,6	;RP1=0, select bank1
  5262  0A31  00EB               	movwf	??___fldiv^(0+128)
  5263  0A32  086B               	movf	??___fldiv^(0+128),w
  5264  0A33  04EA               	iorwf	(___fldiv@b^(0+128)+3),f
  5265  0A34                     l2793:
  5266  0A34  086A               	movf	(___fldiv@b+3)^(0+128),w
  5267  0A35  00E6               	movwf	(?___fldiv+3)^(0+128)
  5268  0A36  0869               	movf	(___fldiv@b+2)^(0+128),w
  5269  0A37  00E5               	movwf	(?___fldiv+2)^(0+128)
  5270  0A38  0868               	movf	(___fldiv@b+1)^(0+128),w
  5271  0A39  00E4               	movwf	(?___fldiv+1)^(0+128)
  5272  0A3A  0867               	movf	___fldiv@b^(0+128),w
  5273  0A3B  00E3               	movwf	?___fldiv^(0+128)
  5274  0A3C  2C39               	goto	l653
  5275  0A3D                     l2797:
  5276  0A3D  1683               	bsf	3,5	;RP0=1, select bank3
  5277  0A3E  1703               	bsf	3,6	;RP1=1, select bank3
  5278  0A3F  081B               	movf	___fldiv@bexp^(0+384),w
  5279  0A40  1D03               	btfss	3,2
  5280  0A41  2A43               	goto	u3411
  5281  0A42  2A44               	goto	u3410
  5282  0A43                     u3411:
  5283  0A43  2A4F               	goto	l2803
  5284  0A44                     u3410:
  5285  0A44                     l2799:
  5286  0A44  3000               	movlw	0
  5287  0A45  1683               	bsf	3,5	;RP0=1, select bank1
  5288  0A46  1303               	bcf	3,6	;RP1=0, select bank1
  5289  0A47  00E6               	movwf	(?___fldiv+3)^(0+128)
  5290  0A48  3000               	movlw	0
  5291  0A49  00E5               	movwf	(?___fldiv+2)^(0+128)
  5292  0A4A  3000               	movlw	0
  5293  0A4B  00E4               	movwf	(?___fldiv+1)^(0+128)
  5294  0A4C  3000               	movlw	0
  5295  0A4D  00E3               	movwf	?___fldiv^(0+128)
  5296  0A4E  2C39               	goto	l653
  5297  0A4F                     l2803:
  5298  0A4F  081B               	movf	___fldiv@bexp^(0+384),w
  5299  0A50  1683               	bsf	3,5	;RP0=1, select bank1
  5300  0A51  1303               	bcf	3,6	;RP1=0, select bank1
  5301  0A52  00EB               	movwf	??___fldiv^(0+128)
  5302  0A53  01EC               	clrf	(??___fldiv^(0+128)+1)
  5303  0A54  086C               	movf	(??___fldiv+1)^(0+128),w
  5304  0A55  00EE               	movwf	((??___fldiv+2)^(0+128)+1)
  5305  0A56  1683               	bsf	3,5	;RP0=1, select bank3
  5306  0A57  1703               	bsf	3,6	;RP1=1, select bank3
  5307  0A58  081C               	movf	___fldiv@aexp^(0+384),w
  5308  0A59  1683               	bsf	3,5	;RP0=1, select bank1
  5309  0A5A  1303               	bcf	3,6	;RP1=0, select bank1
  5310  0A5B  026B               	subwf	??___fldiv^(0+128),w
  5311  0A5C  00ED               	movwf	(??___fldiv+2)^(0+128)
  5312  0A5D  1C03               	skipc
  5313  0A5E  03EE               	decf	((??___fldiv+2)^(0+128)+1),f
  5314  0A5F  086D               	movf	(??___fldiv+2)^(0+128),w
  5315  0A60  3E7F               	addlw	127
  5316  0A61  1683               	bsf	3,5	;RP0=1, select bank3
  5317  0A62  1703               	bsf	3,6	;RP1=1, select bank3
  5318  0A63  0095               	movwf	___fldiv@new_exp^(0+384)
  5319  0A64  1683               	bsf	3,5	;RP0=1, select bank1
  5320  0A65  1303               	bcf	3,6	;RP1=0, select bank1
  5321  0A66  086E               	movf	(??___fldiv+3)^(0+128),w
  5322  0A67  1803               	skipnc
  5323  0A68  3E01               	addlw	1
  5324  0A69  3E00               	addlw	0
  5325  0A6A  1683               	bsf	3,5	;RP0=1, select bank3
  5326  0A6B  1703               	bsf	3,6	;RP1=1, select bank3
  5327  0A6C  0096               	movwf	(___fldiv@new_exp+1)^(0+384)
  5328  0A6D                     l2805:
  5329  0A6D  1683               	bsf	3,5	;RP0=1, select bank1
  5330  0A6E  1303               	bcf	3,6	;RP1=0, select bank1
  5331  0A6F  086A               	movf	(___fldiv@b+3)^(0+128),w
  5332  0A70  1683               	bsf	3,5	;RP0=1, select bank3
  5333  0A71  1703               	bsf	3,6	;RP1=1, select bank3
  5334  0A72  0093               	movwf	(___fldiv@rem+3)^(0+384)
  5335  0A73  1683               	bsf	3,5	;RP0=1, select bank1
  5336  0A74  1303               	bcf	3,6	;RP1=0, select bank1
  5337  0A75  0869               	movf	(___fldiv@b+2)^(0+128),w
  5338  0A76  1683               	bsf	3,5	;RP0=1, select bank3
  5339  0A77  1703               	bsf	3,6	;RP1=1, select bank3
  5340  0A78  0092               	movwf	(___fldiv@rem+2)^(0+384)
  5341  0A79  1683               	bsf	3,5	;RP0=1, select bank1
  5342  0A7A  1303               	bcf	3,6	;RP1=0, select bank1
  5343  0A7B  0868               	movf	(___fldiv@b+1)^(0+128),w
  5344  0A7C  1683               	bsf	3,5	;RP0=1, select bank3
  5345  0A7D  1703               	bsf	3,6	;RP1=1, select bank3
  5346  0A7E  0091               	movwf	(___fldiv@rem+1)^(0+384)
  5347  0A7F  1683               	bsf	3,5	;RP0=1, select bank1
  5348  0A80  1303               	bcf	3,6	;RP1=0, select bank1
  5349  0A81  0867               	movf	___fldiv@b^(0+128),w
  5350  0A82  1683               	bsf	3,5	;RP0=1, select bank3
  5351  0A83  1703               	bsf	3,6	;RP1=1, select bank3
  5352  0A84  0090               	movwf	___fldiv@rem^(0+384)
  5353  0A85                     l2807:
  5354  0A85  3000               	movlw	0
  5355  0A86  1683               	bsf	3,5	;RP0=1, select bank1
  5356  0A87  1303               	bcf	3,6	;RP1=0, select bank1
  5357  0A88  00EA               	movwf	(___fldiv@b+3)^(0+128)
  5358  0A89  3000               	movlw	0
  5359  0A8A  00E9               	movwf	(___fldiv@b+2)^(0+128)
  5360  0A8B  3000               	movlw	0
  5361  0A8C  00E8               	movwf	(___fldiv@b+1)^(0+128)
  5362  0A8D  3000               	movlw	0
  5363  0A8E  00E7               	movwf	___fldiv@b^(0+128)
  5364  0A8F                     l2809:
  5365  0A8F  3000               	movlw	0
  5366  0A90  1683               	bsf	3,5	;RP0=1, select bank3
  5367  0A91  1703               	bsf	3,6	;RP1=1, select bank3
  5368  0A92  009A               	movwf	(___fldiv@grs+3)^(0+384)
  5369  0A93  3000               	movlw	0
  5370  0A94  0099               	movwf	(___fldiv@grs+2)^(0+384)
  5371  0A95  3000               	movlw	0
  5372  0A96  0098               	movwf	(___fldiv@grs+1)^(0+384)
  5373  0A97  3000               	movlw	0
  5374  0A98  0097               	movwf	___fldiv@grs^(0+384)
  5375  0A99                     l2811:
  5376  0A99  019C               	clrf	___fldiv@aexp^(0+384)
  5377  0A9A  2B21               	goto	l2831
  5378  0A9B                     l2813:
  5379  0A9B  081C               	movf	___fldiv@aexp^(0+384),w
  5380  0A9C  1903               	btfsc	3,2
  5381  0A9D  2A9F               	goto	u3421
  5382  0A9E  2AA0               	goto	u3420
  5383  0A9F                     u3421:
  5384  0A9F  2ACF               	goto	l2823
  5385  0AA0                     u3420:
  5386  0AA0                     l2815:
  5387  0AA0  3001               	movlw	1
  5388  0AA1  1683               	bsf	3,5	;RP0=1, select bank1
  5389  0AA2  1303               	bcf	3,6	;RP1=0, select bank1
  5390  0AA3  00EB               	movwf	??___fldiv^(0+128)
  5391  0AA4                     u3435:
  5392  0AA4  1003               	clrc
  5393  0AA5  1683               	bsf	3,5	;RP0=1, select bank3
  5394  0AA6  1703               	bsf	3,6	;RP1=1, select bank3
  5395  0AA7  0D90               	rlf	___fldiv@rem^(0+384),f
  5396  0AA8  0D91               	rlf	(___fldiv@rem+1)^(0+384),f
  5397  0AA9  0D92               	rlf	(___fldiv@rem+2)^(0+384),f
  5398  0AAA  0D93               	rlf	(___fldiv@rem+3)^(0+384),f
  5399  0AAB  1683               	bsf	3,5	;RP0=1, select bank1
  5400  0AAC  1303               	bcf	3,6	;RP1=0, select bank1
  5401  0AAD  0BEB               	decfsz	??___fldiv^(0+128),f
  5402  0AAE  2AA4               	goto	u3435
  5403  0AAF  3001               	movlw	1
  5404  0AB0  00EB               	movwf	??___fldiv^(0+128)
  5405  0AB1                     u3445:
  5406  0AB1  1003               	clrc
  5407  0AB2  0DE7               	rlf	___fldiv@b^(0+128),f
  5408  0AB3  0DE8               	rlf	(___fldiv@b+1)^(0+128),f
  5409  0AB4  0DE9               	rlf	(___fldiv@b+2)^(0+128),f
  5410  0AB5  0DEA               	rlf	(___fldiv@b+3)^(0+128),f
  5411  0AB6  0BEB               	decfsz	??___fldiv^(0+128),f
  5412  0AB7  2AB1               	goto	u3445
  5413  0AB8                     l2817:
  5414  0AB8  1683               	bsf	3,5	;RP0=1, select bank3
  5415  0AB9  1703               	bsf	3,6	;RP1=1, select bank3
  5416  0ABA  1F9A               	btfss	(___fldiv@grs+3)^(0+384),7
  5417  0ABB  2ABD               	goto	u3451
  5418  0ABC  2ABE               	goto	u3450
  5419  0ABD                     u3451:
  5420  0ABD  2AC1               	goto	l2821
  5421  0ABE                     u3450:
  5422  0ABE                     l2819:
  5423  0ABE  1683               	bsf	3,5	;RP0=1, select bank1
  5424  0ABF  1303               	bcf	3,6	;RP1=0, select bank1
  5425  0AC0  1467               	bsf	___fldiv@b^(0+128),0
  5426  0AC1                     l2821:
  5427  0AC1  3001               	movlw	1
  5428  0AC2  1303               	bcf	3,6	;RP1=0, select bank1
  5429  0AC3  00EB               	movwf	??___fldiv^(0+128)
  5430  0AC4                     u3465:
  5431  0AC4  1003               	clrc
  5432  0AC5  1683               	bsf	3,5	;RP0=1, select bank3
  5433  0AC6  1703               	bsf	3,6	;RP1=1, select bank3
  5434  0AC7  0D97               	rlf	___fldiv@grs^(0+384),f
  5435  0AC8  0D98               	rlf	(___fldiv@grs+1)^(0+384),f
  5436  0AC9  0D99               	rlf	(___fldiv@grs+2)^(0+384),f
  5437  0ACA  0D9A               	rlf	(___fldiv@grs+3)^(0+384),f
  5438  0ACB  1683               	bsf	3,5	;RP0=1, select bank1
  5439  0ACC  1303               	bcf	3,6	;RP1=0, select bank1
  5440  0ACD  0BEB               	decfsz	??___fldiv^(0+128),f
  5441  0ACE  2AC4               	goto	u3465
  5442  0ACF                     l2823:
  5443  0ACF  1303               	bcf	3,6	;RP1=0, select bank1
  5444  0AD0  0866               	movf	(___fldiv@a+3)^(0+128),w
  5445  0AD1  1683               	bsf	3,5	;RP0=1, select bank3
  5446  0AD2  1703               	bsf	3,6	;RP1=1, select bank3
  5447  0AD3  0213               	subwf	(___fldiv@rem+3)^(0+384),w
  5448  0AD4  1D03               	skipz
  5449  0AD5  2AEC               	goto	u3475
  5450  0AD6  1683               	bsf	3,5	;RP0=1, select bank1
  5451  0AD7  1303               	bcf	3,6	;RP1=0, select bank1
  5452  0AD8  0865               	movf	(___fldiv@a+2)^(0+128),w
  5453  0AD9  1683               	bsf	3,5	;RP0=1, select bank3
  5454  0ADA  1703               	bsf	3,6	;RP1=1, select bank3
  5455  0ADB  0212               	subwf	(___fldiv@rem+2)^(0+384),w
  5456  0ADC  1D03               	skipz
  5457  0ADD  2AEC               	goto	u3475
  5458  0ADE  1683               	bsf	3,5	;RP0=1, select bank1
  5459  0ADF  1303               	bcf	3,6	;RP1=0, select bank1
  5460  0AE0  0864               	movf	(___fldiv@a+1)^(0+128),w
  5461  0AE1  1683               	bsf	3,5	;RP0=1, select bank3
  5462  0AE2  1703               	bsf	3,6	;RP1=1, select bank3
  5463  0AE3  0211               	subwf	(___fldiv@rem+1)^(0+384),w
  5464  0AE4  1D03               	skipz
  5465  0AE5  2AEC               	goto	u3475
  5466  0AE6  1683               	bsf	3,5	;RP0=1, select bank1
  5467  0AE7  1303               	bcf	3,6	;RP1=0, select bank1
  5468  0AE8  0863               	movf	___fldiv@a^(0+128),w
  5469  0AE9  1683               	bsf	3,5	;RP0=1, select bank3
  5470  0AEA  1703               	bsf	3,6	;RP1=1, select bank3
  5471  0AEB  0210               	subwf	___fldiv@rem^(0+384),w
  5472  0AEC                     u3475:
  5473  0AEC  1C03               	skipc
  5474  0AED  2AEF               	goto	u3471
  5475  0AEE  2AF0               	goto	u3470
  5476  0AEF                     u3471:
  5477  0AEF  2B19               	goto	l2829
  5478  0AF0                     u3470:
  5479  0AF0                     l2825:
  5480  0AF0  171A               	bsf	(___fldiv@grs^(0+384)+3),6
  5481  0AF1                     l2827:
  5482  0AF1  1683               	bsf	3,5	;RP0=1, select bank1
  5483  0AF2  1303               	bcf	3,6	;RP1=0, select bank1
  5484  0AF3  0863               	movf	___fldiv@a^(0+128),w
  5485  0AF4  1683               	bsf	3,5	;RP0=1, select bank3
  5486  0AF5  1703               	bsf	3,6	;RP1=1, select bank3
  5487  0AF6  0290               	subwf	___fldiv@rem^(0+384),f
  5488  0AF7  1683               	bsf	3,5	;RP0=1, select bank1
  5489  0AF8  1303               	bcf	3,6	;RP1=0, select bank1
  5490  0AF9  0864               	movf	(___fldiv@a+1)^(0+128),w
  5491  0AFA  1C03               	skipc
  5492  0AFB  0F64               	incfsz	(___fldiv@a+1)^(0+128),w
  5493  0AFC  2AFE               	goto	u3485
  5494  0AFD  2B01               	goto	u3486
  5495  0AFE                     u3485:
  5496  0AFE  1683               	bsf	3,5	;RP0=1, select bank3
  5497  0AFF  1703               	bsf	3,6	;RP1=1, select bank3
  5498  0B00  0291               	subwf	(___fldiv@rem+1)^(0+384),f
  5499  0B01                     u3486:
  5500  0B01  1683               	bsf	3,5	;RP0=1, select bank1
  5501  0B02  1303               	bcf	3,6	;RP1=0, select bank1
  5502  0B03  0865               	movf	(___fldiv@a+2)^(0+128),w
  5503  0B04  1C03               	skipc
  5504  0B05  0F65               	incfsz	(___fldiv@a+2)^(0+128),w
  5505  0B06  2B08               	goto	u3487
  5506  0B07  2B0B               	goto	u3488
  5507  0B08                     u3487:
  5508  0B08  1683               	bsf	3,5	;RP0=1, select bank3
  5509  0B09  1703               	bsf	3,6	;RP1=1, select bank3
  5510  0B0A  0292               	subwf	(___fldiv@rem+2)^(0+384),f
  5511  0B0B                     u3488:
  5512  0B0B  1683               	bsf	3,5	;RP0=1, select bank1
  5513  0B0C  1303               	bcf	3,6	;RP1=0, select bank1
  5514  0B0D  0866               	movf	(___fldiv@a+3)^(0+128),w
  5515  0B0E  1C03               	skipc
  5516  0B0F  0F66               	incfsz	(___fldiv@a+3)^(0+128),w
  5517  0B10  2B12               	goto	u3489
  5518  0B11  2B15               	goto	u3480
  5519  0B12                     u3489:
  5520  0B12  1683               	bsf	3,5	;RP0=1, select bank3
  5521  0B13  1703               	bsf	3,6	;RP1=1, select bank3
  5522  0B14  0293               	subwf	(___fldiv@rem+3)^(0+384),f
  5523  0B15                     u3480:
  5524  0B15  1683               	bsf	3,5	;RP0=1, select bank1
  5525  0B16  1303               	bcf	3,6	;RP1=0, select bank1
  5526  0B17  1683               	bsf	3,5	;RP0=1, select bank3
  5527  0B18  1703               	bsf	3,6	;RP1=1, select bank3
  5528  0B19                     l2829:
  5529  0B19  3001               	movlw	1
  5530  0B1A  1683               	bsf	3,5	;RP0=1, select bank1
  5531  0B1B  1303               	bcf	3,6	;RP1=0, select bank1
  5532  0B1C  00EB               	movwf	??___fldiv^(0+128)
  5533  0B1D  086B               	movf	??___fldiv^(0+128),w
  5534  0B1E  1683               	bsf	3,5	;RP0=1, select bank3
  5535  0B1F  1703               	bsf	3,6	;RP1=1, select bank3
  5536  0B20  079C               	addwf	___fldiv@aexp^(0+384),f
  5537  0B21                     l2831:
  5538  0B21  301A               	movlw	26
  5539  0B22  021C               	subwf	___fldiv@aexp^(0+384),w
  5540  0B23  1C03               	skipc
  5541  0B24  2B26               	goto	u3491
  5542  0B25  2B27               	goto	u3490
  5543  0B26                     u3491:
  5544  0B26  2A9B               	goto	l2813
  5545  0B27                     u3490:
  5546  0B27                     l2833:
  5547  0B27  0813               	movf	(___fldiv@rem+3)^(0+384),w
  5548  0B28  0412               	iorwf	(___fldiv@rem+2)^(0+384),w
  5549  0B29  0411               	iorwf	(___fldiv@rem+1)^(0+384),w
  5550  0B2A  0410               	iorwf	___fldiv@rem^(0+384),w
  5551  0B2B  1903               	skipnz
  5552  0B2C  2B2E               	goto	u3501
  5553  0B2D  2B2F               	goto	u3500
  5554  0B2E                     u3501:
  5555  0B2E  2B59               	goto	l2847
  5556  0B2F                     u3500:
  5557  0B2F                     l2835:
  5558  0B2F  1417               	bsf	___fldiv@grs^(0+384),0
  5559  0B30  2B59               	goto	l2847
  5560  0B31                     l2837:
  5561  0B31  3001               	movlw	1
  5562  0B32  00EB               	movwf	??___fldiv^(0+128)
  5563  0B33                     u3515:
  5564  0B33  1003               	clrc
  5565  0B34  0DE7               	rlf	___fldiv@b^(0+128),f
  5566  0B35  0DE8               	rlf	(___fldiv@b+1)^(0+128),f
  5567  0B36  0DE9               	rlf	(___fldiv@b+2)^(0+128),f
  5568  0B37  0DEA               	rlf	(___fldiv@b+3)^(0+128),f
  5569  0B38  0BEB               	decfsz	??___fldiv^(0+128),f
  5570  0B39  2B33               	goto	u3515
  5571  0B3A                     l2839:
  5572  0B3A  1683               	bsf	3,5	;RP0=1, select bank3
  5573  0B3B  1703               	bsf	3,6	;RP1=1, select bank3
  5574  0B3C  1F9A               	btfss	(___fldiv@grs+3)^(0+384),7
  5575  0B3D  2B3F               	goto	u3521
  5576  0B3E  2B40               	goto	u3520
  5577  0B3F                     u3521:
  5578  0B3F  2B43               	goto	l2843
  5579  0B40                     u3520:
  5580  0B40                     l2841:
  5581  0B40  1683               	bsf	3,5	;RP0=1, select bank1
  5582  0B41  1303               	bcf	3,6	;RP1=0, select bank1
  5583  0B42  1467               	bsf	___fldiv@b^(0+128),0
  5584  0B43                     l2843:
  5585  0B43  3001               	movlw	1
  5586  0B44  1303               	bcf	3,6	;RP1=0, select bank1
  5587  0B45  00EB               	movwf	??___fldiv^(0+128)
  5588  0B46                     u3535:
  5589  0B46  1003               	clrc
  5590  0B47  1683               	bsf	3,5	;RP0=1, select bank3
  5591  0B48  1703               	bsf	3,6	;RP1=1, select bank3
  5592  0B49  0D97               	rlf	___fldiv@grs^(0+384),f
  5593  0B4A  0D98               	rlf	(___fldiv@grs+1)^(0+384),f
  5594  0B4B  0D99               	rlf	(___fldiv@grs+2)^(0+384),f
  5595  0B4C  0D9A               	rlf	(___fldiv@grs+3)^(0+384),f
  5596  0B4D  1683               	bsf	3,5	;RP0=1, select bank1
  5597  0B4E  1303               	bcf	3,6	;RP1=0, select bank1
  5598  0B4F  0BEB               	decfsz	??___fldiv^(0+128),f
  5599  0B50  2B46               	goto	u3535
  5600  0B51                     l2845:
  5601  0B51  30FF               	movlw	255
  5602  0B52  1683               	bsf	3,5	;RP0=1, select bank3
  5603  0B53  1703               	bsf	3,6	;RP1=1, select bank3
  5604  0B54  0795               	addwf	___fldiv@new_exp^(0+384),f
  5605  0B55  1803               	skipnc
  5606  0B56  0A96               	incf	(___fldiv@new_exp+1)^(0+384),f
  5607  0B57  30FF               	movlw	255
  5608  0B58  0796               	addwf	(___fldiv@new_exp+1)^(0+384),f
  5609  0B59                     l2847:
  5610  0B59  1683               	bsf	3,5	;RP0=1, select bank1
  5611  0B5A  1303               	bcf	3,6	;RP1=0, select bank1
  5612  0B5B  1FE9               	btfss	(___fldiv@b+2)^(0+128),7
  5613  0B5C  2B5E               	goto	u3541
  5614  0B5D  2B5F               	goto	u3540
  5615  0B5E                     u3541:
  5616  0B5E  2B31               	goto	l2837
  5617  0B5F                     u3540:
  5618  0B5F                     l2849:
  5619  0B5F  1683               	bsf	3,5	;RP0=1, select bank3
  5620  0B60  1703               	bsf	3,6	;RP1=1, select bank3
  5621  0B61  019C               	clrf	___fldiv@aexp^(0+384)
  5622  0B62                     l2851:
  5623  0B62  1F9A               	btfss	(___fldiv@grs+3)^(0+384),7
  5624  0B63  2B65               	goto	u3551
  5625  0B64  2B66               	goto	u3550
  5626  0B65                     u3551:
  5627  0B65  2B92               	goto	l2859
  5628  0B66                     u3550:
  5629  0B66                     l2853:
  5630  0B66  30FF               	movlw	255
  5631  0B67  0517               	andwf	___fldiv@grs^(0+384),w
  5632  0B68  1683               	bsf	3,5	;RP0=1, select bank1
  5633  0B69  1303               	bcf	3,6	;RP1=0, select bank1
  5634  0B6A  00EB               	movwf	??___fldiv^(0+128)
  5635  0B6B  30FF               	movlw	255
  5636  0B6C  1683               	bsf	3,5	;RP0=1, select bank3
  5637  0B6D  1703               	bsf	3,6	;RP1=1, select bank3
  5638  0B6E  0518               	andwf	(___fldiv@grs+1)^(0+384),w
  5639  0B6F  1683               	bsf	3,5	;RP0=1, select bank1
  5640  0B70  1303               	bcf	3,6	;RP1=0, select bank1
  5641  0B71  00EC               	movwf	(??___fldiv^(0+128)+1)
  5642  0B72  30FF               	movlw	255
  5643  0B73  1683               	bsf	3,5	;RP0=1, select bank3
  5644  0B74  1703               	bsf	3,6	;RP1=1, select bank3
  5645  0B75  0519               	andwf	(___fldiv@grs+2)^(0+384),w
  5646  0B76  1683               	bsf	3,5	;RP0=1, select bank1
  5647  0B77  1303               	bcf	3,6	;RP1=0, select bank1
  5648  0B78  00ED               	movwf	(??___fldiv^(0+128)+2)
  5649  0B79  307F               	movlw	127
  5650  0B7A  1683               	bsf	3,5	;RP0=1, select bank3
  5651  0B7B  1703               	bsf	3,6	;RP1=1, select bank3
  5652  0B7C  051A               	andwf	(___fldiv@grs+3)^(0+384),w
  5653  0B7D  1683               	bsf	3,5	;RP0=1, select bank1
  5654  0B7E  1303               	bcf	3,6	;RP1=0, select bank1
  5655  0B7F  00EE               	movwf	(??___fldiv^(0+128)+3)
  5656  0B80  086E               	movf	(??___fldiv+3)^(0+128),w
  5657  0B81  046D               	iorwf	(??___fldiv+2)^(0+128),w
  5658  0B82  046C               	iorwf	(??___fldiv+1)^(0+128),w
  5659  0B83  046B               	iorwf	??___fldiv^(0+128),w
  5660  0B84  1903               	skipnz
  5661  0B85  2B87               	goto	u3561
  5662  0B86  2B88               	goto	u3560
  5663  0B87                     u3561:
  5664  0B87  2B8D               	goto	l667
  5665  0B88                     u3560:
  5666  0B88                     l2855:
  5667  0B88  1683               	bsf	3,5	;RP0=1, select bank3
  5668  0B89  1703               	bsf	3,6	;RP1=1, select bank3
  5669  0B8A  019C               	clrf	___fldiv@aexp^(0+384)
  5670  0B8B  0A9C               	incf	___fldiv@aexp^(0+384),f
  5671  0B8C  2B92               	goto	l2859
  5672  0B8D                     l667:
  5673  0B8D  1C67               	btfss	___fldiv@b^(0+128),0
  5674  0B8E  2B90               	goto	u3571
  5675  0B8F  2B91               	goto	u3570
  5676  0B90                     u3571:
  5677  0B90  2B92               	goto	l2859
  5678  0B91                     u3570:
  5679  0B91  2B88               	goto	l2855
  5680  0B92                     l2859:
  5681  0B92  1683               	bsf	3,5	;RP0=1, select bank3
  5682  0B93  1703               	bsf	3,6	;RP1=1, select bank3
  5683  0B94  081C               	movf	___fldiv@aexp^(0+384),w
  5684  0B95  1903               	btfsc	3,2
  5685  0B96  2B98               	goto	u3581
  5686  0B97  2B99               	goto	u3580
  5687  0B98                     u3581:
  5688  0B98  2BCE               	goto	l2869
  5689  0B99                     u3580:
  5690  0B99                     l2861:
  5691  0B99  3001               	movlw	1
  5692  0B9A  1683               	bsf	3,5	;RP0=1, select bank1
  5693  0B9B  1303               	bcf	3,6	;RP1=0, select bank1
  5694  0B9C  07E7               	addwf	___fldiv@b^(0+128),f
  5695  0B9D  3000               	movlw	0
  5696  0B9E  1803               	skipnc
  5697  0B9F  3001               	movlw	1
  5698  0BA0  07E8               	addwf	(___fldiv@b+1)^(0+128),f
  5699  0BA1  3000               	movlw	0
  5700  0BA2  1803               	skipnc
  5701  0BA3  3001               	movlw	1
  5702  0BA4  07E9               	addwf	(___fldiv@b+2)^(0+128),f
  5703  0BA5  3000               	movlw	0
  5704  0BA6  1803               	skipnc
  5705  0BA7  3001               	movlw	1
  5706  0BA8  07EA               	addwf	(___fldiv@b+3)^(0+128),f
  5707  0BA9                     l2863:
  5708  0BA9  1C6A               	btfss	(___fldiv@b+3)^(0+128),0
  5709  0BAA  2BAC               	goto	u3591
  5710  0BAB  2BAD               	goto	u3590
  5711  0BAC                     u3591:
  5712  0BAC  2BCE               	goto	l2869
  5713  0BAD                     u3590:
  5714  0BAD                     l2865:
  5715  0BAD  0867               	movf	___fldiv@b^(0+128),w
  5716  0BAE  00EB               	movwf	??___fldiv^(0+128)
  5717  0BAF  0868               	movf	(___fldiv@b+1)^(0+128),w
  5718  0BB0  00EC               	movwf	(??___fldiv^(0+128)+1)
  5719  0BB1  0869               	movf	(___fldiv@b+2)^(0+128),w
  5720  0BB2  00ED               	movwf	(??___fldiv^(0+128)+2)
  5721  0BB3  086A               	movf	(___fldiv@b+3)^(0+128),w
  5722  0BB4  00EE               	movwf	(??___fldiv^(0+128)+3)
  5723  0BB5  3001               	movlw	1
  5724  0BB6  00EF               	movwf	(??___fldiv+4)^(0+128)
  5725  0BB7                     u3605:
  5726  0BB7  0D6E               	rlf	(??___fldiv^(0+128)+3),w
  5727  0BB8  0CEE               	rrf	(??___fldiv^(0+128)+3),f
  5728  0BB9  0CED               	rrf	(??___fldiv^(0+128)+2),f
  5729  0BBA  0CEC               	rrf	(??___fldiv^(0+128)+1),f
  5730  0BBB  0CEB               	rrf	??___fldiv^(0+128),f
  5731  0BBC                     u3600:
  5732  0BBC  0BEF               	decfsz	(??___fldiv+4)^(0+128),f
  5733  0BBD  2BB7               	goto	u3605
  5734  0BBE  086E               	movf	(??___fldiv+3)^(0+128),w
  5735  0BBF  00EA               	movwf	(___fldiv@b+3)^(0+128)
  5736  0BC0  086D               	movf	(??___fldiv+2)^(0+128),w
  5737  0BC1  00E9               	movwf	(___fldiv@b+2)^(0+128)
  5738  0BC2  086C               	movf	(??___fldiv+1)^(0+128),w
  5739  0BC3  00E8               	movwf	(___fldiv@b+1)^(0+128)
  5740  0BC4  086B               	movf	??___fldiv^(0+128),w
  5741  0BC5  00E7               	movwf	___fldiv@b^(0+128)
  5742  0BC6                     l2867:
  5743  0BC6  3001               	movlw	1
  5744  0BC7  1683               	bsf	3,5	;RP0=1, select bank3
  5745  0BC8  1703               	bsf	3,6	;RP1=1, select bank3
  5746  0BC9  0795               	addwf	___fldiv@new_exp^(0+384),f
  5747  0BCA  1803               	skipnc
  5748  0BCB  0A96               	incf	(___fldiv@new_exp+1)^(0+384),f
  5749  0BCC  3000               	movlw	0
  5750  0BCD  0796               	addwf	(___fldiv@new_exp+1)^(0+384),f
  5751  0BCE                     l2869:
  5752  0BCE  1683               	bsf	3,5	;RP0=1, select bank3
  5753  0BCF  1703               	bsf	3,6	;RP1=1, select bank3
  5754  0BD0  0816               	movf	(___fldiv@new_exp+1)^(0+384),w
  5755  0BD1  3A80               	xorlw	128
  5756  0BD2  00FF               	movwf	btemp+1
  5757  0BD3  3080               	movlw	128
  5758  0BD4  027F               	subwf	btemp+1,w
  5759  0BD5  1D03               	skipz
  5760  0BD6  2BD9               	goto	u3615
  5761  0BD7  30FF               	movlw	255
  5762  0BD8  0215               	subwf	___fldiv@new_exp^(0+384),w
  5763  0BD9                     u3615:
  5764  0BD9  1C03               	skipc
  5765  0BDA  2BDC               	goto	u3611
  5766  0BDB  2BDD               	goto	u3610
  5767  0BDC                     u3611:
  5768  0BDC  2BED               	goto	l2873
  5769  0BDD                     u3610:
  5770  0BDD                     l2871:
  5771  0BDD  30FF               	movlw	255
  5772  0BDE  1683               	bsf	3,5	;RP0=1, select bank3
  5773  0BDF  1703               	bsf	3,6	;RP1=1, select bank3
  5774  0BE0  0095               	movwf	___fldiv@new_exp^(0+384)
  5775  0BE1  3000               	movlw	0
  5776  0BE2  0096               	movwf	(___fldiv@new_exp^(0+384)+1)
  5777  0BE3  3000               	movlw	0
  5778  0BE4  1683               	bsf	3,5	;RP0=1, select bank1
  5779  0BE5  1303               	bcf	3,6	;RP1=0, select bank1
  5780  0BE6  00EA               	movwf	(___fldiv@b+3)^(0+128)
  5781  0BE7  3000               	movlw	0
  5782  0BE8  00E9               	movwf	(___fldiv@b+2)^(0+128)
  5783  0BE9  3000               	movlw	0
  5784  0BEA  00E8               	movwf	(___fldiv@b+1)^(0+128)
  5785  0BEB  3000               	movlw	0
  5786  0BEC  00E7               	movwf	___fldiv@b^(0+128)
  5787  0BED                     l2873:
  5788  0BED  1683               	bsf	3,5	;RP0=1, select bank3
  5789  0BEE  1703               	bsf	3,6	;RP1=1, select bank3
  5790  0BEF  0816               	movf	(___fldiv@new_exp+1)^(0+384),w
  5791  0BF0  3A80               	xorlw	128
  5792  0BF1  00FF               	movwf	btemp+1
  5793  0BF2  3080               	movlw	128
  5794  0BF3  027F               	subwf	btemp+1,w
  5795  0BF4  1D03               	skipz
  5796  0BF5  2BF8               	goto	u3625
  5797  0BF6  3001               	movlw	1
  5798  0BF7  0215               	subwf	___fldiv@new_exp^(0+384),w
  5799  0BF8                     u3625:
  5800  0BF8  1803               	skipnc
  5801  0BF9  2BFB               	goto	u3621
  5802  0BFA  2BFC               	goto	u3620
  5803  0BFB                     u3621:
  5804  0BFB  2C0D               	goto	l673
  5805  0BFC                     u3620:
  5806  0BFC                     l2875:
  5807  0BFC  1683               	bsf	3,5	;RP0=1, select bank3
  5808  0BFD  1703               	bsf	3,6	;RP1=1, select bank3
  5809  0BFE  0195               	clrf	___fldiv@new_exp^(0+384)
  5810  0BFF  0196               	clrf	(___fldiv@new_exp+1)^(0+384)
  5811  0C00                     l2877:
  5812  0C00  3000               	movlw	0
  5813  0C01  1683               	bsf	3,5	;RP0=1, select bank1
  5814  0C02  1303               	bcf	3,6	;RP1=0, select bank1
  5815  0C03  00EA               	movwf	(___fldiv@b+3)^(0+128)
  5816  0C04  3000               	movlw	0
  5817  0C05  00E9               	movwf	(___fldiv@b+2)^(0+128)
  5818  0C06  3000               	movlw	0
  5819  0C07  00E8               	movwf	(___fldiv@b+1)^(0+128)
  5820  0C08  3000               	movlw	0
  5821  0C09  00E7               	movwf	___fldiv@b^(0+128)
  5822  0C0A                     l2879:
  5823  0C0A  1683               	bsf	3,5	;RP0=1, select bank3
  5824  0C0B  1703               	bsf	3,6	;RP1=1, select bank3
  5825  0C0C  0194               	clrf	___fldiv@sign^(0+384)
  5826  0C0D                     l673:
  5827  0C0D  1683               	bsf	3,5	;RP0=1, select bank3
  5828  0C0E  1703               	bsf	3,6	;RP1=1, select bank3
  5829  0C0F  0815               	movf	___fldiv@new_exp^(0+384),w
  5830  0C10  1683               	bsf	3,5	;RP0=1, select bank1
  5831  0C11  1303               	bcf	3,6	;RP1=0, select bank1
  5832  0C12  00EB               	movwf	??___fldiv^(0+128)
  5833  0C13  086B               	movf	??___fldiv^(0+128),w
  5834  0C14  1683               	bsf	3,5	;RP0=1, select bank3
  5835  0C15  1703               	bsf	3,6	;RP1=1, select bank3
  5836  0C16  009B               	movwf	___fldiv@bexp^(0+384)
  5837  0C17                     l2881:
  5838  0C17  1C1B               	btfss	___fldiv@bexp^(0+384),0
  5839  0C18  2C1A               	goto	u3631
  5840  0C19  2C1B               	goto	u3630
  5841  0C1A                     u3631:
  5842  0C1A  2C1F               	goto	l2885
  5843  0C1B                     u3630:
  5844  0C1B                     l2883:
  5845  0C1B  1683               	bsf	3,5	;RP0=1, select bank1
  5846  0C1C  1303               	bcf	3,6	;RP1=0, select bank1
  5847  0C1D  17E9               	bsf	(___fldiv@b^(0+128)+2),7
  5848  0C1E  2C25               	goto	l675
  5849  0C1F                     l2885:
  5850  0C1F  307F               	movlw	127
  5851  0C20  1683               	bsf	3,5	;RP0=1, select bank1
  5852  0C21  1303               	bcf	3,6	;RP1=0, select bank1
  5853  0C22  00EB               	movwf	??___fldiv^(0+128)
  5854  0C23  086B               	movf	??___fldiv^(0+128),w
  5855  0C24  05E9               	andwf	(___fldiv@b^(0+128)+2),f
  5856  0C25                     l675:
  5857  0C25  1683               	bsf	3,5	;RP0=1, select bank3
  5858  0C26  1703               	bsf	3,6	;RP1=1, select bank3
  5859  0C27  081B               	movf	___fldiv@bexp^(0+384),w
  5860  0C28  1683               	bsf	3,5	;RP0=1, select bank1
  5861  0C29  1303               	bcf	3,6	;RP1=0, select bank1
  5862  0C2A  00EB               	movwf	??___fldiv^(0+128)
  5863  0C2B  1003               	clrc
  5864  0C2C  0C6B               	rrf	??___fldiv^(0+128),w
  5865  0C2D  00EC               	movwf	(??___fldiv+1)^(0+128)
  5866  0C2E  086C               	movf	(??___fldiv+1)^(0+128),w
  5867  0C2F  00EA               	movwf	(___fldiv@b^(0+128)+3)
  5868  0C30  1683               	bsf	3,5	;RP0=1, select bank3
  5869  0C31  1703               	bsf	3,6	;RP1=1, select bank3
  5870  0C32  0814               	movf	___fldiv@sign^(0+384),w
  5871  0C33  1683               	bsf	3,5	;RP0=1, select bank1
  5872  0C34  1303               	bcf	3,6	;RP1=0, select bank1
  5873  0C35  00EB               	movwf	??___fldiv^(0+128)
  5874  0C36  086B               	movf	??___fldiv^(0+128),w
  5875  0C37  04EA               	iorwf	(___fldiv@b^(0+128)+3),f
  5876  0C38  2A34               	goto	l2793
  5877  0C39                     l653:
  5878  0C39  0008               	return
  5879  0C3A                     __end_of___fldiv:
  5880                           
  5881                           	psect	text13
  5882  08D6                     __ptext13:	
  5883 ;; *************** function ___awmod *****************
  5884 ;; Defined at:
  5885 ;;		line 5 in file "C:\Program Files\Microchip\xc8\v2.31\pic\sources\c90\common\awmod.c"
  5886 ;; Parameters:    Size  Location     Type
  5887 ;;  divisor         2   27[BANK0 ] int 
  5888 ;;  dividend        2   29[BANK0 ] int 
  5889 ;; Auto vars:     Size  Location     Type
  5890 ;;  sign            1   33[BANK0 ] unsigned char 
  5891 ;;  counter         1   32[BANK0 ] unsigned char 
  5892 ;; Return value:  Size  Location     Type
  5893 ;;                  2   27[BANK0 ] int 
  5894 ;; Registers used:
  5895 ;;		wreg, status,2, status,0
  5896 ;; Tracked objects:
  5897 ;;		On entry : 0/0
  5898 ;;		On exit  : 0/0
  5899 ;;		Unchanged: 0/0
  5900 ;; Data sizes:     COMMON   BANK0   BANK1   BANK3   BANK2
  5901 ;;      Params:         0       4       0       0       0
  5902 ;;      Locals:         0       2       0       0       0
  5903 ;;      Temps:          0       1       0       0       0
  5904 ;;      Totals:         0       7       0       0       0
  5905 ;;Total ram usage:        7 bytes
  5906 ;; Hardware stack levels used:    1
  5907 ;; Hardware stack levels required when called:    4
  5908 ;; This function calls:
  5909 ;;		Nothing
  5910 ;; This function is called by:
  5911 ;;		_main
  5912 ;; This function uses a non-reentrant model
  5913 ;;
  5914                           
  5915                           
  5916                           ;psect for function ___awmod
  5917  08D6                     ___awmod:
  5918  08D6                     l2111:	
  5919                           ;incstack = 0
  5920                           ; Regs used in ___awmod: [wreg+status,2+status,0]
  5921                           
  5922  08D6  1283               	bcf	3,5	;RP0=0, select bank0
  5923  08D7  1303               	bcf	3,6	;RP1=0, select bank0
  5924  08D8  01C1               	clrf	___awmod@sign
  5925  08D9                     l2113:
  5926  08D9  1FBE               	btfss	___awmod@dividend+1,7
  5927  08DA  28DC               	goto	u2101
  5928  08DB  28DD               	goto	u2100
  5929  08DC                     u2101:
  5930  08DC  28E4               	goto	l2119
  5931  08DD                     u2100:
  5932  08DD                     l2115:
  5933  08DD  09BD               	comf	___awmod@dividend,f
  5934  08DE  09BE               	comf	___awmod@dividend+1,f
  5935  08DF  0ABD               	incf	___awmod@dividend,f
  5936  08E0  1903               	skipnz
  5937  08E1  0ABE               	incf	___awmod@dividend+1,f
  5938  08E2                     l2117:
  5939  08E2  01C1               	clrf	___awmod@sign
  5940  08E3  0AC1               	incf	___awmod@sign,f
  5941  08E4                     l2119:
  5942  08E4  1FBC               	btfss	___awmod@divisor+1,7
  5943  08E5  28E7               	goto	u2111
  5944  08E6  28E8               	goto	u2110
  5945  08E7                     u2111:
  5946  08E7  28ED               	goto	l2123
  5947  08E8                     u2110:
  5948  08E8                     l2121:
  5949  08E8  09BB               	comf	___awmod@divisor,f
  5950  08E9  09BC               	comf	___awmod@divisor+1,f
  5951  08EA  0ABB               	incf	___awmod@divisor,f
  5952  08EB  1903               	skipnz
  5953  08EC  0ABC               	incf	___awmod@divisor+1,f
  5954  08ED                     l2123:
  5955  08ED  083B               	movf	___awmod@divisor,w
  5956  08EE  043C               	iorwf	___awmod@divisor+1,w
  5957  08EF  1903               	btfsc	3,2
  5958  08F0  28F2               	goto	u2121
  5959  08F1  28F3               	goto	u2120
  5960  08F2                     u2121:
  5961  08F2  2922               	goto	l2141
  5962  08F3                     u2120:
  5963  08F3                     l2125:
  5964  08F3  01C0               	clrf	___awmod@counter
  5965  08F4  0AC0               	incf	___awmod@counter,f
  5966  08F5  2901               	goto	l2131
  5967  08F6                     l2127:
  5968  08F6  3001               	movlw	1
  5969  08F7                     u2135:
  5970  08F7  1003               	clrc
  5971  08F8  0DBB               	rlf	___awmod@divisor,f
  5972  08F9  0DBC               	rlf	___awmod@divisor+1,f
  5973  08FA  3EFF               	addlw	-1
  5974  08FB  1D03               	skipz
  5975  08FC  28F7               	goto	u2135
  5976  08FD                     l2129:
  5977  08FD  3001               	movlw	1
  5978  08FE  00BF               	movwf	??___awmod
  5979  08FF  083F               	movf	??___awmod,w
  5980  0900  07C0               	addwf	___awmod@counter,f
  5981  0901                     l2131:
  5982  0901  1FBC               	btfss	___awmod@divisor+1,7
  5983  0902  2904               	goto	u2141
  5984  0903  2905               	goto	u2140
  5985  0904                     u2141:
  5986  0904  28F6               	goto	l2127
  5987  0905                     u2140:
  5988  0905                     l2133:
  5989  0905  083C               	movf	___awmod@divisor+1,w
  5990  0906  023E               	subwf	___awmod@dividend+1,w
  5991  0907  1D03               	skipz
  5992  0908  290B               	goto	u2155
  5993  0909  083B               	movf	___awmod@divisor,w
  5994  090A  023D               	subwf	___awmod@dividend,w
  5995  090B                     u2155:
  5996  090B  1C03               	skipc
  5997  090C  290E               	goto	u2151
  5998  090D  290F               	goto	u2150
  5999  090E                     u2151:
  6000  090E  2915               	goto	l2137
  6001  090F                     u2150:
  6002  090F                     l2135:
  6003  090F  083B               	movf	___awmod@divisor,w
  6004  0910  02BD               	subwf	___awmod@dividend,f
  6005  0911  083C               	movf	___awmod@divisor+1,w
  6006  0912  1C03               	skipc
  6007  0913  03BE               	decf	___awmod@dividend+1,f
  6008  0914  02BE               	subwf	___awmod@dividend+1,f
  6009  0915                     l2137:
  6010  0915  3001               	movlw	1
  6011  0916                     u2165:
  6012  0916  1003               	clrc
  6013  0917  0CBC               	rrf	___awmod@divisor+1,f
  6014  0918  0CBB               	rrf	___awmod@divisor,f
  6015  0919  3EFF               	addlw	-1
  6016  091A  1D03               	skipz
  6017  091B  2916               	goto	u2165
  6018  091C                     l2139:
  6019  091C  3001               	movlw	1
  6020  091D  02C0               	subwf	___awmod@counter,f
  6021  091E  1D03               	btfss	3,2
  6022  091F  2921               	goto	u2171
  6023  0920  2922               	goto	u2170
  6024  0921                     u2171:
  6025  0921  2905               	goto	l2133
  6026  0922                     u2170:
  6027  0922                     l2141:
  6028  0922  0841               	movf	___awmod@sign,w
  6029  0923  1903               	btfsc	3,2
  6030  0924  2926               	goto	u2181
  6031  0925  2927               	goto	u2180
  6032  0926                     u2181:
  6033  0926  292C               	goto	l2145
  6034  0927                     u2180:
  6035  0927                     l2143:
  6036  0927  09BD               	comf	___awmod@dividend,f
  6037  0928  09BE               	comf	___awmod@dividend+1,f
  6038  0929  0ABD               	incf	___awmod@dividend,f
  6039  092A  1903               	skipnz
  6040  092B  0ABE               	incf	___awmod@dividend+1,f
  6041  092C                     l2145:
  6042  092C  083E               	movf	___awmod@dividend+1,w
  6043  092D  00BC               	movwf	?___awmod+1
  6044  092E  083D               	movf	___awmod@dividend,w
  6045  092F  00BB               	movwf	?___awmod
  6046  0930                     l468:
  6047  0930  0008               	return
  6048  0931                     __end_of___awmod:
  6049                           
  6050                           	psect	text14
  6051  0931                     __ptext14:	
  6052 ;; *************** function ___awdiv *****************
  6053 ;; Defined at:
  6054 ;;		line 5 in file "C:\Program Files\Microchip\xc8\v2.31\pic\sources\c90\common\awdiv.c"
  6055 ;; Parameters:    Size  Location     Type
  6056 ;;  divisor         2   18[BANK0 ] int 
  6057 ;;  dividend        2   20[BANK0 ] int 
  6058 ;; Auto vars:     Size  Location     Type
  6059 ;;  quotient        2   25[BANK0 ] int 
  6060 ;;  sign            1   24[BANK0 ] unsigned char 
  6061 ;;  counter         1   23[BANK0 ] unsigned char 
  6062 ;; Return value:  Size  Location     Type
  6063 ;;                  2   18[BANK0 ] int 
  6064 ;; Registers used:
  6065 ;;		wreg, status,2, status,0
  6066 ;; Tracked objects:
  6067 ;;		On entry : 0/0
  6068 ;;		On exit  : 0/0
  6069 ;;		Unchanged: 0/0
  6070 ;; Data sizes:     COMMON   BANK0   BANK1   BANK3   BANK2
  6071 ;;      Params:         0       4       0       0       0
  6072 ;;      Locals:         0       4       0       0       0
  6073 ;;      Temps:          0       1       0       0       0
  6074 ;;      Totals:         0       9       0       0       0
  6075 ;;Total ram usage:        9 bytes
  6076 ;; Hardware stack levels used:    1
  6077 ;; Hardware stack levels required when called:    4
  6078 ;; This function calls:
  6079 ;;		Nothing
  6080 ;; This function is called by:
  6081 ;;		_main
  6082 ;; This function uses a non-reentrant model
  6083 ;;
  6084                           
  6085                           
  6086                           ;psect for function ___awdiv
  6087  0931                     ___awdiv:
  6088  0931                     l2067:	
  6089                           ;incstack = 0
  6090                           ; Regs used in ___awdiv: [wreg+status,2+status,0]
  6091                           
  6092  0931  1283               	bcf	3,5	;RP0=0, select bank0
  6093  0932  1303               	bcf	3,6	;RP1=0, select bank0
  6094  0933  01B8               	clrf	___awdiv@sign
  6095  0934                     l2069:
  6096  0934  1FB3               	btfss	___awdiv@divisor+1,7
  6097  0935  2937               	goto	u2001
  6098  0936  2938               	goto	u2000
  6099  0937                     u2001:
  6100  0937  293F               	goto	l2075
  6101  0938                     u2000:
  6102  0938                     l2071:
  6103  0938  09B2               	comf	___awdiv@divisor,f
  6104  0939  09B3               	comf	___awdiv@divisor+1,f
  6105  093A  0AB2               	incf	___awdiv@divisor,f
  6106  093B  1903               	skipnz
  6107  093C  0AB3               	incf	___awdiv@divisor+1,f
  6108  093D                     l2073:
  6109  093D  01B8               	clrf	___awdiv@sign
  6110  093E  0AB8               	incf	___awdiv@sign,f
  6111  093F                     l2075:
  6112  093F  1FB5               	btfss	___awdiv@dividend+1,7
  6113  0940  2942               	goto	u2011
  6114  0941  2943               	goto	u2010
  6115  0942                     u2011:
  6116  0942  294C               	goto	l2081
  6117  0943                     u2010:
  6118  0943                     l2077:
  6119  0943  09B4               	comf	___awdiv@dividend,f
  6120  0944  09B5               	comf	___awdiv@dividend+1,f
  6121  0945  0AB4               	incf	___awdiv@dividend,f
  6122  0946  1903               	skipnz
  6123  0947  0AB5               	incf	___awdiv@dividend+1,f
  6124  0948                     l2079:
  6125  0948  3001               	movlw	1
  6126  0949  00B6               	movwf	??___awdiv
  6127  094A  0836               	movf	??___awdiv,w
  6128  094B  06B8               	xorwf	___awdiv@sign,f
  6129  094C                     l2081:
  6130  094C  01B9               	clrf	___awdiv@quotient
  6131  094D  01BA               	clrf	___awdiv@quotient+1
  6132  094E                     l2083:
  6133  094E  0832               	movf	___awdiv@divisor,w
  6134  094F  0433               	iorwf	___awdiv@divisor+1,w
  6135  0950  1903               	btfsc	3,2
  6136  0951  2953               	goto	u2021
  6137  0952  2954               	goto	u2020
  6138  0953                     u2021:
  6139  0953  298B               	goto	l2103
  6140  0954                     u2020:
  6141  0954                     l2085:
  6142  0954  01B7               	clrf	___awdiv@counter
  6143  0955  0AB7               	incf	___awdiv@counter,f
  6144  0956  2962               	goto	l2091
  6145  0957                     l2087:
  6146  0957  3001               	movlw	1
  6147  0958                     u2035:
  6148  0958  1003               	clrc
  6149  0959  0DB2               	rlf	___awdiv@divisor,f
  6150  095A  0DB3               	rlf	___awdiv@divisor+1,f
  6151  095B  3EFF               	addlw	-1
  6152  095C  1D03               	skipz
  6153  095D  2958               	goto	u2035
  6154  095E                     l2089:
  6155  095E  3001               	movlw	1
  6156  095F  00B6               	movwf	??___awdiv
  6157  0960  0836               	movf	??___awdiv,w
  6158  0961  07B7               	addwf	___awdiv@counter,f
  6159  0962                     l2091:
  6160  0962  1FB3               	btfss	___awdiv@divisor+1,7
  6161  0963  2965               	goto	u2041
  6162  0964  2966               	goto	u2040
  6163  0965                     u2041:
  6164  0965  2957               	goto	l2087
  6165  0966                     u2040:
  6166  0966                     l2093:
  6167  0966  3001               	movlw	1
  6168  0967                     u2055:
  6169  0967  1003               	clrc
  6170  0968  0DB9               	rlf	___awdiv@quotient,f
  6171  0969  0DBA               	rlf	___awdiv@quotient+1,f
  6172  096A  3EFF               	addlw	-1
  6173  096B  1D03               	skipz
  6174  096C  2967               	goto	u2055
  6175  096D  0833               	movf	___awdiv@divisor+1,w
  6176  096E  0235               	subwf	___awdiv@dividend+1,w
  6177  096F  1D03               	skipz
  6178  0970  2973               	goto	u2065
  6179  0971  0832               	movf	___awdiv@divisor,w
  6180  0972  0234               	subwf	___awdiv@dividend,w
  6181  0973                     u2065:
  6182  0973  1C03               	skipc
  6183  0974  2976               	goto	u2061
  6184  0975  2977               	goto	u2060
  6185  0976                     u2061:
  6186  0976  297E               	goto	l2099
  6187  0977                     u2060:
  6188  0977                     l2095:
  6189  0977  0832               	movf	___awdiv@divisor,w
  6190  0978  02B4               	subwf	___awdiv@dividend,f
  6191  0979  0833               	movf	___awdiv@divisor+1,w
  6192  097A  1C03               	skipc
  6193  097B  03B5               	decf	___awdiv@dividend+1,f
  6194  097C  02B5               	subwf	___awdiv@dividend+1,f
  6195  097D                     l2097:
  6196  097D  1439               	bsf	___awdiv@quotient,0
  6197  097E                     l2099:
  6198  097E  3001               	movlw	1
  6199  097F                     u2075:
  6200  097F  1003               	clrc
  6201  0980  0CB3               	rrf	___awdiv@divisor+1,f
  6202  0981  0CB2               	rrf	___awdiv@divisor,f
  6203  0982  3EFF               	addlw	-1
  6204  0983  1D03               	skipz
  6205  0984  297F               	goto	u2075
  6206  0985                     l2101:
  6207  0985  3001               	movlw	1
  6208  0986  02B7               	subwf	___awdiv@counter,f
  6209  0987  1D03               	btfss	3,2
  6210  0988  298A               	goto	u2081
  6211  0989  298B               	goto	u2080
  6212  098A                     u2081:
  6213  098A  2966               	goto	l2093
  6214  098B                     u2080:
  6215  098B                     l2103:
  6216  098B  0838               	movf	___awdiv@sign,w
  6217  098C  1903               	btfsc	3,2
  6218  098D  298F               	goto	u2091
  6219  098E  2990               	goto	u2090
  6220  098F                     u2091:
  6221  098F  2995               	goto	l2107
  6222  0990                     u2090:
  6223  0990                     l2105:
  6224  0990  09B9               	comf	___awdiv@quotient,f
  6225  0991  09BA               	comf	___awdiv@quotient+1,f
  6226  0992  0AB9               	incf	___awdiv@quotient,f
  6227  0993  1903               	skipnz
  6228  0994  0ABA               	incf	___awdiv@quotient+1,f
  6229  0995                     l2107:
  6230  0995  083A               	movf	___awdiv@quotient+1,w
  6231  0996  00B3               	movwf	?___awdiv+1
  6232  0997  0839               	movf	___awdiv@quotient,w
  6233  0998  00B2               	movwf	?___awdiv
  6234  0999                     l455:
  6235  0999  0008               	return
  6236  099A                     __end_of___awdiv:
  6237                           
  6238                           	psect	text15
  6239  1600                     __ptext15:	
  6240 ;; *************** function _SERIAL_Init *****************
  6241 ;; Defined at:
  6242 ;;		line 8 in file "UART.c"
  6243 ;; Parameters:    Size  Location     Type
  6244 ;;		None
  6245 ;; Auto vars:     Size  Location     Type
  6246 ;;		None
  6247 ;; Return value:  Size  Location     Type
  6248 ;;                  1    wreg      void 
  6249 ;; Registers used:
  6250 ;;		wreg
  6251 ;; Tracked objects:
  6252 ;;		On entry : 0/0
  6253 ;;		On exit  : 0/0
  6254 ;;		Unchanged: 0/0
  6255 ;; Data sizes:     COMMON   BANK0   BANK1   BANK3   BANK2
  6256 ;;      Params:         0       0       0       0       0
  6257 ;;      Locals:         0       0       0       0       0
  6258 ;;      Temps:          0       0       0       0       0
  6259 ;;      Totals:         0       0       0       0       0
  6260 ;;Total ram usage:        0 bytes
  6261 ;; Hardware stack levels used:    1
  6262 ;; Hardware stack levels required when called:    4
  6263 ;; This function calls:
  6264 ;;		Nothing
  6265 ;; This function is called by:
  6266 ;;		_main
  6267 ;; This function uses a non-reentrant model
  6268 ;;
  6269                           
  6270                           
  6271                           ;psect for function _SERIAL_Init
  6272  1600                     _SERIAL_Init:
  6273  1600                     l2003:	
  6274                           ;incstack = 0
  6275                           ; Regs used in _SERIAL_Init: [wreg]
  6276                           
  6277                           
  6278                           ;UART.c: 9:     SPBRG = 25;
  6279  1600  3019               	movlw	25
  6280  1601  1683               	bsf	3,5	;RP0=1, select bank1
  6281  1602  1303               	bcf	3,6	;RP1=0, select bank1
  6282  1603  0099               	movwf	25	;volatile
  6283  1604                     l2005:
  6284                           
  6285                           ;UART.c: 11:     TXSTAbits.BRGH = 1;
  6286  1604  1518               	bsf	24,2	;volatile
  6287  1605                     l2007:
  6288                           
  6289                           ;UART.c: 12:     TXSTAbits.TXEN = 1;
  6290  1605  1698               	bsf	24,5	;volatile
  6291  1606                     l2009:
  6292                           
  6293                           ;UART.c: 13:     TXSTAbits.SYNC = 0;
  6294  1606  1218               	bcf	24,4	;volatile
  6295  1607                     l2011:
  6296                           
  6297                           ;UART.c: 14:     TXSTAbits.TX9 = 0;
  6298  1607  1318               	bcf	24,6	;volatile
  6299  1608                     l2013:
  6300                           
  6301                           ;UART.c: 16:     RCSTAbits.CREN = 1;
  6302  1608  1283               	bcf	3,5	;RP0=0, select bank0
  6303  1609  1303               	bcf	3,6	;RP1=0, select bank0
  6304  160A  1618               	bsf	24,4	;volatile
  6305  160B                     l2015:
  6306                           
  6307                           ;UART.c: 17:     RCSTAbits.SPEN = 1;
  6308  160B  1798               	bsf	24,7	;volatile
  6309  160C                     l2017:
  6310                           
  6311                           ;UART.c: 18:     RCSTAbits.RX9 = 0;
  6312  160C  1318               	bcf	24,6	;volatile
  6313  160D                     l2019:
  6314                           
  6315                           ;UART.c: 20:     PIE1bits.RCIE = 1;
  6316  160D  1683               	bsf	3,5	;RP0=1, select bank1
  6317  160E  1303               	bcf	3,6	;RP1=0, select bank1
  6318  160F  168C               	bsf	12,5	;volatile
  6319  1610                     l2021:
  6320                           
  6321                           ;UART.c: 21:     INTCONbits.PEIE = 1;
  6322  1610  170B               	bsf	11,6	;volatile
  6323  1611                     l2023:
  6324                           
  6325                           ;UART.c: 22:     INTCONbits.GIE = 1;
  6326  1611  178B               	bsf	11,7	;volatile
  6327  1612                     l201:
  6328  1612  0008               	return
  6329  1613                     __end_of_SERIAL_Init:
  6330                           
  6331                           	psect	text16
  6332  1673                     __ptext16:	
  6333 ;; *************** function _Lcd_Write_String *****************
  6334 ;; Defined at:
  6335 ;;		line 83 in file "LCD.c"
  6336 ;; Parameters:    Size  Location     Type
  6337 ;;  a               2   21[BANK0 ] PTR unsigned char 
  6338 ;;		 -> STR_5(2), STR_4(2), POT2SC(5), POT1SC(5), 
  6339 ;;		 -> STR_1(17), COMPARE(5), 
  6340 ;; Auto vars:     Size  Location     Type
  6341 ;;		None
  6342 ;; Return value:  Size  Location     Type
  6343 ;;                  1    wreg      void 
  6344 ;; Registers used:
  6345 ;;		wreg, fsr0l, fsr0h, status,2, status,0, btemp+1, pclath, cstack
  6346 ;; Tracked objects:
  6347 ;;		On entry : 0/0
  6348 ;;		On exit  : 0/0
  6349 ;;		Unchanged: 0/0
  6350 ;; Data sizes:     COMMON   BANK0   BANK1   BANK3   BANK2
  6351 ;;      Params:         0       2       0       0       0
  6352 ;;      Locals:         0       0       0       0       0
  6353 ;;      Temps:          0       0       0       0       0
  6354 ;;      Totals:         0       2       0       0       0
  6355 ;;Total ram usage:        2 bytes
  6356 ;; Hardware stack levels used:    1
  6357 ;; Hardware stack levels required when called:    5
  6358 ;; This function calls:
  6359 ;;		_Lcd_Write_Char
  6360 ;; This function is called by:
  6361 ;;		_main
  6362 ;; This function uses a non-reentrant model
  6363 ;;
  6364                           
  6365                           
  6366                           ;psect for function _Lcd_Write_String
  6367  1673                     _Lcd_Write_String:
  6368  1673                     l2027:	
  6369                           ;incstack = 0
  6370                           ; Regs used in _Lcd_Write_String: [wreg-fsr0h+status,2+status,0+btemp+1+pclath+cstack]
  6371                           
  6372                           
  6373                           ;LCD.c: 84:     while(*a != 0)
  6374  1673  2E8A               	goto	l2033
  6375  1674                     l2029:
  6376                           
  6377                           ;LCD.c: 85:         Lcd_Write_Char(*a++);
  6378  1674  0836               	movf	Lcd_Write_String@a+1,w
  6379  1675  00FF               	movwf	btemp+1
  6380  1676  0835               	movf	Lcd_Write_String@a,w
  6381  1677  0084               	movwf	4
  6382  1678  160A  118A  2000  160A  118A  	fcall	stringtab
  6383  167D  120A  158A  2009  160A  118A  	fcall	_Lcd_Write_Char
  6384  1682                     l2031:
  6385  1682  3001               	movlw	1
  6386  1683  1283               	bcf	3,5	;RP0=0, select bank0
  6387  1684  1303               	bcf	3,6	;RP1=0, select bank0
  6388  1685  07B5               	addwf	Lcd_Write_String@a,f
  6389  1686  1803               	skipnc
  6390  1687  0AB6               	incf	Lcd_Write_String@a+1,f
  6391  1688  3000               	movlw	0
  6392  1689  07B6               	addwf	Lcd_Write_String@a+1,f
  6393  168A                     l2033:
  6394                           
  6395                           ;LCD.c: 84:     while(*a != 0)
  6396  168A  1283               	bcf	3,5	;RP0=0, select bank0
  6397  168B  1303               	bcf	3,6	;RP1=0, select bank0
  6398  168C  0836               	movf	Lcd_Write_String@a+1,w
  6399  168D  00FF               	movwf	btemp+1
  6400  168E  0835               	movf	Lcd_Write_String@a,w
  6401  168F  0084               	movwf	4
  6402  1690  160A  118A  2000  160A  118A  	fcall	stringtab
  6403  1695  3A00               	xorlw	0
  6404  1696  1D03               	skipz
  6405  1697  2E99               	goto	u1961
  6406  1698  2E9A               	goto	u1960
  6407  1699                     u1961:
  6408  1699  2E74               	goto	l2029
  6409  169A                     u1960:
  6410  169A                     l153:
  6411  169A  0008               	return
  6412  169B                     __end_of_Lcd_Write_String:
  6413                           
  6414                           	psect	text17
  6415  0809                     __ptext17:	
  6416 ;; *************** function _Lcd_Write_Char *****************
  6417 ;; Defined at:
  6418 ;;		line 60 in file "LCD.c"
  6419 ;; Parameters:    Size  Location     Type
  6420 ;;  a               1    wreg     unsigned char 
  6421 ;; Auto vars:     Size  Location     Type
  6422 ;;  a               1   20[BANK0 ] unsigned char 
  6423 ;; Return value:  Size  Location     Type
  6424 ;;                  1    wreg      void 
  6425 ;; Registers used:
  6426 ;;		wreg, status,2, status,0
  6427 ;; Tracked objects:
  6428 ;;		On entry : 0/0
  6429 ;;		On exit  : 0/0
  6430 ;;		Unchanged: 0/0
  6431 ;; Data sizes:     COMMON   BANK0   BANK1   BANK3   BANK2
  6432 ;;      Params:         0       0       0       0       0
  6433 ;;      Locals:         0       1       0       0       0
  6434 ;;      Temps:          0       2       0       0       0
  6435 ;;      Totals:         0       3       0       0       0
  6436 ;;Total ram usage:        3 bytes
  6437 ;; Hardware stack levels used:    1
  6438 ;; Hardware stack levels required when called:    4
  6439 ;; This function calls:
  6440 ;;		Nothing
  6441 ;; This function is called by:
  6442 ;;		_Lcd_Write_String
  6443 ;; This function uses a non-reentrant model
  6444 ;;
  6445                           
  6446                           
  6447                           ;psect for function _Lcd_Write_Char
  6448  0809                     _Lcd_Write_Char:
  6449                           
  6450                           ;incstack = 0
  6451                           ; Regs used in _Lcd_Write_Char: [wreg+status,2+status,0]
  6452                           ;Lcd_Write_Char@a stored from wreg
  6453  0809  1283               	bcf	3,5	;RP0=0, select bank0
  6454  080A  1303               	bcf	3,6	;RP1=0, select bank0
  6455  080B  00B4               	movwf	Lcd_Write_Char@a
  6456  080C                     l1863:
  6457                           
  6458                           ;LCD.c: 61:     PORTD = 0xFF;
  6459  080C  30FF               	movlw	255
  6460  080D  0088               	movwf	8	;volatile
  6461  080E                     l1865:
  6462                           
  6463                           ;LCD.c: 62:     PORTD &= 0x80;
  6464  080E  3080               	movlw	128
  6465  080F  00B2               	movwf	??_Lcd_Write_Char
  6466  0810  0832               	movf	??_Lcd_Write_Char,w
  6467  0811  0588               	andwf	8,f	;volatile
  6468  0812                     l1867:
  6469                           
  6470                           ;LCD.c: 63:     RE0 = 0;
  6471  0812  1009               	bcf	9,0	;volatile
  6472  0813                     l1869:
  6473                           
  6474                           ;LCD.c: 64:     RE1 = 1;
  6475  0813  1489               	bsf	9,1	;volatile
  6476  0814                     l1871:
  6477                           
  6478                           ;LCD.c: 65:     RE2 = 0;
  6479  0814  1109               	bcf	9,2	;volatile
  6480  0815                     l1873:
  6481                           
  6482                           ;LCD.c: 66:     _delay((unsigned long)((30)*(4000000/4000.0)));
  6483  0815  3027               	movlw	39
  6484  0816  1283               	bcf	3,5	;RP0=0, select bank0
  6485  0817  1303               	bcf	3,6	;RP1=0, select bank0
  6486  0818  00B3               	movwf	??_Lcd_Write_Char+1
  6487  0819  30F4               	movlw	244
  6488  081A  00B2               	movwf	??_Lcd_Write_Char
  6489  081B                     u4057:
  6490  081B  0BB2               	decfsz	??_Lcd_Write_Char,f
  6491  081C  281B               	goto	u4057
  6492  081D  0BB3               	decfsz	??_Lcd_Write_Char+1,f
  6493  081E  281B               	goto	u4057
  6494  081F  0000               	nop
  6495  0820                     l1875:
  6496                           
  6497                           ;LCD.c: 67:     RE2 = 1;
  6498  0820  1283               	bcf	3,5	;RP0=0, select bank0
  6499  0821  1303               	bcf	3,6	;RP1=0, select bank0
  6500  0822  1509               	bsf	9,2	;volatile
  6501                           
  6502                           ;LCD.c: 68:     if (PORTD == 0x80){
  6503  0823  3080               	movlw	128
  6504  0824  0608               	xorwf	8,w	;volatile
  6505  0825  1D03               	btfss	3,2
  6506  0826  2828               	goto	u1851
  6507  0827  2829               	goto	u1850
  6508  0828                     u1851:
  6509  0828  2838               	goto	l1883
  6510  0829                     u1850:
  6511  0829                     l1877:
  6512                           
  6513                           ;LCD.c: 69:     RE2 = 0;
  6514  0829  1109               	bcf	9,2	;volatile
  6515  082A                     l1879:
  6516                           
  6517                           ;LCD.c: 70:     _delay((unsigned long)((30)*(4000000/4000.0)));
  6518  082A  3027               	movlw	39
  6519  082B  1283               	bcf	3,5	;RP0=0, select bank0
  6520  082C  1303               	bcf	3,6	;RP1=0, select bank0
  6521  082D  00B3               	movwf	??_Lcd_Write_Char+1
  6522  082E  30F4               	movlw	244
  6523  082F  00B2               	movwf	??_Lcd_Write_Char
  6524  0830                     u4067:
  6525  0830  0BB2               	decfsz	??_Lcd_Write_Char,f
  6526  0831  2830               	goto	u4067
  6527  0832  0BB3               	decfsz	??_Lcd_Write_Char+1,f
  6528  0833  2830               	goto	u4067
  6529  0834  0000               	nop
  6530  0835                     l1881:
  6531                           
  6532                           ;LCD.c: 71:     RE2 = 1;
  6533  0835  1283               	bcf	3,5	;RP0=0, select bank0
  6534  0836  1303               	bcf	3,6	;RP1=0, select bank0
  6535  0837  1509               	bsf	9,2	;volatile
  6536  0838                     l1883:	
  6537                           ;LCD.c: 72:     }
  6538                           
  6539                           
  6540                           ;LCD.c: 75:     PORTD = a;
  6541  0838  0834               	movf	Lcd_Write_Char@a,w
  6542  0839  0088               	movwf	8	;volatile
  6543  083A                     l1885:
  6544                           
  6545                           ;LCD.c: 76:     RE0 = 1;
  6546  083A  1409               	bsf	9,0	;volatile
  6547  083B                     l1887:
  6548                           
  6549                           ;LCD.c: 77:     RE1 = 0;
  6550  083B  1089               	bcf	9,1	;volatile
  6551  083C                     l1889:
  6552                           
  6553                           ;LCD.c: 78:     RE2 = 1;
  6554  083C  1509               	bsf	9,2	;volatile
  6555                           
  6556                           ;LCD.c: 79:     _delay((unsigned long)((30)*(4000000/4000.0)));
  6557  083D  3027               	movlw	39
  6558  083E  1283               	bcf	3,5	;RP0=0, select bank0
  6559  083F  1303               	bcf	3,6	;RP1=0, select bank0
  6560  0840  00B3               	movwf	??_Lcd_Write_Char+1
  6561  0841  30F4               	movlw	244
  6562  0842  00B2               	movwf	??_Lcd_Write_Char
  6563  0843                     u4077:
  6564  0843  0BB2               	decfsz	??_Lcd_Write_Char,f
  6565  0844  2843               	goto	u4077
  6566  0845  0BB3               	decfsz	??_Lcd_Write_Char+1,f
  6567  0846  2843               	goto	u4077
  6568  0847  0000               	nop
  6569  0848                     l1891:
  6570                           
  6571                           ;LCD.c: 80:     RE2 = 0;
  6572  0848  1283               	bcf	3,5	;RP0=0, select bank0
  6573  0849  1303               	bcf	3,6	;RP1=0, select bank0
  6574  084A  1109               	bcf	9,2	;volatile
  6575  084B                     l147:
  6576  084B  0008               	return
  6577  084C                     __end_of_Lcd_Write_Char:
  6578                           
  6579                           	psect	text18
  6580  1631                     __ptext18:	
  6581 ;; *************** function _Lcd_Init *****************
  6582 ;; Defined at:
  6583 ;;		line 52 in file "LCD.c"
  6584 ;; Parameters:    Size  Location     Type
  6585 ;;		None
  6586 ;; Auto vars:     Size  Location     Type
  6587 ;;		None
  6588 ;; Return value:  Size  Location     Type
  6589 ;;                  1    wreg      void 
  6590 ;; Registers used:
  6591 ;;		wreg, status,2, status,0, pclath, cstack
  6592 ;; Tracked objects:
  6593 ;;		On entry : 0/0
  6594 ;;		On exit  : 0/0
  6595 ;;		Unchanged: 0/0
  6596 ;; Data sizes:     COMMON   BANK0   BANK1   BANK3   BANK2
  6597 ;;      Params:         0       0       0       0       0
  6598 ;;      Locals:         0       0       0       0       0
  6599 ;;      Temps:          0       0       0       0       0
  6600 ;;      Totals:         0       0       0       0       0
  6601 ;;Total ram usage:        0 bytes
  6602 ;; Hardware stack levels used:    1
  6603 ;; Hardware stack levels required when called:    5
  6604 ;; This function calls:
  6605 ;;		_Lcd_Cmd
  6606 ;; This function is called by:
  6607 ;;		_main
  6608 ;; This function uses a non-reentrant model
  6609 ;;
  6610                           
  6611                           
  6612                           ;psect for function _Lcd_Init
  6613  1631                     _Lcd_Init:
  6614  1631                     l2001:	
  6615                           ;incstack = 0
  6616                           ; Regs used in _Lcd_Init: [wreg+status,2+status,0+pclath+cstack]
  6617                           
  6618                           
  6619                           ;LCD.c: 53:     Lcd_Cmd(0x38);
  6620  1631  3038               	movlw	56
  6621  1632  160A  118A  27BD  160A  118A  	fcall	_Lcd_Cmd
  6622                           
  6623                           ;LCD.c: 54:     Lcd_Cmd(0x0C);
  6624  1637  300C               	movlw	12
  6625  1638  160A  118A  27BD  160A  118A  	fcall	_Lcd_Cmd
  6626                           
  6627                           ;LCD.c: 55:     Lcd_Cmd(0x01);
  6628  163D  3001               	movlw	1
  6629  163E  160A  118A  27BD  160A  118A  	fcall	_Lcd_Cmd
  6630                           
  6631                           ;LCD.c: 56:     Lcd_Cmd(0x06);
  6632  1643  3006               	movlw	6
  6633  1644  160A  118A  27BD  160A  118A  	fcall	_Lcd_Cmd
  6634                           
  6635                           ;LCD.c: 57:     Lcd_Cmd(0x80);
  6636  1649  3080               	movlw	128
  6637  164A  160A  118A  27BD  160A  118A  	fcall	_Lcd_Cmd
  6638  164F                     l142:
  6639  164F  0008               	return
  6640  1650                     __end_of_Lcd_Init:
  6641                           
  6642                           	psect	text19
  6643  17BD                     __ptext19:	
  6644 ;; *************** function _Lcd_Cmd *****************
  6645 ;; Defined at:
  6646 ;;		line 13 in file "LCD.c"
  6647 ;; Parameters:    Size  Location     Type
  6648 ;;  a               1    wreg     unsigned char 
  6649 ;; Auto vars:     Size  Location     Type
  6650 ;;  a               1   20[BANK0 ] unsigned char 
  6651 ;; Return value:  Size  Location     Type
  6652 ;;                  1    wreg      void 
  6653 ;; Registers used:
  6654 ;;		wreg, status,2, status,0
  6655 ;; Tracked objects:
  6656 ;;		On entry : 0/0
  6657 ;;		On exit  : 0/0
  6658 ;;		Unchanged: 0/0
  6659 ;; Data sizes:     COMMON   BANK0   BANK1   BANK3   BANK2
  6660 ;;      Params:         0       0       0       0       0
  6661 ;;      Locals:         0       1       0       0       0
  6662 ;;      Temps:          0       2       0       0       0
  6663 ;;      Totals:         0       3       0       0       0
  6664 ;;Total ram usage:        3 bytes
  6665 ;; Hardware stack levels used:    1
  6666 ;; Hardware stack levels required when called:    4
  6667 ;; This function calls:
  6668 ;;		Nothing
  6669 ;; This function is called by:
  6670 ;;		_main
  6671 ;;		_Lcd_Init
  6672 ;;		_Lcd_Clear
  6673 ;;		_Lcd_Set_Cursor
  6674 ;;		_Lcd_Shift_Right
  6675 ;;		_Lcd_Shift_Left
  6676 ;; This function uses a non-reentrant model
  6677 ;;
  6678                           
  6679                           
  6680                           ;psect for function _Lcd_Cmd
  6681  17BD                     _Lcd_Cmd:
  6682                           
  6683                           ;incstack = 0
  6684                           ; Regs used in _Lcd_Cmd: [wreg+status,2+status,0]
  6685                           ;Lcd_Cmd@a stored from wreg
  6686  17BD  1283               	bcf	3,5	;RP0=0, select bank0
  6687  17BE  1303               	bcf	3,6	;RP1=0, select bank0
  6688  17BF  00B4               	movwf	Lcd_Cmd@a
  6689  17C0                     l1833:
  6690                           
  6691                           ;LCD.c: 14:  PORTD = 0xFF;
  6692  17C0  30FF               	movlw	255
  6693  17C1  0088               	movwf	8	;volatile
  6694  17C2                     l1835:
  6695                           
  6696                           ;LCD.c: 15:     PORTD &= 0x80;
  6697  17C2  3080               	movlw	128
  6698  17C3  00B2               	movwf	??_Lcd_Cmd
  6699  17C4  0832               	movf	??_Lcd_Cmd,w
  6700  17C5  0588               	andwf	8,f	;volatile
  6701  17C6                     l1837:
  6702                           
  6703                           ;LCD.c: 16:     RE0 = 0;
  6704  17C6  1009               	bcf	9,0	;volatile
  6705  17C7                     l1839:
  6706                           
  6707                           ;LCD.c: 17:     RE1 = 1;
  6708  17C7  1489               	bsf	9,1	;volatile
  6709  17C8                     l1841:
  6710                           
  6711                           ;LCD.c: 18:     RE2 = 0;
  6712  17C8  1109               	bcf	9,2	;volatile
  6713  17C9                     l1843:
  6714                           
  6715                           ;LCD.c: 19:     _delay((unsigned long)((30)*(4000000/4000.0)));
  6716  17C9  3027               	movlw	39
  6717  17CA  1283               	bcf	3,5	;RP0=0, select bank0
  6718  17CB  1303               	bcf	3,6	;RP1=0, select bank0
  6719  17CC  00B3               	movwf	??_Lcd_Cmd+1
  6720  17CD  30F4               	movlw	244
  6721  17CE  00B2               	movwf	??_Lcd_Cmd
  6722  17CF                     u4087:
  6723  17CF  0BB2               	decfsz	??_Lcd_Cmd,f
  6724  17D0  2FCF               	goto	u4087
  6725  17D1  0BB3               	decfsz	??_Lcd_Cmd+1,f
  6726  17D2  2FCF               	goto	u4087
  6727  17D3  0000               	nop
  6728  17D4                     l1845:
  6729                           
  6730                           ;LCD.c: 20:     RE2 = 1;
  6731  17D4  1283               	bcf	3,5	;RP0=0, select bank0
  6732  17D5  1303               	bcf	3,6	;RP1=0, select bank0
  6733  17D6  1509               	bsf	9,2	;volatile
  6734                           
  6735                           ;LCD.c: 21:     if (PORTD == 0x80){
  6736  17D7  3080               	movlw	128
  6737  17D8  0608               	xorwf	8,w	;volatile
  6738  17D9  1D03               	btfss	3,2
  6739  17DA  2FDC               	goto	u1841
  6740  17DB  2FDD               	goto	u1840
  6741  17DC                     u1841:
  6742  17DC  2FEC               	goto	l1853
  6743  17DD                     u1840:
  6744  17DD                     l1847:
  6745                           
  6746                           ;LCD.c: 22:     RE2 = 0;
  6747  17DD  1109               	bcf	9,2	;volatile
  6748  17DE                     l1849:
  6749                           
  6750                           ;LCD.c: 23:     _delay((unsigned long)((30)*(4000000/4000.0)));
  6751  17DE  3027               	movlw	39
  6752  17DF  1283               	bcf	3,5	;RP0=0, select bank0
  6753  17E0  1303               	bcf	3,6	;RP1=0, select bank0
  6754  17E1  00B3               	movwf	??_Lcd_Cmd+1
  6755  17E2  30F4               	movlw	244
  6756  17E3  00B2               	movwf	??_Lcd_Cmd
  6757  17E4                     u4097:
  6758  17E4  0BB2               	decfsz	??_Lcd_Cmd,f
  6759  17E5  2FE4               	goto	u4097
  6760  17E6  0BB3               	decfsz	??_Lcd_Cmd+1,f
  6761  17E7  2FE4               	goto	u4097
  6762  17E8  0000               	nop
  6763  17E9                     l1851:
  6764                           
  6765                           ;LCD.c: 24:     RE2 = 1;
  6766  17E9  1283               	bcf	3,5	;RP0=0, select bank0
  6767  17EA  1303               	bcf	3,6	;RP1=0, select bank0
  6768  17EB  1509               	bsf	9,2	;volatile
  6769  17EC                     l1853:	
  6770                           ;LCD.c: 25:     }
  6771                           
  6772                           
  6773                           ;LCD.c: 28:     PORTD = a;
  6774  17EC  0834               	movf	Lcd_Cmd@a,w
  6775  17ED  0088               	movwf	8	;volatile
  6776  17EE                     l1855:
  6777                           
  6778                           ;LCD.c: 29:     RE0 = 0;
  6779  17EE  1009               	bcf	9,0	;volatile
  6780  17EF                     l1857:
  6781                           
  6782                           ;LCD.c: 30:     RE1 = 0;
  6783  17EF  1089               	bcf	9,1	;volatile
  6784  17F0                     l1859:
  6785                           
  6786                           ;LCD.c: 31:     RE2 = 1;
  6787  17F0  1509               	bsf	9,2	;volatile
  6788                           
  6789                           ;LCD.c: 32:     _delay((unsigned long)((30)*(4000000/4000.0)));
  6790  17F1  3027               	movlw	39
  6791  17F2  1283               	bcf	3,5	;RP0=0, select bank0
  6792  17F3  1303               	bcf	3,6	;RP1=0, select bank0
  6793  17F4  00B3               	movwf	??_Lcd_Cmd+1
  6794  17F5  30F4               	movlw	244
  6795  17F6  00B2               	movwf	??_Lcd_Cmd
  6796  17F7                     u4107:
  6797  17F7  0BB2               	decfsz	??_Lcd_Cmd,f
  6798  17F8  2FF7               	goto	u4107
  6799  17F9  0BB3               	decfsz	??_Lcd_Cmd+1,f
  6800  17FA  2FF7               	goto	u4107
  6801  17FB  0000               	nop
  6802  17FC                     l1861:
  6803                           
  6804                           ;LCD.c: 33:     RE2 = 0;
  6805  17FC  1283               	bcf	3,5	;RP0=0, select bank0
  6806  17FD  1303               	bcf	3,6	;RP1=0, select bank0
  6807  17FE  1109               	bcf	9,2	;volatile
  6808  17FF                     l130:
  6809  17FF  0008               	return
  6810  1800                     __end_of_Lcd_Cmd:
  6811                           
  6812                           	psect	text20
  6813  15ED                     __ptext20:	
  6814 ;; *************** function _ADC_Read *****************
  6815 ;; Defined at:
  6816 ;;		line 22 in file "ADC.c"
  6817 ;; Parameters:    Size  Location     Type
  6818 ;;  a               2   18[BANK0 ] int 
  6819 ;;  b               2   20[BANK0 ] int 
  6820 ;; Auto vars:     Size  Location     Type
  6821 ;;		None
  6822 ;; Return value:  Size  Location     Type
  6823 ;;                  1    wreg      unsigned char 
  6824 ;; Registers used:
  6825 ;;		wreg, status,0
  6826 ;; Tracked objects:
  6827 ;;		On entry : 0/0
  6828 ;;		On exit  : 0/0
  6829 ;;		Unchanged: 0/0
  6830 ;; Data sizes:     COMMON   BANK0   BANK1   BANK3   BANK2
  6831 ;;      Params:         0       4       0       0       0
  6832 ;;      Locals:         0       0       0       0       0
  6833 ;;      Temps:          0       0       0       0       0
  6834 ;;      Totals:         0       4       0       0       0
  6835 ;;Total ram usage:        4 bytes
  6836 ;; Hardware stack levels used:    1
  6837 ;; Hardware stack levels required when called:    4
  6838 ;; This function calls:
  6839 ;;		Nothing
  6840 ;; This function is called by:
  6841 ;;		_main
  6842 ;; This function uses a non-reentrant model
  6843 ;;
  6844                           
  6845                           
  6846                           ;psect for function _ADC_Read
  6847  15ED                     _ADC_Read:
  6848  15ED                     l2035:	
  6849                           ;incstack = 0
  6850                           ; Regs used in _ADC_Read: [wreg+status,0]
  6851                           
  6852                           
  6853                           ;ADC.c: 23:     ADCON0bits.CHS0 = a;
  6854  15ED  1283               	bcf	3,5	;RP0=0, select bank0
  6855  15EE  1303               	bcf	3,6	;RP1=0, select bank0
  6856  15EF  0C32               	rrf	ADC_Read@a,w
  6857  15F0  1C03               	skipc
  6858  15F1  111F               	bcf	31,2	;volatile
  6859  15F2  1803               	skipnc
  6860  15F3  151F               	bsf	31,2	;volatile
  6861                           
  6862                           ;ADC.c: 24:     ADCON0bits.CHS1 = b;
  6863  15F4  0C34               	rrf	ADC_Read@b,w
  6864  15F5  1C03               	skipc
  6865  15F6  119F               	bcf	31,3	;volatile
  6866  15F7  1803               	skipnc
  6867  15F8  159F               	bsf	31,3	;volatile
  6868  15F9                     l2037:
  6869                           
  6870                           ;ADC.c: 25:     ADCON0bits.CHS2 = 0;
  6871  15F9  121F               	bcf	31,4	;volatile
  6872  15FA                     l2039:
  6873                           
  6874                           ;ADC.c: 26:     ADCON0bits.CHS3 = 0;
  6875  15FA  129F               	bcf	31,5	;volatile
  6876  15FB                     l2041:
  6877                           
  6878                           ;ADC.c: 27:     ADCON0bits.ADON = 1;
  6879  15FB  141F               	bsf	31,0	;volatile
  6880  15FC                     l2043:
  6881                           
  6882                           ;ADC.c: 28:     ADCON0bits.GO = 1;
  6883  15FC  149F               	bsf	31,1	;volatile
  6884  15FD                     l2045:
  6885                           
  6886                           ;ADC.c: 29:     PIR1bits.ADIF = 0;
  6887  15FD  130C               	bcf	12,6	;volatile
  6888  15FE                     l2047:
  6889                           
  6890                           ;ADC.c: 30:     return(ADRESH);
  6891  15FE  081E               	movf	30,w	;volatile
  6892  15FF                     l180:
  6893  15FF  0008               	return
  6894  1600                     __end_of_ADC_Read:
  6895                           
  6896                           	psect	text21
  6897  15E2                     __ptext21:	
  6898 ;; *************** function _ADC_Init *****************
  6899 ;; Defined at:
  6900 ;;		line 13 in file "ADC.c"
  6901 ;; Parameters:    Size  Location     Type
  6902 ;;		None
  6903 ;; Auto vars:     Size  Location     Type
  6904 ;;		None
  6905 ;; Return value:  Size  Location     Type
  6906 ;;                  1    wreg      void 
  6907 ;; Registers used:
  6908 ;;		None
  6909 ;; Tracked objects:
  6910 ;;		On entry : 0/0
  6911 ;;		On exit  : 0/0
  6912 ;;		Unchanged: 0/0
  6913 ;; Data sizes:     COMMON   BANK0   BANK1   BANK3   BANK2
  6914 ;;      Params:         0       0       0       0       0
  6915 ;;      Locals:         0       0       0       0       0
  6916 ;;      Temps:          0       0       0       0       0
  6917 ;;      Totals:         0       0       0       0       0
  6918 ;;Total ram usage:        0 bytes
  6919 ;; Hardware stack levels used:    1
  6920 ;; Hardware stack levels required when called:    4
  6921 ;; This function calls:
  6922 ;;		Nothing
  6923 ;; This function is called by:
  6924 ;;		_main
  6925 ;; This function uses a non-reentrant model
  6926 ;;
  6927                           
  6928                           
  6929                           ;psect for function _ADC_Init
  6930  15E2                     _ADC_Init:
  6931  15E2                     l2025:	
  6932                           ;incstack = 0
  6933                           ; Regs used in _ADC_Init: []
  6934                           
  6935                           
  6936                           ;ADC.c: 14:     ADCON0bits.ADCS0 = 1;
  6937  15E2  1283               	bcf	3,5	;RP0=0, select bank0
  6938  15E3  1303               	bcf	3,6	;RP1=0, select bank0
  6939  15E4  171F               	bsf	31,6	;volatile
  6940                           
  6941                           ;ADC.c: 15:     ADCON0bits.ADCS1 = 0;
  6942  15E5  139F               	bcf	31,7	;volatile
  6943                           
  6944                           ;ADC.c: 16:     ADCON0bits.ADON = 1;
  6945  15E6  141F               	bsf	31,0	;volatile
  6946                           
  6947                           ;ADC.c: 17:     ADCON1bits.ADFM = 0;
  6948  15E7  1683               	bsf	3,5	;RP0=1, select bank1
  6949  15E8  1303               	bcf	3,6	;RP1=0, select bank1
  6950  15E9  139F               	bcf	31,7	;volatile
  6951                           
  6952                           ;ADC.c: 18:     ADCON1bits.VCFG0 = 0;
  6953  15EA  121F               	bcf	31,4	;volatile
  6954                           
  6955                           ;ADC.c: 19:     ADCON1bits.VCFG1 = 0;
  6956  15EB  129F               	bcf	31,5	;volatile
  6957  15EC                     l177:
  6958  15EC  0008               	return
  6959  15ED                     __end_of_ADC_Init:
  6960                           
  6961                           	psect	text22
  6962  07C8                     __ptext22:	
  6963 ;; *************** function _ISR *****************
  6964 ;; Defined at:
  6965 ;;		line 87 in file "LAB3.c"
  6966 ;; Parameters:    Size  Location     Type
  6967 ;;		None
  6968 ;; Auto vars:     Size  Location     Type
  6969 ;;		None
  6970 ;; Return value:  Size  Location     Type
  6971 ;;                  1    wreg      void 
  6972 ;; Registers used:
  6973 ;;		wreg, fsr0l, fsr0h, status,2, status,0, pclath, cstack
  6974 ;; Tracked objects:
  6975 ;;		On entry : 0/0
  6976 ;;		On exit  : 0/0
  6977 ;;		Unchanged: 0/0
  6978 ;; Data sizes:     COMMON   BANK0   BANK1   BANK3   BANK2
  6979 ;;      Params:         0       0       0       0       0
  6980 ;;      Locals:         0       0       0       0       0
  6981 ;;      Temps:          0       5       0       0       0
  6982 ;;      Totals:         0       5       0       0       0
  6983 ;;Total ram usage:        5 bytes
  6984 ;; Hardware stack levels used:    1
  6985 ;; Hardware stack levels required when called:    3
  6986 ;; This function calls:
  6987 ;;		_CONTADOR
  6988 ;;		i1_itoa
  6989 ;; This function is called by:
  6990 ;;		Interrupt level 1
  6991 ;; This function uses a non-reentrant model
  6992 ;;
  6993                           
  6994                           
  6995                           ;psect for function _ISR
  6996  07C8                     _ISR:
  6997  07C8                     i1l3045:
  6998                           
  6999                           ;LAB3.c: 88:     if (RCIF==1){
  7000  07C8  1E8C               	btfss	12,5	;volatile
  7001  07C9  2FCB               	goto	u402_21
  7002  07CA  2FCC               	goto	u402_20
  7003  07CB                     u402_21:
  7004  07CB  2FF2               	goto	i1l104
  7005  07CC                     u402_20:
  7006  07CC                     i1l3047:
  7007                           
  7008                           ;LAB3.c: 89:         O = CONTADOR ((int)RCREG);
  7009  07CC  081A               	movf	26,w	;volatile
  7010  07CD  00AD               	movwf	??_ISR
  7011  07CE  01AE               	clrf	??_ISR+1
  7012  07CF  082D               	movf	??_ISR,w
  7013  07D0  00F0               	movwf	CONTADOR@n
  7014  07D1  082E               	movf	??_ISR+1,w
  7015  07D2  00F1               	movwf	CONTADOR@n+1
  7016  07D3  160A  118A  25D7  120A  118A  	fcall	_CONTADOR
  7017  07D8  0871               	movf	?_CONTADOR+1,w
  7018  07D9  1283               	bcf	3,5	;RP0=0, select bank0
  7019  07DA  1303               	bcf	3,6	;RP1=0, select bank0
  7020  07DB  00DA               	movwf	_O+1
  7021  07DC  0870               	movf	?_CONTADOR,w
  7022  07DD  00D9               	movwf	_O
  7023  07DE                     i1l3049:
  7024                           
  7025                           ;LAB3.c: 90:         itoa(COMPARE,O,10);
  7026  07DE  30A1               	movlw	(low (_COMPARE| (0+256)))& (0+255)
  7027  07DF  00A4               	movwf	i1itoa@buf
  7028  07E0  3001               	movlw	1
  7029  07E1  00A5               	movwf	i1itoa@buf+1
  7030  07E2  085A               	movf	_O+1,w
  7031  07E3  00A7               	movwf	i1itoa@val+1
  7032  07E4  0859               	movf	_O,w
  7033  07E5  00A6               	movwf	i1itoa@val
  7034  07E6  300A               	movlw	10
  7035  07E7  00A8               	movwf	i1itoa@base
  7036  07E8  3000               	movlw	0
  7037  07E9  00A9               	movwf	i1itoa@base+1
  7038  07EA  160A  118A  26EF  120A  118A  	fcall	i1_itoa
  7039  07EF                     i1l3051:
  7040                           
  7041                           ;LAB3.c: 91:         RCIF=0;
  7042  07EF  1283               	bcf	3,5	;RP0=0, select bank0
  7043  07F0  1303               	bcf	3,6	;RP1=0, select bank0
  7044  07F1  128C               	bcf	12,5	;volatile
  7045  07F2                     i1l104:
  7046  07F2  0831               	movf	??_ISR+4,w
  7047  07F3  008A               	movwf	10
  7048  07F4  0830               	movf	??_ISR+3,w
  7049  07F5  0084               	movwf	4
  7050  07F6  0E2F               	swapf	??_ISR+2,w
  7051  07F7  0083               	movwf	3
  7052  07F8  0EFE               	swapf	btemp,f
  7053  07F9  0E7E               	swapf	btemp,w
  7054  07FA  0009               	retfie
  7055  07FB                     __end_of_ISR:
  7056                           
  7057                           	psect	intentry
  7058  0004                     __pintentry:	
  7059                           ;incstack = 0
  7060                           ; Regs used in _ISR: [wreg-fsr0h+status,2+status,0+pclath+cstack]
  7061                           
  7062  0004                     interrupt_function:
  7063  007E                     saved_w	set	btemp
  7064  0004  00FE               	movwf	btemp
  7065  0005  0E03               	swapf	3,w
  7066  0006  1283               	bcf	3,5	;RP0=0, select bank0
  7067  0007  1303               	bcf	3,6	;RP1=0, select bank0
  7068  0008  00AF               	movwf	??_ISR+2
  7069  0009  0804               	movf	4,w
  7070  000A  00B0               	movwf	??_ISR+3
  7071  000B  080A               	movf	10,w
  7072  000C  00B1               	movwf	??_ISR+4
  7073  000D  120A  118A  2FC8   	ljmp	_ISR
  7074                           
  7075                           	psect	text23
  7076  16EF                     __ptext23:	
  7077 ;; *************** function i1_itoa *****************
  7078 ;; Defined at:
  7079 ;;		line 4 in file "C:\Program Files\Microchip\xc8\v2.31\pic\sources\c90\common\itoa.c"
  7080 ;; Parameters:    Size  Location     Type
  7081 ;;  buf             2    4[BANK0 ] PTR unsigned char 
  7082 ;;		 -> POT2SC(5), POT2SB(5), POT2SA(5), POT1SC(5), 
  7083 ;;		 -> POT1SB(5), POT1SA(5), COMPARE(5), 
  7084 ;;  val             2    6[BANK0 ] int 
  7085 ;;  base            2    8[BANK0 ] int 
  7086 ;; Auto vars:     Size  Location     Type
  7087 ;;  cp              2    0        PTR unsigned char 
  7088 ;;		 -> POT2SC(5), POT2SB(5), POT2SA(5), POT1SC(5), 
  7089 ;;		 -> POT1SB(5), POT1SA(5), COMPARE(5), 
  7090 ;; Return value:  Size  Location     Type
  7091 ;;                  1    wreg      PTR unsigned char 
  7092 ;; Registers used:
  7093 ;;		wreg, fsr0l, fsr0h, status,2, status,0, pclath, cstack
  7094 ;; Tracked objects:
  7095 ;;		On entry : 0/0
  7096 ;;		On exit  : 0/0
  7097 ;;		Unchanged: 0/0
  7098 ;; Data sizes:     COMMON   BANK0   BANK1   BANK3   BANK2
  7099 ;;      Params:         0       6       0       0       0
  7100 ;;      Locals:         0       2       0       0       0
  7101 ;;      Temps:          0       1       0       0       0
  7102 ;;      Totals:         0       9       0       0       0
  7103 ;;Total ram usage:        9 bytes
  7104 ;; Hardware stack levels used:    1
  7105 ;; Hardware stack levels required when called:    2
  7106 ;; This function calls:
  7107 ;;		i1_utoa
  7108 ;; This function is called by:
  7109 ;;		_ISR
  7110 ;; This function uses a non-reentrant model
  7111 ;;
  7112                           
  7113                           
  7114                           ;psect for function i1_itoa
  7115  16EF                     i1_itoa:
  7116  16EF                     i1l3031:	
  7117                           ;incstack = 0
  7118                           ; Regs used in i1_itoa: [wreg-fsr0h+status,2+status,0+pclath+cstack]
  7119                           
  7120  16EF                     i1l3033:
  7121  16EF  1283               	bcf	3,5	;RP0=0, select bank0
  7122  16F0  1303               	bcf	3,6	;RP1=0, select bank0
  7123  16F1  1FA7               	btfss	i1itoa@val+1,7
  7124  16F2  2EF4               	goto	u401_21
  7125  16F3  2EF5               	goto	u401_20
  7126  16F4                     u401_21:
  7127  16F4  2F09               	goto	i1l3041
  7128  16F5                     u401_20:
  7129  16F5                     i1l3035:
  7130  16F5  302D               	movlw	45
  7131  16F6  00AA               	movwf	??i1_itoa
  7132  16F7  0824               	movf	i1itoa@buf,w
  7133  16F8  0084               	movwf	4
  7134  16F9  1783               	bsf	3,7
  7135  16FA  1C25               	btfss	i1itoa@buf+1,0
  7136  16FB  1383               	bcf	3,7
  7137  16FC  082A               	movf	??i1_itoa,w
  7138  16FD  0080               	movwf	0
  7139  16FE                     i1l3037:
  7140  16FE  3001               	movlw	1
  7141  16FF  07A4               	addwf	i1itoa@buf,f
  7142  1700  1803               	skipnc
  7143  1701  0AA5               	incf	i1itoa@buf+1,f
  7144  1702  3000               	movlw	0
  7145  1703  07A5               	addwf	i1itoa@buf+1,f
  7146  1704                     i1l3039:
  7147  1704  09A6               	comf	i1itoa@val,f
  7148  1705  09A7               	comf	i1itoa@val+1,f
  7149  1706  0AA6               	incf	i1itoa@val,f
  7150  1707  1903               	skipnz
  7151  1708  0AA7               	incf	i1itoa@val+1,f
  7152  1709                     i1l3041:
  7153  1709  0824               	movf	i1itoa@buf,w
  7154  170A  00F8               	movwf	i1utoa@buf
  7155  170B  0825               	movf	i1itoa@buf+1,w
  7156  170C  00F9               	movwf	i1utoa@buf+1
  7157  170D  0827               	movf	i1itoa@val+1,w
  7158  170E  00FB               	movwf	i1utoa@val+1
  7159  170F  0826               	movf	i1itoa@val,w
  7160  1710  00FA               	movwf	i1utoa@val
  7161  1711  0829               	movf	i1itoa@base+1,w
  7162  1712  00FD               	movwf	i1utoa@base+1
  7163  1713  0828               	movf	i1itoa@base,w
  7164  1714  00FC               	movwf	i1utoa@base
  7165  1715  120A  118A  26CB  160A  118A  	fcall	i1_utoa
  7166  171A                     i1l756:
  7167  171A  0008               	return
  7168  171B                     __end_ofi1_itoa:
  7169                           
  7170                           	psect	text24
  7171  06CB                     __ptext24:	
  7172 ;; *************** function i1_utoa *****************
  7173 ;; Defined at:
  7174 ;;		line 17 in file "C:\Program Files\Microchip\xc8\v2.31\pic\sources\c90\common\itoa.c"
  7175 ;; Parameters:    Size  Location     Type
  7176 ;;  buf             2    8[COMMON] PTR unsigned char 
  7177 ;;		 -> POT2SC(5), POT2SB(5), POT2SA(5), POT1SC(5), 
  7178 ;;		 -> POT1SB(5), POT1SA(5), COMPARE(5), 
  7179 ;;  val             2   10[COMMON] unsigned int 
  7180 ;;  base            2   12[COMMON] int 
  7181 ;; Auto vars:     Size  Location     Type
  7182 ;;  v               2    1[BANK0 ] unsigned int 
  7183 ;;  c               1    3[BANK0 ] unsigned char 
  7184 ;; Return value:  Size  Location     Type
  7185 ;;                  1    wreg      PTR unsigned char 
  7186 ;; Registers used:
  7187 ;;		wreg, fsr0l, fsr0h, status,2, status,0, pclath, cstack
  7188 ;; Tracked objects:
  7189 ;;		On entry : 0/0
  7190 ;;		On exit  : 0/0
  7191 ;;		Unchanged: 0/0
  7192 ;; Data sizes:     COMMON   BANK0   BANK1   BANK3   BANK2
  7193 ;;      Params:         6       0       0       0       0
  7194 ;;      Locals:         0       3       0       0       0
  7195 ;;      Temps:          0       1       0       0       0
  7196 ;;      Totals:         6       4       0       0       0
  7197 ;;Total ram usage:       10 bytes
  7198 ;; Hardware stack levels used:    1
  7199 ;; Hardware stack levels required when called:    1
  7200 ;; This function calls:
  7201 ;;		i1___lwdiv
  7202 ;;		i1___lwmod
  7203 ;; This function is called by:
  7204 ;;		i1_itoa
  7205 ;; This function uses a non-reentrant model
  7206 ;;
  7207                           
  7208                           
  7209                           ;psect for function i1_utoa
  7210  06CB                     i1_utoa:
  7211  06CB                     i1l2669:	
  7212                           ;incstack = 0
  7213                           ; Regs used in i1_utoa: [wreg-fsr0h+status,2+status,0+pclath+cstack]
  7214                           
  7215  06CB  087B               	movf	i1utoa@val+1,w
  7216  06CC  1283               	bcf	3,5	;RP0=0, select bank0
  7217  06CD  1303               	bcf	3,6	;RP1=0, select bank0
  7218  06CE  00A2               	movwf	i1utoa@v+1
  7219  06CF  087A               	movf	i1utoa@val,w
  7220  06D0  00A1               	movwf	i1utoa@v
  7221  06D1                     i1l2671:
  7222  06D1  087D               	movf	i1utoa@base+1,w
  7223  06D2  00F1               	movwf	i1___lwdiv@divisor+1
  7224  06D3  087C               	movf	i1utoa@base,w
  7225  06D4  00F0               	movwf	i1___lwdiv@divisor
  7226  06D5  0822               	movf	i1utoa@v+1,w
  7227  06D6  00F3               	movwf	i1___lwdiv@dividend+1
  7228  06D7  0821               	movf	i1utoa@v,w
  7229  06D8  00F2               	movwf	i1___lwdiv@dividend
  7230  06D9  120A  158A  204C  120A  118A  	fcall	i1___lwdiv
  7231  06DE  0871               	movf	?i1___lwdiv+1,w
  7232  06DF  1283               	bcf	3,5	;RP0=0, select bank0
  7233  06E0  1303               	bcf	3,6	;RP1=0, select bank0
  7234  06E1  00A2               	movwf	i1utoa@v+1
  7235  06E2  0870               	movf	?i1___lwdiv,w
  7236  06E3  00A1               	movwf	i1utoa@v
  7237  06E4                     i1l2673:
  7238  06E4  3001               	movlw	1
  7239  06E5  07F8               	addwf	i1utoa@buf,f
  7240  06E6  1803               	skipnc
  7241  06E7  0AF9               	incf	i1utoa@buf+1,f
  7242  06E8  3000               	movlw	0
  7243  06E9  07F9               	addwf	i1utoa@buf+1,f
  7244  06EA                     i1l2675:
  7245  06EA  0821               	movf	i1utoa@v,w
  7246  06EB  0422               	iorwf	i1utoa@v+1,w
  7247  06EC  1D03               	btfss	3,2
  7248  06ED  2EEF               	goto	u320_21
  7249  06EE  2EF0               	goto	u320_20
  7250  06EF                     u320_21:
  7251  06EF  2ED1               	goto	i1l2671
  7252  06F0                     u320_20:
  7253  06F0                     i1l2677:
  7254  06F0  0878               	movf	i1utoa@buf,w
  7255  06F1  0084               	movwf	4
  7256  06F2  1783               	bsf	3,7
  7257  06F3  1C79               	btfss	i1utoa@buf+1,0
  7258  06F4  1383               	bcf	3,7
  7259  06F5  0180               	clrf	0
  7260  06F6                     i1l2679:
  7261  06F6  3001               	movlw	1
  7262  06F7  02F8               	subwf	i1utoa@buf,f
  7263  06F8  3000               	movlw	0
  7264  06F9  1C03               	skipc
  7265  06FA  03F9               	decf	i1utoa@buf+1,f
  7266  06FB  02F9               	subwf	i1utoa@buf+1,f
  7267  06FC                     i1l2681:
  7268  06FC  087D               	movf	i1utoa@base+1,w
  7269  06FD  00F1               	movwf	i1___lwmod@divisor+1
  7270  06FE  087C               	movf	i1utoa@base,w
  7271  06FF  00F0               	movwf	i1___lwmod@divisor
  7272  0700  087B               	movf	i1utoa@val+1,w
  7273  0701  00F3               	movwf	i1___lwmod@dividend+1
  7274  0702  087A               	movf	i1utoa@val,w
  7275  0703  00F2               	movwf	i1___lwmod@dividend
  7276  0704  160A  118A  2747  120A  118A  	fcall	i1___lwmod
  7277  0709  0870               	movf	?i1___lwmod,w
  7278  070A  1283               	bcf	3,5	;RP0=0, select bank0
  7279  070B  1303               	bcf	3,6	;RP1=0, select bank0
  7280  070C  00A0               	movwf	??i1_utoa
  7281  070D  0820               	movf	??i1_utoa,w
  7282  070E  00A3               	movwf	i1utoa@c
  7283  070F                     i1l2683:
  7284  070F  087D               	movf	i1utoa@base+1,w
  7285  0710  00F1               	movwf	i1___lwdiv@divisor+1
  7286  0711  087C               	movf	i1utoa@base,w
  7287  0712  00F0               	movwf	i1___lwdiv@divisor
  7288  0713  087B               	movf	i1utoa@val+1,w
  7289  0714  00F3               	movwf	i1___lwdiv@dividend+1
  7290  0715  087A               	movf	i1utoa@val,w
  7291  0716  00F2               	movwf	i1___lwdiv@dividend
  7292  0717  120A  158A  204C  120A  118A  	fcall	i1___lwdiv
  7293  071C  0871               	movf	?i1___lwdiv+1,w
  7294  071D  00FB               	movwf	i1utoa@val+1
  7295  071E  0870               	movf	?i1___lwdiv,w
  7296  071F  00FA               	movwf	i1utoa@val
  7297  0720                     i1l2685:
  7298  0720  300A               	movlw	10
  7299  0721  1283               	bcf	3,5	;RP0=0, select bank0
  7300  0722  1303               	bcf	3,6	;RP1=0, select bank0
  7301  0723  0223               	subwf	i1utoa@c,w
  7302  0724  1C03               	skipc
  7303  0725  2F27               	goto	u321_21
  7304  0726  2F28               	goto	u321_20
  7305  0727                     u321_21:
  7306  0727  2F2C               	goto	i1l762
  7307  0728                     u321_20:
  7308  0728                     i1l2687:
  7309  0728  3007               	movlw	7
  7310  0729  00A0               	movwf	??i1_utoa
  7311  072A  0820               	movf	??i1_utoa,w
  7312  072B  07A3               	addwf	i1utoa@c,f
  7313  072C                     i1l762:
  7314  072C  3030               	movlw	48
  7315  072D  00A0               	movwf	??i1_utoa
  7316  072E  0820               	movf	??i1_utoa,w
  7317  072F  07A3               	addwf	i1utoa@c,f
  7318  0730                     i1l2689:
  7319  0730  0823               	movf	i1utoa@c,w
  7320  0731  00A0               	movwf	??i1_utoa
  7321  0732  0878               	movf	i1utoa@buf,w
  7322  0733  0084               	movwf	4
  7323  0734  1783               	bsf	3,7
  7324  0735  1C79               	btfss	i1utoa@buf+1,0
  7325  0736  1383               	bcf	3,7
  7326  0737  0820               	movf	??i1_utoa,w
  7327  0738  0080               	movwf	0
  7328  0739                     i1l2691:
  7329  0739  3001               	movlw	1
  7330  073A  02F8               	subwf	i1utoa@buf,f
  7331  073B  3000               	movlw	0
  7332  073C  1C03               	skipc
  7333  073D  03F9               	decf	i1utoa@buf+1,f
  7334  073E  02F9               	subwf	i1utoa@buf+1,f
  7335  073F                     i1l2693:
  7336  073F  087A               	movf	i1utoa@val,w
  7337  0740  047B               	iorwf	i1utoa@val+1,w
  7338  0741  1D03               	btfss	3,2
  7339  0742  2F44               	goto	u322_21
  7340  0743  2F45               	goto	u322_20
  7341  0744                     u322_21:
  7342  0744  2EFC               	goto	i1l2681
  7343  0745                     u322_20:
  7344  0745                     i1l2695:
  7345                           
  7346                           ;	Return value of i1_utoa is never used
  7347  0745  3001               	movlw	1
  7348  0746  07F8               	addwf	i1utoa@buf,f
  7349  0747  1803               	skipnc
  7350  0748  0AF9               	incf	i1utoa@buf+1,f
  7351  0749  3000               	movlw	0
  7352  074A  07F9               	addwf	i1utoa@buf+1,f
  7353  074B                     i1l764:
  7354  074B  0008               	return
  7355  074C                     __end_ofi1_utoa:
  7356                           
  7357                           	psect	text25
  7358  1747                     __ptext25:	
  7359 ;; *************** function i1___lwmod *****************
  7360 ;; Defined at:
  7361 ;;		line 5 in file "C:\Program Files\Microchip\xc8\v2.31\pic\sources\c90\common\lwmod.c"
  7362 ;; Parameters:    Size  Location     Type
  7363 ;;  divisor         2    0[COMMON] unsigned int 
  7364 ;;  dividend        2    2[COMMON] unsigned int 
  7365 ;; Auto vars:     Size  Location     Type
  7366 ;;  counter         1    5[COMMON] unsigned char 
  7367 ;; Return value:  Size  Location     Type
  7368 ;;                  2    0[COMMON] unsigned int 
  7369 ;; Registers used:
  7370 ;;		wreg, status,2, status,0
  7371 ;; Tracked objects:
  7372 ;;		On entry : 0/0
  7373 ;;		On exit  : 0/0
  7374 ;;		Unchanged: 0/0
  7375 ;; Data sizes:     COMMON   BANK0   BANK1   BANK3   BANK2
  7376 ;;      Params:         4       0       0       0       0
  7377 ;;      Locals:         1       0       0       0       0
  7378 ;;      Temps:          1       0       0       0       0
  7379 ;;      Totals:         6       0       0       0       0
  7380 ;;Total ram usage:        6 bytes
  7381 ;; Hardware stack levels used:    1
  7382 ;; This function calls:
  7383 ;;		Nothing
  7384 ;; This function is called by:
  7385 ;;		i1_utoa
  7386 ;; This function uses a non-reentrant model
  7387 ;;
  7388                           
  7389                           
  7390                           ;psect for function i1___lwmod
  7391  1747                     i1___lwmod:
  7392  1747                     i1l1811:	
  7393                           ;incstack = 0
  7394                           ; Regs used in i1___lwmod: [wreg+status,2+status,0]
  7395                           
  7396  1747  0870               	movf	i1___lwmod@divisor,w
  7397  1748  0471               	iorwf	i1___lwmod@divisor+1,w
  7398  1749  1903               	btfsc	3,2
  7399  174A  2F4C               	goto	u178_21
  7400  174B  2F4D               	goto	u178_20
  7401  174C                     u178_21:
  7402  174C  2F7C               	goto	i1l1829
  7403  174D                     u178_20:
  7404  174D                     i1l1813:
  7405  174D  01F5               	clrf	i1___lwmod@counter
  7406  174E  0AF5               	incf	i1___lwmod@counter,f
  7407  174F  2F5B               	goto	i1l1819
  7408  1750                     i1l1815:
  7409  1750  3001               	movlw	1
  7410  1751                     u179_25:
  7411  1751  1003               	clrc
  7412  1752  0DF0               	rlf	i1___lwmod@divisor,f
  7413  1753  0DF1               	rlf	i1___lwmod@divisor+1,f
  7414  1754  3EFF               	addlw	-1
  7415  1755  1D03               	skipz
  7416  1756  2F51               	goto	u179_25
  7417  1757                     i1l1817:
  7418  1757  3001               	movlw	1
  7419  1758  00F4               	movwf	??i1___lwmod
  7420  1759  0874               	movf	??i1___lwmod,w
  7421  175A  07F5               	addwf	i1___lwmod@counter,f
  7422  175B                     i1l1819:
  7423  175B  1FF1               	btfss	i1___lwmod@divisor+1,7
  7424  175C  2F5E               	goto	u180_21
  7425  175D  2F5F               	goto	u180_20
  7426  175E                     u180_21:
  7427  175E  2F50               	goto	i1l1815
  7428  175F                     u180_20:
  7429  175F                     i1l1821:
  7430  175F  0871               	movf	i1___lwmod@divisor+1,w
  7431  1760  0273               	subwf	i1___lwmod@dividend+1,w
  7432  1761  1D03               	skipz
  7433  1762  2F65               	goto	u181_25
  7434  1763  0870               	movf	i1___lwmod@divisor,w
  7435  1764  0272               	subwf	i1___lwmod@dividend,w
  7436  1765                     u181_25:
  7437  1765  1C03               	skipc
  7438  1766  2F68               	goto	u181_21
  7439  1767  2F69               	goto	u181_20
  7440  1768                     u181_21:
  7441  1768  2F6F               	goto	i1l1825
  7442  1769                     u181_20:
  7443  1769                     i1l1823:
  7444  1769  0870               	movf	i1___lwmod@divisor,w
  7445  176A  02F2               	subwf	i1___lwmod@dividend,f
  7446  176B  0871               	movf	i1___lwmod@divisor+1,w
  7447  176C  1C03               	skipc
  7448  176D  03F3               	decf	i1___lwmod@dividend+1,f
  7449  176E  02F3               	subwf	i1___lwmod@dividend+1,f
  7450  176F                     i1l1825:
  7451  176F  3001               	movlw	1
  7452  1770                     u182_25:
  7453  1770  1003               	clrc
  7454  1771  0CF1               	rrf	i1___lwmod@divisor+1,f
  7455  1772  0CF0               	rrf	i1___lwmod@divisor,f
  7456  1773  3EFF               	addlw	-1
  7457  1774  1D03               	skipz
  7458  1775  2F70               	goto	u182_25
  7459  1776                     i1l1827:
  7460  1776  3001               	movlw	1
  7461  1777  02F5               	subwf	i1___lwmod@counter,f
  7462  1778  1D03               	btfss	3,2
  7463  1779  2F7B               	goto	u183_21
  7464  177A  2F7C               	goto	u183_20
  7465  177B                     u183_21:
  7466  177B  2F5F               	goto	i1l1821
  7467  177C                     u183_20:
  7468  177C                     i1l1829:
  7469  177C  0873               	movf	i1___lwmod@dividend+1,w
  7470  177D  00F1               	movwf	?i1___lwmod+1
  7471  177E  0872               	movf	i1___lwmod@dividend,w
  7472  177F  00F0               	movwf	?i1___lwmod
  7473  1780                     i1l584:
  7474  1780  0008               	return
  7475  1781                     __end_ofi1___lwmod:
  7476                           
  7477                           	psect	text26
  7478  084C                     __ptext26:	
  7479 ;; *************** function i1___lwdiv *****************
  7480 ;; Defined at:
  7481 ;;		line 5 in file "C:\Program Files\Microchip\xc8\v2.31\pic\sources\c90\common\lwdiv.c"
  7482 ;; Parameters:    Size  Location     Type
  7483 ;;  divisor         2    0[COMMON] unsigned int 
  7484 ;;  dividend        2    2[COMMON] unsigned int 
  7485 ;; Auto vars:     Size  Location     Type
  7486 ;;  quotient        2    5[COMMON] unsigned int 
  7487 ;;  counter         1    7[COMMON] unsigned char 
  7488 ;; Return value:  Size  Location     Type
  7489 ;;                  2    0[COMMON] unsigned int 
  7490 ;; Registers used:
  7491 ;;		wreg, status,2, status,0
  7492 ;; Tracked objects:
  7493 ;;		On entry : 0/0
  7494 ;;		On exit  : 0/0
  7495 ;;		Unchanged: 0/0
  7496 ;; Data sizes:     COMMON   BANK0   BANK1   BANK3   BANK2
  7497 ;;      Params:         4       0       0       0       0
  7498 ;;      Locals:         3       0       0       0       0
  7499 ;;      Temps:          1       0       0       0       0
  7500 ;;      Totals:         8       0       0       0       0
  7501 ;;Total ram usage:        8 bytes
  7502 ;; Hardware stack levels used:    1
  7503 ;; This function calls:
  7504 ;;		Nothing
  7505 ;; This function is called by:
  7506 ;;		i1_utoa
  7507 ;; This function uses a non-reentrant model
  7508 ;;
  7509                           
  7510                           
  7511                           ;psect for function i1___lwdiv
  7512  084C                     i1___lwdiv:
  7513  084C                     i1l1785:	
  7514                           ;incstack = 0
  7515                           ; Regs used in i1___lwdiv: [wreg+status,2+status,0]
  7516                           
  7517  084C  01F5               	clrf	i1___lwdiv@quotient
  7518  084D  01F6               	clrf	i1___lwdiv@quotient+1
  7519  084E                     i1l1787:
  7520  084E  0870               	movf	i1___lwdiv@divisor,w
  7521  084F  0471               	iorwf	i1___lwdiv@divisor+1,w
  7522  0850  1903               	btfsc	3,2
  7523  0851  2853               	goto	u171_21
  7524  0852  2854               	goto	u171_20
  7525  0853                     u171_21:
  7526  0853  288B               	goto	i1l1807
  7527  0854                     u171_20:
  7528  0854                     i1l1789:
  7529  0854  01F7               	clrf	i1___lwdiv@counter
  7530  0855  0AF7               	incf	i1___lwdiv@counter,f
  7531  0856  2862               	goto	i1l1795
  7532  0857                     i1l1791:
  7533  0857  3001               	movlw	1
  7534  0858                     u172_25:
  7535  0858  1003               	clrc
  7536  0859  0DF0               	rlf	i1___lwdiv@divisor,f
  7537  085A  0DF1               	rlf	i1___lwdiv@divisor+1,f
  7538  085B  3EFF               	addlw	-1
  7539  085C  1D03               	skipz
  7540  085D  2858               	goto	u172_25
  7541  085E                     i1l1793:
  7542  085E  3001               	movlw	1
  7543  085F  00F4               	movwf	??i1___lwdiv
  7544  0860  0874               	movf	??i1___lwdiv,w
  7545  0861  07F7               	addwf	i1___lwdiv@counter,f
  7546  0862                     i1l1795:
  7547  0862  1FF1               	btfss	i1___lwdiv@divisor+1,7
  7548  0863  2865               	goto	u173_21
  7549  0864  2866               	goto	u173_20
  7550  0865                     u173_21:
  7551  0865  2857               	goto	i1l1791
  7552  0866                     u173_20:
  7553  0866                     i1l1797:
  7554  0866  3001               	movlw	1
  7555  0867                     u174_25:
  7556  0867  1003               	clrc
  7557  0868  0DF5               	rlf	i1___lwdiv@quotient,f
  7558  0869  0DF6               	rlf	i1___lwdiv@quotient+1,f
  7559  086A  3EFF               	addlw	-1
  7560  086B  1D03               	skipz
  7561  086C  2867               	goto	u174_25
  7562  086D  0871               	movf	i1___lwdiv@divisor+1,w
  7563  086E  0273               	subwf	i1___lwdiv@dividend+1,w
  7564  086F  1D03               	skipz
  7565  0870  2873               	goto	u175_25
  7566  0871  0870               	movf	i1___lwdiv@divisor,w
  7567  0872  0272               	subwf	i1___lwdiv@dividend,w
  7568  0873                     u175_25:
  7569  0873  1C03               	skipc
  7570  0874  2876               	goto	u175_21
  7571  0875  2877               	goto	u175_20
  7572  0876                     u175_21:
  7573  0876  287E               	goto	i1l1803
  7574  0877                     u175_20:
  7575  0877                     i1l1799:
  7576  0877  0870               	movf	i1___lwdiv@divisor,w
  7577  0878  02F2               	subwf	i1___lwdiv@dividend,f
  7578  0879  0871               	movf	i1___lwdiv@divisor+1,w
  7579  087A  1C03               	skipc
  7580  087B  03F3               	decf	i1___lwdiv@dividend+1,f
  7581  087C  02F3               	subwf	i1___lwdiv@dividend+1,f
  7582  087D                     i1l1801:
  7583  087D  1475               	bsf	i1___lwdiv@quotient,0
  7584  087E                     i1l1803:
  7585  087E  3001               	movlw	1
  7586  087F                     u176_25:
  7587  087F  1003               	clrc
  7588  0880  0CF1               	rrf	i1___lwdiv@divisor+1,f
  7589  0881  0CF0               	rrf	i1___lwdiv@divisor,f
  7590  0882  3EFF               	addlw	-1
  7591  0883  1D03               	skipz
  7592  0884  287F               	goto	u176_25
  7593  0885                     i1l1805:
  7594  0885  3001               	movlw	1
  7595  0886  02F7               	subwf	i1___lwdiv@counter,f
  7596  0887  1D03               	btfss	3,2
  7597  0888  288A               	goto	u177_21
  7598  0889  288B               	goto	u177_20
  7599  088A                     u177_21:
  7600  088A  2866               	goto	i1l1797
  7601  088B                     u177_20:
  7602  088B                     i1l1807:
  7603  088B  0876               	movf	i1___lwdiv@quotient+1,w
  7604  088C  00F1               	movwf	?i1___lwdiv+1
  7605  088D  0875               	movf	i1___lwdiv@quotient,w
  7606  088E  00F0               	movwf	?i1___lwdiv
  7607  088F                     i1l574:
  7608  088F  0008               	return
  7609  0890                     __end_ofi1___lwdiv:
  7610                           
  7611                           	psect	text27
  7612  15D7                     __ptext27:	
  7613 ;; *************** function _CONTADOR *****************
  7614 ;; Defined at:
  7615 ;;		line 8 in file "ADC.c"
  7616 ;; Parameters:    Size  Location     Type
  7617 ;;  n               2    0[COMMON] int 
  7618 ;; Auto vars:     Size  Location     Type
  7619 ;;		None
  7620 ;; Return value:  Size  Location     Type
  7621 ;;                  2    0[COMMON] int 
  7622 ;; Registers used:
  7623 ;;		wreg
  7624 ;; Tracked objects:
  7625 ;;		On entry : 0/0
  7626 ;;		On exit  : 0/0
  7627 ;;		Unchanged: 0/0
  7628 ;; Data sizes:     COMMON   BANK0   BANK1   BANK3   BANK2
  7629 ;;      Params:         2       0       0       0       0
  7630 ;;      Locals:         0       0       0       0       0
  7631 ;;      Temps:          0       0       0       0       0
  7632 ;;      Totals:         2       0       0       0       0
  7633 ;;Total ram usage:        2 bytes
  7634 ;; Hardware stack levels used:    1
  7635 ;; This function calls:
  7636 ;;		Nothing
  7637 ;; This function is called by:
  7638 ;;		_ISR
  7639 ;; This function uses a non-reentrant model
  7640 ;;
  7641                           
  7642                           
  7643                           ;psect for function _CONTADOR
  7644  15D7                     _CONTADOR:
  7645  15D7                     i1l1967:	
  7646                           ;incstack = 0
  7647                           ; Regs used in _CONTADOR: [wreg]
  7648                           
  7649                           
  7650                           ;ADC.c: 9:     Destination = n;
  7651  15D7  0871               	movf	CONTADOR@n+1,w
  7652  15D8  1283               	bcf	3,5	;RP0=0, select bank0
  7653  15D9  1303               	bcf	3,6	;RP1=0, select bank0
  7654  15DA  00D8               	movwf	_Destination+1
  7655  15DB  0870               	movf	CONTADOR@n,w
  7656  15DC  00D7               	movwf	_Destination
  7657                           
  7658                           ;ADC.c: 10:     return ((Destination)*1);
  7659  15DD  0858               	movf	_Destination+1,w
  7660  15DE  00F1               	movwf	?_CONTADOR+1
  7661  15DF  0857               	movf	_Destination,w
  7662  15E0  00F0               	movwf	?_CONTADOR
  7663  15E1                     i1l174:
  7664  15E1  0008               	return
  7665  15E2                     __end_of_CONTADOR:
  7666  007E                     btemp	set	126	;btemp
  7667  007E                     wtemp0	set	126
  7668                           
  7669                           	psect	config
  7670                           
  7671                           ;Config register CONFIG1 @ 0x2007
  7672                           ;	Oscillator Selection bits
  7673                           ;	FOSC = INTRC_NOCLKOUT, INTOSCIO oscillator: I/O function on RA6/OSC2/CLKOUT pin, I/O f
      +                          unction on RA7/OSC1/CLKIN
  7674                           ;	Watchdog Timer Enable bit
  7675                           ;	WDTE = OFF, WDT disabled and can be enabled by SWDTEN bit of the WDTCON register
  7676                           ;	Power-up Timer Enable bit
  7677                           ;	PWRTE = OFF, PWRT disabled
  7678                           ;	RE3/MCLR pin function select bit
  7679                           ;	MCLRE = OFF, RE3/MCLR pin function is digital input, MCLR internally tied to VDD
  7680                           ;	Code Protection bit
  7681                           ;	CP = OFF, Program memory code protection is disabled
  7682                           ;	Data Code Protection bit
  7683                           ;	CPD = OFF, Data memory code protection is disabled
  7684                           ;	Brown Out Reset Selection bits
  7685                           ;	BOREN = OFF, BOR disabled
  7686                           ;	Internal External Switchover bit
  7687                           ;	IESO = OFF, Internal/External Switchover mode is disabled
  7688                           ;	Fail-Safe Clock Monitor Enabled bit
  7689                           ;	FCMEN = OFF, Fail-Safe Clock Monitor is disabled
  7690                           ;	Low Voltage Programming Enable bit
  7691                           ;	LVP = OFF, RB3 pin has digital I/O, HV on MCLR must be used for programming
  7692                           ;	In-Circuit Debugger Mode bit
  7693                           ;	DEBUG = 0x1, unprogrammed default
  7694  2007                     	org	8199
  7695  2007  20D4               	dw	8404
  7696                           
  7697                           ;Config register CONFIG2 @ 0x2008
  7698                           ;	Brown-out Reset Selection bit
  7699                           ;	BOR4V = BOR40V, Brown-out Reset set to 4.0V
  7700                           ;	Flash Program Memory Self Write Enable bits
  7701                           ;	WRT = OFF, Write protection off
  7702  2008                     	org	8200
  7703  2008  3FFF               	dw	16383

Data Sizes:
    Strings     19
    Constant    0
    Data        0
    BSS         75
    Persistent  0
    Stack       0

Auto Spaces:
    Space          Size  Autos    Used
    COMMON           14     14      14
    BANK0            80     45      61
    BANK1            80     26      80
    BANK3            96     17      22
    BANK2            96      0       0

Pointer List with Targets:

    strcpy@from	PTR const unsigned char  size(1) Largest target is 2
		 -> STR_3(CODE[2]), STR_2(CODE[2]), 

    strcpy@to	PTR unsigned char  size(1) Largest target is 5
		 -> PUNTO2(BANK1[5]), PUNTO1(BANK1[5]), 

    strcpy@cp	PTR unsigned char  size(1) Largest target is 5
		 -> PUNTO2(BANK1[5]), PUNTO1(BANK1[5]), 

    strcat@from	PTR const unsigned char  size(1) Largest target is 5
		 -> PUNTO2(BANK1[5]), POT2SB(BANK1[5]), POT2SA(BANK1[5]), PUNTO1(BANK1[5]), 
		 -> POT1SB(BANK1[5]), POT1SA(BANK1[5]), 

    strcat@to	PTR unsigned char  size(1) Largest target is 5
		 -> PUNTO2(BANK1[5]), POT2SC(BANK1[5]), POT2SB(BANK1[5]), PUNTO1(BANK1[5]), 
		 -> POT1SC(BANK1[5]), POT1SB(BANK1[5]), 

    strcat@cp	PTR unsigned char  size(1) Largest target is 5
		 -> PUNTO2(BANK1[5]), POT2SC(BANK1[5]), POT2SB(BANK1[5]), PUNTO1(BANK1[5]), 
		 -> POT1SC(BANK1[5]), POT1SB(BANK1[5]), 

    utoa@buf	PTR unsigned char  size(2) Largest target is 5
		 -> POT2SC(BANK1[5]), POT2SB(BANK1[5]), POT2SA(BANK1[5]), POT1SC(BANK1[5]), 
		 -> POT1SB(BANK1[5]), POT1SA(BANK1[5]), COMPARE(BANK3[5]), 

    sp__utoa	PTR unsigned char  size(2) Largest target is 5
		 -> POT2SC(BANK1[5]), POT2SB(BANK1[5]), POT2SA(BANK1[5]), POT1SC(BANK1[5]), 
		 -> POT1SB(BANK1[5]), POT1SA(BANK1[5]), COMPARE(BANK3[5]), 

    itoa@buf	PTR unsigned char  size(2) Largest target is 5
		 -> POT2SC(BANK1[5]), POT2SB(BANK1[5]), POT2SA(BANK1[5]), POT1SC(BANK1[5]), 
		 -> POT1SB(BANK1[5]), POT1SA(BANK1[5]), COMPARE(BANK3[5]), 

    itoa@cp	PTR unsigned char  size(2) Largest target is 5
		 -> POT2SC(BANK1[5]), POT2SB(BANK1[5]), POT2SA(BANK1[5]), POT1SC(BANK1[5]), 
		 -> POT1SB(BANK1[5]), POT1SA(BANK1[5]), COMPARE(BANK3[5]), 

    Lcd_Write_String@a	PTR unsigned char  size(2) Largest target is 17
		 -> STR_5(CODE[2]), STR_4(CODE[2]), POT2SC(BANK1[5]), POT1SC(BANK1[5]), 
		 -> STR_1(CODE[17]), COMPARE(BANK3[5]), 

    sp__strcat	PTR unsigned char  size(1) Largest target is 5
		 -> PUNTO2(BANK1[5]), POT2SC(BANK1[5]), POT2SB(BANK1[5]), PUNTO1(BANK1[5]), 
		 -> POT1SC(BANK1[5]), POT1SB(BANK1[5]), 

    sp__strcpy	PTR unsigned char  size(1) Largest target is 5
		 -> PUNTO2(BANK1[5]), PUNTO1(BANK1[5]), 

    sp__itoa	PTR unsigned char  size(2) Largest target is 5
		 -> POT2SC(BANK1[5]), POT2SB(BANK1[5]), POT2SA(BANK1[5]), POT1SC(BANK1[5]), 
		 -> POT1SB(BANK1[5]), POT1SA(BANK1[5]), COMPARE(BANK3[5]), 


Critical Paths under _main in COMMON

    None.

Critical Paths under _ISR in COMMON

    i1_itoa->i1_utoa
    i1_utoa->i1___lwdiv

Critical Paths under _main in BANK0

    _main->___flmul
    _main->_itoa
    _itoa->_utoa
    _utoa->___lwdiv
    ___fltol->___flmul
    ___flmul->___xxtofl
    ___fldiv->___flmul
    ___awmod->___awdiv
    _Lcd_Write_String->_Lcd_Write_Char
    _Lcd_Init->_Lcd_Cmd

Critical Paths under _ISR in BANK0

    _ISR->i1_itoa
    i1_itoa->i1_utoa

Critical Paths under _main in BANK1

    _main->___fldiv
    ___fltol->___flmul
    ___fldiv->___flmul

Critical Paths under _ISR in BANK1

    None.

Critical Paths under _main in BANK3

    _main->___fldiv

Critical Paths under _ISR in BANK3

    None.

Critical Paths under _main in BANK2

    None.

Critical Paths under _ISR in BANK2

    None.

Call Graph Tables:

 ---------------------------------------------------------------------------------
 (Depth) Function   	        Calls       Base Space   Used Autos Params    Refs
 ---------------------------------------------------------------------------------
 (0) _main                                                 4     4      0   14139
                                             13 BANK3      4     4      0
                           _ADC_Init
                           _ADC_Read
                            _Lcd_Cmd
                           _Lcd_Init
                   _Lcd_Write_String
                        _SERIAL_Init
                            ___awdiv
                            ___awmod
                            ___fldiv
                            ___flmul
                            ___fltol
                           ___xxtofl
                               _itoa
                              _setup
                             _strcat
                             _strcpy
 ---------------------------------------------------------------------------------
 (1) _strcpy                                               4     3      1     293
                                             18 BANK0      4     3      1
 ---------------------------------------------------------------------------------
 (1) _strcat                                               4     3      1     752
                                             18 BANK0      4     3      1
 ---------------------------------------------------------------------------------
 (1) _setup                                                0     0      0       0
 ---------------------------------------------------------------------------------
 (1) _itoa                                                 9     3      6    3136
                                             36 BANK0      9     3      6
                               _utoa
 ---------------------------------------------------------------------------------
 (2) _utoa                                                10     4      6    1437
                                             26 BANK0     10     4      6
                            ___lwdiv
                            ___lwmod
 ---------------------------------------------------------------------------------
 (3) ___lwmod                                              6     2      4     311
                                             18 BANK0      6     2      4
 ---------------------------------------------------------------------------------
 (3) ___lwdiv                                              8     4      4     466
                                             18 BANK0      8     4      4
 ---------------------------------------------------------------------------------
 (1) ___xxtofl                                            14    10      4     474
                                             18 BANK0     14    10      4
 ---------------------------------------------------------------------------------
 (1) ___fltol                                             11     7      4     517
                                             13 BANK1     11     7      4
                            ___flmul (ARG)
 ---------------------------------------------------------------------------------
 (1) ___flmul                                             26    18      8    3893
                                             32 BANK0     13     5      8
                                              0 BANK1     13    13      0
                          __Umul8_16
                           ___xxtofl (ARG)
 ---------------------------------------------------------------------------------
 (2) __Umul8_16                                            9     7      2     980
                                             18 BANK0      9     7      2
 ---------------------------------------------------------------------------------
 (1) ___fldiv                                             26    18      8    2043
                                             13 BANK1     13     5      8
                                              0 BANK3     13    13      0
                            ___flmul (ARG)
                           ___xxtofl (ARG)
 ---------------------------------------------------------------------------------
 (1) ___awmod                                              7     3      4    1208
                                             27 BANK0      7     3      4
                            ___awdiv (ARG)
 ---------------------------------------------------------------------------------
 (1) ___awdiv                                              9     5      4     908
                                             18 BANK0      9     5      4
 ---------------------------------------------------------------------------------
 (1) _SERIAL_Init                                          0     0      0       0
 ---------------------------------------------------------------------------------
 (1) _Lcd_Write_String                                     2     0      2     523
                                             21 BANK0      2     0      2
                     _Lcd_Write_Char
 ---------------------------------------------------------------------------------
 (2) _Lcd_Write_Char                                       3     3      0      22
                                             18 BANK0      3     3      0
 ---------------------------------------------------------------------------------
 (1) _Lcd_Init                                             0     0      0      22
                            _Lcd_Cmd
 ---------------------------------------------------------------------------------
 (2) _Lcd_Cmd                                              3     3      0      22
                                             18 BANK0      3     3      0
 ---------------------------------------------------------------------------------
 (1) _ADC_Read                                             4     0      4     348
                                             18 BANK0      4     0      4
 ---------------------------------------------------------------------------------
 (1) _ADC_Init                                             0     0      0       0
 ---------------------------------------------------------------------------------
 Estimated maximum stack depth 3
 ---------------------------------------------------------------------------------
 (Depth) Function   	        Calls       Base Space   Used Autos Params    Refs
 ---------------------------------------------------------------------------------
 (4) _ISR                                                  5     5      0    1396
                                             13 BANK0      5     5      0
                           _CONTADOR
                             i1_itoa
 ---------------------------------------------------------------------------------
 (5) i1_itoa                                               9     3      6    1298
                                              4 BANK0      9     3      6
                             i1_utoa
 ---------------------------------------------------------------------------------
 (6) i1_utoa                                              10     4      6     991
                                              8 COMMON     6     0      6
                                              0 BANK0      4     4      0
                          i1___lwdiv
                          i1___lwmod
 ---------------------------------------------------------------------------------
 (7) i1___lwmod                                            6     2      4     211
                                              0 COMMON     6     2      4
 ---------------------------------------------------------------------------------
 (7) i1___lwdiv                                            8     4      4     266
                                              0 COMMON     8     4      4
 ---------------------------------------------------------------------------------
 (5) _CONTADOR                                             2     0      2      98
                                              0 COMMON     2     0      2
 ---------------------------------------------------------------------------------
 Estimated maximum stack depth 7
 ---------------------------------------------------------------------------------

 Call Graph Graphs:

 _main (ROOT)
   _ADC_Init
   _ADC_Read
   _Lcd_Cmd
   _Lcd_Init
     _Lcd_Cmd
   _Lcd_Write_String
     _Lcd_Write_Char
   _SERIAL_Init
   ___awdiv
   ___awmod
     ___awdiv (ARG)
   ___fldiv
     ___flmul (ARG)
       __Umul8_16
       ___xxtofl (ARG)
     ___xxtofl (ARG)
   ___flmul
     __Umul8_16
     ___xxtofl (ARG)
   ___fltol
     ___flmul (ARG)
       __Umul8_16
       ___xxtofl (ARG)
   ___xxtofl
   _itoa
     _utoa
       ___lwdiv
       ___lwmod
   _setup
   _strcat
   _strcpy

 _ISR (ROOT)
   _CONTADOR
   i1_itoa
     i1_utoa
       i1___lwdiv
       i1___lwmod

 Address spaces:
Name               Size   Autos  Total    Cost      Usage
BITCOMMON            E      0       0       0        0.0%
EEDATA             100      0       0       0        0.0%
NULL                 0      0       0       0        0.0%
CODE                 0      0       0       0        0.0%
COMMON               E      E       E       1      100.0%
BITSFR0              0      0       0       1        0.0%
SFR0                 0      0       0       1        0.0%
BITSFR1              0      0       0       2        0.0%
SFR1                 0      0       0       2        0.0%
STACK                0      0       0       2        0.0%
ABS                  0      0      B1       3        0.0%
BITBANK0            50      0       0       4        0.0%
BITSFR3              0      0       0       4        0.0%
SFR3                 0      0       0       4        0.0%
BANK0               50     2D      3D       5       76.2%
BITSFR2              0      0       0       5        0.0%
SFR2                 0      0       0       5        0.0%
BITBANK1            50      0       0       6        0.0%
BANK1               50     1A      50       7      100.0%
BITBANK3            60      0       0       8        0.0%
BANK3               60     11      16       9       22.9%
BITBANK2            60      0       0      10        0.0%
BANK2               60      0       0      11        0.0%
DATA                 0      0      B1      12        0.0%


Microchip Technology PIC Macro Assembler V2.31 build 20201012212115 
Symbol Table                                                                                   Tue Feb 09 16:11:21 2021

                        _O 0059               ___fldiv@aexp 019C               ___fldiv@bexp 019B  
                        pc 0002               ___fldiv@sign 0194                         _V1 0055  
                       _V2 004D               ___awdiv@sign 0038                         fsr 0004  
      __Umul8_16@word_mpld 0038                        l201 1612                        l130 17FF  
                      l115 1630                        l109 0C3F                        l142 164F  
                      l153 169A                        l147 084B                        l180 15FF  
                      l177 15EC                        l710 16B1                        l455 0999  
                      l703 056F                        l712 16C3                        l651 0A18  
                      l468 0930                        l653 0C39                        l741 05F7  
                      l574 08D5                        l495 07B2                        l735 05B2  
                      l488 07C7                        l584 17BC                        l673 0C0D  
                      l737 0649                        l498 07C7                        l762 06AB  
                      l675 0C25                        l667 0B8D                        l691 058D  
                      l748 0613                        l764 06CA                        l756 1746  
                      l749 061F                        l773 16EE                        l697 04C1  
                      l779 1672                        _RE0 0048                        _RE1 0049  
                      _RE2 004A                        _ISR 07C8                        _adc 005C  
                      fsr0 0004                        indf 0000               ___awmod@sign 0041  
             ___flmul@aexp 00D7               ___flmul@bexp 00DC               ___flmul@sign 00D6  
             ___flmul@temp 00E1               ___flmul@prod 00DD                       ?_ISR 0070  
             ___fltol@exp1 00ED                       l2001 1631                       l2011 1607  
                     l2003 1600                       l2021 1610                       l2013 1608  
                     l2005 1604                       l2101 0985                       l2031 1682  
                     l2023 1611                       l2015 160B                       l2007 1605  
                     l2103 098B                       l2111 08D6                       l2025 15E2  
                     l2041 15FB                       l2033 168A                       l2017 160C  
                     l2009 1606                       l2105 0990                       l2121 08E8  
                     l2113 08D9                       l3001 04CD                       l2043 15FC  
                     l2035 15ED                       l2027 1673                       l2019 160D  
                     l2107 0995                       l2131 0901                       l2123 08ED  
                     l2115 08DD                       l3011 0527                       l3003 04DB  
                     l2051 1653                       l2045 15FD                       l2037 15F9  
                     l2029 1674                       l2133 0905                       l2125 08F3  
                     l2141 0922                       l2117 08E2                       l3021 055F  
                     l3013 0532                       l3005 04DF                       l2061 16D0  
                     l2053 1658                       l3101 0F27                       l2047 15FE  
                     l2039 15FA                       l2071 0938                       l2143 0927  
                     l2135 090F                       l2127 08F6                       l2119 08E4  
                     l3023 0563                       l3015 0541                       l3007 0514  
                     l2063 16D9                       l2055 1660                       l3111 0FA3  
                     l3103 0F42                       l2081 094C                       l2073 093D  
                     l2145 092C                       l2137 0915                       l2129 08FD  
                     l3025 0564                       l3017 054B                       l3009 051A  
                     l2065 16E1                       l2057 16C7                       l3121 0FDB  
                     l3113 0FB1                       l3105 0F6C                       l2091 0962  
                     l2083 094E                       l2075 093F                       l2067 0931  
                     l2139 091C                       l3027 0577                       l3019 054D  
                     l2059 16CC                       l3123 0FE6                       l3115 0FBF  
                     l3107 0F87                       l2093 0966                       l2085 0954  
                     l2077 0943                       l2069 0934                       l2501 0637  
                     l3125 0FF1                       l3117 0FC5                       l3109 0F95  
                     l3061 0C61                       l3053 0C3A                       l2095 0977  
                     l2087 0957                       l2079 0948                       l2503 063C  
                     l3119 0FD0                       l3071 0D52                       l3063 0C75  
                     l3055 0C49                       l2097 097D                       l2089 095E  
                     l2505 0640                       l3081 0DCA                       l3073 0D76  
                     l3065 0CE2                       l3057 0C4E                       l2099 097E  
                     l2507 0641                       l3091 0E10                       l3083 0DD8  
                     l3075 0D87                       l3067 0D2E                       l3059 0C59  
                     l1741 089A                       l2701 171B                       l3093 0E7D  
                     l3085 0DE6                       l3077 0DAB                       l3069 0D41  
                     l2631 16AB                       l2471 059A                       l1751 08BD  
                     l1743 089D                       l2703 1721                       l3095 0EC9  
                     l3087 0DF4                       l3079 0DBC                       l1841 17C8  
                     l1833 17C0                       l2633 16BA                       l2625 169E  
                     l2721 0777                       l2713 074C                       l2481 05C8  
                     l2473 05AA                       l1753 08C3                       l1745 08A4  
                     l1737 0890                       l2641 0650                       l2705 172A  
                     l3097 0EE2                       l3089 0DFA                       l1851 17E9  
                     l1843 17C9                       l1835 17C2                       l2811 0A99  
                     l2803 0A4F                       l2635 16BF                       l2627 16A0  
                     l2723 0778                       l2715 0759                       l2491 05FE  
                     l2483 05D5                       l2475 05BA                       l2467 0591  
                     l1755 08C4                       l1747 08A8                       l1739 0894  
                     l1771 1797                       l1763 1781                       l2651 067B  
                     l2643 0663                       l2707 1730                       l3099 0EFD  
                     l1861 17FC                       l1853 17EC                       l1845 17D4  
                     l1837 17C6                       l2821 0AC1                       l2813 0A9B  
                     l2805 0A6D                       l2629 16A7                       l2901 0052  
                     l2725 0780                       l2493 0609                       l2485 05DC  
                     l2469 0596                       l1757 08CB                       l1749 08AC  
                     l1773 179B                       l1765 1789                       l1781 17B8  
                     l2661 06B8                       l2653 068E                       l2645 0669  
                     l2709 1735                       l1855 17EE                       l1847 17DD  
                     l1839 17C7                       l1871 0814                       l1863 080C  
                     l2815 0AA0                       l2823 0ACF                       l2831 0B21  
                     l2807 0A85                       l2751 09A3                       l2911 0075  
                     l2903 0057                       l2743 07A7                       l2735 078E  
                     l2727 0782                       l2719 0762                       l2495 060D  
                     l2487 05E0                       l2479 05C3                       l1759 08D1  
                     l1775 17A5                       l1767 178C                       l2663 06BE  
                     l2655 06A1                       l2647 066F                       l2639 064A  
                     l1857 17EF                       l1849 17DE                       l1881 0835  
                     l1873 0815                       l1865 080E                       l2841 0B40  
                     l2833 0B27                       l2825 0AF0                       l2817 0AB8  
                     l2809 0A8F                       l2761 09C2                       l2753 09AD  
                     l2921 0094                       l2913 007F                       l2905 0061  
                     l2745 07B7                       l2729 0786                       l2737 07A0  
                     l2497 0617                       l2489 05EE                       l1777 17AB  
                     l1769 1793                       l2665 06C4                       l2657 06A7  
                     l2649 0675                       l1859 17F0                       l1891 0848  
                     l1883 0838                       l1875 0820                       l1867 0812  
                     l2851 0B62                       l2843 0B43                       l2835 0B2F  
                     l2827 0AF1                       l2819 0ABE                       l2771 09E1  
                     l2763 09CC                       l2755 09B3                       l2931 00B7  
                     l2923 009E                       l2915 0085                       l2907 0064  
                     l2747 07BC                       l2499 0621                       l1779 17B2  
                     l2659 06AF                       l1885 083A                       l1877 0829  
                     l1869 0813                       l2861 0B99                       l2853 0B66  
                     l2845 0B51                       l2837 0B31                       l2829 0B19  
                     l2781 0A00                       l2773 09EB                       l2765 09CE  
                     l2757 09B6                       l2749 099A                       l2941 012C  
                     l2925 00A1                       l2917 0088                       l2909 006E  
                     l1887 083B                       l1879 082A                       l2871 0BDD  
                     l2863 0BA9                       l2855 0B88                       l2839 0B3A  
                     l2847 0B59                       l2791 0A2C                       l2783 0A0A  
                     l2775 09F1                       l2759 09BD                       l2767 09D0  
                     l2951 0213                       l2943 015C                       l2935 00C2  
                     l2927 00AB                       l2919 008F                       l1991 1626  
                     l1889 083C                       l2881 0C17                       l2873 0BED  
                     l2865 0BAD                       l2849 0B5F                       l2793 0A34  
                     l2785 0A0C                       l2777 09F4                       l2769 09DA  
                     l2961 02D0                       l2953 0229                       l2945 01A4  
                     l2937 00DA                       l2929 00B2                       l1993 162C  
                     l1985 1613                       l2883 0C1B                       l2875 0BFC  
                     l2867 0BC6                       l2859 0B92                       l2779 09FB  
                     l2787 0A0E                       l2971 03F5                       l2963 0305  
                     l2955 025E                       l2947 01D4                       l2939 00F7  
                     l2891 002F                       l2699 171B                       l1995 162D  
                     l1987 1617                       l2885 0C1F                       l2877 0C00  
                     l2869 0BCE                       l2789 0A20                       l2797 0A3D  
                     l2981 0479                       l2973 043D                       l2965 0352  
                     l2957 0276                       l2949 0204                       l2893 0038  
                     l1997 162E                       l1989 1618                       l2879 0C0A  
                     l2799 0A44                       l2991 0496                       l2983 047A  
                     l2975 044C                       l2967 036A                       l2959 02AB  
                     l2895 0042                       l1999 162F                       l2993 049A  
                     l2985 0489                       l2977 0464                       l2969 03B7  
                     l2897 0048                       l2995 04BC                       l2979 0473  
                     l2987 0491                       l2899 004B                       l2989 0495  
                     l2999 04C8                       STR_1 1010                       STR_2 1021  
                     STR_3 1021                       STR_4 101F                       STR_5 101F  
                     u2000 0938                       u2001 0937                       u2010 0943  
                     u2011 0942                       u2020 0954                       u2100 08DD  
                     u2021 0953                       u2101 08DC                       u2110 08E8  
                     u2111 08E7                       u2040 0966                       u2120 08F3  
                     u3000 05DB                       u2041 0965                       u2121 08F2  
                     u3001 05DA                       u2035 0958                       u2060 0977  
                     u2140 0905                       u3020 05FD                       u2061 0976  
                     u2141 0904                       u3021 05FC                       u2150 090F  
                     u2055 0967                       u2151 090E                       u2135 08F7  
                     u3015 05EF                       u2080 098B                       u4000 0563  
                     u3040 060D                       u1600 08AC                       u2081 098A  
                     u2065 0973                       u4001 0562                       u3041 060C  
                     u1601 08AB                       u2090 0990                       u2170 0922  
                     u3050 0613                       u2091 098F                       u2075 097F  
                     u2171 0921                       u2155 090B                       u3051 0612  
                     u3035 0602                       u2180 0927                       u3140 16AB  
                     u3300 07A6                       u3060 0617                       u1620 08BD  
                     u1700 17B8                       u2181 0926                       u2165 0916  
                     u3141 16AA                       u3301 07A5                       u3061 0616  
                     u1621 08BC                       u1701 17B7                       u3070 062C  
                     u3230 1721                       u1615 08AD                       u3231 1720  
                     u3400 0A20                       u3160 16BF                       u3320 07B7  
                     u3240 0759                       u3080 063C                       u1640 08D1  
                     u3401 0A1F                       u3161 16BE                       u3321 07B6  
                     u3241 0758                       u3081 063B                       u1641 08D0  
                     u1625 08B9                       u3410 0A44                       u3330 07BC  
                     u3250 0770                       u3090 0640                       u1650 1789  
                     u3170 066F                       u4107 17F7                       u3411 0A43  
                     u3155 16B2                       u3331 07BB                       u3315 07A9  
                     u3091 063F                       u3075 0627                       u1635 08C5  
                     u1651 1788                       u3171 066E                       u3500 0B2F  
                     u3420 0AA0                       u3340 09B3                       u3260 0786  
                     u1580 089A                       u3180 06A7                       u3501 0B2E  
                     u3421 0A9F                       u3341 09B2                       u3261 0785  
                     u1581 0899                       u3181 06A6                       u4037 0C5D  
                     u3350 09BD                       u3270 078D                       u1670 179B  
                     u3190 06C4                       u3351 09BC                       u3271 078C  
                     u3255 076B                       u1671 179A                       u3191 06C3  
                     u4047 0DF8                       u1840 17DD                       u3600 0BBC  
                     u3520 0B40                       u3360 09C2                       u1680 17A5  
                     u1841 17DC                       u4057 081B                       u3521 0B3F  
                     u3361 09C1                       u1681 17A4                       u1665 178D  
                     u1850 0829                       u3610 0BDD                       u3450 0ABE  
                     u3370 09F1                       u3290 079F                       u4067 0830  
                     u1851 0828                       u3611 0BDC                       u3515 0B33  
                     u3451 0ABD                       u3435 0AA4                       u3371 09F0  
                     u3291 079E                       u1595 089E                       u3620 0BFC  
                     u3540 0B5F                       u3380 09FB                       u3700 00B2  
                     u4077 0843                       u3621 0BFB                       u3605 0BB7  
                     u3541 0B5E                       u3445 0AB1                       u3381 09FA  
                     u3701 00B1                       u3285 078F                       u1685 17A1  
                     u3630 0C1B                       u3550 0B66                       u3470 0AF0  
                     u3390 0A00                       u3710 00B7                       u4087 17CF  
                     u3631 0C1A                       u3615 0BD9                       u3551 0B65  
                     u3535 0B46                       u3471 0AEF                       u3391 09FF  
                     u3711 00B6                       u1695 17AC                       u1960 169A  
                     u3560 0B88                       u3480 0B15                       u3640 0048  
                     u4097 17E4                       u1961 1699                       u3625 0BF8  
                     u3561 0B87                       u3465 0AC4                       u3801 02EB  
                     u3721 0142                       u3641 0047                       u3570 0B91  
                     u3490 0B27                       u3802 02F6                       u3722 014D  
                     u3650 0052                       u1970 1672                       u3571 0B90  
                     u3491 0B26                       u3475 0AEC                       u3811 0338  
                     u3803 0301                       u3731 0172                       u3723 0158  
                     u3651 0051                       u1971 1671                       u3580 0B99  
                     u3812 0343                       u3732 017D                       u3660 0057  
                     u1980 16D8                       u3581 0B98                       u3485 0AFE  
                     u3821 0385                       u3813 034E                       u3741 01BA  
                     u3733 0188                       u3661 0056                       u1981 16D7  
                     u3590 0BAD                       u3486 0B01                       u3910 0495  
                     u3830 03C9                       u3822 0390                       u3742 01C5  
                     u3670 0085                       u1990 16EE                       u3591 0BAC  
                     u3487 0B08                       u3911 0494                       u3823 039B  
                     u3751 01EA                       u3743 01D0                       u3671 0084  
                     u1991 16ED                       u3488 0B0B                       u3920 049A  
                     u3752 01F5                       u3680 008F                       u2960 0596  
                     u3489 0B12                       u3921 0499                       u3905 047E  
                     u3841 03DB                       u3753 0200                       u3681 008E  
                     u2961 0595                       u3930 04BC                       u3850 0411  
                     u3842 03E6                       u3690 0094                       u2970 059A  
                     u3931 04BB                       u3843 03F1                       u3835 03C4  
                     u3771 0244                       u3691 0093                       u2971 0599  
                     u3940 04C7                       u3772 024F                       u2980 05BA  
                     _RCIF 0065                       u3941 04C6                       u3861 0423  
                     u3781 0291                       u3773 025A                       u3765 0208  
                     u2981 05B9                       u3950 04CD                       u3862 042E  
                     u3782 029C                       u3951 04CC                       u3863 0439  
                     u3855 040C                       u3783 02A7                       u3960 04DF  
                     u3961 04DE                       u3970 04FC                       u3890 0479  
                     u3891 0478                       u3875 0441                       u3795 02AF  
                     u2995 05CD                       u3980 0527                       u3981 0526  
                     u3885 0468                       u3990 0541                       u3991 0540  
                     u3975 04F7                       u3985 0523                       u3995 053D  
                     _TRMT 04C1          ?_Lcd_Write_String 0035                       _main 0C3A  
                     _itoa 171B                       btemp 007E                       _utoa 064A  
         __end_of_ADC_Init 15ED           __end_of_ADC_Read 1600                       start 0010  
       ??_Lcd_Write_String 0037            ___fldiv@new_exp 0195            __end_of_Lcd_Cmd 1800  
         __end_of_CONTADOR 15E2                      ??_ISR 002D              ___fltol@sign1 00EC  
                    ?_main 0070            __end_of___fldiv 0C3A                      ?_itoa 0044  
          __end_of___awdiv 099A            __end_of___awmod 0931            __end_of___flmul 058E  
          __end_of___fltol 07C8                      _ANSEL 0188                      ?_utoa 003A  
          ___awdiv@divisor 0032            __end_of___lwdiv 08D6                      i1l104 07F2  
                    i1l174 15E1            __end_of___lwmod 17BD                      i1l574 088F  
                    i1l584 1780                      i1l762 072C                      i1l764 074B  
                    i1l756 171A            ___awdiv@counter 0037                      _RCREG 001A  
                    _POT1A 0053                      _POT1B 0051                      _POT2A 00AC  
                    _POT1C 004F                      _POT2B 00AA                      _POT2C 00A8  
                    _SPBRG 0099                      _PORTA 0005                      _PORTB 0006  
                    _PORTC 0007                      _PORTD 0008                      _PORTE 0009  
                    _TRISA 0085                      _TRISB 0086                      _TRISD 0088  
                    _TRISE 0089                 i1itoa@base 0028                      _TXREG 0019  
       i1___lwmod@dividend 0072                      _setup 1613                      pclath 000A  
                    utoa@c 0043                      utoa@v 0041                      status 0003  
                    wtemp0 007E         __size_ofi1___lwdiv 0044         __size_ofi1___lwmod 003A  
         __end_of_Lcd_Init 1650               ?_SERIAL_Init 0070            __initialization 0013  
             __end_of_main 1000               __end_of_itoa 1747               __end_of_utoa 06CB  
               i1utoa@base 007C                     ??_main 019D                     ??_itoa 004A  
                   ??_utoa 0040                     _ADRESH 001E           ___awdiv@dividend 0034  
                ADC_Read@a 0032                  ADC_Read@b 0034                     ?_setup 0070  
                   _ANSELH 0189                _Destination 0057                     i1l3031 16EF  
                   i1l3041 1709                     i1l3033 16EF                     i1l3035 16F5  
                   i1l3051 07EF                     i1l3037 16FE                     i1l3045 07C8  
                   i1l3039 1704                     i1l3047 07CC                     i1l1801 087D  
                   i1l3049 07DE                     i1l1803 087E                     i1l1811 1747  
                   i1l1805 0885                     i1l1821 175F                     i1l1813 174D  
                   i1l1807 088B                     i1l1823 1769                     i1l1815 1750  
                   i1l1825 176F                     i1l1817 1757                     i1l1827 1776  
                   i1l1819 175B                     i1l1829 177C                     i1l1791 0857  
                   i1l2671 06D1                     i1l1793 085E                     i1l1785 084C  
                   i1l2681 06FC                     i1l2673 06E4                     i1l1795 0862  
                   i1l1787 084E                     i1l2691 0739                     i1l2683 070F  
                   i1l2675 06EA                     i1l1797 0866                     i1l1789 0854  
                   i1l2693 073F                     i1l2685 0720                     i1l2677 06F0  
                   i1l2669 06CB                     i1l1967 15D7                     i1l1799 0877  
                   i1l2695 0745                     i1l2687 0728                     i1l2679 06F6  
                   i1l2689 0730                     u320_20 06F0                     u320_21 06EF  
                   u321_20 0728                     u401_20 16F5                     u321_21 0727  
                   u401_21 16F4                     u322_20 0745                     u402_20 07CC  
                   u322_21 0744                     u402_21 07CB                     u171_20 0854  
                   u171_21 0853                     u180_20 175F                     u180_21 175E  
                   u172_25 0858                     u173_20 0866                     u181_20 1769  
                   u173_21 0865                     u181_21 1768                     u181_25 1765  
                   u174_25 0867                     u182_25 1770                     u175_20 0877  
                   u183_20 177C                     u175_21 0876                     u183_21 177B  
                   u175_25 0873                     u176_25 087F                     u177_20 088B  
                   u177_21 088A                     u178_20 174D                     u178_21 174C  
                   u179_25 1751                     _POT1SA 00D1                     _POT1SB 00CC  
                   _POT1SC 00C7                     _POT2SA 00BD                     _POT2SB 00B8  
                   _POT2SC 00B3                  ??_Lcd_Cmd 0032    __size_of_Lcd_Write_Char 0043  
                   _PUNTO1 00C2                     _PUNTO2 00AE           __end_of___xxtofl 064A  
                   i1_itoa 16EF                     i1_utoa 06CB                  ??___fldiv 00EB  
                ??___awdiv 0036                  ??___awmod 003F                  ??___flmul 0048  
                ??___fltol 00E7                  ??___lwdiv 0036                  ??___lwmod 0036  
         ___awdiv@quotient 0039            ___awmod@divisor 003B            ___awmod@counter 0040  
                   _strcat 16C4                     _strcpy 1650          __end_ofi1___lwdiv 0890  
        __end_ofi1___lwmod 1781         __size_of__Umul8_16 0029                  CONTADOR@n 0070  
                ?_ADC_Init 0070                  ?_ADC_Read 0032                     saved_w 007E  
                ?_CONTADOR 0070               ___xxtofl@arg 003C               ___xxtofl@exp 003B  
             ___xxtofl@val 0032    __end_of__initialization 002B                 ___fltol@f1 00E3  
           __pcstackCOMMON 0070              __end_of_setup 1631                 ??_ADC_Init 0032  
               ??_ADC_Read 0036                  ?_Lcd_Init 0070                    ??_setup 0032  
               ??_CONTADOR 0072                 __pbssBANK0 004D                 __pbssBANK1 00A0  
               __pbssBANK3 01A1                    ?i1_itoa 0024                    ?i1_utoa 0078  
        __end_of__Umul8_16 16C4                 __pmaintext 0C3A       __size_of_SERIAL_Init 0013  
               __pintentry 0004  __size_of_Lcd_Write_String 0028                    ?_strcat 0032  
                  ?_strcpy 0032                    _COMPARE 01A1                  ?___xxtofl 0032  
               ??_Lcd_Init 0035                 __stringtab 1000             _Lcd_Write_Char 0809  
                  _Lcd_Cmd 17BD            __size_ofi1_itoa 002C                    i1utoa@c 0023  
                  i1utoa@v 0021            __size_ofi1_utoa 0081                    ___fldiv 099A  
                  ___awdiv 0931                    ___awmod 08D6                    ___flmul 002F  
                  ___fltol 074C                    ___lwdiv 0890                    ___lwmod 1781  
                  __ptext1 1650                    __ptext2 16C4                    __ptext3 1613  
                  __ptext4 171B                    __ptext5 064A                    __ptext6 1781  
                  __ptext7 0890                    __ptext8 058E                    __ptext9 074C  
          __size_of_strcat 002B            __size_of_strcpy 0023               __size_of_ISR 0033  
        i1___lwdiv@divisor 0070          i1___lwdiv@counter 0077                 ??___xxtofl 0036  
         ___awmod@dividend 003D                    clrloop0 0802                    _voltaje 00A4  
   __end_of_Lcd_Write_Char 084C       end_of_initialization 002B                    itoa@buf 0044  
                  itoa@val 0046                  _RCSTAbits 0018                    utoa@buf 003A  
                  utoa@val 003C              ___xxtofl@sign 003A                ___fldiv@grs 0197  
              ___fldiv@rem 0190          __size_of_ADC_Init 000B          __size_of_ADC_Read 0013  
                i1___lwdiv 084C                  i1___lwmod 1747            ?_Lcd_Write_Char 0070  
        Lcd_Write_String@a 0035                ___flmul@grs 00D8          __size_of_CONTADOR 000B  
                _TXSTAbits 0098             __end_ofi1_itoa 171B             __end_ofi1_utoa 074C  
                i1itoa@buf 0024           _Lcd_Write_String 1673                  i1itoa@val 0026  
        i1___lwmod@divisor 0070          i1___lwmod@counter 0075             __end_of_strcat 16EF  
           __end_of_strcpy 1673        start_initialization 0013                __end_of_ISR 07FB  
               ?i1___lwdiv 0070                 ?i1___lwmod 0070                  i1utoa@buf 0078  
                i1utoa@val 007A          __size_of_Lcd_Init 001F                   ??i1_itoa 002A  
                 ??i1_utoa 0020                  __Umul8_16 169B            Lcd_Write_Char@a 0034  
                 ??_strcat 0033                   ??_strcpy 0033                  ___fldiv@a 00E3  
                ___fldiv@b 00E7                  ___flmul@a 0044                  ___flmul@b 0040  
                ___latbits 0002              __pcstackBANK0 0020              __pcstackBANK1 00D6  
            __pcstackBANK3 0190          __size_of___xxtofl 00BC                   ?_Lcd_Cmd 0070  
            ??_SERIAL_Init 0032           ___lwdiv@dividend 0034                   ?___fldiv 00E3  
                 ?___awdiv 0032                   ?___awmod 003B                   ?___flmul 0040  
                 ?___fltol 00E3                 ?__Umul8_16 0032                   ?___lwdiv 0032  
                 ?___lwmod 0032                  __pstrings 1000                   _ADC_Init 15E2  
                 _ADC_Read 15ED           ___lwdiv@quotient 0037                ??i1___lwdiv 0074  
              ??i1___lwmod 0074                   _CONTADOR 15D7             __size_of_setup 001E  
        interrupt_function 0004                  clear_ram0 0801                   _PIE1bits 008C  
                 Lcd_Cmd@a 0034                   _PIR1bits 000C        __end_of_SERIAL_Init 1613  
               _ADCON0bits 001F                __stringbase 100F                 _ADCON1bits 009F  
         ??_Lcd_Write_Char 0032                   _Lcd_Init 1631                   _Contador 005B  
 __end_of_Lcd_Write_String 169B           __size_of_Lcd_Cmd 0043                ??__Umul8_16 0034  
         __size_of___fldiv 02A0           __size_of___awdiv 0069           __size_of___awmod 005B  
         __size_of___flmul 055F           __size_of___fltol 007C           __size_of___lwdiv 0046  
         __size_of___lwmod 003C         __end_of__stringtab 1010                   ___xxtofl 058E  
               strcat@from 0032            ___lwdiv@divisor 0032            ___lwdiv@counter 0039  
                 __ptext10 002F                   __ptext11 169B                   __ptext20 15ED  
                 __ptext12 099A                   __ptext21 15E2                   __ptext13 08D6  
                 __ptext22 07C8                   __ptext14 0931                   __ptext23 16EF  
                 __ptext15 1600                   __ptext24 06CB                   __ptext16 1673  
                 __ptext25 1747                   __ptext17 0809                   __ptext26 084C  
                 __ptext18 1631                   __ptext27 15D7                   __ptext19 17BD  
       i1___lwdiv@dividend 0072                 strcpy@from 0032              __size_of_main 03C6  
            __size_of_itoa 002C              __size_of_utoa 0081                _SERIAL_Init 1600  
                 _voltaje2 00A0         i1___lwdiv@quotient 0075                 _INTCONbits 000B  
                 itoa@base 0048                   intlevel1 0000           ___lwmod@dividend 0034  
                stringcode 100A                 _OSCCONbits 008F                   utoa@base 003E  
   __Umul8_16@multiplicand 0032                   strcat@cp 0034                   strcat@to 0035  
          ___lwmod@divisor 0032                   strcpy@cp 0034                   strcpy@to 0035  
          ___lwmod@counter 0037                   stringdir 100A                   stringtab 1000  
     __Umul8_16@multiplier 003A          __Umul8_16@product 0036  
