

Microchip MPLAB XC8 Assembler V2.31 build 20201012212115 
                                                                                               Tue Feb 09 16:35:19 2021

Microchip MPLAB XC8 C Compiler v2.31 (Free license) build 20201012212115 Og1 
     1                           	processor	16F887
     2                           	pagewidth 120
     3                           	opt	flic
     4                           	psect	strings,global,class=STRING,delta=2,noexec
     5                           	psect	cinit,global,class=CODE,merge=1,delta=2
     6                           	psect	bssBANK0,global,class=BANK0,space=1,delta=1,noexec
     7                           	psect	bssBANK1,global,class=BANK1,space=1,delta=1,noexec
     8                           	psect	bssBANK3,global,class=BANK3,space=1,delta=1,noexec
     9                           	psect	clrtext,global,class=CODE,delta=2
    10                           	psect	cstackBANK3,global,class=BANK3,space=1,delta=1,noexec
    11                           	psect	cstackBANK1,global,class=BANK1,space=1,delta=1,noexec
    12                           	psect	cstackCOMMON,global,class=COMMON,space=1,delta=1,noexec
    13                           	psect	cstackBANK0,global,class=BANK0,space=1,delta=1,noexec
    14                           	psect	maintext,global,class=CODE,split=1,delta=2
    15                           	psect	text1,local,class=CODE,merge=1,delta=2,group=2
    16                           	psect	text2,local,class=CODE,merge=1,delta=2,group=2
    17                           	psect	text3,local,class=CODE,merge=1,delta=2
    18                           	psect	text4,local,class=CODE,merge=1,delta=2,group=2
    19                           	psect	text5,local,class=CODE,merge=1,delta=2,group=2
    20                           	psect	text6,local,class=CODE,merge=1,delta=2,group=1
    21                           	psect	text7,local,class=CODE,merge=1,delta=2,group=1
    22                           	psect	text8,local,class=CODE,merge=1,delta=2,group=1
    23                           	psect	text9,local,class=CODE,merge=1,delta=2,group=1
    24                           	psect	text10,local,class=CODE,merge=1,delta=2,group=1
    25                           	psect	text11,local,class=CODE,merge=1,delta=2,group=1
    26                           	psect	text12,local,class=CODE,merge=1,delta=2,group=1
    27                           	psect	text13,local,class=CODE,merge=1,delta=2,group=1
    28                           	psect	text14,local,class=CODE,merge=1,delta=2,group=1
    29                           	psect	text15,local,class=CODE,merge=1,delta=2
    30                           	psect	text16,local,class=CODE,merge=1,delta=2
    31                           	psect	text17,local,class=CODE,merge=1,delta=2
    32                           	psect	text18,local,class=CODE,merge=1,delta=2
    33                           	psect	text19,local,class=CODE,merge=1,delta=2
    34                           	psect	text20,local,class=CODE,merge=1,delta=2
    35                           	psect	text21,local,class=CODE,merge=1,delta=2
    36                           	psect	text22,local,class=CODE,merge=1,delta=2
    37                           	psect	text23,local,class=CODE,merge=1,delta=2
    38                           	psect	intentry,global,class=CODE,delta=2
    39                           	psect	text24,local,class=CODE,merge=1,delta=2
    40                           	psect	text25,local,class=CODE,merge=1,delta=2
    41                           	psect	text26,local,class=CODE,merge=1,delta=2
    42                           	psect	text27,local,class=CODE,merge=1,delta=2
    43                           	psect	text28,local,class=CODE,merge=1,delta=2
    44                           	psect	config,global,abs,ovrld,class=CONFIG,space=4,delta=2,noexec
    45                           	dabs	1,0x7E,2
    46  0000                     
    47                           ; Version 2.20
    48                           ; Generated 12/02/2020 GMT
    49                           ; 
    50                           ; Copyright © 2020, Microchip Technology Inc. and its subsidiaries ("Microchip")
    51                           ; All rights reserved.
    52                           ; 
    53                           ; This software is developed by Microchip Technology Inc. and its subsidiaries ("Microch
      +                          ip").
    54                           ; 
    55                           ; Redistribution and use in source and binary forms, with or without modification, are
    56                           ; permitted provided that the following conditions are met:
    57                           ; 
    58                           ;     1. Redistributions of source code must retain the above copyright notice, this lis
      +                          t of
    59                           ;        conditions and the following disclaimer.
    60                           ; 
    61                           ;     2. Redistributions in binary form must reproduce the above copyright notice, this 
      +                          list
    62                           ;        of conditions and the following disclaimer in the documentation and/or other
    63                           ;        materials provided with the distribution.
    64                           ; 
    65                           ;     3. Microchip's name may not be used to endorse or promote products derived from th
      +                          is
    66                           ;        software without specific prior written permission.
    67                           ; 
    68                           ; THIS SOFTWARE IS PROVIDED BY MICROCHIP "AS IS" AND ANY EXPRESS OR IMPLIED WARRANTIES,
    69                           ; INCLUDING, BUT NOT LIMITED TO, THE IMPLIED WARRANTIES OF MERCHANTABILITY AND FITNESS F
      +                          OR
    70                           ; PURPOSE ARE DISCLAIMED.  IN NO EVENT SHALL MICROCHIP BE LIABLE FOR ANY DIRECT, INDIREC
      +                          T,
    71                           ; INCIDENTAL, SPECIAL, EXEMPLARY, OR CONSEQUENTIAL DAMAGES (INCLUDING BUT NOT LIMITED TO
    72                           ; PROCUREMENT OF SUBSTITUTE GOODS OR SERVICES; LOSS OF USE, DATA OR PROFITS; OR BUSINESS
    73                           ; INTERRUPTION) HOWSOEVER CAUSED AND ON ANY THEORY OF LIABILITY, WHETHER IN CONTRACT, ST
      +                          RICT
    74                           ; LIABILITY, OR TORT (INCLUDING NEGLIGENCE OR OTHERWISE) ARISING IN ANY WAY OUT OF THE U
      +                          SE OF
    75                           ; THIS SOFTWARE, EVEN IF ADVISED OF THE POSSIBILITY OF SUCH DAMAGE.
    76                           ; 
    77                           ; 
    78                           ; Code-generator required, PIC16F887 Definitions
    79                           ; 
    80                           ; SFR Addresses
    81  0000                     	;# 
    82  0001                     	;# 
    83  0002                     	;# 
    84  0003                     	;# 
    85  0004                     	;# 
    86  0005                     	;# 
    87  0006                     	;# 
    88  0007                     	;# 
    89  0008                     	;# 
    90  0009                     	;# 
    91  000A                     	;# 
    92  000B                     	;# 
    93  000C                     	;# 
    94  000D                     	;# 
    95  000E                     	;# 
    96  000E                     	;# 
    97  000F                     	;# 
    98  0010                     	;# 
    99  0011                     	;# 
   100  0012                     	;# 
   101  0013                     	;# 
   102  0014                     	;# 
   103  0015                     	;# 
   104  0015                     	;# 
   105  0016                     	;# 
   106  0017                     	;# 
   107  0018                     	;# 
   108  0019                     	;# 
   109  001A                     	;# 
   110  001B                     	;# 
   111  001B                     	;# 
   112  001C                     	;# 
   113  001D                     	;# 
   114  001E                     	;# 
   115  001F                     	;# 
   116  0081                     	;# 
   117  0085                     	;# 
   118  0086                     	;# 
   119  0087                     	;# 
   120  0088                     	;# 
   121  0089                     	;# 
   122  008C                     	;# 
   123  008D                     	;# 
   124  008E                     	;# 
   125  008F                     	;# 
   126  0090                     	;# 
   127  0091                     	;# 
   128  0092                     	;# 
   129  0093                     	;# 
   130  0093                     	;# 
   131  0093                     	;# 
   132  0094                     	;# 
   133  0095                     	;# 
   134  0096                     	;# 
   135  0097                     	;# 
   136  0098                     	;# 
   137  0099                     	;# 
   138  009A                     	;# 
   139  009B                     	;# 
   140  009C                     	;# 
   141  009D                     	;# 
   142  009E                     	;# 
   143  009F                     	;# 
   144  0105                     	;# 
   145  0107                     	;# 
   146  0108                     	;# 
   147  0109                     	;# 
   148  010C                     	;# 
   149  010C                     	;# 
   150  010D                     	;# 
   151  010E                     	;# 
   152  010F                     	;# 
   153  0185                     	;# 
   154  0187                     	;# 
   155  0188                     	;# 
   156  0189                     	;# 
   157  018C                     	;# 
   158  018D                     	;# 
   159  0000                     	;# 
   160  0001                     	;# 
   161  0002                     	;# 
   162  0003                     	;# 
   163  0004                     	;# 
   164  0005                     	;# 
   165  0006                     	;# 
   166  0007                     	;# 
   167  0008                     	;# 
   168  0009                     	;# 
   169  000A                     	;# 
   170  000B                     	;# 
   171  000C                     	;# 
   172  000D                     	;# 
   173  000E                     	;# 
   174  000E                     	;# 
   175  000F                     	;# 
   176  0010                     	;# 
   177  0011                     	;# 
   178  0012                     	;# 
   179  0013                     	;# 
   180  0014                     	;# 
   181  0015                     	;# 
   182  0015                     	;# 
   183  0016                     	;# 
   184  0017                     	;# 
   185  0018                     	;# 
   186  0019                     	;# 
   187  001A                     	;# 
   188  001B                     	;# 
   189  001B                     	;# 
   190  001C                     	;# 
   191  001D                     	;# 
   192  001E                     	;# 
   193  001F                     	;# 
   194  0081                     	;# 
   195  0085                     	;# 
   196  0086                     	;# 
   197  0087                     	;# 
   198  0088                     	;# 
   199  0089                     	;# 
   200  008C                     	;# 
   201  008D                     	;# 
   202  008E                     	;# 
   203  008F                     	;# 
   204  0090                     	;# 
   205  0091                     	;# 
   206  0092                     	;# 
   207  0093                     	;# 
   208  0093                     	;# 
   209  0093                     	;# 
   210  0094                     	;# 
   211  0095                     	;# 
   212  0096                     	;# 
   213  0097                     	;# 
   214  0098                     	;# 
   215  0099                     	;# 
   216  009A                     	;# 
   217  009B                     	;# 
   218  009C                     	;# 
   219  009D                     	;# 
   220  009E                     	;# 
   221  009F                     	;# 
   222  0105                     	;# 
   223  0107                     	;# 
   224  0108                     	;# 
   225  0109                     	;# 
   226  010C                     	;# 
   227  010C                     	;# 
   228  010D                     	;# 
   229  010E                     	;# 
   230  010F                     	;# 
   231  0185                     	;# 
   232  0187                     	;# 
   233  0188                     	;# 
   234  0189                     	;# 
   235  018C                     	;# 
   236  018D                     	;# 
   237  0000                     	;# 
   238  0001                     	;# 
   239  0002                     	;# 
   240  0003                     	;# 
   241  0004                     	;# 
   242  0005                     	;# 
   243  0006                     	;# 
   244  0007                     	;# 
   245  0008                     	;# 
   246  0009                     	;# 
   247  000A                     	;# 
   248  000B                     	;# 
   249  000C                     	;# 
   250  000D                     	;# 
   251  000E                     	;# 
   252  000E                     	;# 
   253  000F                     	;# 
   254  0010                     	;# 
   255  0011                     	;# 
   256  0012                     	;# 
   257  0013                     	;# 
   258  0014                     	;# 
   259  0015                     	;# 
   260  0015                     	;# 
   261  0016                     	;# 
   262  0017                     	;# 
   263  0018                     	;# 
   264  0019                     	;# 
   265  001A                     	;# 
   266  001B                     	;# 
   267  001B                     	;# 
   268  001C                     	;# 
   269  001D                     	;# 
   270  001E                     	;# 
   271  001F                     	;# 
   272  0081                     	;# 
   273  0085                     	;# 
   274  0086                     	;# 
   275  0087                     	;# 
   276  0088                     	;# 
   277  0089                     	;# 
   278  008C                     	;# 
   279  008D                     	;# 
   280  008E                     	;# 
   281  008F                     	;# 
   282  0090                     	;# 
   283  0091                     	;# 
   284  0092                     	;# 
   285  0093                     	;# 
   286  0093                     	;# 
   287  0093                     	;# 
   288  0094                     	;# 
   289  0095                     	;# 
   290  0096                     	;# 
   291  0097                     	;# 
   292  0098                     	;# 
   293  0099                     	;# 
   294  009A                     	;# 
   295  009B                     	;# 
   296  009C                     	;# 
   297  009D                     	;# 
   298  009E                     	;# 
   299  009F                     	;# 
   300  0105                     	;# 
   301  0107                     	;# 
   302  0108                     	;# 
   303  0109                     	;# 
   304  010C                     	;# 
   305  010C                     	;# 
   306  010D                     	;# 
   307  010E                     	;# 
   308  010F                     	;# 
   309  0185                     	;# 
   310  0187                     	;# 
   311  0188                     	;# 
   312  0189                     	;# 
   313  018C                     	;# 
   314  018D                     	;# 
   315  0000                     	;# 
   316  0001                     	;# 
   317  0002                     	;# 
   318  0003                     	;# 
   319  0004                     	;# 
   320  0005                     	;# 
   321  0006                     	;# 
   322  0007                     	;# 
   323  0008                     	;# 
   324  0009                     	;# 
   325  000A                     	;# 
   326  000B                     	;# 
   327  000C                     	;# 
   328  000D                     	;# 
   329  000E                     	;# 
   330  000E                     	;# 
   331  000F                     	;# 
   332  0010                     	;# 
   333  0011                     	;# 
   334  0012                     	;# 
   335  0013                     	;# 
   336  0014                     	;# 
   337  0015                     	;# 
   338  0015                     	;# 
   339  0016                     	;# 
   340  0017                     	;# 
   341  0018                     	;# 
   342  0019                     	;# 
   343  001A                     	;# 
   344  001B                     	;# 
   345  001B                     	;# 
   346  001C                     	;# 
   347  001D                     	;# 
   348  001E                     	;# 
   349  001F                     	;# 
   350  0081                     	;# 
   351  0085                     	;# 
   352  0086                     	;# 
   353  0087                     	;# 
   354  0088                     	;# 
   355  0089                     	;# 
   356  008C                     	;# 
   357  008D                     	;# 
   358  008E                     	;# 
   359  008F                     	;# 
   360  0090                     	;# 
   361  0091                     	;# 
   362  0092                     	;# 
   363  0093                     	;# 
   364  0093                     	;# 
   365  0093                     	;# 
   366  0094                     	;# 
   367  0095                     	;# 
   368  0096                     	;# 
   369  0097                     	;# 
   370  0098                     	;# 
   371  0099                     	;# 
   372  009A                     	;# 
   373  009B                     	;# 
   374  009C                     	;# 
   375  009D                     	;# 
   376  009E                     	;# 
   377  009F                     	;# 
   378  0105                     	;# 
   379  0107                     	;# 
   380  0108                     	;# 
   381  0109                     	;# 
   382  010C                     	;# 
   383  010C                     	;# 
   384  010D                     	;# 
   385  010E                     	;# 
   386  010F                     	;# 
   387  0185                     	;# 
   388  0187                     	;# 
   389  0188                     	;# 
   390  0189                     	;# 
   391  018C                     	;# 
   392  018D                     	;# 
   393  0000                     	;# 
   394  0001                     	;# 
   395  0002                     	;# 
   396  0003                     	;# 
   397  0004                     	;# 
   398  0005                     	;# 
   399  0006                     	;# 
   400  0007                     	;# 
   401  0008                     	;# 
   402  0009                     	;# 
   403  000A                     	;# 
   404  000B                     	;# 
   405  000C                     	;# 
   406  000D                     	;# 
   407  000E                     	;# 
   408  000E                     	;# 
   409  000F                     	;# 
   410  0010                     	;# 
   411  0011                     	;# 
   412  0012                     	;# 
   413  0013                     	;# 
   414  0014                     	;# 
   415  0015                     	;# 
   416  0015                     	;# 
   417  0016                     	;# 
   418  0017                     	;# 
   419  0018                     	;# 
   420  0019                     	;# 
   421  001A                     	;# 
   422  001B                     	;# 
   423  001B                     	;# 
   424  001C                     	;# 
   425  001D                     	;# 
   426  001E                     	;# 
   427  001F                     	;# 
   428  0081                     	;# 
   429  0085                     	;# 
   430  0086                     	;# 
   431  0087                     	;# 
   432  0088                     	;# 
   433  0089                     	;# 
   434  008C                     	;# 
   435  008D                     	;# 
   436  008E                     	;# 
   437  008F                     	;# 
   438  0090                     	;# 
   439  0091                     	;# 
   440  0092                     	;# 
   441  0093                     	;# 
   442  0093                     	;# 
   443  0093                     	;# 
   444  0094                     	;# 
   445  0095                     	;# 
   446  0096                     	;# 
   447  0097                     	;# 
   448  0098                     	;# 
   449  0099                     	;# 
   450  009A                     	;# 
   451  009B                     	;# 
   452  009C                     	;# 
   453  009D                     	;# 
   454  009E                     	;# 
   455  009F                     	;# 
   456  0105                     	;# 
   457  0107                     	;# 
   458  0108                     	;# 
   459  0109                     	;# 
   460  010C                     	;# 
   461  010C                     	;# 
   462  010D                     	;# 
   463  010E                     	;# 
   464  010F                     	;# 
   465  0185                     	;# 
   466  0187                     	;# 
   467  0188                     	;# 
   468  0189                     	;# 
   469  018C                     	;# 
   470  018D                     	;# 
   471  0019                     _TXREG	set	25
   472  000B                     _INTCONbits	set	11
   473  0018                     _RCSTAbits	set	24
   474  001E                     _ADRESH	set	30
   475  000C                     _PIR1bits	set	12
   476  001F                     _ADCON0bits	set	31
   477  0009                     _PORTE	set	9
   478  0008                     _PORTD	set	8
   479  0007                     _PORTC	set	7
   480  0006                     _PORTB	set	6
   481  0005                     _PORTA	set	5
   482  0006                     _PORTBbits	set	6
   483  001A                     _RCREG	set	26
   484  004A                     _RE2	set	74
   485  0049                     _RE1	set	73
   486  0048                     _RE0	set	72
   487  0065                     _RCIF	set	101
   488  008C                     _PIE1bits	set	140
   489  0098                     _TXSTAbits	set	152
   490  0099                     _SPBRG	set	153
   491  009F                     _ADCON1bits	set	159
   492  008F                     _OSCCONbits	set	143
   493  0089                     _TRISE	set	137
   494  0088                     _TRISD	set	136
   495  0086                     _TRISB	set	134
   496  0085                     _TRISA	set	133
   497  04C1                     _TRMT	set	1217
   498  0189                     _ANSELH	set	393
   499  0188                     _ANSEL	set	392
   500                           
   501                           	psect	strings
   502  1000                     __pstrings:
   503  1000                     stringtab:
   504  1000                     __stringtab:
   505                           
   506                           ;	String table - string pointers are 1 byte each
   507  1000  1BFF               	btfsc	btemp+1,7
   508  1001  280A               	ljmp	stringcode
   509  1002  1383               	bcf	3,7
   510  1003  187F               	btfsc	btemp+1,0
   511  1004  1783               	bsf	3,7
   512  1005  0800               	movf	0,w
   513  1006  0A84               	incf	4,f
   514  1007  1903               	skipnz
   515  1008  0AFF               	incf	btemp+1,f
   516  1009  0008               	return
   517  100A                     stringcode:
   518  100A                     stringdir:
   519  100A  3010               	movlw	high stringdir
   520  100B  008A               	movwf	10
   521  100C  0804               	movf	4,w
   522  100D  0A84               	incf	4,f
   523  100E  0782               	addwf	2,f
   524  100F                     __stringbase:
   525  100F  3400               	retlw	0
   526  1010                     __end_of__stringtab:
   527  1010                     STR_1:
   528  1010  3453               	retlw	83	;'S'
   529  1011  3431               	retlw	49	;'1'
   530  1012  3420               	retlw	32	;' '
   531  1013  3420               	retlw	32	;' '
   532  1014  3420               	retlw	32	;' '
   533  1015  3420               	retlw	32	;' '
   534  1016  3453               	retlw	83	;'S'
   535  1017  3432               	retlw	50	;'2'
   536  1018  3420               	retlw	32	;' '
   537  1019  3420               	retlw	32	;' '
   538  101A  3420               	retlw	32	;' '
   539  101B  3420               	retlw	32	;' '
   540  101C  3453               	retlw	83	;'S'
   541  101D  3433               	retlw	51	;'3'
   542  101E  3420               	retlw	32	;' '
   543  101F  3420               	retlw	32	;' '
   544  1020  3400               	retlw	0
   545  1021                     STR_2:
   546  1021  342E               	retlw	46	;'.'
   547  1022  3400               	retlw	0
   548  101F                     
   549                           	psect	cinit
   550  0013                     start_initialization:	
   551                           ; #config settings
   552                           
   553  0013                     __initialization:
   554                           
   555                           ; Clear objects allocated to BANK0
   556  0013  1383               	bcf	3,7	;select IRP bank0
   557  0014  304D               	movlw	low __pbssBANK0
   558  0015  0084               	movwf	4
   559  0016  305D               	movlw	low (__pbssBANK0+16)
   560  0017  160A  118A  25AA  120A  118A  	fcall	clear_ram0
   561                           
   562                           ; Clear objects allocated to BANK1
   563  001C  30A0               	movlw	low __pbssBANK1
   564  001D  0084               	movwf	4
   565  001E  30D6               	movlw	low (__pbssBANK1+54)
   566  001F  160A  118A  25AA  120A  118A  	fcall	clear_ram0
   567                           
   568                           ; Clear objects allocated to BANK3
   569  0024  1683               	bsf	3,5	;RP0=1, select bank3
   570  0025  1703               	bsf	3,6	;RP1=1, select bank3
   571  0026  01A1               	clrf	__pbssBANK3& (0+127)
   572  0027  01A2               	clrf	(__pbssBANK3+1)& (0+127)
   573  0028  01A3               	clrf	(__pbssBANK3+2)& (0+127)
   574  0029  01A4               	clrf	(__pbssBANK3+3)& (0+127)
   575  002A  01A5               	clrf	(__pbssBANK3+4)& (0+127)
   576  002B                     end_of_initialization:	
   577                           ;End of C runtime variable initialization code
   578                           
   579  002B                     __end_of__initialization:
   580  002B  0183               	clrf	3
   581  002C  120A  158A  2C20   	ljmp	_main	;jump to C main() function
   582                           
   583                           	psect	bssBANK0
   584  004D                     __pbssBANK0:
   585  004D                     _V2:
   586  004D                     	ds	2
   587  004F                     _POT1C:
   588  004F                     	ds	2
   589  0051                     _POT1B:
   590  0051                     	ds	2
   591  0053                     _POT1A:
   592  0053                     	ds	2
   593  0055                     _V1:
   594  0055                     	ds	2
   595  0057                     _Destination:
   596  0057                     	ds	2
   597  0059                     _O:
   598  0059                     	ds	2
   599  005B                     _Contador:
   600  005B                     	ds	1
   601  005C                     _adc:
   602  005C                     	ds	1
   603                           
   604                           	psect	bssBANK1
   605  00A0                     __pbssBANK1:
   606  00A0                     _voltaje2:
   607  00A0                     	ds	4
   608  00A4                     _voltaje:
   609  00A4                     	ds	4
   610  00A8                     _POT2C:
   611  00A8                     	ds	2
   612  00AA                     _POT2B:
   613  00AA                     	ds	2
   614  00AC                     _POT2A:
   615  00AC                     	ds	2
   616  00AE                     _PUNTO2:
   617  00AE                     	ds	5
   618  00B3                     _POT2SC:
   619  00B3                     	ds	5
   620  00B8                     _POT2SB:
   621  00B8                     	ds	5
   622  00BD                     _POT2SA:
   623  00BD                     	ds	5
   624  00C2                     _PUNTO1:
   625  00C2                     	ds	5
   626  00C7                     _POT1SC:
   627  00C7                     	ds	5
   628  00CC                     _POT1SB:
   629  00CC                     	ds	5
   630  00D1                     _POT1SA:
   631  00D1                     	ds	5
   632                           
   633                           	psect	bssBANK3
   634  01A1                     __pbssBANK3:
   635  01A1                     _COMPARE:
   636  01A1                     	ds	5
   637                           
   638                           	psect	clrtext
   639  15AA                     clear_ram0:	
   640                           ;	Called with FSR containing the base address, and
   641                           ;	W with the last address+1
   642                           
   643  15AA  0064               	clrwdt	;clear the watchdog before getting into this loop
   644  15AB                     clrloop0:
   645  15AB  0180               	clrf	0	;clear RAM location pointed to by FSR
   646  15AC  0A84               	incf	4,f	;increment pointer
   647  15AD  0604               	xorwf	4,w	;XOR with final address
   648  15AE  1903               	btfsc	3,2	;have we reached the end yet?
   649  15AF  3400               	retlw	0	;all done for this memory range, return
   650  15B0  0604               	xorwf	4,w	;XOR again to restore value
   651  15B1  2DAB               	goto	clrloop0	;do the next byte
   652                           
   653                           	psect	cstackBANK3
   654  0190                     __pcstackBANK3:
   655  0190                     ___fldiv@rem:
   656                           
   657                           ; 4 bytes @ 0x0
   658  0190                     	ds	4
   659  0194                     ___fldiv@sign:
   660                           
   661                           ; 1 bytes @ 0x4
   662  0194                     	ds	1
   663  0195                     ___fldiv@new_exp:
   664                           
   665                           ; 2 bytes @ 0x5
   666  0195                     	ds	2
   667  0197                     ___fldiv@grs:
   668                           
   669                           ; 4 bytes @ 0x7
   670  0197                     	ds	4
   671  019B                     ___fldiv@bexp:
   672                           
   673                           ; 1 bytes @ 0xB
   674  019B                     	ds	1
   675  019C                     ___fldiv@aexp:
   676                           
   677                           ; 1 bytes @ 0xC
   678  019C                     	ds	1
   679  019D                     ??_main:
   680                           
   681                           ; 1 bytes @ 0xD
   682  019D                     	ds	4
   683                           
   684                           	psect	cstackBANK1
   685  00D6                     __pcstackBANK1:
   686  00D6                     ___flmul@sign:
   687                           
   688                           ; 1 bytes @ 0x0
   689  00D6                     	ds	1
   690  00D7                     ___flmul@aexp:
   691                           
   692                           ; 1 bytes @ 0x1
   693  00D7                     	ds	1
   694  00D8                     ___flmul@grs:
   695                           
   696                           ; 4 bytes @ 0x2
   697  00D8                     	ds	4
   698  00DC                     ___flmul@bexp:
   699                           
   700                           ; 1 bytes @ 0x6
   701  00DC                     	ds	1
   702  00DD                     ___flmul@prod:
   703                           
   704                           ; 4 bytes @ 0x7
   705  00DD                     	ds	4
   706  00E1                     ___flmul@temp:
   707                           
   708                           ; 2 bytes @ 0xB
   709  00E1                     	ds	2
   710  00E3                     ?___fltol:
   711  00E3                     ?___fldiv:	
   712                           ; 4 bytes @ 0xD
   713                           
   714  00E3                     ___fltol@f1:	
   715                           ; 4 bytes @ 0xD
   716                           
   717  00E3                     ___fldiv@a:	
   718                           ; 4 bytes @ 0xD
   719                           
   720                           
   721                           ; 4 bytes @ 0xD
   722  00E3                     	ds	4
   723  00E7                     ??___fltol:
   724  00E7                     ___fldiv@b:	
   725                           ; 1 bytes @ 0x11
   726                           
   727                           
   728                           ; 4 bytes @ 0x11
   729  00E7                     	ds	4
   730  00EB                     ??___fldiv:
   731                           
   732                           ; 1 bytes @ 0x15
   733  00EB                     	ds	1
   734  00EC                     ___fltol@sign1:
   735                           
   736                           ; 1 bytes @ 0x16
   737  00EC                     	ds	1
   738  00ED                     ___fltol@exp1:
   739                           
   740                           ; 1 bytes @ 0x17
   741  00ED                     	ds	3
   742                           
   743                           	psect	cstackCOMMON
   744  0070                     __pcstackCOMMON:
   745  0070                     ?_setup:
   746  0070                     ?_Lcd_Init:	
   747                           ; 1 bytes @ 0x0
   748                           
   749  0070                     ?_SERIAL_Init:	
   750                           ; 1 bytes @ 0x0
   751                           
   752  0070                     ?_ADC_Init:	
   753                           ; 1 bytes @ 0x0
   754                           
   755  0070                     ?_Lcd_Cmd:	
   756                           ; 1 bytes @ 0x0
   757                           
   758  0070                     ?_UART_Write:	
   759                           ; 1 bytes @ 0x0
   760                           
   761  0070                     ?_ISR:	
   762                           ; 1 bytes @ 0x0
   763                           
   764  0070                     ?_main:	
   765                           ; 1 bytes @ 0x0
   766                           
   767  0070                     ?_Lcd_Write_Char:	
   768                           ; 1 bytes @ 0x0
   769                           
   770  0070                     ?_CONTADOR:	
   771                           ; 1 bytes @ 0x0
   772                           
   773  0070                     ?i1___lwdiv:	
   774                           ; 2 bytes @ 0x0
   775                           
   776  0070                     ?i1___lwmod:	
   777                           ; 2 bytes @ 0x0
   778                           
   779  0070                     CONTADOR@n:	
   780                           ; 2 bytes @ 0x0
   781                           
   782  0070                     i1___lwdiv@divisor:	
   783                           ; 2 bytes @ 0x0
   784                           
   785  0070                     i1___lwmod@divisor:	
   786                           ; 2 bytes @ 0x0
   787                           
   788                           
   789                           ; 2 bytes @ 0x0
   790  0070                     	ds	2
   791  0072                     ??_CONTADOR:
   792  0072                     i1___lwdiv@dividend:	
   793                           ; 1 bytes @ 0x2
   794                           
   795  0072                     i1___lwmod@dividend:	
   796                           ; 2 bytes @ 0x2
   797                           
   798                           
   799                           ; 2 bytes @ 0x2
   800  0072                     	ds	2
   801  0074                     ??i1___lwdiv:
   802  0074                     ??i1___lwmod:	
   803                           ; 1 bytes @ 0x4
   804                           
   805                           
   806                           ; 1 bytes @ 0x4
   807  0074                     	ds	1
   808  0075                     i1___lwmod@counter:
   809  0075                     i1___lwdiv@quotient:	
   810                           ; 1 bytes @ 0x5
   811                           
   812                           
   813                           ; 2 bytes @ 0x5
   814  0075                     	ds	2
   815  0077                     i1___lwdiv@counter:
   816                           
   817                           ; 1 bytes @ 0x7
   818  0077                     	ds	1
   819  0078                     ?i1_utoa:
   820  0078                     i1utoa@buf:	
   821                           ; 1 bytes @ 0x8
   822                           
   823                           
   824                           ; 2 bytes @ 0x8
   825  0078                     	ds	2
   826  007A                     i1utoa@val:
   827                           
   828                           ; 2 bytes @ 0xA
   829  007A                     	ds	2
   830  007C                     i1utoa@base:
   831                           
   832                           ; 2 bytes @ 0xC
   833  007C                     	ds	2
   834                           
   835                           	psect	cstackBANK0
   836  0020                     __pcstackBANK0:
   837  0020                     ??i1_utoa:
   838                           
   839                           ; 1 bytes @ 0x0
   840  0020                     	ds	1
   841  0021                     i1utoa@v:
   842                           
   843                           ; 2 bytes @ 0x1
   844  0021                     	ds	2
   845  0023                     i1utoa@c:
   846                           
   847                           ; 1 bytes @ 0x3
   848  0023                     	ds	1
   849  0024                     ?i1_itoa:
   850  0024                     i1itoa@buf:	
   851                           ; 1 bytes @ 0x4
   852                           
   853                           
   854                           ; 2 bytes @ 0x4
   855  0024                     	ds	2
   856  0026                     i1itoa@val:
   857                           
   858                           ; 2 bytes @ 0x6
   859  0026                     	ds	2
   860  0028                     i1itoa@base:
   861                           
   862                           ; 2 bytes @ 0x8
   863  0028                     	ds	2
   864  002A                     ??i1_itoa:
   865                           
   866                           ; 1 bytes @ 0xA
   867  002A                     	ds	3
   868  002D                     ??_ISR:
   869                           
   870                           ; 1 bytes @ 0xD
   871  002D                     	ds	5
   872  0032                     ??_setup:
   873  0032                     ??_SERIAL_Init:	
   874                           ; 1 bytes @ 0x12
   875                           
   876  0032                     ??_ADC_Init:	
   877                           ; 1 bytes @ 0x12
   878                           
   879  0032                     ?_ADC_Read:	
   880                           ; 1 bytes @ 0x12
   881                           
   882  0032                     ?_strcpy:	
   883                           ; 1 bytes @ 0x12
   884                           
   885  0032                     ?_strcat:	
   886                           ; 1 bytes @ 0x12
   887                           
   888  0032                     ??_Lcd_Cmd:	
   889                           ; 1 bytes @ 0x12
   890                           
   891  0032                     ??_UART_Write:	
   892                           ; 1 bytes @ 0x12
   893                           
   894  0032                     ??_Lcd_Write_Char:	
   895                           ; 1 bytes @ 0x12
   896                           
   897  0032                     ?__Umul8_16:	
   898                           ; 1 bytes @ 0x12
   899                           
   900  0032                     ?___awdiv:	
   901                           ; 2 bytes @ 0x12
   902                           
   903  0032                     ?___lwdiv:	
   904                           ; 2 bytes @ 0x12
   905                           
   906  0032                     ?___lwmod:	
   907                           ; 2 bytes @ 0x12
   908                           
   909  0032                     ?___xxtofl:	
   910                           ; 2 bytes @ 0x12
   911                           
   912  0032                     UART_Write@a:	
   913                           ; 4 bytes @ 0x12
   914                           
   915  0032                     __Umul8_16@multiplicand:	
   916                           ; 1 bytes @ 0x12
   917                           
   918  0032                     strcat@from:	
   919                           ; 1 bytes @ 0x12
   920                           
   921  0032                     strcpy@from:	
   922                           ; 1 bytes @ 0x12
   923                           
   924  0032                     ADC_Read@a:	
   925                           ; 1 bytes @ 0x12
   926                           
   927  0032                     ___awdiv@divisor:	
   928                           ; 2 bytes @ 0x12
   929                           
   930  0032                     ___lwdiv@divisor:	
   931                           ; 2 bytes @ 0x12
   932                           
   933  0032                     ___lwmod@divisor:	
   934                           ; 2 bytes @ 0x12
   935                           
   936  0032                     ___xxtofl@val:	
   937                           ; 2 bytes @ 0x12
   938                           
   939                           
   940                           ; 4 bytes @ 0x12
   941  0032                     	ds	1
   942  0033                     ??_strcpy:
   943  0033                     ??_strcat:	
   944                           ; 1 bytes @ 0x13
   945                           
   946                           
   947                           ; 1 bytes @ 0x13
   948  0033                     	ds	1
   949  0034                     ??__Umul8_16:
   950  0034                     Lcd_Cmd@a:	
   951                           ; 1 bytes @ 0x14
   952                           
   953  0034                     Lcd_Write_Char@a:	
   954                           ; 1 bytes @ 0x14
   955                           
   956  0034                     strcat@cp:	
   957                           ; 1 bytes @ 0x14
   958                           
   959  0034                     strcpy@cp:	
   960                           ; 1 bytes @ 0x14
   961                           
   962  0034                     ADC_Read@b:	
   963                           ; 1 bytes @ 0x14
   964                           
   965  0034                     ___awdiv@dividend:	
   966                           ; 2 bytes @ 0x14
   967                           
   968  0034                     ___lwdiv@dividend:	
   969                           ; 2 bytes @ 0x14
   970                           
   971  0034                     ___lwmod@dividend:	
   972                           ; 2 bytes @ 0x14
   973                           
   974                           
   975                           ; 2 bytes @ 0x14
   976  0034                     	ds	1
   977  0035                     ??_Lcd_Init:
   978  0035                     ?_Lcd_Write_String:	
   979                           ; 1 bytes @ 0x15
   980                           
   981  0035                     strcat@to:	
   982                           ; 1 bytes @ 0x15
   983                           
   984  0035                     strcpy@to:	
   985                           ; 1 bytes @ 0x15
   986                           
   987  0035                     Lcd_Write_String@a:	
   988                           ; 1 bytes @ 0x15
   989                           
   990                           
   991                           ; 2 bytes @ 0x15
   992  0035                     	ds	1
   993  0036                     ??_ADC_Read:
   994  0036                     ??___awdiv:	
   995                           ; 1 bytes @ 0x16
   996                           
   997  0036                     ??___lwdiv:	
   998                           ; 1 bytes @ 0x16
   999                           
  1000  0036                     ??___lwmod:	
  1001                           ; 1 bytes @ 0x16
  1002                           
  1003  0036                     ??___xxtofl:	
  1004                           ; 1 bytes @ 0x16
  1005                           
  1006  0036                     __Umul8_16@product:	
  1007                           ; 1 bytes @ 0x16
  1008                           
  1009                           
  1010                           ; 2 bytes @ 0x16
  1011  0036                     	ds	1
  1012  0037                     ??_Lcd_Write_String:
  1013  0037                     ___awdiv@counter:	
  1014                           ; 1 bytes @ 0x17
  1015                           
  1016  0037                     ___lwmod@counter:	
  1017                           ; 1 bytes @ 0x17
  1018                           
  1019  0037                     ___lwdiv@quotient:	
  1020                           ; 1 bytes @ 0x17
  1021                           
  1022                           
  1023                           ; 2 bytes @ 0x17
  1024  0037                     	ds	1
  1025  0038                     ___awdiv@sign:
  1026  0038                     __Umul8_16@word_mpld:	
  1027                           ; 1 bytes @ 0x18
  1028                           
  1029                           
  1030                           ; 2 bytes @ 0x18
  1031  0038                     	ds	1
  1032  0039                     ___lwdiv@counter:
  1033  0039                     ___awdiv@quotient:	
  1034                           ; 1 bytes @ 0x19
  1035                           
  1036                           
  1037                           ; 2 bytes @ 0x19
  1038  0039                     	ds	1
  1039  003A                     ?_utoa:
  1040  003A                     __Umul8_16@multiplier:	
  1041                           ; 2 bytes @ 0x1A
  1042                           
  1043  003A                     ___xxtofl@sign:	
  1044                           ; 1 bytes @ 0x1A
  1045                           
  1046  003A                     utoa@buf:	
  1047                           ; 1 bytes @ 0x1A
  1048                           
  1049                           
  1050                           ; 2 bytes @ 0x1A
  1051  003A                     	ds	1
  1052  003B                     ?___awmod:
  1053  003B                     ___xxtofl@exp:	
  1054                           ; 2 bytes @ 0x1B
  1055                           
  1056  003B                     ___awmod@divisor:	
  1057                           ; 1 bytes @ 0x1B
  1058                           
  1059                           
  1060                           ; 2 bytes @ 0x1B
  1061  003B                     	ds	1
  1062  003C                     utoa@val:
  1063  003C                     ___xxtofl@arg:	
  1064                           ; 2 bytes @ 0x1C
  1065                           
  1066                           
  1067                           ; 4 bytes @ 0x1C
  1068  003C                     	ds	1
  1069  003D                     ___awmod@dividend:
  1070                           
  1071                           ; 2 bytes @ 0x1D
  1072  003D                     	ds	1
  1073  003E                     utoa@base:
  1074                           
  1075                           ; 2 bytes @ 0x1E
  1076  003E                     	ds	1
  1077  003F                     ??___awmod:
  1078                           
  1079                           ; 1 bytes @ 0x1F
  1080  003F                     	ds	1
  1081  0040                     ??_utoa:
  1082  0040                     ?___flmul:	
  1083                           ; 1 bytes @ 0x20
  1084                           
  1085  0040                     ___awmod@counter:	
  1086                           ; 4 bytes @ 0x20
  1087                           
  1088  0040                     ___flmul@b:	
  1089                           ; 1 bytes @ 0x20
  1090                           
  1091                           
  1092                           ; 4 bytes @ 0x20
  1093  0040                     	ds	1
  1094  0041                     ___awmod@sign:
  1095  0041                     utoa@v:	
  1096                           ; 1 bytes @ 0x21
  1097                           
  1098                           
  1099                           ; 2 bytes @ 0x21
  1100  0041                     	ds	2
  1101  0043                     utoa@c:
  1102                           
  1103                           ; 1 bytes @ 0x23
  1104  0043                     	ds	1
  1105  0044                     ?_itoa:
  1106  0044                     itoa@buf:	
  1107                           ; 2 bytes @ 0x24
  1108                           
  1109  0044                     ___flmul@a:	
  1110                           ; 2 bytes @ 0x24
  1111                           
  1112                           
  1113                           ; 4 bytes @ 0x24
  1114  0044                     	ds	2
  1115  0046                     itoa@val:
  1116                           
  1117                           ; 2 bytes @ 0x26
  1118  0046                     	ds	2
  1119  0048                     ??___flmul:
  1120  0048                     itoa@base:	
  1121                           ; 1 bytes @ 0x28
  1122                           
  1123                           
  1124                           ; 2 bytes @ 0x28
  1125  0048                     	ds	2
  1126  004A                     ??_itoa:
  1127                           
  1128                           ; 1 bytes @ 0x2A
  1129  004A                     	ds	3
  1130                           
  1131                           	psect	maintext
  1132  0C20                     __pmaintext:	
  1133 ;;
  1134 ;;Main: autosize = 0, tempsize = 4, incstack = 0, save=0
  1135 ;;
  1136 ;; *************** function _main *****************
  1137 ;; Defined at:
  1138 ;;		line 95 in file "LAB3.c"
  1139 ;; Parameters:    Size  Location     Type
  1140 ;;		None
  1141 ;; Auto vars:     Size  Location     Type
  1142 ;;		None
  1143 ;; Return value:  Size  Location     Type
  1144 ;;                  1    wreg      void 
  1145 ;; Registers used:
  1146 ;;		wreg, fsr0l, fsr0h, status,2, status,0, btemp+1, pclath, cstack
  1147 ;; Tracked objects:
  1148 ;;		On entry : B00/0
  1149 ;;		On exit  : 0/0
  1150 ;;		Unchanged: 0/0
  1151 ;; Data sizes:     COMMON   BANK0   BANK1   BANK3   BANK2
  1152 ;;      Params:         0       0       0       0       0
  1153 ;;      Locals:         0       0       0       0       0
  1154 ;;      Temps:          0       0       0       4       0
  1155 ;;      Totals:         0       0       0       4       0
  1156 ;;Total ram usage:        4 bytes
  1157 ;; Hardware stack levels required when called:    7
  1158 ;; This function calls:
  1159 ;;		_ADC_Init
  1160 ;;		_ADC_Read
  1161 ;;		_Lcd_Cmd
  1162 ;;		_Lcd_Init
  1163 ;;		_Lcd_Write_String
  1164 ;;		_SERIAL_Init
  1165 ;;		_UART_Write
  1166 ;;		___awdiv
  1167 ;;		___awmod
  1168 ;;		___fldiv
  1169 ;;		___flmul
  1170 ;;		___fltol
  1171 ;;		___xxtofl
  1172 ;;		_itoa
  1173 ;;		_setup
  1174 ;;		_strcat
  1175 ;;		_strcpy
  1176 ;; This function is called by:
  1177 ;;		Startup code after reset
  1178 ;; This function uses a non-reentrant model
  1179 ;;
  1180                           
  1181                           
  1182                           ;psect for function _main
  1183  0C20                     _main:
  1184  0C20                     l3081:	
  1185                           ;incstack = 0
  1186                           ; Regs used in _main: [wreg-fsr0h+status,2+status,0+btemp+1+pclath+cstack]
  1187                           
  1188                           
  1189                           ;LAB3.c: 97:     setup();
  1190  0C20  160A  118A  25FC  120A  158A  	fcall	_setup
  1191  0C25                     l113:	
  1192                           ;LAB3.c: 103:     while (1) {
  1193                           
  1194                           
  1195                           ;LAB3.c: 104:         Lcd_Init();
  1196  0C25  160A  118A  261A  120A  158A  	fcall	_Lcd_Init
  1197                           
  1198                           ;LAB3.c: 105:         SERIAL_Init();
  1199  0C2A  160A  118A  25E9  120A  158A  	fcall	_SERIAL_Init
  1200  0C2F                     l3083:
  1201                           
  1202                           ;LAB3.c: 106:         ADC_Init();
  1203  0C2F  160A  118A  25BD  120A  158A  	fcall	_ADC_Init
  1204  0C34                     l3085:
  1205                           
  1206                           ;LAB3.c: 108:         Lcd_Write_String("S1    S2    S3  ");
  1207  0C34  3001               	movlw	(low ((STR_1-__stringbase)| (0+32768)))& (0+255)
  1208  0C35  1283               	bcf	3,5	;RP0=0, select bank0
  1209  0C36  1303               	bcf	3,6	;RP1=0, select bank0
  1210  0C37  00B5               	movwf	Lcd_Write_String@a
  1211  0C38  3080               	movlw	128
  1212  0C39  00B6               	movwf	Lcd_Write_String@a+1
  1213  0C3A  160A  118A  265C  120A  158A  	fcall	_Lcd_Write_String
  1214  0C3F                     l3087:
  1215                           
  1216                           ;LAB3.c: 110:         _delay((unsigned long)((1)*(4000000/4000.0)));
  1217  0C3F  30C7               	movlw	199
  1218  0C40  1683               	bsf	3,5	;RP0=1, select bank3
  1219  0C41  1703               	bsf	3,6	;RP1=1, select bank3
  1220  0C42  009D               	movwf	??_main^(0+384)
  1221  0C43                     u4107:
  1222  0C43  2C44               	nop2
  1223  0C44  0B9D               	decfsz	??_main^(0+384),f
  1224  0C45  2C43               	goto	u4107
  1225  0C46  2C47               	nop2
  1226  0C47                     l3089:
  1227                           
  1228                           ;LAB3.c: 111:         adc=ADC_Read(0,0);
  1229  0C47  3000               	movlw	0
  1230  0C48  1283               	bcf	3,5	;RP0=0, select bank0
  1231  0C49  1303               	bcf	3,6	;RP1=0, select bank0
  1232  0C4A  00B2               	movwf	ADC_Read@a
  1233  0C4B  00B3               	movwf	ADC_Read@a+1
  1234  0C4C  3000               	movlw	0
  1235  0C4D  00B4               	movwf	ADC_Read@b
  1236  0C4E  00B5               	movwf	ADC_Read@b+1
  1237  0C4F  160A  118A  25D6  120A  158A  	fcall	_ADC_Read
  1238  0C54  1683               	bsf	3,5	;RP0=1, select bank3
  1239  0C55  1703               	bsf	3,6	;RP1=1, select bank3
  1240  0C56  009D               	movwf	??_main^(0+384)
  1241  0C57  081D               	movf	??_main^(0+384),w
  1242  0C58  1283               	bcf	3,5	;RP0=0, select bank0
  1243  0C59  1303               	bcf	3,6	;RP1=0, select bank0
  1244  0C5A  00DC               	movwf	_adc
  1245  0C5B                     l3091:
  1246                           
  1247                           ;LAB3.c: 113:         voltaje = (adc*5.0)/255.0;
  1248  0C5B  3043               	movlw	67
  1249  0C5C  1683               	bsf	3,5	;RP0=1, select bank1
  1250  0C5D  1303               	bcf	3,6	;RP1=0, select bank1
  1251  0C5E  00E6               	movwf	(___fldiv@a+3)^(0+128)
  1252  0C5F  307F               	movlw	127
  1253  0C60  00E5               	movwf	(___fldiv@a+2)^(0+128)
  1254  0C61  3000               	movlw	0
  1255  0C62  00E4               	movwf	(___fldiv@a+1)^(0+128)
  1256  0C63  3000               	movlw	0
  1257  0C64  00E3               	movwf	___fldiv@a^(0+128)
  1258  0C65  3040               	movlw	64
  1259  0C66  1283               	bcf	3,5	;RP0=0, select bank0
  1260  0C67  1303               	bcf	3,6	;RP1=0, select bank0
  1261  0C68  00C3               	movwf	___flmul@b+3
  1262  0C69  30A0               	movlw	160
  1263  0C6A  00C2               	movwf	___flmul@b+2
  1264  0C6B  3000               	movlw	0
  1265  0C6C  00C1               	movwf	___flmul@b+1
  1266  0C6D  3000               	movlw	0
  1267  0C6E  00C0               	movwf	___flmul@b
  1268  0C6F  085C               	movf	_adc,w
  1269  0C70  1683               	bsf	3,5	;RP0=1, select bank3
  1270  0C71  1703               	bsf	3,6	;RP1=1, select bank3
  1271  0C72  009D               	movwf	??_main^(0+384)
  1272  0C73  019E               	clrf	(??_main^(0+384)+1)
  1273  0C74  019F               	clrf	(??_main^(0+384)+2)
  1274  0C75  01A0               	clrf	(??_main^(0+384)+3)
  1275  0C76  0820               	movf	(??_main+3)^(0+384),w
  1276  0C77  1283               	bcf	3,5	;RP0=0, select bank0
  1277  0C78  1303               	bcf	3,6	;RP1=0, select bank0
  1278  0C79  00B5               	movwf	___xxtofl@val+3
  1279  0C7A  1683               	bsf	3,5	;RP0=1, select bank3
  1280  0C7B  1703               	bsf	3,6	;RP1=1, select bank3
  1281  0C7C  081F               	movf	(??_main+2)^(0+384),w
  1282  0C7D  1283               	bcf	3,5	;RP0=0, select bank0
  1283  0C7E  1303               	bcf	3,6	;RP1=0, select bank0
  1284  0C7F  00B4               	movwf	___xxtofl@val+2
  1285  0C80  1683               	bsf	3,5	;RP0=1, select bank3
  1286  0C81  1703               	bsf	3,6	;RP1=1, select bank3
  1287  0C82  081E               	movf	(??_main+1)^(0+384),w
  1288  0C83  1283               	bcf	3,5	;RP0=0, select bank0
  1289  0C84  1303               	bcf	3,6	;RP1=0, select bank0
  1290  0C85  00B3               	movwf	___xxtofl@val+1
  1291  0C86  1683               	bsf	3,5	;RP0=1, select bank3
  1292  0C87  1703               	bsf	3,6	;RP1=1, select bank3
  1293  0C88  081D               	movf	??_main^(0+384),w
  1294  0C89  1283               	bcf	3,5	;RP0=0, select bank0
  1295  0C8A  1303               	bcf	3,6	;RP1=0, select bank0
  1296  0C8B  00B2               	movwf	___xxtofl@val
  1297  0C8C  3001               	movlw	1
  1298  0C8D  120A  118A  258E  120A  158A  	fcall	___xxtofl
  1299  0C92  1283               	bcf	3,5	;RP0=0, select bank0
  1300  0C93  1303               	bcf	3,6	;RP1=0, select bank0
  1301  0C94  0835               	movf	?___xxtofl+3,w
  1302  0C95  00C7               	movwf	___flmul@a+3
  1303  0C96  0834               	movf	?___xxtofl+2,w
  1304  0C97  00C6               	movwf	___flmul@a+2
  1305  0C98  0833               	movf	?___xxtofl+1,w
  1306  0C99  00C5               	movwf	___flmul@a+1
  1307  0C9A  0832               	movf	?___xxtofl,w
  1308  0C9B  00C4               	movwf	___flmul@a
  1309  0C9C  120A  118A  202F  120A  158A  	fcall	___flmul
  1310  0CA1  1283               	bcf	3,5	;RP0=0, select bank0
  1311  0CA2  1303               	bcf	3,6	;RP1=0, select bank0
  1312  0CA3  0843               	movf	?___flmul+3,w
  1313  0CA4  1683               	bsf	3,5	;RP0=1, select bank1
  1314  0CA5  1303               	bcf	3,6	;RP1=0, select bank1
  1315  0CA6  00EA               	movwf	(___fldiv@b+3)^(0+128)
  1316  0CA7  1283               	bcf	3,5	;RP0=0, select bank0
  1317  0CA8  1303               	bcf	3,6	;RP1=0, select bank0
  1318  0CA9  0842               	movf	?___flmul+2,w
  1319  0CAA  1683               	bsf	3,5	;RP0=1, select bank1
  1320  0CAB  1303               	bcf	3,6	;RP1=0, select bank1
  1321  0CAC  00E9               	movwf	(___fldiv@b+2)^(0+128)
  1322  0CAD  1283               	bcf	3,5	;RP0=0, select bank0
  1323  0CAE  1303               	bcf	3,6	;RP1=0, select bank0
  1324  0CAF  0841               	movf	?___flmul+1,w
  1325  0CB0  1683               	bsf	3,5	;RP0=1, select bank1
  1326  0CB1  1303               	bcf	3,6	;RP1=0, select bank1
  1327  0CB2  00E8               	movwf	(___fldiv@b+1)^(0+128)
  1328  0CB3  1283               	bcf	3,5	;RP0=0, select bank0
  1329  0CB4  1303               	bcf	3,6	;RP1=0, select bank0
  1330  0CB5  0840               	movf	?___flmul,w
  1331  0CB6  1683               	bsf	3,5	;RP0=1, select bank1
  1332  0CB7  1303               	bcf	3,6	;RP1=0, select bank1
  1333  0CB8  00E7               	movwf	___fldiv@b^(0+128)
  1334  0CB9  120A  158A  2180  120A  158A  	fcall	___fldiv
  1335  0CBE  1683               	bsf	3,5	;RP0=1, select bank1
  1336  0CBF  1303               	bcf	3,6	;RP1=0, select bank1
  1337  0CC0  0866               	movf	(?___fldiv+3)^(0+128),w
  1338  0CC1  00A7               	movwf	(_voltaje+3)^(0+128)
  1339  0CC2  0865               	movf	(?___fldiv+2)^(0+128),w
  1340  0CC3  00A6               	movwf	(_voltaje+2)^(0+128)
  1341  0CC4  0864               	movf	(?___fldiv+1)^(0+128),w
  1342  0CC5  00A5               	movwf	(_voltaje+1)^(0+128)
  1343  0CC6  0863               	movf	?___fldiv^(0+128),w
  1344  0CC7  00A4               	movwf	_voltaje^(0+128)
  1345  0CC8                     l3093:
  1346                           
  1347                           ;LAB3.c: 114:         V1 = (voltaje)*100;
  1348  0CC8  0827               	movf	(_voltaje+3)^(0+128),w
  1349  0CC9  1283               	bcf	3,5	;RP0=0, select bank0
  1350  0CCA  1303               	bcf	3,6	;RP1=0, select bank0
  1351  0CCB  00C7               	movwf	___flmul@a+3
  1352  0CCC  1683               	bsf	3,5	;RP0=1, select bank1
  1353  0CCD  1303               	bcf	3,6	;RP1=0, select bank1
  1354  0CCE  0826               	movf	(_voltaje+2)^(0+128),w
  1355  0CCF  1283               	bcf	3,5	;RP0=0, select bank0
  1356  0CD0  1303               	bcf	3,6	;RP1=0, select bank0
  1357  0CD1  00C6               	movwf	___flmul@a+2
  1358  0CD2  1683               	bsf	3,5	;RP0=1, select bank1
  1359  0CD3  1303               	bcf	3,6	;RP1=0, select bank1
  1360  0CD4  0825               	movf	(_voltaje+1)^(0+128),w
  1361  0CD5  1283               	bcf	3,5	;RP0=0, select bank0
  1362  0CD6  1303               	bcf	3,6	;RP1=0, select bank0
  1363  0CD7  00C5               	movwf	___flmul@a+1
  1364  0CD8  1683               	bsf	3,5	;RP0=1, select bank1
  1365  0CD9  1303               	bcf	3,6	;RP1=0, select bank1
  1366  0CDA  0824               	movf	_voltaje^(0+128),w
  1367  0CDB  1283               	bcf	3,5	;RP0=0, select bank0
  1368  0CDC  1303               	bcf	3,6	;RP1=0, select bank0
  1369  0CDD  00C4               	movwf	___flmul@a
  1370  0CDE  3042               	movlw	66
  1371  0CDF  00C3               	movwf	___flmul@b+3
  1372  0CE0  30C8               	movlw	200
  1373  0CE1  00C2               	movwf	___flmul@b+2
  1374  0CE2  3000               	movlw	0
  1375  0CE3  00C1               	movwf	___flmul@b+1
  1376  0CE4  3000               	movlw	0
  1377  0CE5  00C0               	movwf	___flmul@b
  1378  0CE6  120A  118A  202F  120A  158A  	fcall	___flmul
  1379  0CEB  1283               	bcf	3,5	;RP0=0, select bank0
  1380  0CEC  1303               	bcf	3,6	;RP1=0, select bank0
  1381  0CED  0843               	movf	?___flmul+3,w
  1382  0CEE  1683               	bsf	3,5	;RP0=1, select bank1
  1383  0CEF  1303               	bcf	3,6	;RP1=0, select bank1
  1384  0CF0  00E6               	movwf	(___fltol@f1+3)^(0+128)
  1385  0CF1  1283               	bcf	3,5	;RP0=0, select bank0
  1386  0CF2  1303               	bcf	3,6	;RP1=0, select bank0
  1387  0CF3  0842               	movf	?___flmul+2,w
  1388  0CF4  1683               	bsf	3,5	;RP0=1, select bank1
  1389  0CF5  1303               	bcf	3,6	;RP1=0, select bank1
  1390  0CF6  00E5               	movwf	(___fltol@f1+2)^(0+128)
  1391  0CF7  1283               	bcf	3,5	;RP0=0, select bank0
  1392  0CF8  1303               	bcf	3,6	;RP1=0, select bank0
  1393  0CF9  0841               	movf	?___flmul+1,w
  1394  0CFA  1683               	bsf	3,5	;RP0=1, select bank1
  1395  0CFB  1303               	bcf	3,6	;RP1=0, select bank1
  1396  0CFC  00E4               	movwf	(___fltol@f1+1)^(0+128)
  1397  0CFD  1283               	bcf	3,5	;RP0=0, select bank0
  1398  0CFE  1303               	bcf	3,6	;RP1=0, select bank0
  1399  0CFF  0840               	movf	?___flmul,w
  1400  0D00  1683               	bsf	3,5	;RP0=1, select bank1
  1401  0D01  1303               	bcf	3,6	;RP1=0, select bank1
  1402  0D02  00E3               	movwf	___fltol@f1^(0+128)
  1403  0D03  120A  118A  274C  120A  158A  	fcall	___fltol
  1404  0D08  1683               	bsf	3,5	;RP0=1, select bank1
  1405  0D09  1303               	bcf	3,6	;RP1=0, select bank1
  1406  0D0A  0864               	movf	(?___fltol+1)^(0+128),w
  1407  0D0B  1283               	bcf	3,5	;RP0=0, select bank0
  1408  0D0C  1303               	bcf	3,6	;RP1=0, select bank0
  1409  0D0D  00D6               	movwf	_V1+1
  1410  0D0E  1683               	bsf	3,5	;RP0=1, select bank1
  1411  0D0F  1303               	bcf	3,6	;RP1=0, select bank1
  1412  0D10  0863               	movf	?___fltol^(0+128),w
  1413  0D11  1283               	bcf	3,5	;RP0=0, select bank0
  1414  0D12  1303               	bcf	3,6	;RP1=0, select bank0
  1415  0D13  00D5               	movwf	_V1
  1416  0D14                     l3095:
  1417                           
  1418                           ;LAB3.c: 115:         POT1A = V1%10;
  1419  0D14  300A               	movlw	10
  1420  0D15  00BB               	movwf	___awmod@divisor
  1421  0D16  3000               	movlw	0
  1422  0D17  00BC               	movwf	___awmod@divisor+1
  1423  0D18  0856               	movf	_V1+1,w
  1424  0D19  00BE               	movwf	___awmod@dividend+1
  1425  0D1A  0855               	movf	_V1,w
  1426  0D1B  00BD               	movwf	___awmod@dividend
  1427  0D1C  120A  158A  20BC  120A  158A  	fcall	___awmod
  1428  0D21  1283               	bcf	3,5	;RP0=0, select bank0
  1429  0D22  1303               	bcf	3,6	;RP1=0, select bank0
  1430  0D23  083C               	movf	?___awmod+1,w
  1431  0D24  00D4               	movwf	_POT1A+1
  1432  0D25  083B               	movf	?___awmod,w
  1433  0D26  00D3               	movwf	_POT1A
  1434  0D27                     l3097:
  1435                           
  1436                           ;LAB3.c: 116:         itoa(POT1SA,POT1A,10);
  1437  0D27  30D1               	movlw	(low (_POT1SA| 0))& (0+255)
  1438  0D28  00C4               	movwf	itoa@buf
  1439  0D29  3000               	movlw	0
  1440  0D2A  00C5               	movwf	itoa@buf+1
  1441  0D2B  0854               	movf	_POT1A+1,w
  1442  0D2C  00C7               	movwf	itoa@val+1
  1443  0D2D  0853               	movf	_POT1A,w
  1444  0D2E  00C6               	movwf	itoa@val
  1445  0D2F  300A               	movlw	10
  1446  0D30  00C8               	movwf	itoa@base
  1447  0D31  3000               	movlw	0
  1448  0D32  00C9               	movwf	itoa@base+1
  1449  0D33  120A  158A  2006  120A  158A  	fcall	_itoa
  1450  0D38                     l3099:
  1451                           
  1452                           ;LAB3.c: 117:         POT1B = (V1/10)%10;
  1453  0D38  300A               	movlw	10
  1454  0D39  1283               	bcf	3,5	;RP0=0, select bank0
  1455  0D3A  1303               	bcf	3,6	;RP1=0, select bank0
  1456  0D3B  00BB               	movwf	___awmod@divisor
  1457  0D3C  3000               	movlw	0
  1458  0D3D  00BC               	movwf	___awmod@divisor+1
  1459  0D3E  300A               	movlw	10
  1460  0D3F  00B2               	movwf	___awdiv@divisor
  1461  0D40  3000               	movlw	0
  1462  0D41  00B3               	movwf	___awdiv@divisor+1
  1463  0D42  0856               	movf	_V1+1,w
  1464  0D43  00B5               	movwf	___awdiv@dividend+1
  1465  0D44  0855               	movf	_V1,w
  1466  0D45  00B4               	movwf	___awdiv@dividend
  1467  0D46  120A  158A  2117  120A  158A  	fcall	___awdiv
  1468  0D4B  1283               	bcf	3,5	;RP0=0, select bank0
  1469  0D4C  1303               	bcf	3,6	;RP1=0, select bank0
  1470  0D4D  0833               	movf	?___awdiv+1,w
  1471  0D4E  00BE               	movwf	___awmod@dividend+1
  1472  0D4F  0832               	movf	?___awdiv,w
  1473  0D50  00BD               	movwf	___awmod@dividend
  1474  0D51  120A  158A  20BC  120A  158A  	fcall	___awmod
  1475  0D56  1283               	bcf	3,5	;RP0=0, select bank0
  1476  0D57  1303               	bcf	3,6	;RP1=0, select bank0
  1477  0D58  083C               	movf	?___awmod+1,w
  1478  0D59  00D2               	movwf	_POT1B+1
  1479  0D5A  083B               	movf	?___awmod,w
  1480  0D5B  00D1               	movwf	_POT1B
  1481  0D5C                     l3101:
  1482                           
  1483                           ;LAB3.c: 118:         itoa(POT1SB,POT1B,10);
  1484  0D5C  30CC               	movlw	(low (_POT1SB| 0))& (0+255)
  1485  0D5D  00C4               	movwf	itoa@buf
  1486  0D5E  3000               	movlw	0
  1487  0D5F  00C5               	movwf	itoa@buf+1
  1488  0D60  0852               	movf	_POT1B+1,w
  1489  0D61  00C7               	movwf	itoa@val+1
  1490  0D62  0851               	movf	_POT1B,w
  1491  0D63  00C6               	movwf	itoa@val
  1492  0D64  300A               	movlw	10
  1493  0D65  00C8               	movwf	itoa@base
  1494  0D66  3000               	movlw	0
  1495  0D67  00C9               	movwf	itoa@base+1
  1496  0D68  120A  158A  2006  120A  158A  	fcall	_itoa
  1497  0D6D                     l3103:
  1498                           
  1499                           ;LAB3.c: 119:         POT1C = (V1/100)%10;
  1500  0D6D  300A               	movlw	10
  1501  0D6E  1283               	bcf	3,5	;RP0=0, select bank0
  1502  0D6F  1303               	bcf	3,6	;RP1=0, select bank0
  1503  0D70  00BB               	movwf	___awmod@divisor
  1504  0D71  3000               	movlw	0
  1505  0D72  00BC               	movwf	___awmod@divisor+1
  1506  0D73  3064               	movlw	100
  1507  0D74  00B2               	movwf	___awdiv@divisor
  1508  0D75  3000               	movlw	0
  1509  0D76  00B3               	movwf	___awdiv@divisor+1
  1510  0D77  0856               	movf	_V1+1,w
  1511  0D78  00B5               	movwf	___awdiv@dividend+1
  1512  0D79  0855               	movf	_V1,w
  1513  0D7A  00B4               	movwf	___awdiv@dividend
  1514  0D7B  120A  158A  2117  120A  158A  	fcall	___awdiv
  1515  0D80  1283               	bcf	3,5	;RP0=0, select bank0
  1516  0D81  1303               	bcf	3,6	;RP1=0, select bank0
  1517  0D82  0833               	movf	?___awdiv+1,w
  1518  0D83  00BE               	movwf	___awmod@dividend+1
  1519  0D84  0832               	movf	?___awdiv,w
  1520  0D85  00BD               	movwf	___awmod@dividend
  1521  0D86  120A  158A  20BC  120A  158A  	fcall	___awmod
  1522  0D8B  1283               	bcf	3,5	;RP0=0, select bank0
  1523  0D8C  1303               	bcf	3,6	;RP1=0, select bank0
  1524  0D8D  083C               	movf	?___awmod+1,w
  1525  0D8E  00D0               	movwf	_POT1C+1
  1526  0D8F  083B               	movf	?___awmod,w
  1527  0D90  00CF               	movwf	_POT1C
  1528  0D91                     l3105:
  1529                           
  1530                           ;LAB3.c: 120:         itoa(POT1SC,POT1C,10);
  1531  0D91  30C7               	movlw	(low (_POT1SC| 0))& (0+255)
  1532  0D92  00C4               	movwf	itoa@buf
  1533  0D93  3000               	movlw	0
  1534  0D94  00C5               	movwf	itoa@buf+1
  1535  0D95  0850               	movf	_POT1C+1,w
  1536  0D96  00C7               	movwf	itoa@val+1
  1537  0D97  084F               	movf	_POT1C,w
  1538  0D98  00C6               	movwf	itoa@val
  1539  0D99  300A               	movlw	10
  1540  0D9A  00C8               	movwf	itoa@base
  1541  0D9B  3000               	movlw	0
  1542  0D9C  00C9               	movwf	itoa@base+1
  1543  0D9D  120A  158A  2006  120A  158A  	fcall	_itoa
  1544  0DA2                     l3107:
  1545                           
  1546                           ;LAB3.c: 121:         strcpy(PUNTO1,".");
  1547  0DA2  3012               	movlw	(low ((STR_2-__stringbase)| (0+32768)))& (0+255)
  1548  0DA3  1683               	bsf	3,5	;RP0=1, select bank3
  1549  0DA4  1703               	bsf	3,6	;RP1=1, select bank3
  1550  0DA5  009D               	movwf	??_main^(0+384)
  1551  0DA6  081D               	movf	??_main^(0+384),w
  1552  0DA7  1283               	bcf	3,5	;RP0=0, select bank0
  1553  0DA8  1303               	bcf	3,6	;RP1=0, select bank0
  1554  0DA9  00B2               	movwf	strcpy@from
  1555  0DAA  30C2               	movlw	(low (_PUNTO1| 0))& (0+255)
  1556  0DAB  160A  118A  2639  120A  158A  	fcall	_strcpy
  1557  0DB0                     l3109:
  1558                           
  1559                           ;LAB3.c: 122:         strcat(POT1SB,POT1SA);
  1560  0DB0  30D1               	movlw	(low (_POT1SA| 0))& (0+255)
  1561  0DB1  1683               	bsf	3,5	;RP0=1, select bank3
  1562  0DB2  1703               	bsf	3,6	;RP1=1, select bank3
  1563  0DB3  009D               	movwf	??_main^(0+384)
  1564  0DB4  081D               	movf	??_main^(0+384),w
  1565  0DB5  1283               	bcf	3,5	;RP0=0, select bank0
  1566  0DB6  1303               	bcf	3,6	;RP1=0, select bank0
  1567  0DB7  00B2               	movwf	strcat@from
  1568  0DB8  30CC               	movlw	(low (_POT1SB| 0))& (0+255)
  1569  0DB9  160A  118A  26AD  120A  158A  	fcall	_strcat
  1570  0DBE                     l3111:
  1571                           
  1572                           ;LAB3.c: 123:         strcat(PUNTO1,POT1SB);
  1573  0DBE  30CC               	movlw	(low (_POT1SB| 0))& (0+255)
  1574  0DBF  1683               	bsf	3,5	;RP0=1, select bank3
  1575  0DC0  1703               	bsf	3,6	;RP1=1, select bank3
  1576  0DC1  009D               	movwf	??_main^(0+384)
  1577  0DC2  081D               	movf	??_main^(0+384),w
  1578  0DC3  1283               	bcf	3,5	;RP0=0, select bank0
  1579  0DC4  1303               	bcf	3,6	;RP1=0, select bank0
  1580  0DC5  00B2               	movwf	strcat@from
  1581  0DC6  30C2               	movlw	(low (_PUNTO1| 0))& (0+255)
  1582  0DC7  160A  118A  26AD  120A  158A  	fcall	_strcat
  1583  0DCC                     l3113:
  1584                           
  1585                           ;LAB3.c: 124:         strcat(POT1SC,PUNTO1);
  1586  0DCC  30C2               	movlw	(low (_PUNTO1| 0))& (0+255)
  1587  0DCD  1683               	bsf	3,5	;RP0=1, select bank3
  1588  0DCE  1703               	bsf	3,6	;RP1=1, select bank3
  1589  0DCF  009D               	movwf	??_main^(0+384)
  1590  0DD0  081D               	movf	??_main^(0+384),w
  1591  0DD1  1283               	bcf	3,5	;RP0=0, select bank0
  1592  0DD2  1303               	bcf	3,6	;RP1=0, select bank0
  1593  0DD3  00B2               	movwf	strcat@from
  1594  0DD4  30C7               	movlw	(low (_POT1SC| 0))& (0+255)
  1595  0DD5  160A  118A  26AD  120A  158A  	fcall	_strcat
  1596  0DDA                     l3115:
  1597                           
  1598                           ;LAB3.c: 126:         _delay((unsigned long)((600)*(4000000/4000000.0)));
  1599  0DDA  30C7               	movlw	199
  1600  0DDB  1683               	bsf	3,5	;RP0=1, select bank3
  1601  0DDC  1703               	bsf	3,6	;RP1=1, select bank3
  1602  0DDD  009D               	movwf	??_main^(0+384)
  1603  0DDE                     u4117:
  1604  0DDE  0B9D               	decfsz	??_main^(0+384),f
  1605  0DDF  2DDE               	goto	u4117
  1606  0DE0                     l3117:
  1607                           
  1608                           ;LAB3.c: 127:         adc=ADC_Read(1,1);
  1609  0DE0  3001               	movlw	1
  1610  0DE1  1283               	bcf	3,5	;RP0=0, select bank0
  1611  0DE2  1303               	bcf	3,6	;RP1=0, select bank0
  1612  0DE3  00B2               	movwf	ADC_Read@a
  1613  0DE4  3000               	movlw	0
  1614  0DE5  00B3               	movwf	ADC_Read@a+1
  1615  0DE6  3001               	movlw	1
  1616  0DE7  00B4               	movwf	ADC_Read@b
  1617  0DE8  3000               	movlw	0
  1618  0DE9  00B5               	movwf	ADC_Read@b+1
  1619  0DEA  160A  118A  25D6  120A  158A  	fcall	_ADC_Read
  1620  0DEF  1683               	bsf	3,5	;RP0=1, select bank3
  1621  0DF0  1703               	bsf	3,6	;RP1=1, select bank3
  1622  0DF1  009D               	movwf	??_main^(0+384)
  1623  0DF2  081D               	movf	??_main^(0+384),w
  1624  0DF3  1283               	bcf	3,5	;RP0=0, select bank0
  1625  0DF4  1303               	bcf	3,6	;RP1=0, select bank0
  1626  0DF5  00DC               	movwf	_adc
  1627  0DF6                     l3119:
  1628                           
  1629                           ;LAB3.c: 129:         voltaje2 = adc*5.0/255.0;
  1630  0DF6  3043               	movlw	67
  1631  0DF7  1683               	bsf	3,5	;RP0=1, select bank1
  1632  0DF8  1303               	bcf	3,6	;RP1=0, select bank1
  1633  0DF9  00E6               	movwf	(___fldiv@a+3)^(0+128)
  1634  0DFA  307F               	movlw	127
  1635  0DFB  00E5               	movwf	(___fldiv@a+2)^(0+128)
  1636  0DFC  3000               	movlw	0
  1637  0DFD  00E4               	movwf	(___fldiv@a+1)^(0+128)
  1638  0DFE  3000               	movlw	0
  1639  0DFF  00E3               	movwf	___fldiv@a^(0+128)
  1640  0E00  3040               	movlw	64
  1641  0E01  1283               	bcf	3,5	;RP0=0, select bank0
  1642  0E02  1303               	bcf	3,6	;RP1=0, select bank0
  1643  0E03  00C3               	movwf	___flmul@b+3
  1644  0E04  30A0               	movlw	160
  1645  0E05  00C2               	movwf	___flmul@b+2
  1646  0E06  3000               	movlw	0
  1647  0E07  00C1               	movwf	___flmul@b+1
  1648  0E08  3000               	movlw	0
  1649  0E09  00C0               	movwf	___flmul@b
  1650  0E0A  085C               	movf	_adc,w
  1651  0E0B  1683               	bsf	3,5	;RP0=1, select bank3
  1652  0E0C  1703               	bsf	3,6	;RP1=1, select bank3
  1653  0E0D  009D               	movwf	??_main^(0+384)
  1654  0E0E  019E               	clrf	(??_main^(0+384)+1)
  1655  0E0F  019F               	clrf	(??_main^(0+384)+2)
  1656  0E10  01A0               	clrf	(??_main^(0+384)+3)
  1657  0E11  0820               	movf	(??_main+3)^(0+384),w
  1658  0E12  1283               	bcf	3,5	;RP0=0, select bank0
  1659  0E13  1303               	bcf	3,6	;RP1=0, select bank0
  1660  0E14  00B5               	movwf	___xxtofl@val+3
  1661  0E15  1683               	bsf	3,5	;RP0=1, select bank3
  1662  0E16  1703               	bsf	3,6	;RP1=1, select bank3
  1663  0E17  081F               	movf	(??_main+2)^(0+384),w
  1664  0E18  1283               	bcf	3,5	;RP0=0, select bank0
  1665  0E19  1303               	bcf	3,6	;RP1=0, select bank0
  1666  0E1A  00B4               	movwf	___xxtofl@val+2
  1667  0E1B  1683               	bsf	3,5	;RP0=1, select bank3
  1668  0E1C  1703               	bsf	3,6	;RP1=1, select bank3
  1669  0E1D  081E               	movf	(??_main+1)^(0+384),w
  1670  0E1E  1283               	bcf	3,5	;RP0=0, select bank0
  1671  0E1F  1303               	bcf	3,6	;RP1=0, select bank0
  1672  0E20  00B3               	movwf	___xxtofl@val+1
  1673  0E21  1683               	bsf	3,5	;RP0=1, select bank3
  1674  0E22  1703               	bsf	3,6	;RP1=1, select bank3
  1675  0E23  081D               	movf	??_main^(0+384),w
  1676  0E24  1283               	bcf	3,5	;RP0=0, select bank0
  1677  0E25  1303               	bcf	3,6	;RP1=0, select bank0
  1678  0E26  00B2               	movwf	___xxtofl@val
  1679  0E27  3001               	movlw	1
  1680  0E28  120A  118A  258E  120A  158A  	fcall	___xxtofl
  1681  0E2D  1283               	bcf	3,5	;RP0=0, select bank0
  1682  0E2E  1303               	bcf	3,6	;RP1=0, select bank0
  1683  0E2F  0835               	movf	?___xxtofl+3,w
  1684  0E30  00C7               	movwf	___flmul@a+3
  1685  0E31  0834               	movf	?___xxtofl+2,w
  1686  0E32  00C6               	movwf	___flmul@a+2
  1687  0E33  0833               	movf	?___xxtofl+1,w
  1688  0E34  00C5               	movwf	___flmul@a+1
  1689  0E35  0832               	movf	?___xxtofl,w
  1690  0E36  00C4               	movwf	___flmul@a
  1691  0E37  120A  118A  202F  120A  158A  	fcall	___flmul
  1692  0E3C  1283               	bcf	3,5	;RP0=0, select bank0
  1693  0E3D  1303               	bcf	3,6	;RP1=0, select bank0
  1694  0E3E  0843               	movf	?___flmul+3,w
  1695  0E3F  1683               	bsf	3,5	;RP0=1, select bank1
  1696  0E40  1303               	bcf	3,6	;RP1=0, select bank1
  1697  0E41  00EA               	movwf	(___fldiv@b+3)^(0+128)
  1698  0E42  1283               	bcf	3,5	;RP0=0, select bank0
  1699  0E43  1303               	bcf	3,6	;RP1=0, select bank0
  1700  0E44  0842               	movf	?___flmul+2,w
  1701  0E45  1683               	bsf	3,5	;RP0=1, select bank1
  1702  0E46  1303               	bcf	3,6	;RP1=0, select bank1
  1703  0E47  00E9               	movwf	(___fldiv@b+2)^(0+128)
  1704  0E48  1283               	bcf	3,5	;RP0=0, select bank0
  1705  0E49  1303               	bcf	3,6	;RP1=0, select bank0
  1706  0E4A  0841               	movf	?___flmul+1,w
  1707  0E4B  1683               	bsf	3,5	;RP0=1, select bank1
  1708  0E4C  1303               	bcf	3,6	;RP1=0, select bank1
  1709  0E4D  00E8               	movwf	(___fldiv@b+1)^(0+128)
  1710  0E4E  1283               	bcf	3,5	;RP0=0, select bank0
  1711  0E4F  1303               	bcf	3,6	;RP1=0, select bank0
  1712  0E50  0840               	movf	?___flmul,w
  1713  0E51  1683               	bsf	3,5	;RP0=1, select bank1
  1714  0E52  1303               	bcf	3,6	;RP1=0, select bank1
  1715  0E53  00E7               	movwf	___fldiv@b^(0+128)
  1716  0E54  120A  158A  2180  120A  158A  	fcall	___fldiv
  1717  0E59  1683               	bsf	3,5	;RP0=1, select bank1
  1718  0E5A  1303               	bcf	3,6	;RP1=0, select bank1
  1719  0E5B  0866               	movf	(?___fldiv+3)^(0+128),w
  1720  0E5C  00A3               	movwf	(_voltaje2+3)^(0+128)
  1721  0E5D  0865               	movf	(?___fldiv+2)^(0+128),w
  1722  0E5E  00A2               	movwf	(_voltaje2+2)^(0+128)
  1723  0E5F  0864               	movf	(?___fldiv+1)^(0+128),w
  1724  0E60  00A1               	movwf	(_voltaje2+1)^(0+128)
  1725  0E61  0863               	movf	?___fldiv^(0+128),w
  1726  0E62  00A0               	movwf	_voltaje2^(0+128)
  1727  0E63                     l3121:
  1728                           
  1729                           ;LAB3.c: 130:         V2 = (voltaje2)*100;
  1730  0E63  0823               	movf	(_voltaje2+3)^(0+128),w
  1731  0E64  1283               	bcf	3,5	;RP0=0, select bank0
  1732  0E65  1303               	bcf	3,6	;RP1=0, select bank0
  1733  0E66  00C7               	movwf	___flmul@a+3
  1734  0E67  1683               	bsf	3,5	;RP0=1, select bank1
  1735  0E68  1303               	bcf	3,6	;RP1=0, select bank1
  1736  0E69  0822               	movf	(_voltaje2+2)^(0+128),w
  1737  0E6A  1283               	bcf	3,5	;RP0=0, select bank0
  1738  0E6B  1303               	bcf	3,6	;RP1=0, select bank0
  1739  0E6C  00C6               	movwf	___flmul@a+2
  1740  0E6D  1683               	bsf	3,5	;RP0=1, select bank1
  1741  0E6E  1303               	bcf	3,6	;RP1=0, select bank1
  1742  0E6F  0821               	movf	(_voltaje2+1)^(0+128),w
  1743  0E70  1283               	bcf	3,5	;RP0=0, select bank0
  1744  0E71  1303               	bcf	3,6	;RP1=0, select bank0
  1745  0E72  00C5               	movwf	___flmul@a+1
  1746  0E73  1683               	bsf	3,5	;RP0=1, select bank1
  1747  0E74  1303               	bcf	3,6	;RP1=0, select bank1
  1748  0E75  0820               	movf	_voltaje2^(0+128),w
  1749  0E76  1283               	bcf	3,5	;RP0=0, select bank0
  1750  0E77  1303               	bcf	3,6	;RP1=0, select bank0
  1751  0E78  00C4               	movwf	___flmul@a
  1752  0E79  3042               	movlw	66
  1753  0E7A  00C3               	movwf	___flmul@b+3
  1754  0E7B  30C8               	movlw	200
  1755  0E7C  00C2               	movwf	___flmul@b+2
  1756  0E7D  3000               	movlw	0
  1757  0E7E  00C1               	movwf	___flmul@b+1
  1758  0E7F  3000               	movlw	0
  1759  0E80  00C0               	movwf	___flmul@b
  1760  0E81  120A  118A  202F  120A  158A  	fcall	___flmul
  1761  0E86  1283               	bcf	3,5	;RP0=0, select bank0
  1762  0E87  1303               	bcf	3,6	;RP1=0, select bank0
  1763  0E88  0843               	movf	?___flmul+3,w
  1764  0E89  1683               	bsf	3,5	;RP0=1, select bank1
  1765  0E8A  1303               	bcf	3,6	;RP1=0, select bank1
  1766  0E8B  00E6               	movwf	(___fltol@f1+3)^(0+128)
  1767  0E8C  1283               	bcf	3,5	;RP0=0, select bank0
  1768  0E8D  1303               	bcf	3,6	;RP1=0, select bank0
  1769  0E8E  0842               	movf	?___flmul+2,w
  1770  0E8F  1683               	bsf	3,5	;RP0=1, select bank1
  1771  0E90  1303               	bcf	3,6	;RP1=0, select bank1
  1772  0E91  00E5               	movwf	(___fltol@f1+2)^(0+128)
  1773  0E92  1283               	bcf	3,5	;RP0=0, select bank0
  1774  0E93  1303               	bcf	3,6	;RP1=0, select bank0
  1775  0E94  0841               	movf	?___flmul+1,w
  1776  0E95  1683               	bsf	3,5	;RP0=1, select bank1
  1777  0E96  1303               	bcf	3,6	;RP1=0, select bank1
  1778  0E97  00E4               	movwf	(___fltol@f1+1)^(0+128)
  1779  0E98  1283               	bcf	3,5	;RP0=0, select bank0
  1780  0E99  1303               	bcf	3,6	;RP1=0, select bank0
  1781  0E9A  0840               	movf	?___flmul,w
  1782  0E9B  1683               	bsf	3,5	;RP0=1, select bank1
  1783  0E9C  1303               	bcf	3,6	;RP1=0, select bank1
  1784  0E9D  00E3               	movwf	___fltol@f1^(0+128)
  1785  0E9E  120A  118A  274C  120A  158A  	fcall	___fltol
  1786  0EA3  1683               	bsf	3,5	;RP0=1, select bank1
  1787  0EA4  1303               	bcf	3,6	;RP1=0, select bank1
  1788  0EA5  0864               	movf	(?___fltol+1)^(0+128),w
  1789  0EA6  1283               	bcf	3,5	;RP0=0, select bank0
  1790  0EA7  1303               	bcf	3,6	;RP1=0, select bank0
  1791  0EA8  00CE               	movwf	_V2+1
  1792  0EA9  1683               	bsf	3,5	;RP0=1, select bank1
  1793  0EAA  1303               	bcf	3,6	;RP1=0, select bank1
  1794  0EAB  0863               	movf	?___fltol^(0+128),w
  1795  0EAC  1283               	bcf	3,5	;RP0=0, select bank0
  1796  0EAD  1303               	bcf	3,6	;RP1=0, select bank0
  1797  0EAE  00CD               	movwf	_V2
  1798  0EAF                     l3123:
  1799                           
  1800                           ;LAB3.c: 131:         POT2A = V2%10;
  1801  0EAF  300A               	movlw	10
  1802  0EB0  00BB               	movwf	___awmod@divisor
  1803  0EB1  3000               	movlw	0
  1804  0EB2  00BC               	movwf	___awmod@divisor+1
  1805  0EB3  084E               	movf	_V2+1,w
  1806  0EB4  00BE               	movwf	___awmod@dividend+1
  1807  0EB5  084D               	movf	_V2,w
  1808  0EB6  00BD               	movwf	___awmod@dividend
  1809  0EB7  120A  158A  20BC  120A  158A  	fcall	___awmod
  1810  0EBC  1283               	bcf	3,5	;RP0=0, select bank0
  1811  0EBD  1303               	bcf	3,6	;RP1=0, select bank0
  1812  0EBE  083C               	movf	?___awmod+1,w
  1813  0EBF  1683               	bsf	3,5	;RP0=1, select bank1
  1814  0EC0  1303               	bcf	3,6	;RP1=0, select bank1
  1815  0EC1  00AD               	movwf	(_POT2A+1)^(0+128)
  1816  0EC2  1283               	bcf	3,5	;RP0=0, select bank0
  1817  0EC3  1303               	bcf	3,6	;RP1=0, select bank0
  1818  0EC4  083B               	movf	?___awmod,w
  1819  0EC5  1683               	bsf	3,5	;RP0=1, select bank1
  1820  0EC6  1303               	bcf	3,6	;RP1=0, select bank1
  1821  0EC7  00AC               	movwf	_POT2A^(0+128)
  1822  0EC8                     l3125:
  1823                           
  1824                           ;LAB3.c: 132:         itoa(POT2SA,POT2A,10);
  1825  0EC8  30BD               	movlw	(low (_POT2SA| 0))& (0+255)
  1826  0EC9  1283               	bcf	3,5	;RP0=0, select bank0
  1827  0ECA  1303               	bcf	3,6	;RP1=0, select bank0
  1828  0ECB  00C4               	movwf	itoa@buf
  1829  0ECC  3000               	movlw	0
  1830  0ECD  00C5               	movwf	itoa@buf+1
  1831  0ECE  1683               	bsf	3,5	;RP0=1, select bank1
  1832  0ECF  1303               	bcf	3,6	;RP1=0, select bank1
  1833  0ED0  082D               	movf	(_POT2A+1)^(0+128),w
  1834  0ED1  1283               	bcf	3,5	;RP0=0, select bank0
  1835  0ED2  1303               	bcf	3,6	;RP1=0, select bank0
  1836  0ED3  00C7               	movwf	itoa@val+1
  1837  0ED4  1683               	bsf	3,5	;RP0=1, select bank1
  1838  0ED5  1303               	bcf	3,6	;RP1=0, select bank1
  1839  0ED6  082C               	movf	_POT2A^(0+128),w
  1840  0ED7  1283               	bcf	3,5	;RP0=0, select bank0
  1841  0ED8  1303               	bcf	3,6	;RP1=0, select bank0
  1842  0ED9  00C6               	movwf	itoa@val
  1843  0EDA  300A               	movlw	10
  1844  0EDB  00C8               	movwf	itoa@base
  1845  0EDC  3000               	movlw	0
  1846  0EDD  00C9               	movwf	itoa@base+1
  1847  0EDE  120A  158A  2006  120A  158A  	fcall	_itoa
  1848  0EE3                     l3127:
  1849                           
  1850                           ;LAB3.c: 133:         POT2B = (V2/10)%10;
  1851  0EE3  300A               	movlw	10
  1852  0EE4  1283               	bcf	3,5	;RP0=0, select bank0
  1853  0EE5  1303               	bcf	3,6	;RP1=0, select bank0
  1854  0EE6  00BB               	movwf	___awmod@divisor
  1855  0EE7  3000               	movlw	0
  1856  0EE8  00BC               	movwf	___awmod@divisor+1
  1857  0EE9  300A               	movlw	10
  1858  0EEA  00B2               	movwf	___awdiv@divisor
  1859  0EEB  3000               	movlw	0
  1860  0EEC  00B3               	movwf	___awdiv@divisor+1
  1861  0EED  084E               	movf	_V2+1,w
  1862  0EEE  00B5               	movwf	___awdiv@dividend+1
  1863  0EEF  084D               	movf	_V2,w
  1864  0EF0  00B4               	movwf	___awdiv@dividend
  1865  0EF1  120A  158A  2117  120A  158A  	fcall	___awdiv
  1866  0EF6  1283               	bcf	3,5	;RP0=0, select bank0
  1867  0EF7  1303               	bcf	3,6	;RP1=0, select bank0
  1868  0EF8  0833               	movf	?___awdiv+1,w
  1869  0EF9  00BE               	movwf	___awmod@dividend+1
  1870  0EFA  0832               	movf	?___awdiv,w
  1871  0EFB  00BD               	movwf	___awmod@dividend
  1872  0EFC  120A  158A  20BC  120A  158A  	fcall	___awmod
  1873  0F01  1283               	bcf	3,5	;RP0=0, select bank0
  1874  0F02  1303               	bcf	3,6	;RP1=0, select bank0
  1875  0F03  083C               	movf	?___awmod+1,w
  1876  0F04  1683               	bsf	3,5	;RP0=1, select bank1
  1877  0F05  1303               	bcf	3,6	;RP1=0, select bank1
  1878  0F06  00AB               	movwf	(_POT2B+1)^(0+128)
  1879  0F07  1283               	bcf	3,5	;RP0=0, select bank0
  1880  0F08  1303               	bcf	3,6	;RP1=0, select bank0
  1881  0F09  083B               	movf	?___awmod,w
  1882  0F0A  1683               	bsf	3,5	;RP0=1, select bank1
  1883  0F0B  1303               	bcf	3,6	;RP1=0, select bank1
  1884  0F0C  00AA               	movwf	_POT2B^(0+128)
  1885  0F0D                     l3129:
  1886                           
  1887                           ;LAB3.c: 134:         itoa(POT2SB,POT2B,10);
  1888  0F0D  30B8               	movlw	(low (_POT2SB| 0))& (0+255)
  1889  0F0E  1283               	bcf	3,5	;RP0=0, select bank0
  1890  0F0F  1303               	bcf	3,6	;RP1=0, select bank0
  1891  0F10  00C4               	movwf	itoa@buf
  1892  0F11  3000               	movlw	0
  1893  0F12  00C5               	movwf	itoa@buf+1
  1894  0F13  1683               	bsf	3,5	;RP0=1, select bank1
  1895  0F14  1303               	bcf	3,6	;RP1=0, select bank1
  1896  0F15  082B               	movf	(_POT2B+1)^(0+128),w
  1897  0F16  1283               	bcf	3,5	;RP0=0, select bank0
  1898  0F17  1303               	bcf	3,6	;RP1=0, select bank0
  1899  0F18  00C7               	movwf	itoa@val+1
  1900  0F19  1683               	bsf	3,5	;RP0=1, select bank1
  1901  0F1A  1303               	bcf	3,6	;RP1=0, select bank1
  1902  0F1B  082A               	movf	_POT2B^(0+128),w
  1903  0F1C  1283               	bcf	3,5	;RP0=0, select bank0
  1904  0F1D  1303               	bcf	3,6	;RP1=0, select bank0
  1905  0F1E  00C6               	movwf	itoa@val
  1906  0F1F  300A               	movlw	10
  1907  0F20  00C8               	movwf	itoa@base
  1908  0F21  3000               	movlw	0
  1909  0F22  00C9               	movwf	itoa@base+1
  1910  0F23  120A  158A  2006  120A  158A  	fcall	_itoa
  1911  0F28                     l3131:
  1912                           
  1913                           ;LAB3.c: 135:         POT2C = (V2/100)%10;
  1914  0F28  300A               	movlw	10
  1915  0F29  1283               	bcf	3,5	;RP0=0, select bank0
  1916  0F2A  1303               	bcf	3,6	;RP1=0, select bank0
  1917  0F2B  00BB               	movwf	___awmod@divisor
  1918  0F2C  3000               	movlw	0
  1919  0F2D  00BC               	movwf	___awmod@divisor+1
  1920  0F2E  3064               	movlw	100
  1921  0F2F  00B2               	movwf	___awdiv@divisor
  1922  0F30  3000               	movlw	0
  1923  0F31  00B3               	movwf	___awdiv@divisor+1
  1924  0F32  084E               	movf	_V2+1,w
  1925  0F33  00B5               	movwf	___awdiv@dividend+1
  1926  0F34  084D               	movf	_V2,w
  1927  0F35  00B4               	movwf	___awdiv@dividend
  1928  0F36  120A  158A  2117  120A  158A  	fcall	___awdiv
  1929  0F3B  1283               	bcf	3,5	;RP0=0, select bank0
  1930  0F3C  1303               	bcf	3,6	;RP1=0, select bank0
  1931  0F3D  0833               	movf	?___awdiv+1,w
  1932  0F3E  00BE               	movwf	___awmod@dividend+1
  1933  0F3F  0832               	movf	?___awdiv,w
  1934  0F40  00BD               	movwf	___awmod@dividend
  1935  0F41  120A  158A  20BC  120A  158A  	fcall	___awmod
  1936  0F46  1283               	bcf	3,5	;RP0=0, select bank0
  1937  0F47  1303               	bcf	3,6	;RP1=0, select bank0
  1938  0F48  083C               	movf	?___awmod+1,w
  1939  0F49  1683               	bsf	3,5	;RP0=1, select bank1
  1940  0F4A  1303               	bcf	3,6	;RP1=0, select bank1
  1941  0F4B  00A9               	movwf	(_POT2C+1)^(0+128)
  1942  0F4C  1283               	bcf	3,5	;RP0=0, select bank0
  1943  0F4D  1303               	bcf	3,6	;RP1=0, select bank0
  1944  0F4E  083B               	movf	?___awmod,w
  1945  0F4F  1683               	bsf	3,5	;RP0=1, select bank1
  1946  0F50  1303               	bcf	3,6	;RP1=0, select bank1
  1947  0F51  00A8               	movwf	_POT2C^(0+128)
  1948  0F52                     l3133:
  1949                           
  1950                           ;LAB3.c: 136:         itoa(POT2SC,POT2C,10);
  1951  0F52  30B3               	movlw	(low (_POT2SC| 0))& (0+255)
  1952  0F53  1283               	bcf	3,5	;RP0=0, select bank0
  1953  0F54  1303               	bcf	3,6	;RP1=0, select bank0
  1954  0F55  00C4               	movwf	itoa@buf
  1955  0F56  3000               	movlw	0
  1956  0F57  00C5               	movwf	itoa@buf+1
  1957  0F58  1683               	bsf	3,5	;RP0=1, select bank1
  1958  0F59  1303               	bcf	3,6	;RP1=0, select bank1
  1959  0F5A  0829               	movf	(_POT2C+1)^(0+128),w
  1960  0F5B  1283               	bcf	3,5	;RP0=0, select bank0
  1961  0F5C  1303               	bcf	3,6	;RP1=0, select bank0
  1962  0F5D  00C7               	movwf	itoa@val+1
  1963  0F5E  1683               	bsf	3,5	;RP0=1, select bank1
  1964  0F5F  1303               	bcf	3,6	;RP1=0, select bank1
  1965  0F60  0828               	movf	_POT2C^(0+128),w
  1966  0F61  1283               	bcf	3,5	;RP0=0, select bank0
  1967  0F62  1303               	bcf	3,6	;RP1=0, select bank0
  1968  0F63  00C6               	movwf	itoa@val
  1969  0F64  300A               	movlw	10
  1970  0F65  00C8               	movwf	itoa@base
  1971  0F66  3000               	movlw	0
  1972  0F67  00C9               	movwf	itoa@base+1
  1973  0F68  120A  158A  2006  120A  158A  	fcall	_itoa
  1974  0F6D                     l3135:
  1975                           
  1976                           ;LAB3.c: 137:         strcpy(PUNTO2,".");
  1977  0F6D  3012               	movlw	(low ((STR_2-__stringbase)| (0+32768)))& (0+255)
  1978  0F6E  1683               	bsf	3,5	;RP0=1, select bank3
  1979  0F6F  1703               	bsf	3,6	;RP1=1, select bank3
  1980  0F70  009D               	movwf	??_main^(0+384)
  1981  0F71  081D               	movf	??_main^(0+384),w
  1982  0F72  1283               	bcf	3,5	;RP0=0, select bank0
  1983  0F73  1303               	bcf	3,6	;RP1=0, select bank0
  1984  0F74  00B2               	movwf	strcpy@from
  1985  0F75  30AE               	movlw	(low (_PUNTO2| 0))& (0+255)
  1986  0F76  160A  118A  2639  120A  158A  	fcall	_strcpy
  1987  0F7B                     l3137:
  1988                           
  1989                           ;LAB3.c: 138:         strcat(POT2SB,POT2SA);
  1990  0F7B  30BD               	movlw	(low (_POT2SA| 0))& (0+255)
  1991  0F7C  1683               	bsf	3,5	;RP0=1, select bank3
  1992  0F7D  1703               	bsf	3,6	;RP1=1, select bank3
  1993  0F7E  009D               	movwf	??_main^(0+384)
  1994  0F7F  081D               	movf	??_main^(0+384),w
  1995  0F80  1283               	bcf	3,5	;RP0=0, select bank0
  1996  0F81  1303               	bcf	3,6	;RP1=0, select bank0
  1997  0F82  00B2               	movwf	strcat@from
  1998  0F83  30B8               	movlw	(low (_POT2SB| 0))& (0+255)
  1999  0F84  160A  118A  26AD  120A  158A  	fcall	_strcat
  2000  0F89                     l3139:
  2001                           
  2002                           ;LAB3.c: 139:         strcat(PUNTO2,POT2SB);
  2003  0F89  30B8               	movlw	(low (_POT2SB| 0))& (0+255)
  2004  0F8A  1683               	bsf	3,5	;RP0=1, select bank3
  2005  0F8B  1703               	bsf	3,6	;RP1=1, select bank3
  2006  0F8C  009D               	movwf	??_main^(0+384)
  2007  0F8D  081D               	movf	??_main^(0+384),w
  2008  0F8E  1283               	bcf	3,5	;RP0=0, select bank0
  2009  0F8F  1303               	bcf	3,6	;RP1=0, select bank0
  2010  0F90  00B2               	movwf	strcat@from
  2011  0F91  30AE               	movlw	(low (_PUNTO2| 0))& (0+255)
  2012  0F92  160A  118A  26AD  120A  158A  	fcall	_strcat
  2013  0F97                     l3141:
  2014                           
  2015                           ;LAB3.c: 140:         strcat(POT2SC,PUNTO2);
  2016  0F97  30AE               	movlw	(low (_PUNTO2| 0))& (0+255)
  2017  0F98  1683               	bsf	3,5	;RP0=1, select bank3
  2018  0F99  1703               	bsf	3,6	;RP1=1, select bank3
  2019  0F9A  009D               	movwf	??_main^(0+384)
  2020  0F9B  081D               	movf	??_main^(0+384),w
  2021  0F9C  1283               	bcf	3,5	;RP0=0, select bank0
  2022  0F9D  1303               	bcf	3,6	;RP1=0, select bank0
  2023  0F9E  00B2               	movwf	strcat@from
  2024  0F9F  30B3               	movlw	(low (_POT2SC| 0))& (0+255)
  2025  0FA0  160A  118A  26AD  120A  158A  	fcall	_strcat
  2026  0FA5                     l3143:
  2027                           
  2028                           ;LAB3.c: 142:         Lcd_Cmd(0xC0);
  2029  0FA5  30C0               	movlw	192
  2030  0FA6  160A  118A  277A  120A  158A  	fcall	_Lcd_Cmd
  2031  0FAB                     l3145:
  2032                           
  2033                           ;LAB3.c: 143:         Lcd_Write_String(POT1SC);
  2034  0FAB  30C7               	movlw	(low (_POT1SC| 0))& (0+255)
  2035  0FAC  1283               	bcf	3,5	;RP0=0, select bank0
  2036  0FAD  1303               	bcf	3,6	;RP1=0, select bank0
  2037  0FAE  00B5               	movwf	Lcd_Write_String@a
  2038  0FAF  3000               	movlw	0
  2039  0FB0  00B6               	movwf	Lcd_Write_String@a+1
  2040  0FB1  160A  118A  265C  120A  158A  	fcall	_Lcd_Write_String
  2041  0FB6                     l3147:
  2042                           
  2043                           ;LAB3.c: 144:         Lcd_Write_String(" ");
  2044  0FB6  3010               	movlw	(low (((STR_1+15)-__stringbase)| (0+32768)))& (0+255)
  2045  0FB7  1283               	bcf	3,5	;RP0=0, select bank0
  2046  0FB8  1303               	bcf	3,6	;RP1=0, select bank0
  2047  0FB9  00B5               	movwf	Lcd_Write_String@a
  2048  0FBA  3080               	movlw	128
  2049  0FBB  00B6               	movwf	Lcd_Write_String@a+1
  2050  0FBC  160A  118A  265C  120A  158A  	fcall	_Lcd_Write_String
  2051  0FC1                     l3149:
  2052                           
  2053                           ;LAB3.c: 145:         Lcd_Write_String(POT2SC);
  2054  0FC1  30B3               	movlw	(low (_POT2SC| 0))& (0+255)
  2055  0FC2  1283               	bcf	3,5	;RP0=0, select bank0
  2056  0FC3  1303               	bcf	3,6	;RP1=0, select bank0
  2057  0FC4  00B5               	movwf	Lcd_Write_String@a
  2058  0FC5  3000               	movlw	0
  2059  0FC6  00B6               	movwf	Lcd_Write_String@a+1
  2060  0FC7  160A  118A  265C  120A  158A  	fcall	_Lcd_Write_String
  2061  0FCC                     l3151:
  2062                           
  2063                           ;LAB3.c: 146:         Lcd_Write_String(" ");
  2064  0FCC  3010               	movlw	(low (((STR_1+15)-__stringbase)| (0+32768)))& (0+255)
  2065  0FCD  1283               	bcf	3,5	;RP0=0, select bank0
  2066  0FCE  1303               	bcf	3,6	;RP1=0, select bank0
  2067  0FCF  00B5               	movwf	Lcd_Write_String@a
  2068  0FD0  3080               	movlw	128
  2069  0FD1  00B6               	movwf	Lcd_Write_String@a+1
  2070  0FD2  160A  118A  265C  120A  158A  	fcall	_Lcd_Write_String
  2071  0FD7                     l3153:
  2072                           
  2073                           ;LAB3.c: 147:         Lcd_Write_String(COMPARE);
  2074  0FD7  30A1               	movlw	(low (_COMPARE| (0+256)))& (0+255)
  2075  0FD8  1283               	bcf	3,5	;RP0=0, select bank0
  2076  0FD9  1303               	bcf	3,6	;RP1=0, select bank0
  2077  0FDA  00B5               	movwf	Lcd_Write_String@a
  2078  0FDB  3001               	movlw	1
  2079  0FDC  00B6               	movwf	Lcd_Write_String@a+1
  2080  0FDD  160A  118A  265C  120A  158A  	fcall	_Lcd_Write_String
  2081  0FE2                     l3155:
  2082                           
  2083                           ;LAB3.c: 149:         if (PORTBbits.RB0 == 1){
  2084  0FE2  1283               	bcf	3,5	;RP0=0, select bank0
  2085  0FE3  1303               	bcf	3,6	;RP1=0, select bank0
  2086  0FE4  1C06               	btfss	6,0	;volatile
  2087  0FE5  2FE7               	goto	u4081
  2088  0FE6  2FE8               	goto	u4080
  2089  0FE7                     u4081:
  2090  0FE7  2FF0               	goto	l115
  2091  0FE8                     u4080:
  2092  0FE8                     l3157:
  2093                           
  2094                           ;LAB3.c: 150:             Contador++;
  2095  0FE8  3001               	movlw	1
  2096  0FE9  1683               	bsf	3,5	;RP0=1, select bank3
  2097  0FEA  1703               	bsf	3,6	;RP1=1, select bank3
  2098  0FEB  009D               	movwf	??_main^(0+384)
  2099  0FEC  081D               	movf	??_main^(0+384),w
  2100  0FED  1283               	bcf	3,5	;RP0=0, select bank0
  2101  0FEE  1303               	bcf	3,6	;RP1=0, select bank0
  2102  0FEF  07DB               	addwf	_Contador,f
  2103  0FF0                     l115:	
  2104                           ;LAB3.c: 153:         }
  2105                           
  2106                           
  2107                           ;LAB3.c: 155:         if (PORTBbits.RB1 == 1){
  2108  0FF0  1C86               	btfss	6,1	;volatile
  2109  0FF1  2FF3               	goto	u4091
  2110  0FF2  2FF4               	goto	u4090
  2111  0FF3                     u4091:
  2112  0FF3  2FF6               	goto	l3161
  2113  0FF4                     u4090:
  2114  0FF4                     l3159:
  2115                           
  2116                           ;LAB3.c: 156:             Contador--;
  2117  0FF4  3001               	movlw	1
  2118  0FF5  02DB               	subwf	_Contador,f
  2119  0FF6                     l3161:	
  2120                           ;LAB3.c: 157:         }
  2121                           
  2122                           
  2123                           ;LAB3.c: 161:         UART_Write(Contador);
  2124  0FF6  085B               	movf	_Contador,w
  2125  0FF7  160A  118A  25C8  120A  158A  	fcall	_UART_Write
  2126  0FFC  2C25               	goto	l113
  2127  0FFD  120A  118A  2810   	ljmp	start
  2128  1000                     __end_of_main:
  2129                           
  2130                           	psect	text1
  2131  1639                     __ptext1:	
  2132 ;; *************** function _strcpy *****************
  2133 ;; Defined at:
  2134 ;;		line 8 in file "C:\Program Files\Microchip\xc8\v2.31\pic\sources\c90\common\strcpy.c"
  2135 ;; Parameters:    Size  Location     Type
  2136 ;;  to              1    wreg     PTR unsigned char 
  2137 ;;		 -> PUNTO2(5), PUNTO1(5), 
  2138 ;;  from            1   18[BANK0 ] PTR const unsigned char 
  2139 ;;		 -> STR_3(2), STR_2(2), 
  2140 ;; Auto vars:     Size  Location     Type
  2141 ;;  to              1   21[BANK0 ] PTR unsigned char 
  2142 ;;		 -> PUNTO2(5), PUNTO1(5), 
  2143 ;;  cp              1   20[BANK0 ] PTR unsigned char 
  2144 ;;		 -> PUNTO2(5), PUNTO1(5), 
  2145 ;; Return value:  Size  Location     Type
  2146 ;;                  1    wreg      PTR unsigned char 
  2147 ;; Registers used:
  2148 ;;		wreg, fsr0l, fsr0h, status,2, status,0, pclath
  2149 ;; Tracked objects:
  2150 ;;		On entry : 0/0
  2151 ;;		On exit  : 0/0
  2152 ;;		Unchanged: 0/0
  2153 ;; Data sizes:     COMMON   BANK0   BANK1   BANK3   BANK2
  2154 ;;      Params:         0       1       0       0       0
  2155 ;;      Locals:         0       2       0       0       0
  2156 ;;      Temps:          0       1       0       0       0
  2157 ;;      Totals:         0       4       0       0       0
  2158 ;;Total ram usage:        4 bytes
  2159 ;; Hardware stack levels used:    1
  2160 ;; Hardware stack levels required when called:    4
  2161 ;; This function calls:
  2162 ;;		Nothing
  2163 ;; This function is called by:
  2164 ;;		_main
  2165 ;; This function uses a non-reentrant model
  2166 ;;
  2167                           
  2168                           
  2169                           ;psect for function _strcpy
  2170  1639                     _strcpy:
  2171                           
  2172                           ;incstack = 0
  2173                           ; Regs used in _strcpy: [wreg-fsr0h+status,2+status,0+pclath]
  2174                           ;strcpy@to stored from wreg
  2175  1639  1283               	bcf	3,5	;RP0=0, select bank0
  2176  163A  1303               	bcf	3,6	;RP1=0, select bank0
  2177  163B  00B5               	movwf	strcpy@to
  2178  163C                     l2067:
  2179  163C  0835               	movf	strcpy@to,w
  2180  163D  00B3               	movwf	??_strcpy
  2181  163E  0833               	movf	??_strcpy,w
  2182  163F  00B4               	movwf	strcpy@cp
  2183  1640  2E49               	goto	l2071
  2184  1641                     l2069:
  2185  1641  3001               	movlw	1
  2186  1642  00B3               	movwf	??_strcpy
  2187  1643  0833               	movf	??_strcpy,w
  2188  1644  07B4               	addwf	strcpy@cp,f
  2189  1645  3001               	movlw	1
  2190  1646  00B3               	movwf	??_strcpy
  2191  1647  0833               	movf	??_strcpy,w
  2192  1648  07B2               	addwf	strcpy@from,f
  2193  1649                     l2071:
  2194  1649  0832               	movf	strcpy@from,w
  2195  164A  0084               	movwf	4
  2196  164B  160A  118A  200A  160A  118A  	fcall	stringdir
  2197  1650  00B3               	movwf	??_strcpy
  2198  1651  0834               	movf	strcpy@cp,w
  2199  1652  0084               	movwf	4
  2200  1653  0833               	movf	??_strcpy,w
  2201  1654  1383               	bcf	3,7	;select IRP bank0
  2202  1655  0080               	movwf	0
  2203  1656  0800               	movf	0,w
  2204  1657  1D03               	btfss	3,2
  2205  1658  2E5A               	goto	u1991
  2206  1659  2E5B               	goto	u1990
  2207  165A                     u1991:
  2208  165A  2E41               	goto	l2069
  2209  165B                     u1990:
  2210  165B                     l787:
  2211  165B  0008               	return
  2212  165C                     __end_of_strcpy:
  2213                           
  2214                           	psect	text2
  2215  16AD                     __ptext2:	
  2216 ;; *************** function _strcat *****************
  2217 ;; Defined at:
  2218 ;;		line 8 in file "C:\Program Files\Microchip\xc8\v2.31\pic\sources\c90\common\strcat.c"
  2219 ;; Parameters:    Size  Location     Type
  2220 ;;  to              1    wreg     PTR unsigned char 
  2221 ;;		 -> PUNTO2(5), POT2SC(5), POT2SB(5), PUNTO1(5), 
  2222 ;;		 -> POT1SC(5), POT1SB(5), 
  2223 ;;  from            1   18[BANK0 ] PTR const unsigned char 
  2224 ;;		 -> PUNTO2(5), POT2SB(5), POT2SA(5), PUNTO1(5), 
  2225 ;;		 -> POT1SB(5), POT1SA(5), 
  2226 ;; Auto vars:     Size  Location     Type
  2227 ;;  to              1   21[BANK0 ] PTR unsigned char 
  2228 ;;		 -> PUNTO2(5), POT2SC(5), POT2SB(5), PUNTO1(5), 
  2229 ;;		 -> POT1SC(5), POT1SB(5), 
  2230 ;;  cp              1   20[BANK0 ] PTR unsigned char 
  2231 ;;		 -> PUNTO2(5), POT2SC(5), POT2SB(5), PUNTO1(5), 
  2232 ;;		 -> POT1SC(5), POT1SB(5), 
  2233 ;; Return value:  Size  Location     Type
  2234 ;;                  1    wreg      PTR unsigned char 
  2235 ;; Registers used:
  2236 ;;		wreg, fsr0l, fsr0h, status,2, status,0
  2237 ;; Tracked objects:
  2238 ;;		On entry : 0/0
  2239 ;;		On exit  : 0/0
  2240 ;;		Unchanged: 0/0
  2241 ;; Data sizes:     COMMON   BANK0   BANK1   BANK3   BANK2
  2242 ;;      Params:         0       1       0       0       0
  2243 ;;      Locals:         0       2       0       0       0
  2244 ;;      Temps:          0       1       0       0       0
  2245 ;;      Totals:         0       4       0       0       0
  2246 ;;Total ram usage:        4 bytes
  2247 ;; Hardware stack levels used:    1
  2248 ;; Hardware stack levels required when called:    4
  2249 ;; This function calls:
  2250 ;;		Nothing
  2251 ;; This function is called by:
  2252 ;;		_main
  2253 ;; This function uses a non-reentrant model
  2254 ;;
  2255                           
  2256                           
  2257                           ;psect for function _strcat
  2258  16AD                     _strcat:
  2259                           
  2260                           ;incstack = 0
  2261                           ; Regs used in _strcat: [wreg-fsr0h+status,2+status,0]
  2262                           ;strcat@to stored from wreg
  2263  16AD  1283               	bcf	3,5	;RP0=0, select bank0
  2264  16AE  1303               	bcf	3,6	;RP1=0, select bank0
  2265  16AF  00B5               	movwf	strcat@to
  2266  16B0                     l2073:
  2267  16B0  0835               	movf	strcat@to,w
  2268  16B1  00B3               	movwf	??_strcat
  2269  16B2  0833               	movf	??_strcat,w
  2270  16B3  00B4               	movwf	strcat@cp
  2271  16B4  2EB9               	goto	l2077
  2272  16B5                     l2075:
  2273  16B5  3001               	movlw	1
  2274  16B6  00B3               	movwf	??_strcat
  2275  16B7  0833               	movf	??_strcat,w
  2276  16B8  07B4               	addwf	strcat@cp,f
  2277  16B9                     l2077:
  2278  16B9  0834               	movf	strcat@cp,w
  2279  16BA  0084               	movwf	4
  2280  16BB  1383               	bcf	3,7	;select IRP bank0
  2281  16BC  0800               	movf	0,w
  2282  16BD  1D03               	btfss	3,2
  2283  16BE  2EC0               	goto	u2001
  2284  16BF  2EC1               	goto	u2000
  2285  16C0                     u2001:
  2286  16C0  2EB5               	goto	l2075
  2287  16C1                     u2000:
  2288  16C1  2ECA               	goto	l2081
  2289  16C2                     l2079:
  2290  16C2  3001               	movlw	1
  2291  16C3  00B3               	movwf	??_strcat
  2292  16C4  0833               	movf	??_strcat,w
  2293  16C5  07B4               	addwf	strcat@cp,f
  2294  16C6  3001               	movlw	1
  2295  16C7  00B3               	movwf	??_strcat
  2296  16C8  0833               	movf	??_strcat,w
  2297  16C9  07B2               	addwf	strcat@from,f
  2298  16CA                     l2081:
  2299  16CA  0832               	movf	strcat@from,w
  2300  16CB  0084               	movwf	4
  2301  16CC  0800               	movf	0,w
  2302  16CD  00B3               	movwf	??_strcat
  2303  16CE  0834               	movf	strcat@cp,w
  2304  16CF  0084               	movwf	4
  2305  16D0  0833               	movf	??_strcat,w
  2306  16D1  0080               	movwf	0
  2307  16D2  0800               	movf	0,w
  2308  16D3  1D03               	btfss	3,2
  2309  16D4  2ED6               	goto	u2011
  2310  16D5  2ED7               	goto	u2010
  2311  16D6                     u2011:
  2312  16D6  2EC2               	goto	l2079
  2313  16D7                     u2010:
  2314  16D7                     l781:
  2315  16D7  0008               	return
  2316  16D8                     __end_of_strcat:
  2317                           
  2318                           	psect	text3
  2319  15FC                     __ptext3:	
  2320 ;; *************** function _setup *****************
  2321 ;; Defined at:
  2322 ;;		line 171 in file "LAB3.c"
  2323 ;; Parameters:    Size  Location     Type
  2324 ;;		None
  2325 ;; Auto vars:     Size  Location     Type
  2326 ;;		None
  2327 ;; Return value:  Size  Location     Type
  2328 ;;                  1    wreg      void 
  2329 ;; Registers used:
  2330 ;;		wreg, status,2, status,0
  2331 ;; Tracked objects:
  2332 ;;		On entry : 0/0
  2333 ;;		On exit  : 0/0
  2334 ;;		Unchanged: 0/0
  2335 ;; Data sizes:     COMMON   BANK0   BANK1   BANK3   BANK2
  2336 ;;      Params:         0       0       0       0       0
  2337 ;;      Locals:         0       0       0       0       0
  2338 ;;      Temps:          0       0       0       0       0
  2339 ;;      Totals:         0       0       0       0       0
  2340 ;;Total ram usage:        0 bytes
  2341 ;; Hardware stack levels used:    1
  2342 ;; Hardware stack levels required when called:    4
  2343 ;; This function calls:
  2344 ;;		Nothing
  2345 ;; This function is called by:
  2346 ;;		_main
  2347 ;; This function uses a non-reentrant model
  2348 ;;
  2349                           
  2350                           
  2351                           ;psect for function _setup
  2352  15FC                     _setup:
  2353  15FC                     l2001:	
  2354                           ;incstack = 0
  2355                           ; Regs used in _setup: [wreg+status,2+status,0]
  2356                           
  2357                           
  2358                           ;LAB3.c: 172:     ANSEL = 0b00001001;
  2359  15FC  3009               	movlw	9
  2360  15FD  1683               	bsf	3,5	;RP0=1, select bank3
  2361  15FE  1703               	bsf	3,6	;RP1=1, select bank3
  2362  15FF  0088               	movwf	8	;volatile
  2363  1600                     l2003:
  2364                           
  2365                           ;LAB3.c: 173:     ANSELH= 0b00000000;
  2366  1600  0189               	clrf	9	;volatile
  2367  1601                     l2005:
  2368                           
  2369                           ;LAB3.c: 174:     TRISA = 0b00001001;
  2370  1601  3009               	movlw	9
  2371  1602  1683               	bsf	3,5	;RP0=1, select bank1
  2372  1603  1303               	bcf	3,6	;RP1=0, select bank1
  2373  1604  0085               	movwf	5	;volatile
  2374                           
  2375                           ;LAB3.c: 175:     TRISB = 0b00000000;
  2376  1605  0186               	clrf	6	;volatile
  2377                           
  2378                           ;LAB3.c: 176:     TRISD = 0b00000000;
  2379  1606  0188               	clrf	8	;volatile
  2380                           
  2381                           ;LAB3.c: 177:     TRISE = 0;
  2382  1607  0189               	clrf	9	;volatile
  2383                           
  2384                           ;LAB3.c: 179:     PORTA = 0;
  2385  1608  1283               	bcf	3,5	;RP0=0, select bank0
  2386  1609  1303               	bcf	3,6	;RP1=0, select bank0
  2387  160A  0185               	clrf	5	;volatile
  2388                           
  2389                           ;LAB3.c: 180:     PORTB = 0;
  2390  160B  0186               	clrf	6	;volatile
  2391                           
  2392                           ;LAB3.c: 181:     PORTC = 0;
  2393  160C  0187               	clrf	7	;volatile
  2394                           
  2395                           ;LAB3.c: 182:     PORTD = 0;
  2396  160D  0188               	clrf	8	;volatile
  2397                           
  2398                           ;LAB3.c: 183:     PORTE = 0;
  2399  160E  0189               	clrf	9	;volatile
  2400  160F                     l2007:
  2401                           
  2402                           ;LAB3.c: 185:     OSCCONbits.IRCF = 0b110;
  2403  160F  1683               	bsf	3,5	;RP0=1, select bank1
  2404  1610  1303               	bcf	3,6	;RP1=0, select bank1
  2405  1611  080F               	movf	15,w	;volatile
  2406  1612  398F               	andlw	-113
  2407  1613  3860               	iorlw	96
  2408  1614  008F               	movwf	15	;volatile
  2409  1615                     l2009:
  2410                           
  2411                           ;LAB3.c: 186:     OSCCONbits.OSTS= 0;
  2412  1615  118F               	bcf	15,3	;volatile
  2413  1616                     l2011:
  2414                           
  2415                           ;LAB3.c: 187:     OSCCONbits.HTS = 0;
  2416  1616  110F               	bcf	15,2	;volatile
  2417  1617                     l2013:
  2418                           
  2419                           ;LAB3.c: 188:     OSCCONbits.LTS = 0;
  2420  1617  108F               	bcf	15,1	;volatile
  2421  1618                     l2015:
  2422                           
  2423                           ;LAB3.c: 189:     OSCCONbits.SCS = 1;
  2424  1618  140F               	bsf	15,0	;volatile
  2425  1619                     l123:
  2426  1619  0008               	return
  2427  161A                     __end_of_setup:
  2428                           
  2429                           	psect	text4
  2430  0806                     __ptext4:	
  2431 ;; *************** function _itoa *****************
  2432 ;; Defined at:
  2433 ;;		line 4 in file "C:\Program Files\Microchip\xc8\v2.31\pic\sources\c90\common\itoa.c"
  2434 ;; Parameters:    Size  Location     Type
  2435 ;;  buf             2   36[BANK0 ] PTR unsigned char 
  2436 ;;		 -> POT2SC(5), POT2SB(5), POT2SA(5), POT1SC(5), 
  2437 ;;		 -> POT1SB(5), POT1SA(5), COMPARE(5), 
  2438 ;;  val             2   38[BANK0 ] int 
  2439 ;;  base            2   40[BANK0 ] int 
  2440 ;; Auto vars:     Size  Location     Type
  2441 ;;  cp              2    0        PTR unsigned char 
  2442 ;;		 -> POT2SC(5), POT2SB(5), POT2SA(5), POT1SC(5), 
  2443 ;;		 -> POT1SB(5), POT1SA(5), COMPARE(5), 
  2444 ;; Return value:  Size  Location     Type
  2445 ;;                  2   36[BANK0 ] PTR unsigned char 
  2446 ;; Registers used:
  2447 ;;		wreg, fsr0l, fsr0h, status,2, status,0, pclath, cstack
  2448 ;; Tracked objects:
  2449 ;;		On entry : 0/0
  2450 ;;		On exit  : 0/0
  2451 ;;		Unchanged: 0/0
  2452 ;; Data sizes:     COMMON   BANK0   BANK1   BANK3   BANK2
  2453 ;;      Params:         0       6       0       0       0
  2454 ;;      Locals:         0       2       0       0       0
  2455 ;;      Temps:          0       1       0       0       0
  2456 ;;      Totals:         0       9       0       0       0
  2457 ;;Total ram usage:        9 bytes
  2458 ;; Hardware stack levels used:    1
  2459 ;; Hardware stack levels required when called:    6
  2460 ;; This function calls:
  2461 ;;		_utoa
  2462 ;; This function is called by:
  2463 ;;		_main
  2464 ;; This function uses a non-reentrant model
  2465 ;;
  2466                           
  2467                           
  2468                           ;psect for function _itoa
  2469  0806                     _itoa:
  2470  0806                     l2727:	
  2471                           ;incstack = 0
  2472                           ; Regs used in _itoa: [wreg-fsr0h+status,2+status,0+pclath+cstack]
  2473                           
  2474  0806                     l2729:
  2475  0806  1283               	bcf	3,5	;RP0=0, select bank0
  2476  0807  1303               	bcf	3,6	;RP1=0, select bank0
  2477  0808  1FC7               	btfss	itoa@val+1,7
  2478  0809  280B               	goto	u3281
  2479  080A  280C               	goto	u3280
  2480  080B                     u3281:
  2481  080B  2820               	goto	l2737
  2482  080C                     u3280:
  2483  080C                     l2731:
  2484  080C  302D               	movlw	45
  2485  080D  00CA               	movwf	??_itoa
  2486  080E  0844               	movf	itoa@buf,w
  2487  080F  0084               	movwf	4
  2488  0810  1783               	bsf	3,7
  2489  0811  1C45               	btfss	itoa@buf+1,0
  2490  0812  1383               	bcf	3,7
  2491  0813  084A               	movf	??_itoa,w
  2492  0814  0080               	movwf	0
  2493  0815                     l2733:
  2494  0815  3001               	movlw	1
  2495  0816  07C4               	addwf	itoa@buf,f
  2496  0817  1803               	skipnc
  2497  0818  0AC5               	incf	itoa@buf+1,f
  2498  0819  3000               	movlw	0
  2499  081A  07C5               	addwf	itoa@buf+1,f
  2500  081B                     l2735:
  2501  081B  09C6               	comf	itoa@val,f
  2502  081C  09C7               	comf	itoa@val+1,f
  2503  081D  0AC6               	incf	itoa@val,f
  2504  081E  1903               	skipnz
  2505  081F  0AC7               	incf	itoa@val+1,f
  2506  0820                     l2737:
  2507  0820  0844               	movf	itoa@buf,w
  2508  0821  00BA               	movwf	utoa@buf
  2509  0822  0845               	movf	itoa@buf+1,w
  2510  0823  00BB               	movwf	utoa@buf+1
  2511  0824  0847               	movf	itoa@val+1,w
  2512  0825  00BD               	movwf	utoa@val+1
  2513  0826  0846               	movf	itoa@val,w
  2514  0827  00BC               	movwf	utoa@val
  2515  0828  0849               	movf	itoa@base+1,w
  2516  0829  00BF               	movwf	utoa@base+1
  2517  082A  0848               	movf	itoa@base,w
  2518  082B  00BE               	movwf	utoa@base
  2519  082C  120A  118A  264A  120A  158A  	fcall	_utoa
  2520  0831                     l764:
  2521  0831  0008               	return
  2522  0832                     __end_of_itoa:
  2523                           
  2524                           	psect	text5
  2525  064A                     __ptext5:	
  2526 ;; *************** function _utoa *****************
  2527 ;; Defined at:
  2528 ;;		line 17 in file "C:\Program Files\Microchip\xc8\v2.31\pic\sources\c90\common\itoa.c"
  2529 ;; Parameters:    Size  Location     Type
  2530 ;;  buf             2   26[BANK0 ] PTR unsigned char 
  2531 ;;		 -> POT2SC(5), POT2SB(5), POT2SA(5), POT1SC(5), 
  2532 ;;		 -> POT1SB(5), POT1SA(5), COMPARE(5), 
  2533 ;;  val             2   28[BANK0 ] unsigned int 
  2534 ;;  base            2   30[BANK0 ] int 
  2535 ;; Auto vars:     Size  Location     Type
  2536 ;;  v               2   33[BANK0 ] unsigned int 
  2537 ;;  c               1   35[BANK0 ] unsigned char 
  2538 ;; Return value:  Size  Location     Type
  2539 ;;                  2   26[BANK0 ] PTR unsigned char 
  2540 ;; Registers used:
  2541 ;;		wreg, fsr0l, fsr0h, status,2, status,0, pclath, cstack
  2542 ;; Tracked objects:
  2543 ;;		On entry : 0/0
  2544 ;;		On exit  : 0/0
  2545 ;;		Unchanged: 0/0
  2546 ;; Data sizes:     COMMON   BANK0   BANK1   BANK3   BANK2
  2547 ;;      Params:         0       6       0       0       0
  2548 ;;      Locals:         0       3       0       0       0
  2549 ;;      Temps:          0       1       0       0       0
  2550 ;;      Totals:         0      10       0       0       0
  2551 ;;Total ram usage:       10 bytes
  2552 ;; Hardware stack levels used:    1
  2553 ;; Hardware stack levels required when called:    5
  2554 ;; This function calls:
  2555 ;;		___lwdiv
  2556 ;;		___lwmod
  2557 ;; This function is called by:
  2558 ;;		_itoa
  2559 ;; This function uses a non-reentrant model
  2560 ;;
  2561                           
  2562                           
  2563                           ;psect for function _utoa
  2564  064A                     _utoa:
  2565  064A                     l2667:	
  2566                           ;incstack = 0
  2567                           ; Regs used in _utoa: [wreg-fsr0h+status,2+status,0+pclath+cstack]
  2568                           
  2569  064A  1283               	bcf	3,5	;RP0=0, select bank0
  2570  064B  1303               	bcf	3,6	;RP1=0, select bank0
  2571  064C  083D               	movf	utoa@val+1,w
  2572  064D  00C2               	movwf	utoa@v+1
  2573  064E  083C               	movf	utoa@val,w
  2574  064F  00C1               	movwf	utoa@v
  2575  0650                     l2669:
  2576  0650  083F               	movf	utoa@base+1,w
  2577  0651  00B3               	movwf	___lwdiv@divisor+1
  2578  0652  083E               	movf	utoa@base,w
  2579  0653  00B2               	movwf	___lwdiv@divisor
  2580  0654  0842               	movf	utoa@v+1,w
  2581  0655  00B5               	movwf	___lwdiv@dividend+1
  2582  0656  0841               	movf	utoa@v,w
  2583  0657  00B4               	movwf	___lwdiv@dividend
  2584  0658  120A  158A  2076  120A  118A  	fcall	___lwdiv
  2585  065D  1283               	bcf	3,5	;RP0=0, select bank0
  2586  065E  1303               	bcf	3,6	;RP1=0, select bank0
  2587  065F  0833               	movf	?___lwdiv+1,w
  2588  0660  00C2               	movwf	utoa@v+1
  2589  0661  0832               	movf	?___lwdiv,w
  2590  0662  00C1               	movwf	utoa@v
  2591  0663                     l2671:
  2592  0663  3001               	movlw	1
  2593  0664  07BA               	addwf	utoa@buf,f
  2594  0665  1803               	skipnc
  2595  0666  0ABB               	incf	utoa@buf+1,f
  2596  0667  3000               	movlw	0
  2597  0668  07BB               	addwf	utoa@buf+1,f
  2598  0669                     l2673:
  2599  0669  0841               	movf	utoa@v,w
  2600  066A  0442               	iorwf	utoa@v+1,w
  2601  066B  1D03               	btfss	3,2
  2602  066C  2E6E               	goto	u3221
  2603  066D  2E6F               	goto	u3220
  2604  066E                     u3221:
  2605  066E  2E50               	goto	l2669
  2606  066F                     u3220:
  2607  066F                     l2675:
  2608  066F  083A               	movf	utoa@buf,w
  2609  0670  0084               	movwf	4
  2610  0671  1783               	bsf	3,7
  2611  0672  1C3B               	btfss	utoa@buf+1,0
  2612  0673  1383               	bcf	3,7
  2613  0674  0180               	clrf	0
  2614  0675                     l2677:
  2615  0675  3001               	movlw	1
  2616  0676  02BA               	subwf	utoa@buf,f
  2617  0677  3000               	movlw	0
  2618  0678  1C03               	skipc
  2619  0679  03BB               	decf	utoa@buf+1,f
  2620  067A  02BB               	subwf	utoa@buf+1,f
  2621  067B                     l2679:
  2622  067B  083F               	movf	utoa@base+1,w
  2623  067C  00B3               	movwf	___lwmod@divisor+1
  2624  067D  083E               	movf	utoa@base,w
  2625  067E  00B2               	movwf	___lwmod@divisor
  2626  067F  083D               	movf	utoa@val+1,w
  2627  0680  00B5               	movwf	___lwmod@dividend+1
  2628  0681  083C               	movf	utoa@val,w
  2629  0682  00B4               	movwf	___lwmod@dividend
  2630  0683  160A  118A  273E  120A  118A  	fcall	___lwmod
  2631  0688  1283               	bcf	3,5	;RP0=0, select bank0
  2632  0689  1303               	bcf	3,6	;RP1=0, select bank0
  2633  068A  0832               	movf	?___lwmod,w
  2634  068B  00C0               	movwf	??_utoa
  2635  068C  0840               	movf	??_utoa,w
  2636  068D  00C3               	movwf	utoa@c
  2637  068E                     l2681:
  2638  068E  083F               	movf	utoa@base+1,w
  2639  068F  00B3               	movwf	___lwdiv@divisor+1
  2640  0690  083E               	movf	utoa@base,w
  2641  0691  00B2               	movwf	___lwdiv@divisor
  2642  0692  083D               	movf	utoa@val+1,w
  2643  0693  00B5               	movwf	___lwdiv@dividend+1
  2644  0694  083C               	movf	utoa@val,w
  2645  0695  00B4               	movwf	___lwdiv@dividend
  2646  0696  120A  158A  2076  120A  118A  	fcall	___lwdiv
  2647  069B  1283               	bcf	3,5	;RP0=0, select bank0
  2648  069C  1303               	bcf	3,6	;RP1=0, select bank0
  2649  069D  0833               	movf	?___lwdiv+1,w
  2650  069E  00BD               	movwf	utoa@val+1
  2651  069F  0832               	movf	?___lwdiv,w
  2652  06A0  00BC               	movwf	utoa@val
  2653  06A1                     l2683:
  2654  06A1  300A               	movlw	10
  2655  06A2  0243               	subwf	utoa@c,w
  2656  06A3  1C03               	skipc
  2657  06A4  2EA6               	goto	u3231
  2658  06A5  2EA7               	goto	u3230
  2659  06A6                     u3231:
  2660  06A6  2EAB               	goto	l770
  2661  06A7                     u3230:
  2662  06A7                     l2685:
  2663  06A7  3007               	movlw	7
  2664  06A8  00C0               	movwf	??_utoa
  2665  06A9  0840               	movf	??_utoa,w
  2666  06AA  07C3               	addwf	utoa@c,f
  2667  06AB                     l770:
  2668  06AB  3030               	movlw	48
  2669  06AC  00C0               	movwf	??_utoa
  2670  06AD  0840               	movf	??_utoa,w
  2671  06AE  07C3               	addwf	utoa@c,f
  2672  06AF                     l2687:
  2673  06AF  0843               	movf	utoa@c,w
  2674  06B0  00C0               	movwf	??_utoa
  2675  06B1  083A               	movf	utoa@buf,w
  2676  06B2  0084               	movwf	4
  2677  06B3  1783               	bsf	3,7
  2678  06B4  1C3B               	btfss	utoa@buf+1,0
  2679  06B5  1383               	bcf	3,7
  2680  06B6  0840               	movf	??_utoa,w
  2681  06B7  0080               	movwf	0
  2682  06B8                     l2689:
  2683  06B8  3001               	movlw	1
  2684  06B9  02BA               	subwf	utoa@buf,f
  2685  06BA  3000               	movlw	0
  2686  06BB  1C03               	skipc
  2687  06BC  03BB               	decf	utoa@buf+1,f
  2688  06BD  02BB               	subwf	utoa@buf+1,f
  2689  06BE                     l2691:
  2690  06BE  083C               	movf	utoa@val,w
  2691  06BF  043D               	iorwf	utoa@val+1,w
  2692  06C0  1D03               	btfss	3,2
  2693  06C1  2EC3               	goto	u3241
  2694  06C2  2EC4               	goto	u3240
  2695  06C3                     u3241:
  2696  06C3  2E7B               	goto	l2679
  2697  06C4                     u3240:
  2698  06C4                     l2693:
  2699                           
  2700                           ;	Return value of _utoa is never used
  2701  06C4  3001               	movlw	1
  2702  06C5  07BA               	addwf	utoa@buf,f
  2703  06C6  1803               	skipnc
  2704  06C7  0ABB               	incf	utoa@buf+1,f
  2705  06C8  3000               	movlw	0
  2706  06C9  07BB               	addwf	utoa@buf+1,f
  2707  06CA                     l772:
  2708  06CA  0008               	return
  2709  06CB                     __end_of_utoa:
  2710                           
  2711                           	psect	text6
  2712  173E                     __ptext6:	
  2713 ;; *************** function ___lwmod *****************
  2714 ;; Defined at:
  2715 ;;		line 5 in file "C:\Program Files\Microchip\xc8\v2.31\pic\sources\c90\common\lwmod.c"
  2716 ;; Parameters:    Size  Location     Type
  2717 ;;  divisor         2   18[BANK0 ] unsigned int 
  2718 ;;  dividend        2   20[BANK0 ] unsigned int 
  2719 ;; Auto vars:     Size  Location     Type
  2720 ;;  counter         1   23[BANK0 ] unsigned char 
  2721 ;; Return value:  Size  Location     Type
  2722 ;;                  2   18[BANK0 ] unsigned int 
  2723 ;; Registers used:
  2724 ;;		wreg, status,2, status,0
  2725 ;; Tracked objects:
  2726 ;;		On entry : 0/0
  2727 ;;		On exit  : 0/0
  2728 ;;		Unchanged: 0/0
  2729 ;; Data sizes:     COMMON   BANK0   BANK1   BANK3   BANK2
  2730 ;;      Params:         0       4       0       0       0
  2731 ;;      Locals:         0       1       0       0       0
  2732 ;;      Temps:          0       1       0       0       0
  2733 ;;      Totals:         0       6       0       0       0
  2734 ;;Total ram usage:        6 bytes
  2735 ;; Hardware stack levels used:    1
  2736 ;; Hardware stack levels required when called:    4
  2737 ;; This function calls:
  2738 ;;		Nothing
  2739 ;; This function is called by:
  2740 ;;		_utoa
  2741 ;; This function uses a non-reentrant model
  2742 ;;
  2743                           
  2744                           
  2745                           ;psect for function ___lwmod
  2746  173E                     ___lwmod:
  2747  173E                     l1779:	
  2748                           ;incstack = 0
  2749                           ; Regs used in ___lwmod: [wreg+status,2+status,0]
  2750                           
  2751  173E  1283               	bcf	3,5	;RP0=0, select bank0
  2752  173F  1303               	bcf	3,6	;RP1=0, select bank0
  2753  1740  0832               	movf	___lwmod@divisor,w
  2754  1741  0433               	iorwf	___lwmod@divisor+1,w
  2755  1742  1903               	btfsc	3,2
  2756  1743  2F45               	goto	u1671
  2757  1744  2F46               	goto	u1670
  2758  1745                     u1671:
  2759  1745  2F75               	goto	l1797
  2760  1746                     u1670:
  2761  1746                     l1781:
  2762  1746  01B7               	clrf	___lwmod@counter
  2763  1747  0AB7               	incf	___lwmod@counter,f
  2764  1748  2F54               	goto	l1787
  2765  1749                     l1783:
  2766  1749  3001               	movlw	1
  2767  174A                     u1685:
  2768  174A  1003               	clrc
  2769  174B  0DB2               	rlf	___lwmod@divisor,f
  2770  174C  0DB3               	rlf	___lwmod@divisor+1,f
  2771  174D  3EFF               	addlw	-1
  2772  174E  1D03               	skipz
  2773  174F  2F4A               	goto	u1685
  2774  1750                     l1785:
  2775  1750  3001               	movlw	1
  2776  1751  00B6               	movwf	??___lwmod
  2777  1752  0836               	movf	??___lwmod,w
  2778  1753  07B7               	addwf	___lwmod@counter,f
  2779  1754                     l1787:
  2780  1754  1FB3               	btfss	___lwmod@divisor+1,7
  2781  1755  2F57               	goto	u1691
  2782  1756  2F58               	goto	u1690
  2783  1757                     u1691:
  2784  1757  2F49               	goto	l1783
  2785  1758                     u1690:
  2786  1758                     l1789:
  2787  1758  0833               	movf	___lwmod@divisor+1,w
  2788  1759  0235               	subwf	___lwmod@dividend+1,w
  2789  175A  1D03               	skipz
  2790  175B  2F5E               	goto	u1705
  2791  175C  0832               	movf	___lwmod@divisor,w
  2792  175D  0234               	subwf	___lwmod@dividend,w
  2793  175E                     u1705:
  2794  175E  1C03               	skipc
  2795  175F  2F61               	goto	u1701
  2796  1760  2F62               	goto	u1700
  2797  1761                     u1701:
  2798  1761  2F68               	goto	l1793
  2799  1762                     u1700:
  2800  1762                     l1791:
  2801  1762  0832               	movf	___lwmod@divisor,w
  2802  1763  02B4               	subwf	___lwmod@dividend,f
  2803  1764  0833               	movf	___lwmod@divisor+1,w
  2804  1765  1C03               	skipc
  2805  1766  03B5               	decf	___lwmod@dividend+1,f
  2806  1767  02B5               	subwf	___lwmod@dividend+1,f
  2807  1768                     l1793:
  2808  1768  3001               	movlw	1
  2809  1769                     u1715:
  2810  1769  1003               	clrc
  2811  176A  0CB3               	rrf	___lwmod@divisor+1,f
  2812  176B  0CB2               	rrf	___lwmod@divisor,f
  2813  176C  3EFF               	addlw	-1
  2814  176D  1D03               	skipz
  2815  176E  2F69               	goto	u1715
  2816  176F                     l1795:
  2817  176F  3001               	movlw	1
  2818  1770  02B7               	subwf	___lwmod@counter,f
  2819  1771  1D03               	btfss	3,2
  2820  1772  2F74               	goto	u1721
  2821  1773  2F75               	goto	u1720
  2822  1774                     u1721:
  2823  1774  2F58               	goto	l1789
  2824  1775                     u1720:
  2825  1775                     l1797:
  2826  1775  0835               	movf	___lwmod@dividend+1,w
  2827  1776  00B3               	movwf	?___lwmod+1
  2828  1777  0834               	movf	___lwmod@dividend,w
  2829  1778  00B2               	movwf	?___lwmod
  2830  1779                     l592:
  2831  1779  0008               	return
  2832  177A                     __end_of___lwmod:
  2833                           
  2834                           	psect	text7
  2835  0876                     __ptext7:	
  2836 ;; *************** function ___lwdiv *****************
  2837 ;; Defined at:
  2838 ;;		line 5 in file "C:\Program Files\Microchip\xc8\v2.31\pic\sources\c90\common\lwdiv.c"
  2839 ;; Parameters:    Size  Location     Type
  2840 ;;  divisor         2   18[BANK0 ] unsigned int 
  2841 ;;  dividend        2   20[BANK0 ] unsigned int 
  2842 ;; Auto vars:     Size  Location     Type
  2843 ;;  quotient        2   23[BANK0 ] unsigned int 
  2844 ;;  counter         1   25[BANK0 ] unsigned char 
  2845 ;; Return value:  Size  Location     Type
  2846 ;;                  2   18[BANK0 ] unsigned int 
  2847 ;; Registers used:
  2848 ;;		wreg, status,2, status,0
  2849 ;; Tracked objects:
  2850 ;;		On entry : 0/0
  2851 ;;		On exit  : 0/0
  2852 ;;		Unchanged: 0/0
  2853 ;; Data sizes:     COMMON   BANK0   BANK1   BANK3   BANK2
  2854 ;;      Params:         0       4       0       0       0
  2855 ;;      Locals:         0       3       0       0       0
  2856 ;;      Temps:          0       1       0       0       0
  2857 ;;      Totals:         0       8       0       0       0
  2858 ;;Total ram usage:        8 bytes
  2859 ;; Hardware stack levels used:    1
  2860 ;; Hardware stack levels required when called:    4
  2861 ;; This function calls:
  2862 ;;		Nothing
  2863 ;; This function is called by:
  2864 ;;		_utoa
  2865 ;; This function uses a non-reentrant model
  2866 ;;
  2867                           
  2868                           
  2869                           ;psect for function ___lwdiv
  2870  0876                     ___lwdiv:
  2871  0876                     l1753:	
  2872                           ;incstack = 0
  2873                           ; Regs used in ___lwdiv: [wreg+status,2+status,0]
  2874                           
  2875  0876  1283               	bcf	3,5	;RP0=0, select bank0
  2876  0877  1303               	bcf	3,6	;RP1=0, select bank0
  2877  0878  01B7               	clrf	___lwdiv@quotient
  2878  0879  01B8               	clrf	___lwdiv@quotient+1
  2879  087A                     l1755:
  2880  087A  0832               	movf	___lwdiv@divisor,w
  2881  087B  0433               	iorwf	___lwdiv@divisor+1,w
  2882  087C  1903               	btfsc	3,2
  2883  087D  287F               	goto	u1601
  2884  087E  2880               	goto	u1600
  2885  087F                     u1601:
  2886  087F  28B7               	goto	l1775
  2887  0880                     u1600:
  2888  0880                     l1757:
  2889  0880  01B9               	clrf	___lwdiv@counter
  2890  0881  0AB9               	incf	___lwdiv@counter,f
  2891  0882  288E               	goto	l1763
  2892  0883                     l1759:
  2893  0883  3001               	movlw	1
  2894  0884                     u1615:
  2895  0884  1003               	clrc
  2896  0885  0DB2               	rlf	___lwdiv@divisor,f
  2897  0886  0DB3               	rlf	___lwdiv@divisor+1,f
  2898  0887  3EFF               	addlw	-1
  2899  0888  1D03               	skipz
  2900  0889  2884               	goto	u1615
  2901  088A                     l1761:
  2902  088A  3001               	movlw	1
  2903  088B  00B6               	movwf	??___lwdiv
  2904  088C  0836               	movf	??___lwdiv,w
  2905  088D  07B9               	addwf	___lwdiv@counter,f
  2906  088E                     l1763:
  2907  088E  1FB3               	btfss	___lwdiv@divisor+1,7
  2908  088F  2891               	goto	u1621
  2909  0890  2892               	goto	u1620
  2910  0891                     u1621:
  2911  0891  2883               	goto	l1759
  2912  0892                     u1620:
  2913  0892                     l1765:
  2914  0892  3001               	movlw	1
  2915  0893                     u1635:
  2916  0893  1003               	clrc
  2917  0894  0DB7               	rlf	___lwdiv@quotient,f
  2918  0895  0DB8               	rlf	___lwdiv@quotient+1,f
  2919  0896  3EFF               	addlw	-1
  2920  0897  1D03               	skipz
  2921  0898  2893               	goto	u1635
  2922  0899  0833               	movf	___lwdiv@divisor+1,w
  2923  089A  0235               	subwf	___lwdiv@dividend+1,w
  2924  089B  1D03               	skipz
  2925  089C  289F               	goto	u1645
  2926  089D  0832               	movf	___lwdiv@divisor,w
  2927  089E  0234               	subwf	___lwdiv@dividend,w
  2928  089F                     u1645:
  2929  089F  1C03               	skipc
  2930  08A0  28A2               	goto	u1641
  2931  08A1  28A3               	goto	u1640
  2932  08A2                     u1641:
  2933  08A2  28AA               	goto	l1771
  2934  08A3                     u1640:
  2935  08A3                     l1767:
  2936  08A3  0832               	movf	___lwdiv@divisor,w
  2937  08A4  02B4               	subwf	___lwdiv@dividend,f
  2938  08A5  0833               	movf	___lwdiv@divisor+1,w
  2939  08A6  1C03               	skipc
  2940  08A7  03B5               	decf	___lwdiv@dividend+1,f
  2941  08A8  02B5               	subwf	___lwdiv@dividend+1,f
  2942  08A9                     l1769:
  2943  08A9  1437               	bsf	___lwdiv@quotient,0
  2944  08AA                     l1771:
  2945  08AA  3001               	movlw	1
  2946  08AB                     u1655:
  2947  08AB  1003               	clrc
  2948  08AC  0CB3               	rrf	___lwdiv@divisor+1,f
  2949  08AD  0CB2               	rrf	___lwdiv@divisor,f
  2950  08AE  3EFF               	addlw	-1
  2951  08AF  1D03               	skipz
  2952  08B0  28AB               	goto	u1655
  2953  08B1                     l1773:
  2954  08B1  3001               	movlw	1
  2955  08B2  02B9               	subwf	___lwdiv@counter,f
  2956  08B3  1D03               	btfss	3,2
  2957  08B4  28B6               	goto	u1661
  2958  08B5  28B7               	goto	u1660
  2959  08B6                     u1661:
  2960  08B6  2892               	goto	l1765
  2961  08B7                     u1660:
  2962  08B7                     l1775:
  2963  08B7  0838               	movf	___lwdiv@quotient+1,w
  2964  08B8  00B3               	movwf	?___lwdiv+1
  2965  08B9  0837               	movf	___lwdiv@quotient,w
  2966  08BA  00B2               	movwf	?___lwdiv
  2967  08BB                     l582:
  2968  08BB  0008               	return
  2969  08BC                     __end_of___lwdiv:
  2970                           
  2971                           	psect	text8
  2972  058E                     __ptext8:	
  2973 ;; *************** function ___xxtofl *****************
  2974 ;; Defined at:
  2975 ;;		line 10 in file "C:\Program Files\Microchip\xc8\v2.31\pic\sources\c90\common\xxtofl.c"
  2976 ;; Parameters:    Size  Location     Type
  2977 ;;  sign            1    wreg     unsigned char 
  2978 ;;  val             4   18[BANK0 ] long 
  2979 ;; Auto vars:     Size  Location     Type
  2980 ;;  sign            1   26[BANK0 ] unsigned char 
  2981 ;;  arg             4   28[BANK0 ] unsigned long 
  2982 ;;  exp             1   27[BANK0 ] unsigned char 
  2983 ;; Return value:  Size  Location     Type
  2984 ;;                  4   18[BANK0 ] unsigned char 
  2985 ;; Registers used:
  2986 ;;		wreg, status,2, status,0
  2987 ;; Tracked objects:
  2988 ;;		On entry : 0/0
  2989 ;;		On exit  : 0/0
  2990 ;;		Unchanged: 0/0
  2991 ;; Data sizes:     COMMON   BANK0   BANK1   BANK3   BANK2
  2992 ;;      Params:         0       4       0       0       0
  2993 ;;      Locals:         0       6       0       0       0
  2994 ;;      Temps:          0       4       0       0       0
  2995 ;;      Totals:         0      14       0       0       0
  2996 ;;Total ram usage:       14 bytes
  2997 ;; Hardware stack levels used:    1
  2998 ;; Hardware stack levels required when called:    4
  2999 ;; This function calls:
  3000 ;;		Nothing
  3001 ;; This function is called by:
  3002 ;;		_main
  3003 ;; This function uses a non-reentrant model
  3004 ;;
  3005                           
  3006                           
  3007                           ;psect for function ___xxtofl
  3008  058E                     ___xxtofl:
  3009                           
  3010                           ;incstack = 0
  3011                           ; Regs used in ___xxtofl: [wreg+status,2+status,0]
  3012                           ;___xxtofl@sign stored from wreg
  3013  058E  1283               	bcf	3,5	;RP0=0, select bank0
  3014  058F  1303               	bcf	3,6	;RP1=0, select bank0
  3015  0590  00BA               	movwf	___xxtofl@sign
  3016  0591                     l2487:
  3017  0591  083A               	movf	___xxtofl@sign,w
  3018  0592  1903               	btfsc	3,2
  3019  0593  2D95               	goto	u2991
  3020  0594  2D96               	goto	u2990
  3021  0595                     u2991:
  3022  0595  2DAA               	goto	l2493
  3023  0596                     u2990:
  3024  0596                     l2489:
  3025  0596  1FB5               	btfss	___xxtofl@val+3,7
  3026  0597  2D99               	goto	u3001
  3027  0598  2D9A               	goto	u3000
  3028  0599                     u3001:
  3029  0599  2DAA               	goto	l2493
  3030  059A                     u3000:
  3031  059A                     l2491:
  3032  059A  0932               	comf	___xxtofl@val,w
  3033  059B  00BC               	movwf	___xxtofl@arg
  3034  059C  0933               	comf	___xxtofl@val+1,w
  3035  059D  00BD               	movwf	___xxtofl@arg+1
  3036  059E  0934               	comf	___xxtofl@val+2,w
  3037  059F  00BE               	movwf	___xxtofl@arg+2
  3038  05A0  0935               	comf	___xxtofl@val+3,w
  3039  05A1  00BF               	movwf	___xxtofl@arg+3
  3040  05A2  0ABC               	incf	___xxtofl@arg,f
  3041  05A3  1903               	skipnz
  3042  05A4  0ABD               	incf	___xxtofl@arg+1,f
  3043  05A5  1903               	skipnz
  3044  05A6  0ABE               	incf	___xxtofl@arg+2,f
  3045  05A7  1903               	skipnz
  3046  05A8  0ABF               	incf	___xxtofl@arg+3,f
  3047  05A9  2DB2               	goto	l743
  3048  05AA                     l2493:
  3049  05AA  0835               	movf	___xxtofl@val+3,w
  3050  05AB  00BF               	movwf	___xxtofl@arg+3
  3051  05AC  0834               	movf	___xxtofl@val+2,w
  3052  05AD  00BE               	movwf	___xxtofl@arg+2
  3053  05AE  0833               	movf	___xxtofl@val+1,w
  3054  05AF  00BD               	movwf	___xxtofl@arg+1
  3055  05B0  0832               	movf	___xxtofl@val,w
  3056  05B1  00BC               	movwf	___xxtofl@arg
  3057  05B2                     l743:
  3058  05B2  0835               	movf	___xxtofl@val+3,w
  3059  05B3  0434               	iorwf	___xxtofl@val+2,w
  3060  05B4  0433               	iorwf	___xxtofl@val+1,w
  3061  05B5  0432               	iorwf	___xxtofl@val,w
  3062  05B6  1D03               	skipz
  3063  05B7  2DB9               	goto	u3011
  3064  05B8  2DBA               	goto	u3010
  3065  05B9                     u3011:
  3066  05B9  2DC3               	goto	l2499
  3067  05BA                     u3010:
  3068  05BA                     l2495:
  3069  05BA  3000               	movlw	0
  3070  05BB  00B5               	movwf	?___xxtofl+3
  3071  05BC  3000               	movlw	0
  3072  05BD  00B4               	movwf	?___xxtofl+2
  3073  05BE  3000               	movlw	0
  3074  05BF  00B3               	movwf	?___xxtofl+1
  3075  05C0  3000               	movlw	0
  3076  05C1  00B2               	movwf	?___xxtofl
  3077  05C2  2E49               	goto	l745
  3078  05C3                     l2499:
  3079  05C3  3096               	movlw	150
  3080  05C4  00B6               	movwf	??___xxtofl
  3081  05C5  0836               	movf	??___xxtofl,w
  3082  05C6  00BB               	movwf	___xxtofl@exp
  3083  05C7  2DD5               	goto	l2503
  3084  05C8                     l2501:
  3085  05C8  3001               	movlw	1
  3086  05C9  00B6               	movwf	??___xxtofl
  3087  05CA  0836               	movf	??___xxtofl,w
  3088  05CB  07BB               	addwf	___xxtofl@exp,f
  3089  05CC  3001               	movlw	1
  3090  05CD                     u3025:
  3091  05CD  1003               	clrc
  3092  05CE  0CBF               	rrf	___xxtofl@arg+3,f
  3093  05CF  0CBE               	rrf	___xxtofl@arg+2,f
  3094  05D0  0CBD               	rrf	___xxtofl@arg+1,f
  3095  05D1  0CBC               	rrf	___xxtofl@arg,f
  3096  05D2  3EFF               	addlw	-1
  3097  05D3  1D03               	skipz
  3098  05D4  2DCD               	goto	u3025
  3099  05D5                     l2503:
  3100  05D5  30FE               	movlw	254
  3101  05D6  053F               	andwf	___xxtofl@arg+3,w
  3102  05D7  1D03               	btfss	3,2
  3103  05D8  2DDA               	goto	u3031
  3104  05D9  2DDB               	goto	u3030
  3105  05DA                     u3031:
  3106  05DA  2DC8               	goto	l2501
  3107  05DB                     u3030:
  3108  05DB  2DF7               	goto	l749
  3109  05DC                     l2505:
  3110  05DC  3001               	movlw	1
  3111  05DD  00B6               	movwf	??___xxtofl
  3112  05DE  0836               	movf	??___xxtofl,w
  3113  05DF  07BB               	addwf	___xxtofl@exp,f
  3114  05E0                     l2507:
  3115  05E0  3001               	movlw	1
  3116  05E1  07BC               	addwf	___xxtofl@arg,f
  3117  05E2  3000               	movlw	0
  3118  05E3  1803               	skipnc
  3119  05E4  3001               	movlw	1
  3120  05E5  07BD               	addwf	___xxtofl@arg+1,f
  3121  05E6  3000               	movlw	0
  3122  05E7  1803               	skipnc
  3123  05E8  3001               	movlw	1
  3124  05E9  07BE               	addwf	___xxtofl@arg+2,f
  3125  05EA  3000               	movlw	0
  3126  05EB  1803               	skipnc
  3127  05EC  3001               	movlw	1
  3128  05ED  07BF               	addwf	___xxtofl@arg+3,f
  3129  05EE                     l2509:
  3130  05EE  3001               	movlw	1
  3131  05EF                     u3045:
  3132  05EF  1003               	clrc
  3133  05F0  0CBF               	rrf	___xxtofl@arg+3,f
  3134  05F1  0CBE               	rrf	___xxtofl@arg+2,f
  3135  05F2  0CBD               	rrf	___xxtofl@arg+1,f
  3136  05F3  0CBC               	rrf	___xxtofl@arg,f
  3137  05F4  3EFF               	addlw	-1
  3138  05F5  1D03               	skipz
  3139  05F6  2DEF               	goto	u3045
  3140  05F7                     l749:
  3141  05F7  30FF               	movlw	255
  3142  05F8  053F               	andwf	___xxtofl@arg+3,w
  3143  05F9  1D03               	btfss	3,2
  3144  05FA  2DFC               	goto	u3051
  3145  05FB  2DFD               	goto	u3050
  3146  05FC                     u3051:
  3147  05FC  2DDC               	goto	l2505
  3148  05FD                     u3050:
  3149  05FD  2E09               	goto	l2513
  3150  05FE                     l2511:
  3151  05FE  3001               	movlw	1
  3152  05FF  02BB               	subwf	___xxtofl@exp,f
  3153  0600  3001               	movlw	1
  3154  0601  00B6               	movwf	??___xxtofl
  3155  0602                     u3065:
  3156  0602  1003               	clrc
  3157  0603  0DBC               	rlf	___xxtofl@arg,f
  3158  0604  0DBD               	rlf	___xxtofl@arg+1,f
  3159  0605  0DBE               	rlf	___xxtofl@arg+2,f
  3160  0606  0DBF               	rlf	___xxtofl@arg+3,f
  3161  0607  0BB6               	decfsz	??___xxtofl,f
  3162  0608  2E02               	goto	u3065
  3163  0609                     l2513:
  3164  0609  1BBE               	btfsc	___xxtofl@arg+2,7
  3165  060A  2E0C               	goto	u3071
  3166  060B  2E0D               	goto	u3070
  3167  060C                     u3071:
  3168  060C  2E13               	goto	l756
  3169  060D                     u3070:
  3170  060D                     l2515:
  3171  060D  3002               	movlw	2
  3172  060E  023B               	subwf	___xxtofl@exp,w
  3173  060F  1803               	skipnc
  3174  0610  2E12               	goto	u3081
  3175  0611  2E13               	goto	u3080
  3176  0612                     u3081:
  3177  0612  2DFE               	goto	l2511
  3178  0613                     u3080:
  3179  0613                     l756:
  3180  0613  183B               	btfsc	___xxtofl@exp,0
  3181  0614  2E16               	goto	u3091
  3182  0615  2E17               	goto	u3090
  3183  0616                     u3091:
  3184  0616  2E1F               	goto	l757
  3185  0617                     u3090:
  3186  0617                     l2517:
  3187  0617  30FF               	movlw	255
  3188  0618  05BC               	andwf	___xxtofl@arg,f
  3189  0619  30FF               	movlw	255
  3190  061A  05BD               	andwf	___xxtofl@arg+1,f
  3191  061B  307F               	movlw	127
  3192  061C  05BE               	andwf	___xxtofl@arg+2,f
  3193  061D  30FF               	movlw	255
  3194  061E  05BF               	andwf	___xxtofl@arg+3,f
  3195  061F                     l757:
  3196  061F  1003               	clrc
  3197  0620  0CBB               	rrf	___xxtofl@exp,f
  3198  0621                     l2519:
  3199  0621  083B               	movf	___xxtofl@exp,w
  3200  0622  00B6               	movwf	??___xxtofl
  3201  0623  01B7               	clrf	??___xxtofl+1
  3202  0624  01B8               	clrf	??___xxtofl+2
  3203  0625  01B9               	clrf	??___xxtofl+3
  3204  0626  3018               	movlw	24
  3205  0627                     u3105:
  3206  0627  1003               	clrc
  3207  0628  0DB6               	rlf	??___xxtofl,f
  3208  0629  0DB7               	rlf	??___xxtofl+1,f
  3209  062A  0DB8               	rlf	??___xxtofl+2,f
  3210  062B  0DB9               	rlf	??___xxtofl+3,f
  3211  062C                     u3100:
  3212  062C  3EFF               	addlw	-1
  3213  062D  1D03               	skipz
  3214  062E  2E27               	goto	u3105
  3215  062F  0836               	movf	??___xxtofl,w
  3216  0630  04BC               	iorwf	___xxtofl@arg,f
  3217  0631  0837               	movf	??___xxtofl+1,w
  3218  0632  04BD               	iorwf	___xxtofl@arg+1,f
  3219  0633  0838               	movf	??___xxtofl+2,w
  3220  0634  04BE               	iorwf	___xxtofl@arg+2,f
  3221  0635  0839               	movf	??___xxtofl+3,w
  3222  0636  04BF               	iorwf	___xxtofl@arg+3,f
  3223  0637                     l2521:
  3224  0637  083A               	movf	___xxtofl@sign,w
  3225  0638  1903               	btfsc	3,2
  3226  0639  2E3B               	goto	u3111
  3227  063A  2E3C               	goto	u3110
  3228  063B                     u3111:
  3229  063B  2E41               	goto	l2527
  3230  063C                     u3110:
  3231  063C                     l2523:
  3232  063C  1FB5               	btfss	___xxtofl@val+3,7
  3233  063D  2E3F               	goto	u3121
  3234  063E  2E40               	goto	u3120
  3235  063F                     u3121:
  3236  063F  2E41               	goto	l2527
  3237  0640                     u3120:
  3238  0640                     l2525:
  3239  0640  17BF               	bsf	___xxtofl@arg+3,7
  3240  0641                     l2527:
  3241  0641  083F               	movf	___xxtofl@arg+3,w
  3242  0642  00B5               	movwf	?___xxtofl+3
  3243  0643  083E               	movf	___xxtofl@arg+2,w
  3244  0644  00B4               	movwf	?___xxtofl+2
  3245  0645  083D               	movf	___xxtofl@arg+1,w
  3246  0646  00B3               	movwf	?___xxtofl+1
  3247  0647  083C               	movf	___xxtofl@arg,w
  3248  0648  00B2               	movwf	?___xxtofl
  3249  0649                     l745:
  3250  0649  0008               	return
  3251  064A                     __end_of___xxtofl:
  3252                           
  3253                           	psect	text9
  3254  074C                     __ptext9:	
  3255 ;; *************** function ___fltol *****************
  3256 ;; Defined at:
  3257 ;;		line 43 in file "C:\Program Files\Microchip\xc8\v2.31\pic\sources\c90\common\fltol.c"
  3258 ;; Parameters:    Size  Location     Type
  3259 ;;  f1              4   13[BANK1 ] unsigned char 
  3260 ;; Auto vars:     Size  Location     Type
  3261 ;;  exp1            1   23[BANK1 ] unsigned char 
  3262 ;;  sign1           1   22[BANK1 ] unsigned char 
  3263 ;; Return value:  Size  Location     Type
  3264 ;;                  4   13[BANK1 ] long 
  3265 ;; Registers used:
  3266 ;;		wreg, status,2, status,0
  3267 ;; Tracked objects:
  3268 ;;		On entry : 0/0
  3269 ;;		On exit  : 0/0
  3270 ;;		Unchanged: 0/0
  3271 ;; Data sizes:     COMMON   BANK0   BANK1   BANK3   BANK2
  3272 ;;      Params:         0       0       4       0       0
  3273 ;;      Locals:         0       0       2       0       0
  3274 ;;      Temps:          0       0       5       0       0
  3275 ;;      Totals:         0       0      11       0       0
  3276 ;;Total ram usage:       11 bytes
  3277 ;; Hardware stack levels used:    1
  3278 ;; Hardware stack levels required when called:    4
  3279 ;; This function calls:
  3280 ;;		Nothing
  3281 ;; This function is called by:
  3282 ;;		_main
  3283 ;; This function uses a non-reentrant model
  3284 ;;
  3285                           
  3286                           
  3287                           ;psect for function ___fltol
  3288  074C                     ___fltol:
  3289  074C                     l2741:	
  3290                           ;incstack = 0
  3291                           ; Regs used in ___fltol: [wreg+status,2+status,0]
  3292                           
  3293  074C  1003               	clrc
  3294  074D  1683               	bsf	3,5	;RP0=1, select bank1
  3295  074E  1303               	bcf	3,6	;RP1=0, select bank1
  3296  074F  0D65               	rlf	(___fltol@f1+2)^(0+128),w
  3297  0750  0D66               	rlf	(___fltol@f1+3)^(0+128),w
  3298  0751  00E7               	movwf	??___fltol^(0+128)
  3299  0752  0867               	movf	??___fltol^(0+128),w
  3300  0753  00ED               	movwf	___fltol@exp1^(0+128)
  3301  0754  086D               	movf	___fltol@exp1^(0+128),w
  3302  0755  1D03               	btfss	3,2
  3303  0756  2F58               	goto	u3291
  3304  0757  2F59               	goto	u3290
  3305  0758                     u3291:
  3306  0758  2F62               	goto	l2747
  3307  0759                     u3290:
  3308  0759                     l2743:
  3309  0759  3000               	movlw	0
  3310  075A  00E6               	movwf	(?___fltol+3)^(0+128)
  3311  075B  3000               	movlw	0
  3312  075C  00E5               	movwf	(?___fltol+2)^(0+128)
  3313  075D  3000               	movlw	0
  3314  075E  00E4               	movwf	(?___fltol+1)^(0+128)
  3315  075F  3000               	movlw	0
  3316  0760  00E3               	movwf	?___fltol^(0+128)
  3317  0761  2FC7               	goto	l496
  3318  0762                     l2747:
  3319  0762  0863               	movf	___fltol@f1^(0+128),w
  3320  0763  00E7               	movwf	??___fltol^(0+128)
  3321  0764  0864               	movf	(___fltol@f1+1)^(0+128),w
  3322  0765  00E8               	movwf	(??___fltol^(0+128)+1)
  3323  0766  0865               	movf	(___fltol@f1+2)^(0+128),w
  3324  0767  00E9               	movwf	(??___fltol^(0+128)+2)
  3325  0768  0866               	movf	(___fltol@f1+3)^(0+128),w
  3326  0769  00EA               	movwf	(??___fltol^(0+128)+3)
  3327  076A  301F               	movlw	31
  3328  076B                     u3305:
  3329  076B  1003               	clrc
  3330  076C  0CEA               	rrf	(??___fltol^(0+128)+3),f
  3331  076D  0CE9               	rrf	(??___fltol^(0+128)+2),f
  3332  076E  0CE8               	rrf	(??___fltol^(0+128)+1),f
  3333  076F  0CE7               	rrf	??___fltol^(0+128),f
  3334  0770                     u3300:
  3335  0770  3EFF               	addlw	-1
  3336  0771  1D03               	skipz
  3337  0772  2F6B               	goto	u3305
  3338  0773  0867               	movf	??___fltol^(0+128),w
  3339  0774  00EB               	movwf	(??___fltol+4)^(0+128)
  3340  0775  086B               	movf	(??___fltol+4)^(0+128),w
  3341  0776  00EC               	movwf	___fltol@sign1^(0+128)
  3342  0777                     l2749:
  3343  0777  17E5               	bsf	(___fltol@f1^(0+128)+2),7
  3344  0778                     l2751:
  3345  0778  30FF               	movlw	255
  3346  0779  05E3               	andwf	___fltol@f1^(0+128),f
  3347  077A  30FF               	movlw	255
  3348  077B  05E4               	andwf	(___fltol@f1+1)^(0+128),f
  3349  077C  30FF               	movlw	255
  3350  077D  05E5               	andwf	(___fltol@f1+2)^(0+128),f
  3351  077E  3000               	movlw	0
  3352  077F  05E6               	andwf	(___fltol@f1+3)^(0+128),f
  3353  0780                     l2753:
  3354  0780  3096               	movlw	150
  3355  0781  02ED               	subwf	___fltol@exp1^(0+128),f
  3356  0782                     l2755:
  3357  0782  1FED               	btfss	___fltol@exp1^(0+128),7
  3358  0783  2F85               	goto	u3311
  3359  0784  2F86               	goto	u3310
  3360  0785                     u3311:
  3361  0785  2FA0               	goto	l2765
  3362  0786                     u3310:
  3363  0786                     l2757:
  3364  0786  086D               	movf	___fltol@exp1^(0+128),w
  3365  0787  3A80               	xorlw	128
  3366  0788  3E97               	addlw	151
  3367  0789  1803               	skipnc
  3368  078A  2F8C               	goto	u3321
  3369  078B  2F8D               	goto	u3320
  3370  078C                     u3321:
  3371  078C  2F8E               	goto	l2763
  3372  078D                     u3320:
  3373  078D  2F59               	goto	l2743
  3374  078E                     l2763:
  3375  078E  3001               	movlw	1
  3376  078F                     u3335:
  3377  078F  1003               	clrc
  3378  0790  0CE6               	rrf	(___fltol@f1+3)^(0+128),f
  3379  0791  0CE5               	rrf	(___fltol@f1+2)^(0+128),f
  3380  0792  0CE4               	rrf	(___fltol@f1+1)^(0+128),f
  3381  0793  0CE3               	rrf	___fltol@f1^(0+128),f
  3382  0794  3EFF               	addlw	-1
  3383  0795  1D03               	skipz
  3384  0796  2F8F               	goto	u3335
  3385  0797  3001               	movlw	1
  3386  0798  00E7               	movwf	??___fltol^(0+128)
  3387  0799  0867               	movf	??___fltol^(0+128),w
  3388  079A  07ED               	addwf	___fltol@exp1^(0+128),f
  3389  079B  1D03               	btfss	3,2
  3390  079C  2F9E               	goto	u3341
  3391  079D  2F9F               	goto	u3340
  3392  079E                     u3341:
  3393  079E  2F8E               	goto	l2763
  3394  079F                     u3340:
  3395  079F  2FB7               	goto	l2773
  3396  07A0                     l2765:
  3397  07A0  3020               	movlw	32
  3398  07A1  026D               	subwf	___fltol@exp1^(0+128),w
  3399  07A2  1C03               	skipc
  3400  07A3  2FA5               	goto	u3351
  3401  07A4  2FA6               	goto	u3350
  3402  07A5                     u3351:
  3403  07A5  2FB2               	goto	l503
  3404  07A6                     u3350:
  3405  07A6  2F59               	goto	l2743
  3406  07A7                     l2771:
  3407  07A7  3001               	movlw	1
  3408  07A8  00E7               	movwf	??___fltol^(0+128)
  3409  07A9                     u3365:
  3410  07A9  1003               	clrc
  3411  07AA  0DE3               	rlf	___fltol@f1^(0+128),f
  3412  07AB  0DE4               	rlf	(___fltol@f1+1)^(0+128),f
  3413  07AC  0DE5               	rlf	(___fltol@f1+2)^(0+128),f
  3414  07AD  0DE6               	rlf	(___fltol@f1+3)^(0+128),f
  3415  07AE  0BE7               	decfsz	??___fltol^(0+128),f
  3416  07AF  2FA9               	goto	u3365
  3417  07B0  3001               	movlw	1
  3418  07B1  02ED               	subwf	___fltol@exp1^(0+128),f
  3419  07B2                     l503:
  3420  07B2  086D               	movf	___fltol@exp1^(0+128),w
  3421  07B3  1D03               	btfss	3,2
  3422  07B4  2FB6               	goto	u3371
  3423  07B5  2FB7               	goto	u3370
  3424  07B6                     u3371:
  3425  07B6  2FA7               	goto	l2771
  3426  07B7                     u3370:
  3427  07B7                     l2773:
  3428  07B7  086C               	movf	___fltol@sign1^(0+128),w
  3429  07B8  1903               	btfsc	3,2
  3430  07B9  2FBB               	goto	u3381
  3431  07BA  2FBC               	goto	u3380
  3432  07BB                     u3381:
  3433  07BB  2FC7               	goto	l506
  3434  07BC                     u3380:
  3435  07BC                     l2775:
  3436  07BC  09E3               	comf	___fltol@f1^(0+128),f
  3437  07BD  09E4               	comf	(___fltol@f1+1)^(0+128),f
  3438  07BE  09E5               	comf	(___fltol@f1+2)^(0+128),f
  3439  07BF  09E6               	comf	(___fltol@f1+3)^(0+128),f
  3440  07C0  0AE3               	incf	___fltol@f1^(0+128),f
  3441  07C1  1903               	skipnz
  3442  07C2  0AE4               	incf	(___fltol@f1+1)^(0+128),f
  3443  07C3  1903               	skipnz
  3444  07C4  0AE5               	incf	(___fltol@f1+2)^(0+128),f
  3445  07C5  1903               	skipnz
  3446  07C6  0AE6               	incf	(___fltol@f1+3)^(0+128),f
  3447  07C7                     l506:
  3448  07C7                     l496:
  3449  07C7  0008               	return
  3450  07C8                     __end_of___fltol:
  3451                           
  3452                           	psect	text10
  3453  002F                     __ptext10:	
  3454 ;; *************** function ___flmul *****************
  3455 ;; Defined at:
  3456 ;;		line 8 in file "C:\Program Files\Microchip\xc8\v2.31\pic\sources\c90\common\sprcmul.c"
  3457 ;; Parameters:    Size  Location     Type
  3458 ;;  b               4   32[BANK0 ] long 
  3459 ;;  a               4   36[BANK0 ] long 
  3460 ;; Auto vars:     Size  Location     Type
  3461 ;;  prod            4    7[BANK1 ] struct .
  3462 ;;  grs             4    2[BANK1 ] unsigned long 
  3463 ;;  temp            2   11[BANK1 ] struct .
  3464 ;;  bexp            1    6[BANK1 ] unsigned char 
  3465 ;;  aexp            1    1[BANK1 ] unsigned char 
  3466 ;;  sign            1    0[BANK1 ] unsigned char 
  3467 ;; Return value:  Size  Location     Type
  3468 ;;                  4   32[BANK0 ] unsigned char 
  3469 ;; Registers used:
  3470 ;;		wreg, status,2, status,0, btemp+1, pclath, cstack
  3471 ;; Tracked objects:
  3472 ;;		On entry : 0/0
  3473 ;;		On exit  : 0/0
  3474 ;;		Unchanged: 0/0
  3475 ;; Data sizes:     COMMON   BANK0   BANK1   BANK3   BANK2
  3476 ;;      Params:         0       8       0       0       0
  3477 ;;      Locals:         0       0      13       0       0
  3478 ;;      Temps:          0       5       0       0       0
  3479 ;;      Totals:         0      13      13       0       0
  3480 ;;Total ram usage:       26 bytes
  3481 ;; Hardware stack levels used:    1
  3482 ;; Hardware stack levels required when called:    5
  3483 ;; This function calls:
  3484 ;;		__Umul8_16
  3485 ;; This function is called by:
  3486 ;;		_main
  3487 ;; This function uses a non-reentrant model
  3488 ;;
  3489                           
  3490                           
  3491                           ;psect for function ___flmul
  3492  002F                     ___flmul:
  3493  002F                     l2919:	
  3494                           ;incstack = 0
  3495                           ; Regs used in ___flmul: [wreg+status,2+status,0+btemp+1+pclath+cstack]
  3496                           
  3497  002F  1283               	bcf	3,5	;RP0=0, select bank0
  3498  0030  1303               	bcf	3,6	;RP1=0, select bank0
  3499  0031  0843               	movf	___flmul@b+3,w
  3500  0032  3980               	andlw	128
  3501  0033  00C8               	movwf	??___flmul
  3502  0034  0848               	movf	??___flmul,w
  3503  0035  1683               	bsf	3,5	;RP0=1, select bank1
  3504  0036  1303               	bcf	3,6	;RP1=0, select bank1
  3505  0037  00D6               	movwf	___flmul@sign^(0+128)
  3506  0038                     l2921:
  3507  0038  1283               	bcf	3,5	;RP0=0, select bank0
  3508  0039  1303               	bcf	3,6	;RP1=0, select bank0
  3509  003A  0843               	movf	___flmul@b+3,w
  3510  003B  00C8               	movwf	??___flmul
  3511  003C  0748               	addwf	??___flmul,w
  3512  003D  00C9               	movwf	??___flmul+1
  3513  003E  0849               	movf	??___flmul+1,w
  3514  003F  1683               	bsf	3,5	;RP0=1, select bank1
  3515  0040  1303               	bcf	3,6	;RP1=0, select bank1
  3516  0041  00DC               	movwf	___flmul@bexp^(0+128)
  3517  0042                     l2923:
  3518  0042  1283               	bcf	3,5	;RP0=0, select bank0
  3519  0043  1303               	bcf	3,6	;RP1=0, select bank0
  3520  0044  1FC2               	btfss	___flmul@b+2,7
  3521  0045  2847               	goto	u3691
  3522  0046  2848               	goto	u3690
  3523  0047                     u3691:
  3524  0047  284B               	goto	l2927
  3525  0048                     u3690:
  3526  0048                     l2925:
  3527  0048  1683               	bsf	3,5	;RP0=1, select bank1
  3528  0049  1303               	bcf	3,6	;RP1=0, select bank1
  3529  004A  145C               	bsf	___flmul@bexp^(0+128),0
  3530  004B                     l2927:
  3531  004B  1683               	bsf	3,5	;RP0=1, select bank1
  3532  004C  1303               	bcf	3,6	;RP1=0, select bank1
  3533  004D  085C               	movf	___flmul@bexp^(0+128),w
  3534  004E  1903               	btfsc	3,2
  3535  004F  2851               	goto	u3701
  3536  0050  2852               	goto	u3700
  3537  0051                     u3701:
  3538  0051  2864               	goto	l2935
  3539  0052                     u3700:
  3540  0052                     l2929:
  3541  0052  0A5C               	incf	___flmul@bexp^(0+128),w
  3542  0053  1D03               	btfss	3,2
  3543  0054  2856               	goto	u3711
  3544  0055  2857               	goto	u3710
  3545  0056                     u3711:
  3546  0056  2861               	goto	l2933
  3547  0057                     u3710:
  3548  0057                     l2931:
  3549  0057  3000               	movlw	0
  3550  0058  1283               	bcf	3,5	;RP0=0, select bank0
  3551  0059  1303               	bcf	3,6	;RP1=0, select bank0
  3552  005A  00C3               	movwf	___flmul@b+3
  3553  005B  3000               	movlw	0
  3554  005C  00C2               	movwf	___flmul@b+2
  3555  005D  3000               	movlw	0
  3556  005E  00C1               	movwf	___flmul@b+1
  3557  005F  3000               	movlw	0
  3558  0060  00C0               	movwf	___flmul@b
  3559  0061                     l2933:
  3560  0061  1283               	bcf	3,5	;RP0=0, select bank0
  3561  0062  17C2               	bsf	___flmul@b+2,7
  3562  0063  286E               	goto	l2937
  3563  0064                     l2935:
  3564  0064  3000               	movlw	0
  3565  0065  1283               	bcf	3,5	;RP0=0, select bank0
  3566  0066  1303               	bcf	3,6	;RP1=0, select bank0
  3567  0067  00C3               	movwf	___flmul@b+3
  3568  0068  3000               	movlw	0
  3569  0069  00C2               	movwf	___flmul@b+2
  3570  006A  3000               	movlw	0
  3571  006B  00C1               	movwf	___flmul@b+1
  3572  006C  3000               	movlw	0
  3573  006D  00C0               	movwf	___flmul@b
  3574  006E                     l2937:
  3575  006E  0847               	movf	___flmul@a+3,w
  3576  006F  3980               	andlw	128
  3577  0070  00C8               	movwf	??___flmul
  3578  0071  0848               	movf	??___flmul,w
  3579  0072  1683               	bsf	3,5	;RP0=1, select bank1
  3580  0073  1303               	bcf	3,6	;RP1=0, select bank1
  3581  0074  06D6               	xorwf	___flmul@sign^(0+128),f
  3582  0075                     l2939:
  3583  0075  1283               	bcf	3,5	;RP0=0, select bank0
  3584  0076  1303               	bcf	3,6	;RP1=0, select bank0
  3585  0077  0847               	movf	___flmul@a+3,w
  3586  0078  00C8               	movwf	??___flmul
  3587  0079  0748               	addwf	??___flmul,w
  3588  007A  00C9               	movwf	??___flmul+1
  3589  007B  0849               	movf	??___flmul+1,w
  3590  007C  1683               	bsf	3,5	;RP0=1, select bank1
  3591  007D  1303               	bcf	3,6	;RP1=0, select bank1
  3592  007E  00D7               	movwf	___flmul@aexp^(0+128)
  3593  007F                     l2941:
  3594  007F  1283               	bcf	3,5	;RP0=0, select bank0
  3595  0080  1303               	bcf	3,6	;RP1=0, select bank0
  3596  0081  1FC6               	btfss	___flmul@a+2,7
  3597  0082  2884               	goto	u3721
  3598  0083  2885               	goto	u3720
  3599  0084                     u3721:
  3600  0084  2888               	goto	l2945
  3601  0085                     u3720:
  3602  0085                     l2943:
  3603  0085  1683               	bsf	3,5	;RP0=1, select bank1
  3604  0086  1303               	bcf	3,6	;RP1=0, select bank1
  3605  0087  1457               	bsf	___flmul@aexp^(0+128),0
  3606  0088                     l2945:
  3607  0088  1683               	bsf	3,5	;RP0=1, select bank1
  3608  0089  1303               	bcf	3,6	;RP1=0, select bank1
  3609  008A  0857               	movf	___flmul@aexp^(0+128),w
  3610  008B  1903               	btfsc	3,2
  3611  008C  288E               	goto	u3731
  3612  008D  288F               	goto	u3730
  3613  008E                     u3731:
  3614  008E  28A1               	goto	l2953
  3615  008F                     u3730:
  3616  008F                     l2947:
  3617  008F  0A57               	incf	___flmul@aexp^(0+128),w
  3618  0090  1D03               	btfss	3,2
  3619  0091  2893               	goto	u3741
  3620  0092  2894               	goto	u3740
  3621  0093                     u3741:
  3622  0093  289E               	goto	l2951
  3623  0094                     u3740:
  3624  0094                     l2949:
  3625  0094  3000               	movlw	0
  3626  0095  1283               	bcf	3,5	;RP0=0, select bank0
  3627  0096  1303               	bcf	3,6	;RP1=0, select bank0
  3628  0097  00C7               	movwf	___flmul@a+3
  3629  0098  3000               	movlw	0
  3630  0099  00C6               	movwf	___flmul@a+2
  3631  009A  3000               	movlw	0
  3632  009B  00C5               	movwf	___flmul@a+1
  3633  009C  3000               	movlw	0
  3634  009D  00C4               	movwf	___flmul@a
  3635  009E                     l2951:
  3636  009E  1283               	bcf	3,5	;RP0=0, select bank0
  3637  009F  17C6               	bsf	___flmul@a+2,7
  3638  00A0  28AB               	goto	l2955
  3639  00A1                     l2953:
  3640  00A1  3000               	movlw	0
  3641  00A2  1283               	bcf	3,5	;RP0=0, select bank0
  3642  00A3  1303               	bcf	3,6	;RP1=0, select bank0
  3643  00A4  00C7               	movwf	___flmul@a+3
  3644  00A5  3000               	movlw	0
  3645  00A6  00C6               	movwf	___flmul@a+2
  3646  00A7  3000               	movlw	0
  3647  00A8  00C5               	movwf	___flmul@a+1
  3648  00A9  3000               	movlw	0
  3649  00AA  00C4               	movwf	___flmul@a
  3650  00AB                     l2955:
  3651  00AB  1683               	bsf	3,5	;RP0=1, select bank1
  3652  00AC  1303               	bcf	3,6	;RP1=0, select bank1
  3653  00AD  0857               	movf	___flmul@aexp^(0+128),w
  3654  00AE  1903               	btfsc	3,2
  3655  00AF  28B1               	goto	u3751
  3656  00B0  28B2               	goto	u3750
  3657  00B1                     u3751:
  3658  00B1  28B7               	goto	l2959
  3659  00B2                     u3750:
  3660  00B2                     l2957:
  3661  00B2  085C               	movf	___flmul@bexp^(0+128),w
  3662  00B3  1D03               	btfss	3,2
  3663  00B4  28B6               	goto	u3761
  3664  00B5  28B7               	goto	u3760
  3665  00B6                     u3761:
  3666  00B6  28C2               	goto	l2963
  3667  00B7                     u3760:
  3668  00B7                     l2959:
  3669  00B7  3000               	movlw	0
  3670  00B8  1283               	bcf	3,5	;RP0=0, select bank0
  3671  00B9  1303               	bcf	3,6	;RP1=0, select bank0
  3672  00BA  00C3               	movwf	?___flmul+3
  3673  00BB  3000               	movlw	0
  3674  00BC  00C2               	movwf	?___flmul+2
  3675  00BD  3000               	movlw	0
  3676  00BE  00C1               	movwf	?___flmul+1
  3677  00BF  3000               	movlw	0
  3678  00C0  00C0               	movwf	?___flmul
  3679  00C1  2D8D               	goto	l699
  3680  00C2                     l2963:
  3681  00C2  1283               	bcf	3,5	;RP0=0, select bank0
  3682  00C3  1303               	bcf	3,6	;RP1=0, select bank0
  3683  00C4  0840               	movf	___flmul@b,w
  3684  00C5  00C8               	movwf	??___flmul
  3685  00C6  0848               	movf	??___flmul,w
  3686  00C7  00B2               	movwf	__Umul8_16@multiplicand
  3687  00C8  0846               	movf	___flmul@a+2,w
  3688  00C9  160A  118A  2684  120A  118A  	fcall	__Umul8_16
  3689  00CE  1283               	bcf	3,5	;RP0=0, select bank0
  3690  00CF  1303               	bcf	3,6	;RP1=0, select bank0
  3691  00D0  0833               	movf	?__Umul8_16+1,w
  3692  00D1  1683               	bsf	3,5	;RP0=1, select bank1
  3693  00D2  1303               	bcf	3,6	;RP1=0, select bank1
  3694  00D3  00E2               	movwf	(___flmul@temp+1)^(0+128)
  3695  00D4  1283               	bcf	3,5	;RP0=0, select bank0
  3696  00D5  1303               	bcf	3,6	;RP1=0, select bank0
  3697  00D6  0832               	movf	?__Umul8_16,w
  3698  00D7  1683               	bsf	3,5	;RP0=1, select bank1
  3699  00D8  1303               	bcf	3,6	;RP1=0, select bank1
  3700  00D9  00E1               	movwf	___flmul@temp^(0+128)
  3701  00DA                     l2965:
  3702  00DA  0861               	movf	___flmul@temp^(0+128),w
  3703  00DB  1283               	bcf	3,5	;RP0=0, select bank0
  3704  00DC  1303               	bcf	3,6	;RP1=0, select bank0
  3705  00DD  00C8               	movwf	??___flmul
  3706  00DE  01C9               	clrf	??___flmul+1
  3707  00DF  01CA               	clrf	??___flmul+2
  3708  00E0  01CB               	clrf	??___flmul+3
  3709  00E1  084B               	movf	??___flmul+3,w
  3710  00E2  1683               	bsf	3,5	;RP0=1, select bank1
  3711  00E3  1303               	bcf	3,6	;RP1=0, select bank1
  3712  00E4  00DB               	movwf	(___flmul@grs+3)^(0+128)
  3713  00E5  1283               	bcf	3,5	;RP0=0, select bank0
  3714  00E6  1303               	bcf	3,6	;RP1=0, select bank0
  3715  00E7  084A               	movf	??___flmul+2,w
  3716  00E8  1683               	bsf	3,5	;RP0=1, select bank1
  3717  00E9  1303               	bcf	3,6	;RP1=0, select bank1
  3718  00EA  00DA               	movwf	(___flmul@grs+2)^(0+128)
  3719  00EB  1283               	bcf	3,5	;RP0=0, select bank0
  3720  00EC  1303               	bcf	3,6	;RP1=0, select bank0
  3721  00ED  0849               	movf	??___flmul+1,w
  3722  00EE  1683               	bsf	3,5	;RP0=1, select bank1
  3723  00EF  1303               	bcf	3,6	;RP1=0, select bank1
  3724  00F0  00D9               	movwf	(___flmul@grs+1)^(0+128)
  3725  00F1  1283               	bcf	3,5	;RP0=0, select bank0
  3726  00F2  1303               	bcf	3,6	;RP1=0, select bank0
  3727  00F3  0848               	movf	??___flmul,w
  3728  00F4  1683               	bsf	3,5	;RP0=1, select bank1
  3729  00F5  1303               	bcf	3,6	;RP1=0, select bank1
  3730  00F6  00D8               	movwf	___flmul@grs^(0+128)
  3731  00F7                     l2967:
  3732  00F7  0862               	movf	(___flmul@temp^(0+128)+1),w
  3733  00F8  1283               	bcf	3,5	;RP0=0, select bank0
  3734  00F9  1303               	bcf	3,6	;RP1=0, select bank0
  3735  00FA  00C8               	movwf	??___flmul
  3736  00FB  01C9               	clrf	??___flmul+1
  3737  00FC  01CA               	clrf	??___flmul+2
  3738  00FD  01CB               	clrf	??___flmul+3
  3739  00FE  084B               	movf	??___flmul+3,w
  3740  00FF  1683               	bsf	3,5	;RP0=1, select bank1
  3741  0100  1303               	bcf	3,6	;RP1=0, select bank1
  3742  0101  00E0               	movwf	(___flmul@prod+3)^(0+128)
  3743  0102  1283               	bcf	3,5	;RP0=0, select bank0
  3744  0103  1303               	bcf	3,6	;RP1=0, select bank0
  3745  0104  084A               	movf	??___flmul+2,w
  3746  0105  1683               	bsf	3,5	;RP0=1, select bank1
  3747  0106  1303               	bcf	3,6	;RP1=0, select bank1
  3748  0107  00DF               	movwf	(___flmul@prod+2)^(0+128)
  3749  0108  1283               	bcf	3,5	;RP0=0, select bank0
  3750  0109  1303               	bcf	3,6	;RP1=0, select bank0
  3751  010A  0849               	movf	??___flmul+1,w
  3752  010B  1683               	bsf	3,5	;RP0=1, select bank1
  3753  010C  1303               	bcf	3,6	;RP1=0, select bank1
  3754  010D  00DE               	movwf	(___flmul@prod+1)^(0+128)
  3755  010E  1283               	bcf	3,5	;RP0=0, select bank0
  3756  010F  1303               	bcf	3,6	;RP1=0, select bank0
  3757  0110  0848               	movf	??___flmul,w
  3758  0111  1683               	bsf	3,5	;RP0=1, select bank1
  3759  0112  1303               	bcf	3,6	;RP1=0, select bank1
  3760  0113  00DD               	movwf	___flmul@prod^(0+128)
  3761  0114  1283               	bcf	3,5	;RP0=0, select bank0
  3762  0115  1303               	bcf	3,6	;RP1=0, select bank0
  3763  0116  0841               	movf	___flmul@b+1,w
  3764  0117  00C8               	movwf	??___flmul
  3765  0118  0848               	movf	??___flmul,w
  3766  0119  00B2               	movwf	__Umul8_16@multiplicand
  3767  011A  0845               	movf	___flmul@a+1,w
  3768  011B  160A  118A  2684  120A  118A  	fcall	__Umul8_16
  3769  0120  1283               	bcf	3,5	;RP0=0, select bank0
  3770  0121  1303               	bcf	3,6	;RP1=0, select bank0
  3771  0122  0833               	movf	?__Umul8_16+1,w
  3772  0123  1683               	bsf	3,5	;RP0=1, select bank1
  3773  0124  1303               	bcf	3,6	;RP1=0, select bank1
  3774  0125  00E2               	movwf	(___flmul@temp+1)^(0+128)
  3775  0126  1283               	bcf	3,5	;RP0=0, select bank0
  3776  0127  1303               	bcf	3,6	;RP1=0, select bank0
  3777  0128  0832               	movf	?__Umul8_16,w
  3778  0129  1683               	bsf	3,5	;RP0=1, select bank1
  3779  012A  1303               	bcf	3,6	;RP1=0, select bank1
  3780  012B  00E1               	movwf	___flmul@temp^(0+128)
  3781  012C                     l2969:
  3782  012C  0861               	movf	___flmul@temp^(0+128),w
  3783  012D  1283               	bcf	3,5	;RP0=0, select bank0
  3784  012E  1303               	bcf	3,6	;RP1=0, select bank0
  3785  012F  00C8               	movwf	??___flmul
  3786  0130  01C9               	clrf	??___flmul+1
  3787  0131  01CA               	clrf	??___flmul+2
  3788  0132  01CB               	clrf	??___flmul+3
  3789  0133  0848               	movf	??___flmul,w
  3790  0134  1683               	bsf	3,5	;RP0=1, select bank1
  3791  0135  1303               	bcf	3,6	;RP1=0, select bank1
  3792  0136  07D8               	addwf	___flmul@grs^(0+128),f
  3793  0137  1283               	bcf	3,5	;RP0=0, select bank0
  3794  0138  1303               	bcf	3,6	;RP1=0, select bank0
  3795  0139  0849               	movf	??___flmul+1,w
  3796  013A  1103               	clrz
  3797  013B  1803               	skipnc
  3798  013C  3E01               	addlw	1
  3799  013D  1903               	skipnz
  3800  013E  2942               	goto	u3771
  3801  013F  1683               	bsf	3,5	;RP0=1, select bank1
  3802  0140  1303               	bcf	3,6	;RP1=0, select bank1
  3803  0141  07D9               	addwf	(___flmul@grs+1)^(0+128),f
  3804  0142                     u3771:
  3805  0142  1283               	bcf	3,5	;RP0=0, select bank0
  3806  0143  1303               	bcf	3,6	;RP1=0, select bank0
  3807  0144  084A               	movf	??___flmul+2,w
  3808  0145  1103               	clrz
  3809  0146  1803               	skipnc
  3810  0147  3E01               	addlw	1
  3811  0148  1903               	skipnz
  3812  0149  294D               	goto	u3772
  3813  014A  1683               	bsf	3,5	;RP0=1, select bank1
  3814  014B  1303               	bcf	3,6	;RP1=0, select bank1
  3815  014C  07DA               	addwf	(___flmul@grs+2)^(0+128),f
  3816  014D                     u3772:
  3817  014D  1283               	bcf	3,5	;RP0=0, select bank0
  3818  014E  1303               	bcf	3,6	;RP1=0, select bank0
  3819  014F  084B               	movf	??___flmul+3,w
  3820  0150  1103               	clrz
  3821  0151  1803               	skipnc
  3822  0152  3E01               	addlw	1
  3823  0153  1903               	skipnz
  3824  0154  2958               	goto	u3773
  3825  0155  1683               	bsf	3,5	;RP0=1, select bank1
  3826  0156  1303               	bcf	3,6	;RP1=0, select bank1
  3827  0157  07DB               	addwf	(___flmul@grs+3)^(0+128),f
  3828  0158                     u3773:
  3829  0158  1283               	bcf	3,5	;RP0=0, select bank0
  3830  0159  1303               	bcf	3,6	;RP1=0, select bank0
  3831  015A  1683               	bsf	3,5	;RP0=1, select bank1
  3832  015B  1303               	bcf	3,6	;RP1=0, select bank1
  3833  015C                     l2971:
  3834  015C  0862               	movf	(___flmul@temp^(0+128)+1),w
  3835  015D  1283               	bcf	3,5	;RP0=0, select bank0
  3836  015E  1303               	bcf	3,6	;RP1=0, select bank0
  3837  015F  00C8               	movwf	??___flmul
  3838  0160  01C9               	clrf	??___flmul+1
  3839  0161  01CA               	clrf	??___flmul+2
  3840  0162  01CB               	clrf	??___flmul+3
  3841  0163  0848               	movf	??___flmul,w
  3842  0164  1683               	bsf	3,5	;RP0=1, select bank1
  3843  0165  1303               	bcf	3,6	;RP1=0, select bank1
  3844  0166  07DD               	addwf	___flmul@prod^(0+128),f
  3845  0167  1283               	bcf	3,5	;RP0=0, select bank0
  3846  0168  1303               	bcf	3,6	;RP1=0, select bank0
  3847  0169  0849               	movf	??___flmul+1,w
  3848  016A  1103               	clrz
  3849  016B  1803               	skipnc
  3850  016C  3E01               	addlw	1
  3851  016D  1903               	skipnz
  3852  016E  2972               	goto	u3781
  3853  016F  1683               	bsf	3,5	;RP0=1, select bank1
  3854  0170  1303               	bcf	3,6	;RP1=0, select bank1
  3855  0171  07DE               	addwf	(___flmul@prod+1)^(0+128),f
  3856  0172                     u3781:
  3857  0172  1283               	bcf	3,5	;RP0=0, select bank0
  3858  0173  1303               	bcf	3,6	;RP1=0, select bank0
  3859  0174  084A               	movf	??___flmul+2,w
  3860  0175  1103               	clrz
  3861  0176  1803               	skipnc
  3862  0177  3E01               	addlw	1
  3863  0178  1903               	skipnz
  3864  0179  297D               	goto	u3782
  3865  017A  1683               	bsf	3,5	;RP0=1, select bank1
  3866  017B  1303               	bcf	3,6	;RP1=0, select bank1
  3867  017C  07DF               	addwf	(___flmul@prod+2)^(0+128),f
  3868  017D                     u3782:
  3869  017D  1283               	bcf	3,5	;RP0=0, select bank0
  3870  017E  1303               	bcf	3,6	;RP1=0, select bank0
  3871  017F  084B               	movf	??___flmul+3,w
  3872  0180  1103               	clrz
  3873  0181  1803               	skipnc
  3874  0182  3E01               	addlw	1
  3875  0183  1903               	skipnz
  3876  0184  2988               	goto	u3783
  3877  0185  1683               	bsf	3,5	;RP0=1, select bank1
  3878  0186  1303               	bcf	3,6	;RP1=0, select bank1
  3879  0187  07E0               	addwf	(___flmul@prod+3)^(0+128),f
  3880  0188                     u3783:
  3881  0188  1283               	bcf	3,5	;RP0=0, select bank0
  3882  0189  1303               	bcf	3,6	;RP1=0, select bank0
  3883  018A  1683               	bsf	3,5	;RP0=1, select bank1
  3884  018B  1303               	bcf	3,6	;RP1=0, select bank1
  3885  018C  1283               	bcf	3,5	;RP0=0, select bank0
  3886  018D  1303               	bcf	3,6	;RP1=0, select bank0
  3887  018E  0842               	movf	___flmul@b+2,w
  3888  018F  00C8               	movwf	??___flmul
  3889  0190  0848               	movf	??___flmul,w
  3890  0191  00B2               	movwf	__Umul8_16@multiplicand
  3891  0192  0844               	movf	___flmul@a,w
  3892  0193  160A  118A  2684  120A  118A  	fcall	__Umul8_16
  3893  0198  1283               	bcf	3,5	;RP0=0, select bank0
  3894  0199  1303               	bcf	3,6	;RP1=0, select bank0
  3895  019A  0833               	movf	?__Umul8_16+1,w
  3896  019B  1683               	bsf	3,5	;RP0=1, select bank1
  3897  019C  1303               	bcf	3,6	;RP1=0, select bank1
  3898  019D  00E2               	movwf	(___flmul@temp+1)^(0+128)
  3899  019E  1283               	bcf	3,5	;RP0=0, select bank0
  3900  019F  1303               	bcf	3,6	;RP1=0, select bank0
  3901  01A0  0832               	movf	?__Umul8_16,w
  3902  01A1  1683               	bsf	3,5	;RP0=1, select bank1
  3903  01A2  1303               	bcf	3,6	;RP1=0, select bank1
  3904  01A3  00E1               	movwf	___flmul@temp^(0+128)
  3905  01A4                     l2973:
  3906  01A4  0861               	movf	___flmul@temp^(0+128),w
  3907  01A5  1283               	bcf	3,5	;RP0=0, select bank0
  3908  01A6  1303               	bcf	3,6	;RP1=0, select bank0
  3909  01A7  00C8               	movwf	??___flmul
  3910  01A8  01C9               	clrf	??___flmul+1
  3911  01A9  01CA               	clrf	??___flmul+2
  3912  01AA  01CB               	clrf	??___flmul+3
  3913  01AB  0848               	movf	??___flmul,w
  3914  01AC  1683               	bsf	3,5	;RP0=1, select bank1
  3915  01AD  1303               	bcf	3,6	;RP1=0, select bank1
  3916  01AE  07D8               	addwf	___flmul@grs^(0+128),f
  3917  01AF  1283               	bcf	3,5	;RP0=0, select bank0
  3918  01B0  1303               	bcf	3,6	;RP1=0, select bank0
  3919  01B1  0849               	movf	??___flmul+1,w
  3920  01B2  1103               	clrz
  3921  01B3  1803               	skipnc
  3922  01B4  3E01               	addlw	1
  3923  01B5  1903               	skipnz
  3924  01B6  29BA               	goto	u3791
  3925  01B7  1683               	bsf	3,5	;RP0=1, select bank1
  3926  01B8  1303               	bcf	3,6	;RP1=0, select bank1
  3927  01B9  07D9               	addwf	(___flmul@grs+1)^(0+128),f
  3928  01BA                     u3791:
  3929  01BA  1283               	bcf	3,5	;RP0=0, select bank0
  3930  01BB  1303               	bcf	3,6	;RP1=0, select bank0
  3931  01BC  084A               	movf	??___flmul+2,w
  3932  01BD  1103               	clrz
  3933  01BE  1803               	skipnc
  3934  01BF  3E01               	addlw	1
  3935  01C0  1903               	skipnz
  3936  01C1  29C5               	goto	u3792
  3937  01C2  1683               	bsf	3,5	;RP0=1, select bank1
  3938  01C3  1303               	bcf	3,6	;RP1=0, select bank1
  3939  01C4  07DA               	addwf	(___flmul@grs+2)^(0+128),f
  3940  01C5                     u3792:
  3941  01C5  1283               	bcf	3,5	;RP0=0, select bank0
  3942  01C6  1303               	bcf	3,6	;RP1=0, select bank0
  3943  01C7  084B               	movf	??___flmul+3,w
  3944  01C8  1103               	clrz
  3945  01C9  1803               	skipnc
  3946  01CA  3E01               	addlw	1
  3947  01CB  1903               	skipnz
  3948  01CC  29D0               	goto	u3793
  3949  01CD  1683               	bsf	3,5	;RP0=1, select bank1
  3950  01CE  1303               	bcf	3,6	;RP1=0, select bank1
  3951  01CF  07DB               	addwf	(___flmul@grs+3)^(0+128),f
  3952  01D0                     u3793:
  3953  01D0  1283               	bcf	3,5	;RP0=0, select bank0
  3954  01D1  1303               	bcf	3,6	;RP1=0, select bank0
  3955  01D2  1683               	bsf	3,5	;RP0=1, select bank1
  3956  01D3  1303               	bcf	3,6	;RP1=0, select bank1
  3957  01D4                     l2975:
  3958  01D4  0862               	movf	(___flmul@temp^(0+128)+1),w
  3959  01D5  1283               	bcf	3,5	;RP0=0, select bank0
  3960  01D6  1303               	bcf	3,6	;RP1=0, select bank0
  3961  01D7  00C8               	movwf	??___flmul
  3962  01D8  01C9               	clrf	??___flmul+1
  3963  01D9  01CA               	clrf	??___flmul+2
  3964  01DA  01CB               	clrf	??___flmul+3
  3965  01DB  0848               	movf	??___flmul,w
  3966  01DC  1683               	bsf	3,5	;RP0=1, select bank1
  3967  01DD  1303               	bcf	3,6	;RP1=0, select bank1
  3968  01DE  07DD               	addwf	___flmul@prod^(0+128),f
  3969  01DF  1283               	bcf	3,5	;RP0=0, select bank0
  3970  01E0  1303               	bcf	3,6	;RP1=0, select bank0
  3971  01E1  0849               	movf	??___flmul+1,w
  3972  01E2  1103               	clrz
  3973  01E3  1803               	skipnc
  3974  01E4  3E01               	addlw	1
  3975  01E5  1903               	skipnz
  3976  01E6  29EA               	goto	u3801
  3977  01E7  1683               	bsf	3,5	;RP0=1, select bank1
  3978  01E8  1303               	bcf	3,6	;RP1=0, select bank1
  3979  01E9  07DE               	addwf	(___flmul@prod+1)^(0+128),f
  3980  01EA                     u3801:
  3981  01EA  1283               	bcf	3,5	;RP0=0, select bank0
  3982  01EB  1303               	bcf	3,6	;RP1=0, select bank0
  3983  01EC  084A               	movf	??___flmul+2,w
  3984  01ED  1103               	clrz
  3985  01EE  1803               	skipnc
  3986  01EF  3E01               	addlw	1
  3987  01F0  1903               	skipnz
  3988  01F1  29F5               	goto	u3802
  3989  01F2  1683               	bsf	3,5	;RP0=1, select bank1
  3990  01F3  1303               	bcf	3,6	;RP1=0, select bank1
  3991  01F4  07DF               	addwf	(___flmul@prod+2)^(0+128),f
  3992  01F5                     u3802:
  3993  01F5  1283               	bcf	3,5	;RP0=0, select bank0
  3994  01F6  1303               	bcf	3,6	;RP1=0, select bank0
  3995  01F7  084B               	movf	??___flmul+3,w
  3996  01F8  1103               	clrz
  3997  01F9  1803               	skipnc
  3998  01FA  3E01               	addlw	1
  3999  01FB  1903               	skipnz
  4000  01FC  2A00               	goto	u3803
  4001  01FD  1683               	bsf	3,5	;RP0=1, select bank1
  4002  01FE  1303               	bcf	3,6	;RP1=0, select bank1
  4003  01FF  07E0               	addwf	(___flmul@prod+3)^(0+128),f
  4004  0200                     u3803:
  4005  0200  1283               	bcf	3,5	;RP0=0, select bank0
  4006  0201  1303               	bcf	3,6	;RP1=0, select bank0
  4007  0202  1683               	bsf	3,5	;RP0=1, select bank1
  4008  0203  1303               	bcf	3,6	;RP1=0, select bank1
  4009  0204                     l2977:
  4010  0204  3008               	movlw	8
  4011  0205  1283               	bcf	3,5	;RP0=0, select bank0
  4012  0206  1303               	bcf	3,6	;RP1=0, select bank0
  4013  0207  00C8               	movwf	??___flmul
  4014  0208                     u3815:
  4015  0208  1003               	clrc
  4016  0209  1683               	bsf	3,5	;RP0=1, select bank1
  4017  020A  1303               	bcf	3,6	;RP1=0, select bank1
  4018  020B  0DD8               	rlf	___flmul@grs^(0+128),f
  4019  020C  0DD9               	rlf	(___flmul@grs+1)^(0+128),f
  4020  020D  0DDA               	rlf	(___flmul@grs+2)^(0+128),f
  4021  020E  0DDB               	rlf	(___flmul@grs+3)^(0+128),f
  4022  020F  1283               	bcf	3,5	;RP0=0, select bank0
  4023  0210  1303               	bcf	3,6	;RP1=0, select bank0
  4024  0211  0BC8               	decfsz	??___flmul,f
  4025  0212  2A08               	goto	u3815
  4026  0213                     l2979:
  4027  0213  0841               	movf	___flmul@b+1,w
  4028  0214  00C8               	movwf	??___flmul
  4029  0215  0848               	movf	??___flmul,w
  4030  0216  00B2               	movwf	__Umul8_16@multiplicand
  4031  0217  0844               	movf	___flmul@a,w
  4032  0218  160A  118A  2684  120A  118A  	fcall	__Umul8_16
  4033  021D  1283               	bcf	3,5	;RP0=0, select bank0
  4034  021E  1303               	bcf	3,6	;RP1=0, select bank0
  4035  021F  0833               	movf	?__Umul8_16+1,w
  4036  0220  1683               	bsf	3,5	;RP0=1, select bank1
  4037  0221  1303               	bcf	3,6	;RP1=0, select bank1
  4038  0222  00E2               	movwf	(___flmul@temp+1)^(0+128)
  4039  0223  1283               	bcf	3,5	;RP0=0, select bank0
  4040  0224  1303               	bcf	3,6	;RP1=0, select bank0
  4041  0225  0832               	movf	?__Umul8_16,w
  4042  0226  1683               	bsf	3,5	;RP0=1, select bank1
  4043  0227  1303               	bcf	3,6	;RP1=0, select bank1
  4044  0228  00E1               	movwf	___flmul@temp^(0+128)
  4045  0229                     l2981:
  4046  0229  0861               	movf	___flmul@temp^(0+128),w
  4047  022A  1283               	bcf	3,5	;RP0=0, select bank0
  4048  022B  1303               	bcf	3,6	;RP1=0, select bank0
  4049  022C  00C8               	movwf	??___flmul
  4050  022D  1683               	bsf	3,5	;RP0=1, select bank1
  4051  022E  1303               	bcf	3,6	;RP1=0, select bank1
  4052  022F  0862               	movf	(___flmul@temp+1)^(0+128),w
  4053  0230  1283               	bcf	3,5	;RP0=0, select bank0
  4054  0231  1303               	bcf	3,6	;RP1=0, select bank0
  4055  0232  00C9               	movwf	??___flmul+1
  4056  0233  01CA               	clrf	??___flmul+2
  4057  0234  01CB               	clrf	??___flmul+3
  4058  0235  0848               	movf	??___flmul,w
  4059  0236  1683               	bsf	3,5	;RP0=1, select bank1
  4060  0237  1303               	bcf	3,6	;RP1=0, select bank1
  4061  0238  07D8               	addwf	___flmul@grs^(0+128),f
  4062  0239  1283               	bcf	3,5	;RP0=0, select bank0
  4063  023A  1303               	bcf	3,6	;RP1=0, select bank0
  4064  023B  0849               	movf	??___flmul+1,w
  4065  023C  1103               	clrz
  4066  023D  1803               	skipnc
  4067  023E  3E01               	addlw	1
  4068  023F  1903               	skipnz
  4069  0240  2A44               	goto	u3821
  4070  0241  1683               	bsf	3,5	;RP0=1, select bank1
  4071  0242  1303               	bcf	3,6	;RP1=0, select bank1
  4072  0243  07D9               	addwf	(___flmul@grs+1)^(0+128),f
  4073  0244                     u3821:
  4074  0244  1283               	bcf	3,5	;RP0=0, select bank0
  4075  0245  1303               	bcf	3,6	;RP1=0, select bank0
  4076  0246  084A               	movf	??___flmul+2,w
  4077  0247  1103               	clrz
  4078  0248  1803               	skipnc
  4079  0249  3E01               	addlw	1
  4080  024A  1903               	skipnz
  4081  024B  2A4F               	goto	u3822
  4082  024C  1683               	bsf	3,5	;RP0=1, select bank1
  4083  024D  1303               	bcf	3,6	;RP1=0, select bank1
  4084  024E  07DA               	addwf	(___flmul@grs+2)^(0+128),f
  4085  024F                     u3822:
  4086  024F  1283               	bcf	3,5	;RP0=0, select bank0
  4087  0250  1303               	bcf	3,6	;RP1=0, select bank0
  4088  0251  084B               	movf	??___flmul+3,w
  4089  0252  1103               	clrz
  4090  0253  1803               	skipnc
  4091  0254  3E01               	addlw	1
  4092  0255  1903               	skipnz
  4093  0256  2A5A               	goto	u3823
  4094  0257  1683               	bsf	3,5	;RP0=1, select bank1
  4095  0258  1303               	bcf	3,6	;RP1=0, select bank1
  4096  0259  07DB               	addwf	(___flmul@grs+3)^(0+128),f
  4097  025A                     u3823:
  4098  025A  1283               	bcf	3,5	;RP0=0, select bank0
  4099  025B  1303               	bcf	3,6	;RP1=0, select bank0
  4100  025C  1683               	bsf	3,5	;RP0=1, select bank1
  4101  025D  1303               	bcf	3,6	;RP1=0, select bank1
  4102  025E                     l2983:
  4103  025E  1283               	bcf	3,5	;RP0=0, select bank0
  4104  025F  1303               	bcf	3,6	;RP1=0, select bank0
  4105  0260  0840               	movf	___flmul@b,w
  4106  0261  00C8               	movwf	??___flmul
  4107  0262  0848               	movf	??___flmul,w
  4108  0263  00B2               	movwf	__Umul8_16@multiplicand
  4109  0264  0845               	movf	___flmul@a+1,w
  4110  0265  160A  118A  2684  120A  118A  	fcall	__Umul8_16
  4111  026A  1283               	bcf	3,5	;RP0=0, select bank0
  4112  026B  1303               	bcf	3,6	;RP1=0, select bank0
  4113  026C  0833               	movf	?__Umul8_16+1,w
  4114  026D  1683               	bsf	3,5	;RP0=1, select bank1
  4115  026E  1303               	bcf	3,6	;RP1=0, select bank1
  4116  026F  00E2               	movwf	(___flmul@temp+1)^(0+128)
  4117  0270  1283               	bcf	3,5	;RP0=0, select bank0
  4118  0271  1303               	bcf	3,6	;RP1=0, select bank0
  4119  0272  0832               	movf	?__Umul8_16,w
  4120  0273  1683               	bsf	3,5	;RP0=1, select bank1
  4121  0274  1303               	bcf	3,6	;RP1=0, select bank1
  4122  0275  00E1               	movwf	___flmul@temp^(0+128)
  4123  0276                     l2985:
  4124  0276  0861               	movf	___flmul@temp^(0+128),w
  4125  0277  1283               	bcf	3,5	;RP0=0, select bank0
  4126  0278  1303               	bcf	3,6	;RP1=0, select bank0
  4127  0279  00C8               	movwf	??___flmul
  4128  027A  1683               	bsf	3,5	;RP0=1, select bank1
  4129  027B  1303               	bcf	3,6	;RP1=0, select bank1
  4130  027C  0862               	movf	(___flmul@temp+1)^(0+128),w
  4131  027D  1283               	bcf	3,5	;RP0=0, select bank0
  4132  027E  1303               	bcf	3,6	;RP1=0, select bank0
  4133  027F  00C9               	movwf	??___flmul+1
  4134  0280  01CA               	clrf	??___flmul+2
  4135  0281  01CB               	clrf	??___flmul+3
  4136  0282  0848               	movf	??___flmul,w
  4137  0283  1683               	bsf	3,5	;RP0=1, select bank1
  4138  0284  1303               	bcf	3,6	;RP1=0, select bank1
  4139  0285  07D8               	addwf	___flmul@grs^(0+128),f
  4140  0286  1283               	bcf	3,5	;RP0=0, select bank0
  4141  0287  1303               	bcf	3,6	;RP1=0, select bank0
  4142  0288  0849               	movf	??___flmul+1,w
  4143  0289  1103               	clrz
  4144  028A  1803               	skipnc
  4145  028B  3E01               	addlw	1
  4146  028C  1903               	skipnz
  4147  028D  2A91               	goto	u3831
  4148  028E  1683               	bsf	3,5	;RP0=1, select bank1
  4149  028F  1303               	bcf	3,6	;RP1=0, select bank1
  4150  0290  07D9               	addwf	(___flmul@grs+1)^(0+128),f
  4151  0291                     u3831:
  4152  0291  1283               	bcf	3,5	;RP0=0, select bank0
  4153  0292  1303               	bcf	3,6	;RP1=0, select bank0
  4154  0293  084A               	movf	??___flmul+2,w
  4155  0294  1103               	clrz
  4156  0295  1803               	skipnc
  4157  0296  3E01               	addlw	1
  4158  0297  1903               	skipnz
  4159  0298  2A9C               	goto	u3832
  4160  0299  1683               	bsf	3,5	;RP0=1, select bank1
  4161  029A  1303               	bcf	3,6	;RP1=0, select bank1
  4162  029B  07DA               	addwf	(___flmul@grs+2)^(0+128),f
  4163  029C                     u3832:
  4164  029C  1283               	bcf	3,5	;RP0=0, select bank0
  4165  029D  1303               	bcf	3,6	;RP1=0, select bank0
  4166  029E  084B               	movf	??___flmul+3,w
  4167  029F  1103               	clrz
  4168  02A0  1803               	skipnc
  4169  02A1  3E01               	addlw	1
  4170  02A2  1903               	skipnz
  4171  02A3  2AA7               	goto	u3833
  4172  02A4  1683               	bsf	3,5	;RP0=1, select bank1
  4173  02A5  1303               	bcf	3,6	;RP1=0, select bank1
  4174  02A6  07DB               	addwf	(___flmul@grs+3)^(0+128),f
  4175  02A7                     u3833:
  4176  02A7  1283               	bcf	3,5	;RP0=0, select bank0
  4177  02A8  1303               	bcf	3,6	;RP1=0, select bank0
  4178  02A9  1683               	bsf	3,5	;RP0=1, select bank1
  4179  02AA  1303               	bcf	3,6	;RP1=0, select bank1
  4180  02AB                     l2987:
  4181  02AB  3008               	movlw	8
  4182  02AC  1283               	bcf	3,5	;RP0=0, select bank0
  4183  02AD  1303               	bcf	3,6	;RP1=0, select bank0
  4184  02AE  00C8               	movwf	??___flmul
  4185  02AF                     u3845:
  4186  02AF  1003               	clrc
  4187  02B0  1683               	bsf	3,5	;RP0=1, select bank1
  4188  02B1  1303               	bcf	3,6	;RP1=0, select bank1
  4189  02B2  0DD8               	rlf	___flmul@grs^(0+128),f
  4190  02B3  0DD9               	rlf	(___flmul@grs+1)^(0+128),f
  4191  02B4  0DDA               	rlf	(___flmul@grs+2)^(0+128),f
  4192  02B5  0DDB               	rlf	(___flmul@grs+3)^(0+128),f
  4193  02B6  1283               	bcf	3,5	;RP0=0, select bank0
  4194  02B7  1303               	bcf	3,6	;RP1=0, select bank0
  4195  02B8  0BC8               	decfsz	??___flmul,f
  4196  02B9  2AAF               	goto	u3845
  4197  02BA  0840               	movf	___flmul@b,w
  4198  02BB  00C8               	movwf	??___flmul
  4199  02BC  0848               	movf	??___flmul,w
  4200  02BD  00B2               	movwf	__Umul8_16@multiplicand
  4201  02BE  0844               	movf	___flmul@a,w
  4202  02BF  160A  118A  2684  120A  118A  	fcall	__Umul8_16
  4203  02C4  1283               	bcf	3,5	;RP0=0, select bank0
  4204  02C5  1303               	bcf	3,6	;RP1=0, select bank0
  4205  02C6  0833               	movf	?__Umul8_16+1,w
  4206  02C7  1683               	bsf	3,5	;RP0=1, select bank1
  4207  02C8  1303               	bcf	3,6	;RP1=0, select bank1
  4208  02C9  00E2               	movwf	(___flmul@temp+1)^(0+128)
  4209  02CA  1283               	bcf	3,5	;RP0=0, select bank0
  4210  02CB  1303               	bcf	3,6	;RP1=0, select bank0
  4211  02CC  0832               	movf	?__Umul8_16,w
  4212  02CD  1683               	bsf	3,5	;RP0=1, select bank1
  4213  02CE  1303               	bcf	3,6	;RP1=0, select bank1
  4214  02CF  00E1               	movwf	___flmul@temp^(0+128)
  4215  02D0                     l2989:
  4216  02D0  0861               	movf	___flmul@temp^(0+128),w
  4217  02D1  1283               	bcf	3,5	;RP0=0, select bank0
  4218  02D2  1303               	bcf	3,6	;RP1=0, select bank0
  4219  02D3  00C8               	movwf	??___flmul
  4220  02D4  1683               	bsf	3,5	;RP0=1, select bank1
  4221  02D5  1303               	bcf	3,6	;RP1=0, select bank1
  4222  02D6  0862               	movf	(___flmul@temp+1)^(0+128),w
  4223  02D7  1283               	bcf	3,5	;RP0=0, select bank0
  4224  02D8  1303               	bcf	3,6	;RP1=0, select bank0
  4225  02D9  00C9               	movwf	??___flmul+1
  4226  02DA  01CA               	clrf	??___flmul+2
  4227  02DB  01CB               	clrf	??___flmul+3
  4228  02DC  0848               	movf	??___flmul,w
  4229  02DD  1683               	bsf	3,5	;RP0=1, select bank1
  4230  02DE  1303               	bcf	3,6	;RP1=0, select bank1
  4231  02DF  07D8               	addwf	___flmul@grs^(0+128),f
  4232  02E0  1283               	bcf	3,5	;RP0=0, select bank0
  4233  02E1  1303               	bcf	3,6	;RP1=0, select bank0
  4234  02E2  0849               	movf	??___flmul+1,w
  4235  02E3  1103               	clrz
  4236  02E4  1803               	skipnc
  4237  02E5  3E01               	addlw	1
  4238  02E6  1903               	skipnz
  4239  02E7  2AEB               	goto	u3851
  4240  02E8  1683               	bsf	3,5	;RP0=1, select bank1
  4241  02E9  1303               	bcf	3,6	;RP1=0, select bank1
  4242  02EA  07D9               	addwf	(___flmul@grs+1)^(0+128),f
  4243  02EB                     u3851:
  4244  02EB  1283               	bcf	3,5	;RP0=0, select bank0
  4245  02EC  1303               	bcf	3,6	;RP1=0, select bank0
  4246  02ED  084A               	movf	??___flmul+2,w
  4247  02EE  1103               	clrz
  4248  02EF  1803               	skipnc
  4249  02F0  3E01               	addlw	1
  4250  02F1  1903               	skipnz
  4251  02F2  2AF6               	goto	u3852
  4252  02F3  1683               	bsf	3,5	;RP0=1, select bank1
  4253  02F4  1303               	bcf	3,6	;RP1=0, select bank1
  4254  02F5  07DA               	addwf	(___flmul@grs+2)^(0+128),f
  4255  02F6                     u3852:
  4256  02F6  1283               	bcf	3,5	;RP0=0, select bank0
  4257  02F7  1303               	bcf	3,6	;RP1=0, select bank0
  4258  02F8  084B               	movf	??___flmul+3,w
  4259  02F9  1103               	clrz
  4260  02FA  1803               	skipnc
  4261  02FB  3E01               	addlw	1
  4262  02FC  1903               	skipnz
  4263  02FD  2B01               	goto	u3853
  4264  02FE  1683               	bsf	3,5	;RP0=1, select bank1
  4265  02FF  1303               	bcf	3,6	;RP1=0, select bank1
  4266  0300  07DB               	addwf	(___flmul@grs+3)^(0+128),f
  4267  0301                     u3853:
  4268  0301  1283               	bcf	3,5	;RP0=0, select bank0
  4269  0302  1303               	bcf	3,6	;RP1=0, select bank0
  4270  0303  1683               	bsf	3,5	;RP0=1, select bank1
  4271  0304  1303               	bcf	3,6	;RP1=0, select bank1
  4272  0305                     l2991:
  4273  0305  1283               	bcf	3,5	;RP0=0, select bank0
  4274  0306  1303               	bcf	3,6	;RP1=0, select bank0
  4275  0307  0841               	movf	___flmul@b+1,w
  4276  0308  00C8               	movwf	??___flmul
  4277  0309  0848               	movf	??___flmul,w
  4278  030A  00B2               	movwf	__Umul8_16@multiplicand
  4279  030B  0846               	movf	___flmul@a+2,w
  4280  030C  160A  118A  2684  120A  118A  	fcall	__Umul8_16
  4281  0311  1283               	bcf	3,5	;RP0=0, select bank0
  4282  0312  1303               	bcf	3,6	;RP1=0, select bank0
  4283  0313  0833               	movf	?__Umul8_16+1,w
  4284  0314  1683               	bsf	3,5	;RP0=1, select bank1
  4285  0315  1303               	bcf	3,6	;RP1=0, select bank1
  4286  0316  00E2               	movwf	(___flmul@temp+1)^(0+128)
  4287  0317  1283               	bcf	3,5	;RP0=0, select bank0
  4288  0318  1303               	bcf	3,6	;RP1=0, select bank0
  4289  0319  0832               	movf	?__Umul8_16,w
  4290  031A  1683               	bsf	3,5	;RP0=1, select bank1
  4291  031B  1303               	bcf	3,6	;RP1=0, select bank1
  4292  031C  00E1               	movwf	___flmul@temp^(0+128)
  4293  031D  0861               	movf	___flmul@temp^(0+128),w
  4294  031E  1283               	bcf	3,5	;RP0=0, select bank0
  4295  031F  1303               	bcf	3,6	;RP1=0, select bank0
  4296  0320  00C8               	movwf	??___flmul
  4297  0321  1683               	bsf	3,5	;RP0=1, select bank1
  4298  0322  1303               	bcf	3,6	;RP1=0, select bank1
  4299  0323  0862               	movf	(___flmul@temp+1)^(0+128),w
  4300  0324  1283               	bcf	3,5	;RP0=0, select bank0
  4301  0325  1303               	bcf	3,6	;RP1=0, select bank0
  4302  0326  00C9               	movwf	??___flmul+1
  4303  0327  01CA               	clrf	??___flmul+2
  4304  0328  01CB               	clrf	??___flmul+3
  4305  0329  0848               	movf	??___flmul,w
  4306  032A  1683               	bsf	3,5	;RP0=1, select bank1
  4307  032B  1303               	bcf	3,6	;RP1=0, select bank1
  4308  032C  07DD               	addwf	___flmul@prod^(0+128),f
  4309  032D  1283               	bcf	3,5	;RP0=0, select bank0
  4310  032E  1303               	bcf	3,6	;RP1=0, select bank0
  4311  032F  0849               	movf	??___flmul+1,w
  4312  0330  1103               	clrz
  4313  0331  1803               	skipnc
  4314  0332  3E01               	addlw	1
  4315  0333  1903               	skipnz
  4316  0334  2B38               	goto	u3861
  4317  0335  1683               	bsf	3,5	;RP0=1, select bank1
  4318  0336  1303               	bcf	3,6	;RP1=0, select bank1
  4319  0337  07DE               	addwf	(___flmul@prod+1)^(0+128),f
  4320  0338                     u3861:
  4321  0338  1283               	bcf	3,5	;RP0=0, select bank0
  4322  0339  1303               	bcf	3,6	;RP1=0, select bank0
  4323  033A  084A               	movf	??___flmul+2,w
  4324  033B  1103               	clrz
  4325  033C  1803               	skipnc
  4326  033D  3E01               	addlw	1
  4327  033E  1903               	skipnz
  4328  033F  2B43               	goto	u3862
  4329  0340  1683               	bsf	3,5	;RP0=1, select bank1
  4330  0341  1303               	bcf	3,6	;RP1=0, select bank1
  4331  0342  07DF               	addwf	(___flmul@prod+2)^(0+128),f
  4332  0343                     u3862:
  4333  0343  1283               	bcf	3,5	;RP0=0, select bank0
  4334  0344  1303               	bcf	3,6	;RP1=0, select bank0
  4335  0345  084B               	movf	??___flmul+3,w
  4336  0346  1103               	clrz
  4337  0347  1803               	skipnc
  4338  0348  3E01               	addlw	1
  4339  0349  1903               	skipnz
  4340  034A  2B4E               	goto	u3863
  4341  034B  1683               	bsf	3,5	;RP0=1, select bank1
  4342  034C  1303               	bcf	3,6	;RP1=0, select bank1
  4343  034D  07E0               	addwf	(___flmul@prod+3)^(0+128),f
  4344  034E                     u3863:
  4345  034E  1283               	bcf	3,5	;RP0=0, select bank0
  4346  034F  1303               	bcf	3,6	;RP1=0, select bank0
  4347  0350  1683               	bsf	3,5	;RP0=1, select bank1
  4348  0351  1303               	bcf	3,6	;RP1=0, select bank1
  4349  0352                     l2993:
  4350  0352  1283               	bcf	3,5	;RP0=0, select bank0
  4351  0353  1303               	bcf	3,6	;RP1=0, select bank0
  4352  0354  0842               	movf	___flmul@b+2,w
  4353  0355  00C8               	movwf	??___flmul
  4354  0356  0848               	movf	??___flmul,w
  4355  0357  00B2               	movwf	__Umul8_16@multiplicand
  4356  0358  0845               	movf	___flmul@a+1,w
  4357  0359  160A  118A  2684  120A  118A  	fcall	__Umul8_16
  4358  035E  1283               	bcf	3,5	;RP0=0, select bank0
  4359  035F  1303               	bcf	3,6	;RP1=0, select bank0
  4360  0360  0833               	movf	?__Umul8_16+1,w
  4361  0361  1683               	bsf	3,5	;RP0=1, select bank1
  4362  0362  1303               	bcf	3,6	;RP1=0, select bank1
  4363  0363  00E2               	movwf	(___flmul@temp+1)^(0+128)
  4364  0364  1283               	bcf	3,5	;RP0=0, select bank0
  4365  0365  1303               	bcf	3,6	;RP1=0, select bank0
  4366  0366  0832               	movf	?__Umul8_16,w
  4367  0367  1683               	bsf	3,5	;RP0=1, select bank1
  4368  0368  1303               	bcf	3,6	;RP1=0, select bank1
  4369  0369  00E1               	movwf	___flmul@temp^(0+128)
  4370  036A                     l2995:
  4371  036A  0861               	movf	___flmul@temp^(0+128),w
  4372  036B  1283               	bcf	3,5	;RP0=0, select bank0
  4373  036C  1303               	bcf	3,6	;RP1=0, select bank0
  4374  036D  00C8               	movwf	??___flmul
  4375  036E  1683               	bsf	3,5	;RP0=1, select bank1
  4376  036F  1303               	bcf	3,6	;RP1=0, select bank1
  4377  0370  0862               	movf	(___flmul@temp+1)^(0+128),w
  4378  0371  1283               	bcf	3,5	;RP0=0, select bank0
  4379  0372  1303               	bcf	3,6	;RP1=0, select bank0
  4380  0373  00C9               	movwf	??___flmul+1
  4381  0374  01CA               	clrf	??___flmul+2
  4382  0375  01CB               	clrf	??___flmul+3
  4383  0376  0848               	movf	??___flmul,w
  4384  0377  1683               	bsf	3,5	;RP0=1, select bank1
  4385  0378  1303               	bcf	3,6	;RP1=0, select bank1
  4386  0379  07DD               	addwf	___flmul@prod^(0+128),f
  4387  037A  1283               	bcf	3,5	;RP0=0, select bank0
  4388  037B  1303               	bcf	3,6	;RP1=0, select bank0
  4389  037C  0849               	movf	??___flmul+1,w
  4390  037D  1103               	clrz
  4391  037E  1803               	skipnc
  4392  037F  3E01               	addlw	1
  4393  0380  1903               	skipnz
  4394  0381  2B85               	goto	u3871
  4395  0382  1683               	bsf	3,5	;RP0=1, select bank1
  4396  0383  1303               	bcf	3,6	;RP1=0, select bank1
  4397  0384  07DE               	addwf	(___flmul@prod+1)^(0+128),f
  4398  0385                     u3871:
  4399  0385  1283               	bcf	3,5	;RP0=0, select bank0
  4400  0386  1303               	bcf	3,6	;RP1=0, select bank0
  4401  0387  084A               	movf	??___flmul+2,w
  4402  0388  1103               	clrz
  4403  0389  1803               	skipnc
  4404  038A  3E01               	addlw	1
  4405  038B  1903               	skipnz
  4406  038C  2B90               	goto	u3872
  4407  038D  1683               	bsf	3,5	;RP0=1, select bank1
  4408  038E  1303               	bcf	3,6	;RP1=0, select bank1
  4409  038F  07DF               	addwf	(___flmul@prod+2)^(0+128),f
  4410  0390                     u3872:
  4411  0390  1283               	bcf	3,5	;RP0=0, select bank0
  4412  0391  1303               	bcf	3,6	;RP1=0, select bank0
  4413  0392  084B               	movf	??___flmul+3,w
  4414  0393  1103               	clrz
  4415  0394  1803               	skipnc
  4416  0395  3E01               	addlw	1
  4417  0396  1903               	skipnz
  4418  0397  2B9B               	goto	u3873
  4419  0398  1683               	bsf	3,5	;RP0=1, select bank1
  4420  0399  1303               	bcf	3,6	;RP1=0, select bank1
  4421  039A  07E0               	addwf	(___flmul@prod+3)^(0+128),f
  4422  039B                     u3873:
  4423  039B  1283               	bcf	3,5	;RP0=0, select bank0
  4424  039C  1303               	bcf	3,6	;RP1=0, select bank0
  4425  039D  1683               	bsf	3,5	;RP0=1, select bank1
  4426  039E  1303               	bcf	3,6	;RP1=0, select bank1
  4427  039F  1283               	bcf	3,5	;RP0=0, select bank0
  4428  03A0  1303               	bcf	3,6	;RP1=0, select bank0
  4429  03A1  0842               	movf	___flmul@b+2,w
  4430  03A2  00C8               	movwf	??___flmul
  4431  03A3  0848               	movf	??___flmul,w
  4432  03A4  00B2               	movwf	__Umul8_16@multiplicand
  4433  03A5  0846               	movf	___flmul@a+2,w
  4434  03A6  160A  118A  2684  120A  118A  	fcall	__Umul8_16
  4435  03AB  1283               	bcf	3,5	;RP0=0, select bank0
  4436  03AC  1303               	bcf	3,6	;RP1=0, select bank0
  4437  03AD  0833               	movf	?__Umul8_16+1,w
  4438  03AE  1683               	bsf	3,5	;RP0=1, select bank1
  4439  03AF  1303               	bcf	3,6	;RP1=0, select bank1
  4440  03B0  00E2               	movwf	(___flmul@temp+1)^(0+128)
  4441  03B1  1283               	bcf	3,5	;RP0=0, select bank0
  4442  03B2  1303               	bcf	3,6	;RP1=0, select bank0
  4443  03B3  0832               	movf	?__Umul8_16,w
  4444  03B4  1683               	bsf	3,5	;RP0=1, select bank1
  4445  03B5  1303               	bcf	3,6	;RP1=0, select bank1
  4446  03B6  00E1               	movwf	___flmul@temp^(0+128)
  4447  03B7                     l2997:
  4448  03B7  0861               	movf	___flmul@temp^(0+128),w
  4449  03B8  1283               	bcf	3,5	;RP0=0, select bank0
  4450  03B9  1303               	bcf	3,6	;RP1=0, select bank0
  4451  03BA  00C8               	movwf	??___flmul
  4452  03BB  1683               	bsf	3,5	;RP0=1, select bank1
  4453  03BC  1303               	bcf	3,6	;RP1=0, select bank1
  4454  03BD  0862               	movf	(___flmul@temp+1)^(0+128),w
  4455  03BE  1283               	bcf	3,5	;RP0=0, select bank0
  4456  03BF  1303               	bcf	3,6	;RP1=0, select bank0
  4457  03C0  00C9               	movwf	??___flmul+1
  4458  03C1  01CA               	clrf	??___flmul+2
  4459  03C2  01CB               	clrf	??___flmul+3
  4460  03C3  3008               	movlw	8
  4461  03C4                     u3885:
  4462  03C4  1003               	clrc
  4463  03C5  0DC8               	rlf	??___flmul,f
  4464  03C6  0DC9               	rlf	??___flmul+1,f
  4465  03C7  0DCA               	rlf	??___flmul+2,f
  4466  03C8  0DCB               	rlf	??___flmul+3,f
  4467  03C9                     u3880:
  4468  03C9  3EFF               	addlw	-1
  4469  03CA  1D03               	skipz
  4470  03CB  2BC4               	goto	u3885
  4471  03CC  0848               	movf	??___flmul,w
  4472  03CD  1683               	bsf	3,5	;RP0=1, select bank1
  4473  03CE  1303               	bcf	3,6	;RP1=0, select bank1
  4474  03CF  07DD               	addwf	___flmul@prod^(0+128),f
  4475  03D0  1283               	bcf	3,5	;RP0=0, select bank0
  4476  03D1  1303               	bcf	3,6	;RP1=0, select bank0
  4477  03D2  0849               	movf	??___flmul+1,w
  4478  03D3  1103               	clrz
  4479  03D4  1803               	skipnc
  4480  03D5  3E01               	addlw	1
  4481  03D6  1903               	skipnz
  4482  03D7  2BDB               	goto	u3891
  4483  03D8  1683               	bsf	3,5	;RP0=1, select bank1
  4484  03D9  1303               	bcf	3,6	;RP1=0, select bank1
  4485  03DA  07DE               	addwf	(___flmul@prod+1)^(0+128),f
  4486  03DB                     u3891:
  4487  03DB  1283               	bcf	3,5	;RP0=0, select bank0
  4488  03DC  1303               	bcf	3,6	;RP1=0, select bank0
  4489  03DD  084A               	movf	??___flmul+2,w
  4490  03DE  1103               	clrz
  4491  03DF  1803               	skipnc
  4492  03E0  3E01               	addlw	1
  4493  03E1  1903               	skipnz
  4494  03E2  2BE6               	goto	u3892
  4495  03E3  1683               	bsf	3,5	;RP0=1, select bank1
  4496  03E4  1303               	bcf	3,6	;RP1=0, select bank1
  4497  03E5  07DF               	addwf	(___flmul@prod+2)^(0+128),f
  4498  03E6                     u3892:
  4499  03E6  1283               	bcf	3,5	;RP0=0, select bank0
  4500  03E7  1303               	bcf	3,6	;RP1=0, select bank0
  4501  03E8  084B               	movf	??___flmul+3,w
  4502  03E9  1103               	clrz
  4503  03EA  1803               	skipnc
  4504  03EB  3E01               	addlw	1
  4505  03EC  1903               	skipnz
  4506  03ED  2BF1               	goto	u3893
  4507  03EE  1683               	bsf	3,5	;RP0=1, select bank1
  4508  03EF  1303               	bcf	3,6	;RP1=0, select bank1
  4509  03F0  07E0               	addwf	(___flmul@prod+3)^(0+128),f
  4510  03F1                     u3893:
  4511  03F1  1283               	bcf	3,5	;RP0=0, select bank0
  4512  03F2  1303               	bcf	3,6	;RP1=0, select bank0
  4513  03F3  1683               	bsf	3,5	;RP0=1, select bank1
  4514  03F4  1303               	bcf	3,6	;RP1=0, select bank1
  4515  03F5                     l2999:
  4516  03F5  0858               	movf	___flmul@grs^(0+128),w
  4517  03F6  1283               	bcf	3,5	;RP0=0, select bank0
  4518  03F7  1303               	bcf	3,6	;RP1=0, select bank0
  4519  03F8  00C8               	movwf	??___flmul
  4520  03F9  1683               	bsf	3,5	;RP0=1, select bank1
  4521  03FA  1303               	bcf	3,6	;RP1=0, select bank1
  4522  03FB  0859               	movf	(___flmul@grs+1)^(0+128),w
  4523  03FC  1283               	bcf	3,5	;RP0=0, select bank0
  4524  03FD  1303               	bcf	3,6	;RP1=0, select bank0
  4525  03FE  00C9               	movwf	??___flmul+1
  4526  03FF  1683               	bsf	3,5	;RP0=1, select bank1
  4527  0400  1303               	bcf	3,6	;RP1=0, select bank1
  4528  0401  085A               	movf	(___flmul@grs+2)^(0+128),w
  4529  0402  1283               	bcf	3,5	;RP0=0, select bank0
  4530  0403  1303               	bcf	3,6	;RP1=0, select bank0
  4531  0404  00CA               	movwf	??___flmul+2
  4532  0405  1683               	bsf	3,5	;RP0=1, select bank1
  4533  0406  1303               	bcf	3,6	;RP1=0, select bank1
  4534  0407  085B               	movf	(___flmul@grs+3)^(0+128),w
  4535  0408  1283               	bcf	3,5	;RP0=0, select bank0
  4536  0409  1303               	bcf	3,6	;RP1=0, select bank0
  4537  040A  00CB               	movwf	??___flmul+3
  4538  040B  3018               	movlw	24
  4539  040C                     u3905:
  4540  040C  1003               	clrc
  4541  040D  0CCB               	rrf	??___flmul+3,f
  4542  040E  0CCA               	rrf	??___flmul+2,f
  4543  040F  0CC9               	rrf	??___flmul+1,f
  4544  0410  0CC8               	rrf	??___flmul,f
  4545  0411                     u3900:
  4546  0411  3EFF               	addlw	-1
  4547  0412  1D03               	skipz
  4548  0413  2C0C               	goto	u3905
  4549  0414  0848               	movf	??___flmul,w
  4550  0415  1683               	bsf	3,5	;RP0=1, select bank1
  4551  0416  1303               	bcf	3,6	;RP1=0, select bank1
  4552  0417  07DD               	addwf	___flmul@prod^(0+128),f
  4553  0418  1283               	bcf	3,5	;RP0=0, select bank0
  4554  0419  1303               	bcf	3,6	;RP1=0, select bank0
  4555  041A  0849               	movf	??___flmul+1,w
  4556  041B  1103               	clrz
  4557  041C  1803               	skipnc
  4558  041D  3E01               	addlw	1
  4559  041E  1903               	skipnz
  4560  041F  2C23               	goto	u3911
  4561  0420  1683               	bsf	3,5	;RP0=1, select bank1
  4562  0421  1303               	bcf	3,6	;RP1=0, select bank1
  4563  0422  07DE               	addwf	(___flmul@prod+1)^(0+128),f
  4564  0423                     u3911:
  4565  0423  1283               	bcf	3,5	;RP0=0, select bank0
  4566  0424  1303               	bcf	3,6	;RP1=0, select bank0
  4567  0425  084A               	movf	??___flmul+2,w
  4568  0426  1103               	clrz
  4569  0427  1803               	skipnc
  4570  0428  3E01               	addlw	1
  4571  0429  1903               	skipnz
  4572  042A  2C2E               	goto	u3912
  4573  042B  1683               	bsf	3,5	;RP0=1, select bank1
  4574  042C  1303               	bcf	3,6	;RP1=0, select bank1
  4575  042D  07DF               	addwf	(___flmul@prod+2)^(0+128),f
  4576  042E                     u3912:
  4577  042E  1283               	bcf	3,5	;RP0=0, select bank0
  4578  042F  1303               	bcf	3,6	;RP1=0, select bank0
  4579  0430  084B               	movf	??___flmul+3,w
  4580  0431  1103               	clrz
  4581  0432  1803               	skipnc
  4582  0433  3E01               	addlw	1
  4583  0434  1903               	skipnz
  4584  0435  2C39               	goto	u3913
  4585  0436  1683               	bsf	3,5	;RP0=1, select bank1
  4586  0437  1303               	bcf	3,6	;RP1=0, select bank1
  4587  0438  07E0               	addwf	(___flmul@prod+3)^(0+128),f
  4588  0439                     u3913:
  4589  0439  1283               	bcf	3,5	;RP0=0, select bank0
  4590  043A  1303               	bcf	3,6	;RP1=0, select bank0
  4591  043B  1683               	bsf	3,5	;RP0=1, select bank1
  4592  043C  1303               	bcf	3,6	;RP1=0, select bank1
  4593  043D                     l3001:
  4594  043D  3008               	movlw	8
  4595  043E  1283               	bcf	3,5	;RP0=0, select bank0
  4596  043F  1303               	bcf	3,6	;RP1=0, select bank0
  4597  0440  00C8               	movwf	??___flmul
  4598  0441                     u3925:
  4599  0441  1003               	clrc
  4600  0442  1683               	bsf	3,5	;RP0=1, select bank1
  4601  0443  1303               	bcf	3,6	;RP1=0, select bank1
  4602  0444  0DD8               	rlf	___flmul@grs^(0+128),f
  4603  0445  0DD9               	rlf	(___flmul@grs+1)^(0+128),f
  4604  0446  0DDA               	rlf	(___flmul@grs+2)^(0+128),f
  4605  0447  0DDB               	rlf	(___flmul@grs+3)^(0+128),f
  4606  0448  1283               	bcf	3,5	;RP0=0, select bank0
  4607  0449  1303               	bcf	3,6	;RP1=0, select bank0
  4608  044A  0BC8               	decfsz	??___flmul,f
  4609  044B  2C41               	goto	u3925
  4610  044C                     l3003:
  4611  044C  1683               	bsf	3,5	;RP0=1, select bank1
  4612  044D  1303               	bcf	3,6	;RP1=0, select bank1
  4613  044E  085C               	movf	___flmul@bexp^(0+128),w
  4614  044F  0757               	addwf	___flmul@aexp^(0+128),w
  4615  0450  1283               	bcf	3,5	;RP0=0, select bank0
  4616  0451  1303               	bcf	3,6	;RP1=0, select bank0
  4617  0452  00C8               	movwf	??___flmul
  4618  0453  01C9               	clrf	??___flmul+1
  4619  0454  0DC9               	rlf	??___flmul+1,f
  4620  0455  0848               	movf	??___flmul,w
  4621  0456  3E82               	addlw	130
  4622  0457  1683               	bsf	3,5	;RP0=1, select bank1
  4623  0458  1303               	bcf	3,6	;RP1=0, select bank1
  4624  0459  00E1               	movwf	___flmul@temp^(0+128)
  4625  045A  1283               	bcf	3,5	;RP0=0, select bank0
  4626  045B  1303               	bcf	3,6	;RP1=0, select bank0
  4627  045C  0849               	movf	??___flmul+1,w
  4628  045D  1803               	skipnc
  4629  045E  3E01               	addlw	1
  4630  045F  3EFF               	addlw	255
  4631  0460  1683               	bsf	3,5	;RP0=1, select bank1
  4632  0461  1303               	bcf	3,6	;RP1=0, select bank1
  4633  0462  00E2               	movwf	(___flmul@temp+1)^(0+128)
  4634  0463  2C91               	goto	l3015
  4635  0464                     l3005:
  4636  0464  3001               	movlw	1
  4637  0465  1283               	bcf	3,5	;RP0=0, select bank0
  4638  0466  1303               	bcf	3,6	;RP1=0, select bank0
  4639  0467  00C8               	movwf	??___flmul
  4640  0468                     u3935:
  4641  0468  1003               	clrc
  4642  0469  1683               	bsf	3,5	;RP0=1, select bank1
  4643  046A  1303               	bcf	3,6	;RP1=0, select bank1
  4644  046B  0DDD               	rlf	___flmul@prod^(0+128),f
  4645  046C  0DDE               	rlf	(___flmul@prod+1)^(0+128),f
  4646  046D  0DDF               	rlf	(___flmul@prod+2)^(0+128),f
  4647  046E  0DE0               	rlf	(___flmul@prod+3)^(0+128),f
  4648  046F  1283               	bcf	3,5	;RP0=0, select bank0
  4649  0470  1303               	bcf	3,6	;RP1=0, select bank0
  4650  0471  0BC8               	decfsz	??___flmul,f
  4651  0472  2C68               	goto	u3935
  4652  0473                     l3007:
  4653  0473  1683               	bsf	3,5	;RP0=1, select bank1
  4654  0474  1303               	bcf	3,6	;RP1=0, select bank1
  4655  0475  1FDB               	btfss	(___flmul@grs+3)^(0+128),7
  4656  0476  2C78               	goto	u3941
  4657  0477  2C79               	goto	u3940
  4658  0478                     u3941:
  4659  0478  2C7A               	goto	l3011
  4660  0479                     u3940:
  4661  0479                     l3009:
  4662  0479  145D               	bsf	___flmul@prod^(0+128),0
  4663  047A                     l3011:
  4664  047A  3001               	movlw	1
  4665  047B  1283               	bcf	3,5	;RP0=0, select bank0
  4666  047C  1303               	bcf	3,6	;RP1=0, select bank0
  4667  047D  00C8               	movwf	??___flmul
  4668  047E                     u3955:
  4669  047E  1003               	clrc
  4670  047F  1683               	bsf	3,5	;RP0=1, select bank1
  4671  0480  1303               	bcf	3,6	;RP1=0, select bank1
  4672  0481  0DD8               	rlf	___flmul@grs^(0+128),f
  4673  0482  0DD9               	rlf	(___flmul@grs+1)^(0+128),f
  4674  0483  0DDA               	rlf	(___flmul@grs+2)^(0+128),f
  4675  0484  0DDB               	rlf	(___flmul@grs+3)^(0+128),f
  4676  0485  1283               	bcf	3,5	;RP0=0, select bank0
  4677  0486  1303               	bcf	3,6	;RP1=0, select bank0
  4678  0487  0BC8               	decfsz	??___flmul,f
  4679  0488  2C7E               	goto	u3955
  4680  0489                     l3013:
  4681  0489  30FF               	movlw	255
  4682  048A  1683               	bsf	3,5	;RP0=1, select bank1
  4683  048B  1303               	bcf	3,6	;RP1=0, select bank1
  4684  048C  07E1               	addwf	___flmul@temp^(0+128),f
  4685  048D  1803               	skipnc
  4686  048E  0AE2               	incf	(___flmul@temp+1)^(0+128),f
  4687  048F  30FF               	movlw	255
  4688  0490  07E2               	addwf	(___flmul@temp+1)^(0+128),f
  4689  0491                     l3015:
  4690  0491  1FDF               	btfss	(___flmul@prod+2)^(0+128),7
  4691  0492  2C94               	goto	u3961
  4692  0493  2C95               	goto	u3960
  4693  0494                     u3961:
  4694  0494  2C64               	goto	l3005
  4695  0495                     u3960:
  4696  0495                     l3017:
  4697  0495  01D7               	clrf	___flmul@aexp^(0+128)
  4698  0496                     l3019:
  4699  0496  1FDB               	btfss	(___flmul@grs+3)^(0+128),7
  4700  0497  2C99               	goto	u3971
  4701  0498  2C9A               	goto	u3970
  4702  0499                     u3971:
  4703  0499  2CC8               	goto	l3027
  4704  049A                     u3970:
  4705  049A                     l3021:
  4706  049A  30FF               	movlw	255
  4707  049B  0558               	andwf	___flmul@grs^(0+128),w
  4708  049C  1283               	bcf	3,5	;RP0=0, select bank0
  4709  049D  1303               	bcf	3,6	;RP1=0, select bank0
  4710  049E  00C8               	movwf	??___flmul
  4711  049F  30FF               	movlw	255
  4712  04A0  1683               	bsf	3,5	;RP0=1, select bank1
  4713  04A1  1303               	bcf	3,6	;RP1=0, select bank1
  4714  04A2  0559               	andwf	(___flmul@grs+1)^(0+128),w
  4715  04A3  1283               	bcf	3,5	;RP0=0, select bank0
  4716  04A4  1303               	bcf	3,6	;RP1=0, select bank0
  4717  04A5  00C9               	movwf	??___flmul+1
  4718  04A6  30FF               	movlw	255
  4719  04A7  1683               	bsf	3,5	;RP0=1, select bank1
  4720  04A8  1303               	bcf	3,6	;RP1=0, select bank1
  4721  04A9  055A               	andwf	(___flmul@grs+2)^(0+128),w
  4722  04AA  1283               	bcf	3,5	;RP0=0, select bank0
  4723  04AB  1303               	bcf	3,6	;RP1=0, select bank0
  4724  04AC  00CA               	movwf	??___flmul+2
  4725  04AD  307F               	movlw	127
  4726  04AE  1683               	bsf	3,5	;RP0=1, select bank1
  4727  04AF  1303               	bcf	3,6	;RP1=0, select bank1
  4728  04B0  055B               	andwf	(___flmul@grs+3)^(0+128),w
  4729  04B1  1283               	bcf	3,5	;RP0=0, select bank0
  4730  04B2  1303               	bcf	3,6	;RP1=0, select bank0
  4731  04B3  00CB               	movwf	??___flmul+3
  4732  04B4  084B               	movf	??___flmul+3,w
  4733  04B5  044A               	iorwf	??___flmul+2,w
  4734  04B6  0449               	iorwf	??___flmul+1,w
  4735  04B7  0448               	iorwf	??___flmul,w
  4736  04B8  1903               	skipnz
  4737  04B9  2CBB               	goto	u3981
  4738  04BA  2CBC               	goto	u3980
  4739  04BB                     u3981:
  4740  04BB  2CC1               	goto	l705
  4741  04BC                     u3980:
  4742  04BC                     l3023:
  4743  04BC  1683               	bsf	3,5	;RP0=1, select bank1
  4744  04BD  1303               	bcf	3,6	;RP1=0, select bank1
  4745  04BE  01D7               	clrf	___flmul@aexp^(0+128)
  4746  04BF  0AD7               	incf	___flmul@aexp^(0+128),f
  4747  04C0  2CC8               	goto	l3027
  4748  04C1                     l705:
  4749  04C1  1683               	bsf	3,5	;RP0=1, select bank1
  4750  04C2  1303               	bcf	3,6	;RP1=0, select bank1
  4751  04C3  1C5D               	btfss	___flmul@prod^(0+128),0
  4752  04C4  2CC6               	goto	u3991
  4753  04C5  2CC7               	goto	u3990
  4754  04C6                     u3991:
  4755  04C6  2CC8               	goto	l3027
  4756  04C7                     u3990:
  4757  04C7  2CBC               	goto	l3023
  4758  04C8                     l3027:
  4759  04C8  0857               	movf	___flmul@aexp^(0+128),w
  4760  04C9  1903               	btfsc	3,2
  4761  04CA  2CCC               	goto	u4001
  4762  04CB  2CCD               	goto	u4000
  4763  04CC                     u4001:
  4764  04CC  2D1A               	goto	l3037
  4765  04CD                     u4000:
  4766  04CD                     l3029:
  4767  04CD  3001               	movlw	1
  4768  04CE  07DD               	addwf	___flmul@prod^(0+128),f
  4769  04CF  3000               	movlw	0
  4770  04D0  1803               	skipnc
  4771  04D1  3001               	movlw	1
  4772  04D2  07DE               	addwf	(___flmul@prod+1)^(0+128),f
  4773  04D3  3000               	movlw	0
  4774  04D4  1803               	skipnc
  4775  04D5  3001               	movlw	1
  4776  04D6  07DF               	addwf	(___flmul@prod+2)^(0+128),f
  4777  04D7  3000               	movlw	0
  4778  04D8  1803               	skipnc
  4779  04D9  3001               	movlw	1
  4780  04DA  07E0               	addwf	(___flmul@prod+3)^(0+128),f
  4781  04DB                     l3031:
  4782  04DB  1C60               	btfss	(___flmul@prod+3)^(0+128),0
  4783  04DC  2CDE               	goto	u4011
  4784  04DD  2CDF               	goto	u4010
  4785  04DE                     u4011:
  4786  04DE  2D1A               	goto	l3037
  4787  04DF                     u4010:
  4788  04DF                     l3033:
  4789  04DF  085D               	movf	___flmul@prod^(0+128),w
  4790  04E0  1283               	bcf	3,5	;RP0=0, select bank0
  4791  04E1  1303               	bcf	3,6	;RP1=0, select bank0
  4792  04E2  00C8               	movwf	??___flmul
  4793  04E3  1683               	bsf	3,5	;RP0=1, select bank1
  4794  04E4  1303               	bcf	3,6	;RP1=0, select bank1
  4795  04E5  085E               	movf	(___flmul@prod+1)^(0+128),w
  4796  04E6  1283               	bcf	3,5	;RP0=0, select bank0
  4797  04E7  1303               	bcf	3,6	;RP1=0, select bank0
  4798  04E8  00C9               	movwf	??___flmul+1
  4799  04E9  1683               	bsf	3,5	;RP0=1, select bank1
  4800  04EA  1303               	bcf	3,6	;RP1=0, select bank1
  4801  04EB  085F               	movf	(___flmul@prod+2)^(0+128),w
  4802  04EC  1283               	bcf	3,5	;RP0=0, select bank0
  4803  04ED  1303               	bcf	3,6	;RP1=0, select bank0
  4804  04EE  00CA               	movwf	??___flmul+2
  4805  04EF  1683               	bsf	3,5	;RP0=1, select bank1
  4806  04F0  1303               	bcf	3,6	;RP1=0, select bank1
  4807  04F1  0860               	movf	(___flmul@prod+3)^(0+128),w
  4808  04F2  1283               	bcf	3,5	;RP0=0, select bank0
  4809  04F3  1303               	bcf	3,6	;RP1=0, select bank0
  4810  04F4  00CB               	movwf	??___flmul+3
  4811  04F5  3001               	movlw	1
  4812  04F6  00CC               	movwf	??___flmul+4
  4813  04F7                     u4025:
  4814  04F7  0D4B               	rlf	??___flmul+3,w
  4815  04F8  0CCB               	rrf	??___flmul+3,f
  4816  04F9  0CCA               	rrf	??___flmul+2,f
  4817  04FA  0CC9               	rrf	??___flmul+1,f
  4818  04FB  0CC8               	rrf	??___flmul,f
  4819  04FC                     u4020:
  4820  04FC  0BCC               	decfsz	??___flmul+4,f
  4821  04FD  2CF7               	goto	u4025
  4822  04FE  084B               	movf	??___flmul+3,w
  4823  04FF  1683               	bsf	3,5	;RP0=1, select bank1
  4824  0500  1303               	bcf	3,6	;RP1=0, select bank1
  4825  0501  00E0               	movwf	(___flmul@prod+3)^(0+128)
  4826  0502  1283               	bcf	3,5	;RP0=0, select bank0
  4827  0503  1303               	bcf	3,6	;RP1=0, select bank0
  4828  0504  084A               	movf	??___flmul+2,w
  4829  0505  1683               	bsf	3,5	;RP0=1, select bank1
  4830  0506  1303               	bcf	3,6	;RP1=0, select bank1
  4831  0507  00DF               	movwf	(___flmul@prod+2)^(0+128)
  4832  0508  1283               	bcf	3,5	;RP0=0, select bank0
  4833  0509  1303               	bcf	3,6	;RP1=0, select bank0
  4834  050A  0849               	movf	??___flmul+1,w
  4835  050B  1683               	bsf	3,5	;RP0=1, select bank1
  4836  050C  1303               	bcf	3,6	;RP1=0, select bank1
  4837  050D  00DE               	movwf	(___flmul@prod+1)^(0+128)
  4838  050E  1283               	bcf	3,5	;RP0=0, select bank0
  4839  050F  1303               	bcf	3,6	;RP1=0, select bank0
  4840  0510  0848               	movf	??___flmul,w
  4841  0511  1683               	bsf	3,5	;RP0=1, select bank1
  4842  0512  1303               	bcf	3,6	;RP1=0, select bank1
  4843  0513  00DD               	movwf	___flmul@prod^(0+128)
  4844  0514                     l3035:
  4845  0514  3001               	movlw	1
  4846  0515  07E1               	addwf	___flmul@temp^(0+128),f
  4847  0516  1803               	skipnc
  4848  0517  0AE2               	incf	(___flmul@temp+1)^(0+128),f
  4849  0518  3000               	movlw	0
  4850  0519  07E2               	addwf	(___flmul@temp+1)^(0+128),f
  4851  051A                     l3037:
  4852  051A  0862               	movf	(___flmul@temp+1)^(0+128),w
  4853  051B  3A80               	xorlw	128
  4854  051C  00FF               	movwf	btemp+1
  4855  051D  3080               	movlw	128
  4856  051E  027F               	subwf	btemp+1,w
  4857  051F  1D03               	skipz
  4858  0520  2D23               	goto	u4035
  4859  0521  30FF               	movlw	255
  4860  0522  0261               	subwf	___flmul@temp^(0+128),w
  4861  0523                     u4035:
  4862  0523  1C03               	skipc
  4863  0524  2D26               	goto	u4031
  4864  0525  2D27               	goto	u4030
  4865  0526                     u4031:
  4866  0526  2D32               	goto	l3041
  4867  0527                     u4030:
  4868  0527                     l3039:
  4869  0527  307F               	movlw	127
  4870  0528  1683               	bsf	3,5	;RP0=1, select bank1
  4871  0529  1303               	bcf	3,6	;RP1=0, select bank1
  4872  052A  00E0               	movwf	(___flmul@prod+3)^(0+128)
  4873  052B  3080               	movlw	128
  4874  052C  00DF               	movwf	(___flmul@prod+2)^(0+128)
  4875  052D  3000               	movlw	0
  4876  052E  00DE               	movwf	(___flmul@prod+1)^(0+128)
  4877  052F  3000               	movlw	0
  4878  0530  00DD               	movwf	___flmul@prod^(0+128)
  4879  0531  2D6F               	goto	l711
  4880  0532                     l3041:
  4881  0532  1683               	bsf	3,5	;RP0=1, select bank1
  4882  0533  1303               	bcf	3,6	;RP1=0, select bank1
  4883  0534  0862               	movf	(___flmul@temp+1)^(0+128),w
  4884  0535  3A80               	xorlw	128
  4885  0536  00FF               	movwf	btemp+1
  4886  0537  3080               	movlw	128
  4887  0538  027F               	subwf	btemp+1,w
  4888  0539  1D03               	skipz
  4889  053A  2D3D               	goto	u4045
  4890  053B  3001               	movlw	1
  4891  053C  0261               	subwf	___flmul@temp^(0+128),w
  4892  053D                     u4045:
  4893  053D  1803               	skipnc
  4894  053E  2D40               	goto	u4041
  4895  053F  2D41               	goto	u4040
  4896  0540                     u4041:
  4897  0540  2D4D               	goto	l3047
  4898  0541                     u4040:
  4899  0541                     l3043:
  4900  0541  3000               	movlw	0
  4901  0542  1683               	bsf	3,5	;RP0=1, select bank1
  4902  0543  1303               	bcf	3,6	;RP1=0, select bank1
  4903  0544  00E0               	movwf	(___flmul@prod+3)^(0+128)
  4904  0545  3000               	movlw	0
  4905  0546  00DF               	movwf	(___flmul@prod+2)^(0+128)
  4906  0547  3000               	movlw	0
  4907  0548  00DE               	movwf	(___flmul@prod+1)^(0+128)
  4908  0549  3000               	movlw	0
  4909  054A  00DD               	movwf	___flmul@prod^(0+128)
  4910  054B                     l3045:
  4911  054B  01D6               	clrf	___flmul@sign^(0+128)
  4912  054C  2D6F               	goto	l711
  4913  054D                     l3047:
  4914  054D  1683               	bsf	3,5	;RP0=1, select bank1
  4915  054E  1303               	bcf	3,6	;RP1=0, select bank1
  4916  054F  0861               	movf	___flmul@temp^(0+128),w
  4917  0550  1283               	bcf	3,5	;RP0=0, select bank0
  4918  0551  1303               	bcf	3,6	;RP1=0, select bank0
  4919  0552  00C8               	movwf	??___flmul
  4920  0553  0848               	movf	??___flmul,w
  4921  0554  1683               	bsf	3,5	;RP0=1, select bank1
  4922  0555  1303               	bcf	3,6	;RP1=0, select bank1
  4923  0556  00DC               	movwf	___flmul@bexp^(0+128)
  4924  0557  30FF               	movlw	255
  4925  0558  05DD               	andwf	___flmul@prod^(0+128),f
  4926  0559  30FF               	movlw	255
  4927  055A  05DE               	andwf	(___flmul@prod+1)^(0+128),f
  4928  055B  307F               	movlw	127
  4929  055C  05DF               	andwf	(___flmul@prod+2)^(0+128),f
  4930  055D  3000               	movlw	0
  4931  055E  05E0               	andwf	(___flmul@prod+3)^(0+128),f
  4932  055F                     l3049:
  4933  055F  1C5C               	btfss	___flmul@bexp^(0+128),0
  4934  0560  2D62               	goto	u4051
  4935  0561  2D63               	goto	u4050
  4936  0562                     u4051:
  4937  0562  2D64               	goto	l3053
  4938  0563                     u4050:
  4939  0563                     l3051:
  4940  0563  17DF               	bsf	(___flmul@prod^(0+128)+2),7
  4941  0564                     l3053:
  4942  0564  085C               	movf	___flmul@bexp^(0+128),w
  4943  0565  1283               	bcf	3,5	;RP0=0, select bank0
  4944  0566  1303               	bcf	3,6	;RP1=0, select bank0
  4945  0567  00C8               	movwf	??___flmul
  4946  0568  1003               	clrc
  4947  0569  0C48               	rrf	??___flmul,w
  4948  056A  00C9               	movwf	??___flmul+1
  4949  056B  0849               	movf	??___flmul+1,w
  4950  056C  1683               	bsf	3,5	;RP0=1, select bank1
  4951  056D  1303               	bcf	3,6	;RP1=0, select bank1
  4952  056E  00E0               	movwf	(___flmul@prod^(0+128)+3)
  4953  056F                     l711:
  4954  056F  0856               	movf	___flmul@sign^(0+128),w
  4955  0570  1283               	bcf	3,5	;RP0=0, select bank0
  4956  0571  1303               	bcf	3,6	;RP1=0, select bank0
  4957  0572  00C8               	movwf	??___flmul
  4958  0573  0848               	movf	??___flmul,w
  4959  0574  1683               	bsf	3,5	;RP0=1, select bank1
  4960  0575  1303               	bcf	3,6	;RP1=0, select bank1
  4961  0576  04E0               	iorwf	(___flmul@prod^(0+128)+3),f
  4962  0577                     l3055:
  4963  0577  0860               	movf	(___flmul@prod+3)^(0+128),w
  4964  0578  1283               	bcf	3,5	;RP0=0, select bank0
  4965  0579  1303               	bcf	3,6	;RP1=0, select bank0
  4966  057A  00C3               	movwf	?___flmul+3
  4967  057B  1683               	bsf	3,5	;RP0=1, select bank1
  4968  057C  1303               	bcf	3,6	;RP1=0, select bank1
  4969  057D  085F               	movf	(___flmul@prod+2)^(0+128),w
  4970  057E  1283               	bcf	3,5	;RP0=0, select bank0
  4971  057F  1303               	bcf	3,6	;RP1=0, select bank0
  4972  0580  00C2               	movwf	?___flmul+2
  4973  0581  1683               	bsf	3,5	;RP0=1, select bank1
  4974  0582  1303               	bcf	3,6	;RP1=0, select bank1
  4975  0583  085E               	movf	(___flmul@prod+1)^(0+128),w
  4976  0584  1283               	bcf	3,5	;RP0=0, select bank0
  4977  0585  1303               	bcf	3,6	;RP1=0, select bank0
  4978  0586  00C1               	movwf	?___flmul+1
  4979  0587  1683               	bsf	3,5	;RP0=1, select bank1
  4980  0588  1303               	bcf	3,6	;RP1=0, select bank1
  4981  0589  085D               	movf	___flmul@prod^(0+128),w
  4982  058A  1283               	bcf	3,5	;RP0=0, select bank0
  4983  058B  1303               	bcf	3,6	;RP1=0, select bank0
  4984  058C  00C0               	movwf	?___flmul
  4985  058D                     l699:
  4986  058D  0008               	return
  4987  058E                     __end_of___flmul:
  4988                           
  4989                           	psect	text11
  4990  1684                     __ptext11:	
  4991 ;; *************** function __Umul8_16 *****************
  4992 ;; Defined at:
  4993 ;;		line 4 in file "C:\Program Files\Microchip\xc8\v2.31\pic\sources\c90\common\Umul8_16.c"
  4994 ;; Parameters:    Size  Location     Type
  4995 ;;  multiplier      1    wreg     unsigned char 
  4996 ;;  multiplicand    1   18[BANK0 ] unsigned char 
  4997 ;; Auto vars:     Size  Location     Type
  4998 ;;  multiplier      1   26[BANK0 ] unsigned char 
  4999 ;;  word_mpld       2   24[BANK0 ] unsigned int 
  5000 ;;  product         2   22[BANK0 ] unsigned int 
  5001 ;; Return value:  Size  Location     Type
  5002 ;;                  2   18[BANK0 ] unsigned int 
  5003 ;; Registers used:
  5004 ;;		wreg, status,2, status,0
  5005 ;; Tracked objects:
  5006 ;;		On entry : 0/0
  5007 ;;		On exit  : 0/0
  5008 ;;		Unchanged: 0/0
  5009 ;; Data sizes:     COMMON   BANK0   BANK1   BANK3   BANK2
  5010 ;;      Params:         0       2       0       0       0
  5011 ;;      Locals:         0       5       0       0       0
  5012 ;;      Temps:          0       2       0       0       0
  5013 ;;      Totals:         0       9       0       0       0
  5014 ;;Total ram usage:        9 bytes
  5015 ;; Hardware stack levels used:    1
  5016 ;; Hardware stack levels required when called:    4
  5017 ;; This function calls:
  5018 ;;		Nothing
  5019 ;; This function is called by:
  5020 ;;		___flmul
  5021 ;; This function uses a non-reentrant model
  5022 ;;
  5023                           
  5024                           
  5025                           ;psect for function __Umul8_16
  5026  1684                     __Umul8_16:
  5027                           
  5028                           ;incstack = 0
  5029                           ; Regs used in __Umul8_16: [wreg+status,2+status,0]
  5030                           ;__Umul8_16@multiplier stored from wreg
  5031  1684  1283               	bcf	3,5	;RP0=0, select bank0
  5032  1685  1303               	bcf	3,6	;RP1=0, select bank0
  5033  1686  00BA               	movwf	__Umul8_16@multiplier
  5034  1687                     l2653:
  5035  1687  01B6               	clrf	__Umul8_16@product
  5036  1688  01B7               	clrf	__Umul8_16@product+1
  5037  1689                     l2655:
  5038  1689  0832               	movf	__Umul8_16@multiplicand,w
  5039  168A  00B4               	movwf	??__Umul8_16
  5040  168B  01B5               	clrf	??__Umul8_16+1
  5041  168C  0834               	movf	??__Umul8_16,w
  5042  168D  00B8               	movwf	__Umul8_16@word_mpld
  5043  168E  0835               	movf	??__Umul8_16+1,w
  5044  168F  00B9               	movwf	__Umul8_16@word_mpld+1
  5045  1690                     l2657:
  5046  1690  1C3A               	btfss	__Umul8_16@multiplier,0
  5047  1691  2E93               	goto	u3191
  5048  1692  2E94               	goto	u3190
  5049  1693                     u3191:
  5050  1693  2E9A               	goto	l718
  5051  1694                     u3190:
  5052  1694                     l2659:
  5053  1694  0838               	movf	__Umul8_16@word_mpld,w
  5054  1695  07B6               	addwf	__Umul8_16@product,f
  5055  1696  1803               	skipnc
  5056  1697  0AB7               	incf	__Umul8_16@product+1,f
  5057  1698  0839               	movf	__Umul8_16@word_mpld+1,w
  5058  1699  07B7               	addwf	__Umul8_16@product+1,f
  5059  169A                     l718:
  5060  169A  3001               	movlw	1
  5061  169B                     u3205:
  5062  169B  1003               	clrc
  5063  169C  0DB8               	rlf	__Umul8_16@word_mpld,f
  5064  169D  0DB9               	rlf	__Umul8_16@word_mpld+1,f
  5065  169E  3EFF               	addlw	-1
  5066  169F  1D03               	skipz
  5067  16A0  2E9B               	goto	u3205
  5068  16A1  1003               	clrc
  5069  16A2  0CBA               	rrf	__Umul8_16@multiplier,f
  5070  16A3                     l2661:
  5071  16A3  083A               	movf	__Umul8_16@multiplier,w
  5072  16A4  1D03               	btfss	3,2
  5073  16A5  2EA7               	goto	u3211
  5074  16A6  2EA8               	goto	u3210
  5075  16A7                     u3211:
  5076  16A7  2E90               	goto	l2657
  5077  16A8                     u3210:
  5078  16A8                     l2663:
  5079  16A8  0837               	movf	__Umul8_16@product+1,w
  5080  16A9  00B3               	movwf	?__Umul8_16+1
  5081  16AA  0836               	movf	__Umul8_16@product,w
  5082  16AB  00B2               	movwf	?__Umul8_16
  5083  16AC                     l720:
  5084  16AC  0008               	return
  5085  16AD                     __end_of__Umul8_16:
  5086                           
  5087                           	psect	text12
  5088  0980                     __ptext12:	
  5089 ;; *************** function ___fldiv *****************
  5090 ;; Defined at:
  5091 ;;		line 8 in file "C:\Program Files\Microchip\xc8\v2.31\pic\sources\c90\common\sprcdiv.c"
  5092 ;; Parameters:    Size  Location     Type
  5093 ;;  a               4   13[BANK1 ] unsigned int 
  5094 ;;  b               4   17[BANK1 ] unsigned int 
  5095 ;; Auto vars:     Size  Location     Type
  5096 ;;  grs             4    7[BANK3 ] unsigned long 
  5097 ;;  rem             4    0[BANK3 ] unsigned long 
  5098 ;;  new_exp         2    5[BANK3 ] int 
  5099 ;;  aexp            1   12[BANK3 ] unsigned char 
  5100 ;;  bexp            1   11[BANK3 ] unsigned char 
  5101 ;;  sign            1    4[BANK3 ] unsigned char 
  5102 ;; Return value:  Size  Location     Type
  5103 ;;                  4   13[BANK1 ] unsigned char 
  5104 ;; Registers used:
  5105 ;;		wreg, status,2, status,0, btemp+1
  5106 ;; Tracked objects:
  5107 ;;		On entry : 0/0
  5108 ;;		On exit  : 0/0
  5109 ;;		Unchanged: 0/0
  5110 ;; Data sizes:     COMMON   BANK0   BANK1   BANK3   BANK2
  5111 ;;      Params:         0       0       8       0       0
  5112 ;;      Locals:         0       0       0      13       0
  5113 ;;      Temps:          0       0       5       0       0
  5114 ;;      Totals:         0       0      13      13       0
  5115 ;;Total ram usage:       26 bytes
  5116 ;; Hardware stack levels used:    1
  5117 ;; Hardware stack levels required when called:    4
  5118 ;; This function calls:
  5119 ;;		Nothing
  5120 ;; This function is called by:
  5121 ;;		_main
  5122 ;; This function uses a non-reentrant model
  5123 ;;
  5124                           
  5125                           
  5126                           ;psect for function ___fldiv
  5127  0980                     ___fldiv:
  5128  0980                     l2777:	
  5129                           ;incstack = 0
  5130                           ; Regs used in ___fldiv: [wreg+status,2+status,0+btemp+1]
  5131                           
  5132  0980  1683               	bsf	3,5	;RP0=1, select bank1
  5133  0981  1303               	bcf	3,6	;RP1=0, select bank1
  5134  0982  086A               	movf	(___fldiv@b^(0+128)+3),w
  5135  0983  3980               	andlw	128
  5136  0984  00EB               	movwf	??___fldiv^(0+128)
  5137  0985  086B               	movf	??___fldiv^(0+128),w
  5138  0986  1683               	bsf	3,5	;RP0=1, select bank3
  5139  0987  1703               	bsf	3,6	;RP1=1, select bank3
  5140  0988  0094               	movwf	___fldiv@sign^(0+384)
  5141  0989                     l2779:
  5142  0989  1683               	bsf	3,5	;RP0=1, select bank1
  5143  098A  1303               	bcf	3,6	;RP1=0, select bank1
  5144  098B  086A               	movf	(___fldiv@b^(0+128)+3),w
  5145  098C  00EB               	movwf	??___fldiv^(0+128)
  5146  098D  076B               	addwf	??___fldiv^(0+128),w
  5147  098E  00EC               	movwf	(??___fldiv+1)^(0+128)
  5148  098F  086C               	movf	(??___fldiv+1)^(0+128),w
  5149  0990  1683               	bsf	3,5	;RP0=1, select bank3
  5150  0991  1703               	bsf	3,6	;RP1=1, select bank3
  5151  0992  009B               	movwf	___fldiv@bexp^(0+384)
  5152  0993                     l2781:
  5153  0993  1683               	bsf	3,5	;RP0=1, select bank1
  5154  0994  1303               	bcf	3,6	;RP1=0, select bank1
  5155  0995  1FE9               	btfss	(___fldiv@b^(0+128)+2),7
  5156  0996  2998               	goto	u3391
  5157  0997  2999               	goto	u3390
  5158  0998                     u3391:
  5159  0998  299C               	goto	l2785
  5160  0999                     u3390:
  5161  0999                     l2783:
  5162  0999  1683               	bsf	3,5	;RP0=1, select bank3
  5163  099A  1703               	bsf	3,6	;RP1=1, select bank3
  5164  099B  141B               	bsf	___fldiv@bexp^(0+384),0
  5165  099C                     l2785:
  5166  099C  1683               	bsf	3,5	;RP0=1, select bank3
  5167  099D  1703               	bsf	3,6	;RP1=1, select bank3
  5168  099E  081B               	movf	___fldiv@bexp^(0+384),w
  5169  099F  1903               	btfsc	3,2
  5170  09A0  29A2               	goto	u3401
  5171  09A1  29A3               	goto	u3400
  5172  09A2                     u3401:
  5173  09A2  29B6               	goto	l2795
  5174  09A3                     u3400:
  5175  09A3                     l2787:
  5176  09A3  0A1B               	incf	___fldiv@bexp^(0+384),w
  5177  09A4  1D03               	btfss	3,2
  5178  09A5  29A7               	goto	u3411
  5179  09A6  29A8               	goto	u3410
  5180  09A7                     u3411:
  5181  09A7  29B2               	goto	l2791
  5182  09A8                     u3410:
  5183  09A8                     l2789:
  5184  09A8  3000               	movlw	0
  5185  09A9  1683               	bsf	3,5	;RP0=1, select bank1
  5186  09AA  1303               	bcf	3,6	;RP1=0, select bank1
  5187  09AB  00EA               	movwf	(___fldiv@b+3)^(0+128)
  5188  09AC  3000               	movlw	0
  5189  09AD  00E9               	movwf	(___fldiv@b+2)^(0+128)
  5190  09AE  3000               	movlw	0
  5191  09AF  00E8               	movwf	(___fldiv@b+1)^(0+128)
  5192  09B0  3000               	movlw	0
  5193  09B1  00E7               	movwf	___fldiv@b^(0+128)
  5194  09B2                     l2791:
  5195  09B2  1303               	bcf	3,6	;RP1=0, select bank1
  5196  09B3  17E9               	bsf	(___fldiv@b^(0+128)+2),7
  5197  09B4                     l2793:
  5198  09B4  01EA               	clrf	(___fldiv@b^(0+128)+3)
  5199  09B5  29C0               	goto	l2797
  5200  09B6                     l2795:
  5201  09B6  3000               	movlw	0
  5202  09B7  1683               	bsf	3,5	;RP0=1, select bank1
  5203  09B8  1303               	bcf	3,6	;RP1=0, select bank1
  5204  09B9  00EA               	movwf	(___fldiv@b+3)^(0+128)
  5205  09BA  3000               	movlw	0
  5206  09BB  00E9               	movwf	(___fldiv@b+2)^(0+128)
  5207  09BC  3000               	movlw	0
  5208  09BD  00E8               	movwf	(___fldiv@b+1)^(0+128)
  5209  09BE  3000               	movlw	0
  5210  09BF  00E7               	movwf	___fldiv@b^(0+128)
  5211  09C0                     l2797:
  5212  09C0  0866               	movf	(___fldiv@a^(0+128)+3),w
  5213  09C1  3980               	andlw	128
  5214  09C2  00EB               	movwf	??___fldiv^(0+128)
  5215  09C3  086B               	movf	??___fldiv^(0+128),w
  5216  09C4  1683               	bsf	3,5	;RP0=1, select bank3
  5217  09C5  1703               	bsf	3,6	;RP1=1, select bank3
  5218  09C6  0694               	xorwf	___fldiv@sign^(0+384),f
  5219  09C7                     l2799:
  5220  09C7  1683               	bsf	3,5	;RP0=1, select bank1
  5221  09C8  1303               	bcf	3,6	;RP1=0, select bank1
  5222  09C9  0866               	movf	(___fldiv@a^(0+128)+3),w
  5223  09CA  00EB               	movwf	??___fldiv^(0+128)
  5224  09CB  076B               	addwf	??___fldiv^(0+128),w
  5225  09CC  00EC               	movwf	(??___fldiv+1)^(0+128)
  5226  09CD  086C               	movf	(??___fldiv+1)^(0+128),w
  5227  09CE  1683               	bsf	3,5	;RP0=1, select bank3
  5228  09CF  1703               	bsf	3,6	;RP1=1, select bank3
  5229  09D0  009C               	movwf	___fldiv@aexp^(0+384)
  5230  09D1                     l2801:
  5231  09D1  1683               	bsf	3,5	;RP0=1, select bank1
  5232  09D2  1303               	bcf	3,6	;RP1=0, select bank1
  5233  09D3  1FE5               	btfss	(___fldiv@a^(0+128)+2),7
  5234  09D4  29D6               	goto	u3421
  5235  09D5  29D7               	goto	u3420
  5236  09D6                     u3421:
  5237  09D6  29DA               	goto	l2805
  5238  09D7                     u3420:
  5239  09D7                     l2803:
  5240  09D7  1683               	bsf	3,5	;RP0=1, select bank3
  5241  09D8  1703               	bsf	3,6	;RP1=1, select bank3
  5242  09D9  141C               	bsf	___fldiv@aexp^(0+384),0
  5243  09DA                     l2805:
  5244  09DA  1683               	bsf	3,5	;RP0=1, select bank3
  5245  09DB  1703               	bsf	3,6	;RP1=1, select bank3
  5246  09DC  081C               	movf	___fldiv@aexp^(0+384),w
  5247  09DD  1903               	btfsc	3,2
  5248  09DE  29E0               	goto	u3431
  5249  09DF  29E1               	goto	u3430
  5250  09E0                     u3431:
  5251  09E0  29F4               	goto	l2815
  5252  09E1                     u3430:
  5253  09E1                     l2807:
  5254  09E1  0A1C               	incf	___fldiv@aexp^(0+384),w
  5255  09E2  1D03               	btfss	3,2
  5256  09E3  29E5               	goto	u3441
  5257  09E4  29E6               	goto	u3440
  5258  09E5                     u3441:
  5259  09E5  29F0               	goto	l2811
  5260  09E6                     u3440:
  5261  09E6                     l2809:
  5262  09E6  3000               	movlw	0
  5263  09E7  1683               	bsf	3,5	;RP0=1, select bank1
  5264  09E8  1303               	bcf	3,6	;RP1=0, select bank1
  5265  09E9  00E6               	movwf	(___fldiv@a+3)^(0+128)
  5266  09EA  3000               	movlw	0
  5267  09EB  00E5               	movwf	(___fldiv@a+2)^(0+128)
  5268  09EC  3000               	movlw	0
  5269  09ED  00E4               	movwf	(___fldiv@a+1)^(0+128)
  5270  09EE  3000               	movlw	0
  5271  09EF  00E3               	movwf	___fldiv@a^(0+128)
  5272  09F0                     l2811:
  5273  09F0  1303               	bcf	3,6	;RP1=0, select bank1
  5274  09F1  17E5               	bsf	(___fldiv@a^(0+128)+2),7
  5275  09F2                     l2813:
  5276  09F2  01E6               	clrf	(___fldiv@a^(0+128)+3)
  5277  09F3  29FE               	goto	l659
  5278  09F4                     l2815:
  5279  09F4  3000               	movlw	0
  5280  09F5  1683               	bsf	3,5	;RP0=1, select bank1
  5281  09F6  1303               	bcf	3,6	;RP1=0, select bank1
  5282  09F7  00E6               	movwf	(___fldiv@a+3)^(0+128)
  5283  09F8  3000               	movlw	0
  5284  09F9  00E5               	movwf	(___fldiv@a+2)^(0+128)
  5285  09FA  3000               	movlw	0
  5286  09FB  00E4               	movwf	(___fldiv@a+1)^(0+128)
  5287  09FC  3000               	movlw	0
  5288  09FD  00E3               	movwf	___fldiv@a^(0+128)
  5289  09FE                     l659:
  5290  09FE  0866               	movf	(___fldiv@a+3)^(0+128),w
  5291  09FF  0465               	iorwf	(___fldiv@a+2)^(0+128),w
  5292  0A00  0464               	iorwf	(___fldiv@a+1)^(0+128),w
  5293  0A01  0463               	iorwf	___fldiv@a^(0+128),w
  5294  0A02  1D03               	skipz
  5295  0A03  2A05               	goto	u3451
  5296  0A04  2A06               	goto	u3450
  5297  0A05                     u3451:
  5298  0A05  2A23               	goto	l2825
  5299  0A06                     u3450:
  5300  0A06                     l2817:
  5301  0A06  3000               	movlw	0
  5302  0A07  00EA               	movwf	(___fldiv@b+3)^(0+128)
  5303  0A08  3000               	movlw	0
  5304  0A09  00E9               	movwf	(___fldiv@b+2)^(0+128)
  5305  0A0A  3000               	movlw	0
  5306  0A0B  00E8               	movwf	(___fldiv@b+1)^(0+128)
  5307  0A0C  3000               	movlw	0
  5308  0A0D  00E7               	movwf	___fldiv@b^(0+128)
  5309  0A0E  3080               	movlw	128
  5310  0A0F  04E9               	iorwf	(___fldiv@b^(0+128)+2),f
  5311  0A10  307F               	movlw	127
  5312  0A11  04EA               	iorwf	((___fldiv@b+1)^(0+128)+2),f
  5313  0A12                     l2819:
  5314  0A12  1683               	bsf	3,5	;RP0=1, select bank3
  5315  0A13  1703               	bsf	3,6	;RP1=1, select bank3
  5316  0A14  0814               	movf	___fldiv@sign^(0+384),w
  5317  0A15  1683               	bsf	3,5	;RP0=1, select bank1
  5318  0A16  1303               	bcf	3,6	;RP1=0, select bank1
  5319  0A17  00EB               	movwf	??___fldiv^(0+128)
  5320  0A18  086B               	movf	??___fldiv^(0+128),w
  5321  0A19  04EA               	iorwf	(___fldiv@b^(0+128)+3),f
  5322  0A1A                     l2821:
  5323  0A1A  086A               	movf	(___fldiv@b+3)^(0+128),w
  5324  0A1B  00E6               	movwf	(?___fldiv+3)^(0+128)
  5325  0A1C  0869               	movf	(___fldiv@b+2)^(0+128),w
  5326  0A1D  00E5               	movwf	(?___fldiv+2)^(0+128)
  5327  0A1E  0868               	movf	(___fldiv@b+1)^(0+128),w
  5328  0A1F  00E4               	movwf	(?___fldiv+1)^(0+128)
  5329  0A20  0867               	movf	___fldiv@b^(0+128),w
  5330  0A21  00E3               	movwf	?___fldiv^(0+128)
  5331  0A22  2C1F               	goto	l661
  5332  0A23                     l2825:
  5333  0A23  1683               	bsf	3,5	;RP0=1, select bank3
  5334  0A24  1703               	bsf	3,6	;RP1=1, select bank3
  5335  0A25  081B               	movf	___fldiv@bexp^(0+384),w
  5336  0A26  1D03               	btfss	3,2
  5337  0A27  2A29               	goto	u3461
  5338  0A28  2A2A               	goto	u3460
  5339  0A29                     u3461:
  5340  0A29  2A35               	goto	l2831
  5341  0A2A                     u3460:
  5342  0A2A                     l2827:
  5343  0A2A  3000               	movlw	0
  5344  0A2B  1683               	bsf	3,5	;RP0=1, select bank1
  5345  0A2C  1303               	bcf	3,6	;RP1=0, select bank1
  5346  0A2D  00E6               	movwf	(?___fldiv+3)^(0+128)
  5347  0A2E  3000               	movlw	0
  5348  0A2F  00E5               	movwf	(?___fldiv+2)^(0+128)
  5349  0A30  3000               	movlw	0
  5350  0A31  00E4               	movwf	(?___fldiv+1)^(0+128)
  5351  0A32  3000               	movlw	0
  5352  0A33  00E3               	movwf	?___fldiv^(0+128)
  5353  0A34  2C1F               	goto	l661
  5354  0A35                     l2831:
  5355  0A35  081B               	movf	___fldiv@bexp^(0+384),w
  5356  0A36  1683               	bsf	3,5	;RP0=1, select bank1
  5357  0A37  1303               	bcf	3,6	;RP1=0, select bank1
  5358  0A38  00EB               	movwf	??___fldiv^(0+128)
  5359  0A39  01EC               	clrf	(??___fldiv^(0+128)+1)
  5360  0A3A  086C               	movf	(??___fldiv+1)^(0+128),w
  5361  0A3B  00EE               	movwf	((??___fldiv+2)^(0+128)+1)
  5362  0A3C  1683               	bsf	3,5	;RP0=1, select bank3
  5363  0A3D  1703               	bsf	3,6	;RP1=1, select bank3
  5364  0A3E  081C               	movf	___fldiv@aexp^(0+384),w
  5365  0A3F  1683               	bsf	3,5	;RP0=1, select bank1
  5366  0A40  1303               	bcf	3,6	;RP1=0, select bank1
  5367  0A41  026B               	subwf	??___fldiv^(0+128),w
  5368  0A42  00ED               	movwf	(??___fldiv+2)^(0+128)
  5369  0A43  1C03               	skipc
  5370  0A44  03EE               	decf	((??___fldiv+2)^(0+128)+1),f
  5371  0A45  086D               	movf	(??___fldiv+2)^(0+128),w
  5372  0A46  3E7F               	addlw	127
  5373  0A47  1683               	bsf	3,5	;RP0=1, select bank3
  5374  0A48  1703               	bsf	3,6	;RP1=1, select bank3
  5375  0A49  0095               	movwf	___fldiv@new_exp^(0+384)
  5376  0A4A  1683               	bsf	3,5	;RP0=1, select bank1
  5377  0A4B  1303               	bcf	3,6	;RP1=0, select bank1
  5378  0A4C  086E               	movf	(??___fldiv+3)^(0+128),w
  5379  0A4D  1803               	skipnc
  5380  0A4E  3E01               	addlw	1
  5381  0A4F  3E00               	addlw	0
  5382  0A50  1683               	bsf	3,5	;RP0=1, select bank3
  5383  0A51  1703               	bsf	3,6	;RP1=1, select bank3
  5384  0A52  0096               	movwf	(___fldiv@new_exp+1)^(0+384)
  5385  0A53                     l2833:
  5386  0A53  1683               	bsf	3,5	;RP0=1, select bank1
  5387  0A54  1303               	bcf	3,6	;RP1=0, select bank1
  5388  0A55  086A               	movf	(___fldiv@b+3)^(0+128),w
  5389  0A56  1683               	bsf	3,5	;RP0=1, select bank3
  5390  0A57  1703               	bsf	3,6	;RP1=1, select bank3
  5391  0A58  0093               	movwf	(___fldiv@rem+3)^(0+384)
  5392  0A59  1683               	bsf	3,5	;RP0=1, select bank1
  5393  0A5A  1303               	bcf	3,6	;RP1=0, select bank1
  5394  0A5B  0869               	movf	(___fldiv@b+2)^(0+128),w
  5395  0A5C  1683               	bsf	3,5	;RP0=1, select bank3
  5396  0A5D  1703               	bsf	3,6	;RP1=1, select bank3
  5397  0A5E  0092               	movwf	(___fldiv@rem+2)^(0+384)
  5398  0A5F  1683               	bsf	3,5	;RP0=1, select bank1
  5399  0A60  1303               	bcf	3,6	;RP1=0, select bank1
  5400  0A61  0868               	movf	(___fldiv@b+1)^(0+128),w
  5401  0A62  1683               	bsf	3,5	;RP0=1, select bank3
  5402  0A63  1703               	bsf	3,6	;RP1=1, select bank3
  5403  0A64  0091               	movwf	(___fldiv@rem+1)^(0+384)
  5404  0A65  1683               	bsf	3,5	;RP0=1, select bank1
  5405  0A66  1303               	bcf	3,6	;RP1=0, select bank1
  5406  0A67  0867               	movf	___fldiv@b^(0+128),w
  5407  0A68  1683               	bsf	3,5	;RP0=1, select bank3
  5408  0A69  1703               	bsf	3,6	;RP1=1, select bank3
  5409  0A6A  0090               	movwf	___fldiv@rem^(0+384)
  5410  0A6B                     l2835:
  5411  0A6B  3000               	movlw	0
  5412  0A6C  1683               	bsf	3,5	;RP0=1, select bank1
  5413  0A6D  1303               	bcf	3,6	;RP1=0, select bank1
  5414  0A6E  00EA               	movwf	(___fldiv@b+3)^(0+128)
  5415  0A6F  3000               	movlw	0
  5416  0A70  00E9               	movwf	(___fldiv@b+2)^(0+128)
  5417  0A71  3000               	movlw	0
  5418  0A72  00E8               	movwf	(___fldiv@b+1)^(0+128)
  5419  0A73  3000               	movlw	0
  5420  0A74  00E7               	movwf	___fldiv@b^(0+128)
  5421  0A75                     l2837:
  5422  0A75  3000               	movlw	0
  5423  0A76  1683               	bsf	3,5	;RP0=1, select bank3
  5424  0A77  1703               	bsf	3,6	;RP1=1, select bank3
  5425  0A78  009A               	movwf	(___fldiv@grs+3)^(0+384)
  5426  0A79  3000               	movlw	0
  5427  0A7A  0099               	movwf	(___fldiv@grs+2)^(0+384)
  5428  0A7B  3000               	movlw	0
  5429  0A7C  0098               	movwf	(___fldiv@grs+1)^(0+384)
  5430  0A7D  3000               	movlw	0
  5431  0A7E  0097               	movwf	___fldiv@grs^(0+384)
  5432  0A7F                     l2839:
  5433  0A7F  019C               	clrf	___fldiv@aexp^(0+384)
  5434  0A80  2B07               	goto	l2859
  5435  0A81                     l2841:
  5436  0A81  081C               	movf	___fldiv@aexp^(0+384),w
  5437  0A82  1903               	btfsc	3,2
  5438  0A83  2A85               	goto	u3471
  5439  0A84  2A86               	goto	u3470
  5440  0A85                     u3471:
  5441  0A85  2AB5               	goto	l2851
  5442  0A86                     u3470:
  5443  0A86                     l2843:
  5444  0A86  3001               	movlw	1
  5445  0A87  1683               	bsf	3,5	;RP0=1, select bank1
  5446  0A88  1303               	bcf	3,6	;RP1=0, select bank1
  5447  0A89  00EB               	movwf	??___fldiv^(0+128)
  5448  0A8A                     u3485:
  5449  0A8A  1003               	clrc
  5450  0A8B  1683               	bsf	3,5	;RP0=1, select bank3
  5451  0A8C  1703               	bsf	3,6	;RP1=1, select bank3
  5452  0A8D  0D90               	rlf	___fldiv@rem^(0+384),f
  5453  0A8E  0D91               	rlf	(___fldiv@rem+1)^(0+384),f
  5454  0A8F  0D92               	rlf	(___fldiv@rem+2)^(0+384),f
  5455  0A90  0D93               	rlf	(___fldiv@rem+3)^(0+384),f
  5456  0A91  1683               	bsf	3,5	;RP0=1, select bank1
  5457  0A92  1303               	bcf	3,6	;RP1=0, select bank1
  5458  0A93  0BEB               	decfsz	??___fldiv^(0+128),f
  5459  0A94  2A8A               	goto	u3485
  5460  0A95  3001               	movlw	1
  5461  0A96  00EB               	movwf	??___fldiv^(0+128)
  5462  0A97                     u3495:
  5463  0A97  1003               	clrc
  5464  0A98  0DE7               	rlf	___fldiv@b^(0+128),f
  5465  0A99  0DE8               	rlf	(___fldiv@b+1)^(0+128),f
  5466  0A9A  0DE9               	rlf	(___fldiv@b+2)^(0+128),f
  5467  0A9B  0DEA               	rlf	(___fldiv@b+3)^(0+128),f
  5468  0A9C  0BEB               	decfsz	??___fldiv^(0+128),f
  5469  0A9D  2A97               	goto	u3495
  5470  0A9E                     l2845:
  5471  0A9E  1683               	bsf	3,5	;RP0=1, select bank3
  5472  0A9F  1703               	bsf	3,6	;RP1=1, select bank3
  5473  0AA0  1F9A               	btfss	(___fldiv@grs+3)^(0+384),7
  5474  0AA1  2AA3               	goto	u3501
  5475  0AA2  2AA4               	goto	u3500
  5476  0AA3                     u3501:
  5477  0AA3  2AA7               	goto	l2849
  5478  0AA4                     u3500:
  5479  0AA4                     l2847:
  5480  0AA4  1683               	bsf	3,5	;RP0=1, select bank1
  5481  0AA5  1303               	bcf	3,6	;RP1=0, select bank1
  5482  0AA6  1467               	bsf	___fldiv@b^(0+128),0
  5483  0AA7                     l2849:
  5484  0AA7  3001               	movlw	1
  5485  0AA8  1303               	bcf	3,6	;RP1=0, select bank1
  5486  0AA9  00EB               	movwf	??___fldiv^(0+128)
  5487  0AAA                     u3515:
  5488  0AAA  1003               	clrc
  5489  0AAB  1683               	bsf	3,5	;RP0=1, select bank3
  5490  0AAC  1703               	bsf	3,6	;RP1=1, select bank3
  5491  0AAD  0D97               	rlf	___fldiv@grs^(0+384),f
  5492  0AAE  0D98               	rlf	(___fldiv@grs+1)^(0+384),f
  5493  0AAF  0D99               	rlf	(___fldiv@grs+2)^(0+384),f
  5494  0AB0  0D9A               	rlf	(___fldiv@grs+3)^(0+384),f
  5495  0AB1  1683               	bsf	3,5	;RP0=1, select bank1
  5496  0AB2  1303               	bcf	3,6	;RP1=0, select bank1
  5497  0AB3  0BEB               	decfsz	??___fldiv^(0+128),f
  5498  0AB4  2AAA               	goto	u3515
  5499  0AB5                     l2851:
  5500  0AB5  1303               	bcf	3,6	;RP1=0, select bank1
  5501  0AB6  0866               	movf	(___fldiv@a+3)^(0+128),w
  5502  0AB7  1683               	bsf	3,5	;RP0=1, select bank3
  5503  0AB8  1703               	bsf	3,6	;RP1=1, select bank3
  5504  0AB9  0213               	subwf	(___fldiv@rem+3)^(0+384),w
  5505  0ABA  1D03               	skipz
  5506  0ABB  2AD2               	goto	u3525
  5507  0ABC  1683               	bsf	3,5	;RP0=1, select bank1
  5508  0ABD  1303               	bcf	3,6	;RP1=0, select bank1
  5509  0ABE  0865               	movf	(___fldiv@a+2)^(0+128),w
  5510  0ABF  1683               	bsf	3,5	;RP0=1, select bank3
  5511  0AC0  1703               	bsf	3,6	;RP1=1, select bank3
  5512  0AC1  0212               	subwf	(___fldiv@rem+2)^(0+384),w
  5513  0AC2  1D03               	skipz
  5514  0AC3  2AD2               	goto	u3525
  5515  0AC4  1683               	bsf	3,5	;RP0=1, select bank1
  5516  0AC5  1303               	bcf	3,6	;RP1=0, select bank1
  5517  0AC6  0864               	movf	(___fldiv@a+1)^(0+128),w
  5518  0AC7  1683               	bsf	3,5	;RP0=1, select bank3
  5519  0AC8  1703               	bsf	3,6	;RP1=1, select bank3
  5520  0AC9  0211               	subwf	(___fldiv@rem+1)^(0+384),w
  5521  0ACA  1D03               	skipz
  5522  0ACB  2AD2               	goto	u3525
  5523  0ACC  1683               	bsf	3,5	;RP0=1, select bank1
  5524  0ACD  1303               	bcf	3,6	;RP1=0, select bank1
  5525  0ACE  0863               	movf	___fldiv@a^(0+128),w
  5526  0ACF  1683               	bsf	3,5	;RP0=1, select bank3
  5527  0AD0  1703               	bsf	3,6	;RP1=1, select bank3
  5528  0AD1  0210               	subwf	___fldiv@rem^(0+384),w
  5529  0AD2                     u3525:
  5530  0AD2  1C03               	skipc
  5531  0AD3  2AD5               	goto	u3521
  5532  0AD4  2AD6               	goto	u3520
  5533  0AD5                     u3521:
  5534  0AD5  2AFF               	goto	l2857
  5535  0AD6                     u3520:
  5536  0AD6                     l2853:
  5537  0AD6  171A               	bsf	(___fldiv@grs^(0+384)+3),6
  5538  0AD7                     l2855:
  5539  0AD7  1683               	bsf	3,5	;RP0=1, select bank1
  5540  0AD8  1303               	bcf	3,6	;RP1=0, select bank1
  5541  0AD9  0863               	movf	___fldiv@a^(0+128),w
  5542  0ADA  1683               	bsf	3,5	;RP0=1, select bank3
  5543  0ADB  1703               	bsf	3,6	;RP1=1, select bank3
  5544  0ADC  0290               	subwf	___fldiv@rem^(0+384),f
  5545  0ADD  1683               	bsf	3,5	;RP0=1, select bank1
  5546  0ADE  1303               	bcf	3,6	;RP1=0, select bank1
  5547  0ADF  0864               	movf	(___fldiv@a+1)^(0+128),w
  5548  0AE0  1C03               	skipc
  5549  0AE1  0F64               	incfsz	(___fldiv@a+1)^(0+128),w
  5550  0AE2  2AE4               	goto	u3535
  5551  0AE3  2AE7               	goto	u3536
  5552  0AE4                     u3535:
  5553  0AE4  1683               	bsf	3,5	;RP0=1, select bank3
  5554  0AE5  1703               	bsf	3,6	;RP1=1, select bank3
  5555  0AE6  0291               	subwf	(___fldiv@rem+1)^(0+384),f
  5556  0AE7                     u3536:
  5557  0AE7  1683               	bsf	3,5	;RP0=1, select bank1
  5558  0AE8  1303               	bcf	3,6	;RP1=0, select bank1
  5559  0AE9  0865               	movf	(___fldiv@a+2)^(0+128),w
  5560  0AEA  1C03               	skipc
  5561  0AEB  0F65               	incfsz	(___fldiv@a+2)^(0+128),w
  5562  0AEC  2AEE               	goto	u3537
  5563  0AED  2AF1               	goto	u3538
  5564  0AEE                     u3537:
  5565  0AEE  1683               	bsf	3,5	;RP0=1, select bank3
  5566  0AEF  1703               	bsf	3,6	;RP1=1, select bank3
  5567  0AF0  0292               	subwf	(___fldiv@rem+2)^(0+384),f
  5568  0AF1                     u3538:
  5569  0AF1  1683               	bsf	3,5	;RP0=1, select bank1
  5570  0AF2  1303               	bcf	3,6	;RP1=0, select bank1
  5571  0AF3  0866               	movf	(___fldiv@a+3)^(0+128),w
  5572  0AF4  1C03               	skipc
  5573  0AF5  0F66               	incfsz	(___fldiv@a+3)^(0+128),w
  5574  0AF6  2AF8               	goto	u3539
  5575  0AF7  2AFB               	goto	u3530
  5576  0AF8                     u3539:
  5577  0AF8  1683               	bsf	3,5	;RP0=1, select bank3
  5578  0AF9  1703               	bsf	3,6	;RP1=1, select bank3
  5579  0AFA  0293               	subwf	(___fldiv@rem+3)^(0+384),f
  5580  0AFB                     u3530:
  5581  0AFB  1683               	bsf	3,5	;RP0=1, select bank1
  5582  0AFC  1303               	bcf	3,6	;RP1=0, select bank1
  5583  0AFD  1683               	bsf	3,5	;RP0=1, select bank3
  5584  0AFE  1703               	bsf	3,6	;RP1=1, select bank3
  5585  0AFF                     l2857:
  5586  0AFF  3001               	movlw	1
  5587  0B00  1683               	bsf	3,5	;RP0=1, select bank1
  5588  0B01  1303               	bcf	3,6	;RP1=0, select bank1
  5589  0B02  00EB               	movwf	??___fldiv^(0+128)
  5590  0B03  086B               	movf	??___fldiv^(0+128),w
  5591  0B04  1683               	bsf	3,5	;RP0=1, select bank3
  5592  0B05  1703               	bsf	3,6	;RP1=1, select bank3
  5593  0B06  079C               	addwf	___fldiv@aexp^(0+384),f
  5594  0B07                     l2859:
  5595  0B07  301A               	movlw	26
  5596  0B08  021C               	subwf	___fldiv@aexp^(0+384),w
  5597  0B09  1C03               	skipc
  5598  0B0A  2B0C               	goto	u3541
  5599  0B0B  2B0D               	goto	u3540
  5600  0B0C                     u3541:
  5601  0B0C  2A81               	goto	l2841
  5602  0B0D                     u3540:
  5603  0B0D                     l2861:
  5604  0B0D  0813               	movf	(___fldiv@rem+3)^(0+384),w
  5605  0B0E  0412               	iorwf	(___fldiv@rem+2)^(0+384),w
  5606  0B0F  0411               	iorwf	(___fldiv@rem+1)^(0+384),w
  5607  0B10  0410               	iorwf	___fldiv@rem^(0+384),w
  5608  0B11  1903               	skipnz
  5609  0B12  2B14               	goto	u3551
  5610  0B13  2B15               	goto	u3550
  5611  0B14                     u3551:
  5612  0B14  2B3F               	goto	l2875
  5613  0B15                     u3550:
  5614  0B15                     l2863:
  5615  0B15  1417               	bsf	___fldiv@grs^(0+384),0
  5616  0B16  2B3F               	goto	l2875
  5617  0B17                     l2865:
  5618  0B17  3001               	movlw	1
  5619  0B18  00EB               	movwf	??___fldiv^(0+128)
  5620  0B19                     u3565:
  5621  0B19  1003               	clrc
  5622  0B1A  0DE7               	rlf	___fldiv@b^(0+128),f
  5623  0B1B  0DE8               	rlf	(___fldiv@b+1)^(0+128),f
  5624  0B1C  0DE9               	rlf	(___fldiv@b+2)^(0+128),f
  5625  0B1D  0DEA               	rlf	(___fldiv@b+3)^(0+128),f
  5626  0B1E  0BEB               	decfsz	??___fldiv^(0+128),f
  5627  0B1F  2B19               	goto	u3565
  5628  0B20                     l2867:
  5629  0B20  1683               	bsf	3,5	;RP0=1, select bank3
  5630  0B21  1703               	bsf	3,6	;RP1=1, select bank3
  5631  0B22  1F9A               	btfss	(___fldiv@grs+3)^(0+384),7
  5632  0B23  2B25               	goto	u3571
  5633  0B24  2B26               	goto	u3570
  5634  0B25                     u3571:
  5635  0B25  2B29               	goto	l2871
  5636  0B26                     u3570:
  5637  0B26                     l2869:
  5638  0B26  1683               	bsf	3,5	;RP0=1, select bank1
  5639  0B27  1303               	bcf	3,6	;RP1=0, select bank1
  5640  0B28  1467               	bsf	___fldiv@b^(0+128),0
  5641  0B29                     l2871:
  5642  0B29  3001               	movlw	1
  5643  0B2A  1303               	bcf	3,6	;RP1=0, select bank1
  5644  0B2B  00EB               	movwf	??___fldiv^(0+128)
  5645  0B2C                     u3585:
  5646  0B2C  1003               	clrc
  5647  0B2D  1683               	bsf	3,5	;RP0=1, select bank3
  5648  0B2E  1703               	bsf	3,6	;RP1=1, select bank3
  5649  0B2F  0D97               	rlf	___fldiv@grs^(0+384),f
  5650  0B30  0D98               	rlf	(___fldiv@grs+1)^(0+384),f
  5651  0B31  0D99               	rlf	(___fldiv@grs+2)^(0+384),f
  5652  0B32  0D9A               	rlf	(___fldiv@grs+3)^(0+384),f
  5653  0B33  1683               	bsf	3,5	;RP0=1, select bank1
  5654  0B34  1303               	bcf	3,6	;RP1=0, select bank1
  5655  0B35  0BEB               	decfsz	??___fldiv^(0+128),f
  5656  0B36  2B2C               	goto	u3585
  5657  0B37                     l2873:
  5658  0B37  30FF               	movlw	255
  5659  0B38  1683               	bsf	3,5	;RP0=1, select bank3
  5660  0B39  1703               	bsf	3,6	;RP1=1, select bank3
  5661  0B3A  0795               	addwf	___fldiv@new_exp^(0+384),f
  5662  0B3B  1803               	skipnc
  5663  0B3C  0A96               	incf	(___fldiv@new_exp+1)^(0+384),f
  5664  0B3D  30FF               	movlw	255
  5665  0B3E  0796               	addwf	(___fldiv@new_exp+1)^(0+384),f
  5666  0B3F                     l2875:
  5667  0B3F  1683               	bsf	3,5	;RP0=1, select bank1
  5668  0B40  1303               	bcf	3,6	;RP1=0, select bank1
  5669  0B41  1FE9               	btfss	(___fldiv@b+2)^(0+128),7
  5670  0B42  2B44               	goto	u3591
  5671  0B43  2B45               	goto	u3590
  5672  0B44                     u3591:
  5673  0B44  2B17               	goto	l2865
  5674  0B45                     u3590:
  5675  0B45                     l2877:
  5676  0B45  1683               	bsf	3,5	;RP0=1, select bank3
  5677  0B46  1703               	bsf	3,6	;RP1=1, select bank3
  5678  0B47  019C               	clrf	___fldiv@aexp^(0+384)
  5679  0B48                     l2879:
  5680  0B48  1F9A               	btfss	(___fldiv@grs+3)^(0+384),7
  5681  0B49  2B4B               	goto	u3601
  5682  0B4A  2B4C               	goto	u3600
  5683  0B4B                     u3601:
  5684  0B4B  2B78               	goto	l2887
  5685  0B4C                     u3600:
  5686  0B4C                     l2881:
  5687  0B4C  30FF               	movlw	255
  5688  0B4D  0517               	andwf	___fldiv@grs^(0+384),w
  5689  0B4E  1683               	bsf	3,5	;RP0=1, select bank1
  5690  0B4F  1303               	bcf	3,6	;RP1=0, select bank1
  5691  0B50  00EB               	movwf	??___fldiv^(0+128)
  5692  0B51  30FF               	movlw	255
  5693  0B52  1683               	bsf	3,5	;RP0=1, select bank3
  5694  0B53  1703               	bsf	3,6	;RP1=1, select bank3
  5695  0B54  0518               	andwf	(___fldiv@grs+1)^(0+384),w
  5696  0B55  1683               	bsf	3,5	;RP0=1, select bank1
  5697  0B56  1303               	bcf	3,6	;RP1=0, select bank1
  5698  0B57  00EC               	movwf	(??___fldiv^(0+128)+1)
  5699  0B58  30FF               	movlw	255
  5700  0B59  1683               	bsf	3,5	;RP0=1, select bank3
  5701  0B5A  1703               	bsf	3,6	;RP1=1, select bank3
  5702  0B5B  0519               	andwf	(___fldiv@grs+2)^(0+384),w
  5703  0B5C  1683               	bsf	3,5	;RP0=1, select bank1
  5704  0B5D  1303               	bcf	3,6	;RP1=0, select bank1
  5705  0B5E  00ED               	movwf	(??___fldiv^(0+128)+2)
  5706  0B5F  307F               	movlw	127
  5707  0B60  1683               	bsf	3,5	;RP0=1, select bank3
  5708  0B61  1703               	bsf	3,6	;RP1=1, select bank3
  5709  0B62  051A               	andwf	(___fldiv@grs+3)^(0+384),w
  5710  0B63  1683               	bsf	3,5	;RP0=1, select bank1
  5711  0B64  1303               	bcf	3,6	;RP1=0, select bank1
  5712  0B65  00EE               	movwf	(??___fldiv^(0+128)+3)
  5713  0B66  086E               	movf	(??___fldiv+3)^(0+128),w
  5714  0B67  046D               	iorwf	(??___fldiv+2)^(0+128),w
  5715  0B68  046C               	iorwf	(??___fldiv+1)^(0+128),w
  5716  0B69  046B               	iorwf	??___fldiv^(0+128),w
  5717  0B6A  1903               	skipnz
  5718  0B6B  2B6D               	goto	u3611
  5719  0B6C  2B6E               	goto	u3610
  5720  0B6D                     u3611:
  5721  0B6D  2B73               	goto	l675
  5722  0B6E                     u3610:
  5723  0B6E                     l2883:
  5724  0B6E  1683               	bsf	3,5	;RP0=1, select bank3
  5725  0B6F  1703               	bsf	3,6	;RP1=1, select bank3
  5726  0B70  019C               	clrf	___fldiv@aexp^(0+384)
  5727  0B71  0A9C               	incf	___fldiv@aexp^(0+384),f
  5728  0B72  2B78               	goto	l2887
  5729  0B73                     l675:
  5730  0B73  1C67               	btfss	___fldiv@b^(0+128),0
  5731  0B74  2B76               	goto	u3621
  5732  0B75  2B77               	goto	u3620
  5733  0B76                     u3621:
  5734  0B76  2B78               	goto	l2887
  5735  0B77                     u3620:
  5736  0B77  2B6E               	goto	l2883
  5737  0B78                     l2887:
  5738  0B78  1683               	bsf	3,5	;RP0=1, select bank3
  5739  0B79  1703               	bsf	3,6	;RP1=1, select bank3
  5740  0B7A  081C               	movf	___fldiv@aexp^(0+384),w
  5741  0B7B  1903               	btfsc	3,2
  5742  0B7C  2B7E               	goto	u3631
  5743  0B7D  2B7F               	goto	u3630
  5744  0B7E                     u3631:
  5745  0B7E  2BB4               	goto	l2897
  5746  0B7F                     u3630:
  5747  0B7F                     l2889:
  5748  0B7F  3001               	movlw	1
  5749  0B80  1683               	bsf	3,5	;RP0=1, select bank1
  5750  0B81  1303               	bcf	3,6	;RP1=0, select bank1
  5751  0B82  07E7               	addwf	___fldiv@b^(0+128),f
  5752  0B83  3000               	movlw	0
  5753  0B84  1803               	skipnc
  5754  0B85  3001               	movlw	1
  5755  0B86  07E8               	addwf	(___fldiv@b+1)^(0+128),f
  5756  0B87  3000               	movlw	0
  5757  0B88  1803               	skipnc
  5758  0B89  3001               	movlw	1
  5759  0B8A  07E9               	addwf	(___fldiv@b+2)^(0+128),f
  5760  0B8B  3000               	movlw	0
  5761  0B8C  1803               	skipnc
  5762  0B8D  3001               	movlw	1
  5763  0B8E  07EA               	addwf	(___fldiv@b+3)^(0+128),f
  5764  0B8F                     l2891:
  5765  0B8F  1C6A               	btfss	(___fldiv@b+3)^(0+128),0
  5766  0B90  2B92               	goto	u3641
  5767  0B91  2B93               	goto	u3640
  5768  0B92                     u3641:
  5769  0B92  2BB4               	goto	l2897
  5770  0B93                     u3640:
  5771  0B93                     l2893:
  5772  0B93  0867               	movf	___fldiv@b^(0+128),w
  5773  0B94  00EB               	movwf	??___fldiv^(0+128)
  5774  0B95  0868               	movf	(___fldiv@b+1)^(0+128),w
  5775  0B96  00EC               	movwf	(??___fldiv^(0+128)+1)
  5776  0B97  0869               	movf	(___fldiv@b+2)^(0+128),w
  5777  0B98  00ED               	movwf	(??___fldiv^(0+128)+2)
  5778  0B99  086A               	movf	(___fldiv@b+3)^(0+128),w
  5779  0B9A  00EE               	movwf	(??___fldiv^(0+128)+3)
  5780  0B9B  3001               	movlw	1
  5781  0B9C  00EF               	movwf	(??___fldiv+4)^(0+128)
  5782  0B9D                     u3655:
  5783  0B9D  0D6E               	rlf	(??___fldiv^(0+128)+3),w
  5784  0B9E  0CEE               	rrf	(??___fldiv^(0+128)+3),f
  5785  0B9F  0CED               	rrf	(??___fldiv^(0+128)+2),f
  5786  0BA0  0CEC               	rrf	(??___fldiv^(0+128)+1),f
  5787  0BA1  0CEB               	rrf	??___fldiv^(0+128),f
  5788  0BA2                     u3650:
  5789  0BA2  0BEF               	decfsz	(??___fldiv+4)^(0+128),f
  5790  0BA3  2B9D               	goto	u3655
  5791  0BA4  086E               	movf	(??___fldiv+3)^(0+128),w
  5792  0BA5  00EA               	movwf	(___fldiv@b+3)^(0+128)
  5793  0BA6  086D               	movf	(??___fldiv+2)^(0+128),w
  5794  0BA7  00E9               	movwf	(___fldiv@b+2)^(0+128)
  5795  0BA8  086C               	movf	(??___fldiv+1)^(0+128),w
  5796  0BA9  00E8               	movwf	(___fldiv@b+1)^(0+128)
  5797  0BAA  086B               	movf	??___fldiv^(0+128),w
  5798  0BAB  00E7               	movwf	___fldiv@b^(0+128)
  5799  0BAC                     l2895:
  5800  0BAC  3001               	movlw	1
  5801  0BAD  1683               	bsf	3,5	;RP0=1, select bank3
  5802  0BAE  1703               	bsf	3,6	;RP1=1, select bank3
  5803  0BAF  0795               	addwf	___fldiv@new_exp^(0+384),f
  5804  0BB0  1803               	skipnc
  5805  0BB1  0A96               	incf	(___fldiv@new_exp+1)^(0+384),f
  5806  0BB2  3000               	movlw	0
  5807  0BB3  0796               	addwf	(___fldiv@new_exp+1)^(0+384),f
  5808  0BB4                     l2897:
  5809  0BB4  1683               	bsf	3,5	;RP0=1, select bank3
  5810  0BB5  1703               	bsf	3,6	;RP1=1, select bank3
  5811  0BB6  0816               	movf	(___fldiv@new_exp+1)^(0+384),w
  5812  0BB7  3A80               	xorlw	128
  5813  0BB8  00FF               	movwf	btemp+1
  5814  0BB9  3080               	movlw	128
  5815  0BBA  027F               	subwf	btemp+1,w
  5816  0BBB  1D03               	skipz
  5817  0BBC  2BBF               	goto	u3665
  5818  0BBD  30FF               	movlw	255
  5819  0BBE  0215               	subwf	___fldiv@new_exp^(0+384),w
  5820  0BBF                     u3665:
  5821  0BBF  1C03               	skipc
  5822  0BC0  2BC2               	goto	u3661
  5823  0BC1  2BC3               	goto	u3660
  5824  0BC2                     u3661:
  5825  0BC2  2BD3               	goto	l2901
  5826  0BC3                     u3660:
  5827  0BC3                     l2899:
  5828  0BC3  30FF               	movlw	255
  5829  0BC4  1683               	bsf	3,5	;RP0=1, select bank3
  5830  0BC5  1703               	bsf	3,6	;RP1=1, select bank3
  5831  0BC6  0095               	movwf	___fldiv@new_exp^(0+384)
  5832  0BC7  3000               	movlw	0
  5833  0BC8  0096               	movwf	(___fldiv@new_exp^(0+384)+1)
  5834  0BC9  3000               	movlw	0
  5835  0BCA  1683               	bsf	3,5	;RP0=1, select bank1
  5836  0BCB  1303               	bcf	3,6	;RP1=0, select bank1
  5837  0BCC  00EA               	movwf	(___fldiv@b+3)^(0+128)
  5838  0BCD  3000               	movlw	0
  5839  0BCE  00E9               	movwf	(___fldiv@b+2)^(0+128)
  5840  0BCF  3000               	movlw	0
  5841  0BD0  00E8               	movwf	(___fldiv@b+1)^(0+128)
  5842  0BD1  3000               	movlw	0
  5843  0BD2  00E7               	movwf	___fldiv@b^(0+128)
  5844  0BD3                     l2901:
  5845  0BD3  1683               	bsf	3,5	;RP0=1, select bank3
  5846  0BD4  1703               	bsf	3,6	;RP1=1, select bank3
  5847  0BD5  0816               	movf	(___fldiv@new_exp+1)^(0+384),w
  5848  0BD6  3A80               	xorlw	128
  5849  0BD7  00FF               	movwf	btemp+1
  5850  0BD8  3080               	movlw	128
  5851  0BD9  027F               	subwf	btemp+1,w
  5852  0BDA  1D03               	skipz
  5853  0BDB  2BDE               	goto	u3675
  5854  0BDC  3001               	movlw	1
  5855  0BDD  0215               	subwf	___fldiv@new_exp^(0+384),w
  5856  0BDE                     u3675:
  5857  0BDE  1803               	skipnc
  5858  0BDF  2BE1               	goto	u3671
  5859  0BE0  2BE2               	goto	u3670
  5860  0BE1                     u3671:
  5861  0BE1  2BF3               	goto	l681
  5862  0BE2                     u3670:
  5863  0BE2                     l2903:
  5864  0BE2  1683               	bsf	3,5	;RP0=1, select bank3
  5865  0BE3  1703               	bsf	3,6	;RP1=1, select bank3
  5866  0BE4  0195               	clrf	___fldiv@new_exp^(0+384)
  5867  0BE5  0196               	clrf	(___fldiv@new_exp+1)^(0+384)
  5868  0BE6                     l2905:
  5869  0BE6  3000               	movlw	0
  5870  0BE7  1683               	bsf	3,5	;RP0=1, select bank1
  5871  0BE8  1303               	bcf	3,6	;RP1=0, select bank1
  5872  0BE9  00EA               	movwf	(___fldiv@b+3)^(0+128)
  5873  0BEA  3000               	movlw	0
  5874  0BEB  00E9               	movwf	(___fldiv@b+2)^(0+128)
  5875  0BEC  3000               	movlw	0
  5876  0BED  00E8               	movwf	(___fldiv@b+1)^(0+128)
  5877  0BEE  3000               	movlw	0
  5878  0BEF  00E7               	movwf	___fldiv@b^(0+128)
  5879  0BF0                     l2907:
  5880  0BF0  1683               	bsf	3,5	;RP0=1, select bank3
  5881  0BF1  1703               	bsf	3,6	;RP1=1, select bank3
  5882  0BF2  0194               	clrf	___fldiv@sign^(0+384)
  5883  0BF3                     l681:
  5884  0BF3  1683               	bsf	3,5	;RP0=1, select bank3
  5885  0BF4  1703               	bsf	3,6	;RP1=1, select bank3
  5886  0BF5  0815               	movf	___fldiv@new_exp^(0+384),w
  5887  0BF6  1683               	bsf	3,5	;RP0=1, select bank1
  5888  0BF7  1303               	bcf	3,6	;RP1=0, select bank1
  5889  0BF8  00EB               	movwf	??___fldiv^(0+128)
  5890  0BF9  086B               	movf	??___fldiv^(0+128),w
  5891  0BFA  1683               	bsf	3,5	;RP0=1, select bank3
  5892  0BFB  1703               	bsf	3,6	;RP1=1, select bank3
  5893  0BFC  009B               	movwf	___fldiv@bexp^(0+384)
  5894  0BFD                     l2909:
  5895  0BFD  1C1B               	btfss	___fldiv@bexp^(0+384),0
  5896  0BFE  2C00               	goto	u3681
  5897  0BFF  2C01               	goto	u3680
  5898  0C00                     u3681:
  5899  0C00  2C05               	goto	l2913
  5900  0C01                     u3680:
  5901  0C01                     l2911:
  5902  0C01  1683               	bsf	3,5	;RP0=1, select bank1
  5903  0C02  1303               	bcf	3,6	;RP1=0, select bank1
  5904  0C03  17E9               	bsf	(___fldiv@b^(0+128)+2),7
  5905  0C04  2C0B               	goto	l683
  5906  0C05                     l2913:
  5907  0C05  307F               	movlw	127
  5908  0C06  1683               	bsf	3,5	;RP0=1, select bank1
  5909  0C07  1303               	bcf	3,6	;RP1=0, select bank1
  5910  0C08  00EB               	movwf	??___fldiv^(0+128)
  5911  0C09  086B               	movf	??___fldiv^(0+128),w
  5912  0C0A  05E9               	andwf	(___fldiv@b^(0+128)+2),f
  5913  0C0B                     l683:
  5914  0C0B  1683               	bsf	3,5	;RP0=1, select bank3
  5915  0C0C  1703               	bsf	3,6	;RP1=1, select bank3
  5916  0C0D  081B               	movf	___fldiv@bexp^(0+384),w
  5917  0C0E  1683               	bsf	3,5	;RP0=1, select bank1
  5918  0C0F  1303               	bcf	3,6	;RP1=0, select bank1
  5919  0C10  00EB               	movwf	??___fldiv^(0+128)
  5920  0C11  1003               	clrc
  5921  0C12  0C6B               	rrf	??___fldiv^(0+128),w
  5922  0C13  00EC               	movwf	(??___fldiv+1)^(0+128)
  5923  0C14  086C               	movf	(??___fldiv+1)^(0+128),w
  5924  0C15  00EA               	movwf	(___fldiv@b^(0+128)+3)
  5925  0C16  1683               	bsf	3,5	;RP0=1, select bank3
  5926  0C17  1703               	bsf	3,6	;RP1=1, select bank3
  5927  0C18  0814               	movf	___fldiv@sign^(0+384),w
  5928  0C19  1683               	bsf	3,5	;RP0=1, select bank1
  5929  0C1A  1303               	bcf	3,6	;RP1=0, select bank1
  5930  0C1B  00EB               	movwf	??___fldiv^(0+128)
  5931  0C1C  086B               	movf	??___fldiv^(0+128),w
  5932  0C1D  04EA               	iorwf	(___fldiv@b^(0+128)+3),f
  5933  0C1E  2A1A               	goto	l2821
  5934  0C1F                     l661:
  5935  0C1F  0008               	return
  5936  0C20                     __end_of___fldiv:
  5937                           
  5938                           	psect	text13
  5939  08BC                     __ptext13:	
  5940 ;; *************** function ___awmod *****************
  5941 ;; Defined at:
  5942 ;;		line 5 in file "C:\Program Files\Microchip\xc8\v2.31\pic\sources\c90\common\awmod.c"
  5943 ;; Parameters:    Size  Location     Type
  5944 ;;  divisor         2   27[BANK0 ] int 
  5945 ;;  dividend        2   29[BANK0 ] int 
  5946 ;; Auto vars:     Size  Location     Type
  5947 ;;  sign            1   33[BANK0 ] unsigned char 
  5948 ;;  counter         1   32[BANK0 ] unsigned char 
  5949 ;; Return value:  Size  Location     Type
  5950 ;;                  2   27[BANK0 ] int 
  5951 ;; Registers used:
  5952 ;;		wreg, status,2, status,0
  5953 ;; Tracked objects:
  5954 ;;		On entry : 0/0
  5955 ;;		On exit  : 0/0
  5956 ;;		Unchanged: 0/0
  5957 ;; Data sizes:     COMMON   BANK0   BANK1   BANK3   BANK2
  5958 ;;      Params:         0       4       0       0       0
  5959 ;;      Locals:         0       2       0       0       0
  5960 ;;      Temps:          0       1       0       0       0
  5961 ;;      Totals:         0       7       0       0       0
  5962 ;;Total ram usage:        7 bytes
  5963 ;; Hardware stack levels used:    1
  5964 ;; Hardware stack levels required when called:    4
  5965 ;; This function calls:
  5966 ;;		Nothing
  5967 ;; This function is called by:
  5968 ;;		_main
  5969 ;; This function uses a non-reentrant model
  5970 ;;
  5971                           
  5972                           
  5973                           ;psect for function ___awmod
  5974  08BC                     ___awmod:
  5975  08BC                     l2131:	
  5976                           ;incstack = 0
  5977                           ; Regs used in ___awmod: [wreg+status,2+status,0]
  5978                           
  5979  08BC  1283               	bcf	3,5	;RP0=0, select bank0
  5980  08BD  1303               	bcf	3,6	;RP1=0, select bank0
  5981  08BE  01C1               	clrf	___awmod@sign
  5982  08BF                     l2133:
  5983  08BF  1FBE               	btfss	___awmod@dividend+1,7
  5984  08C0  28C2               	goto	u2131
  5985  08C1  28C3               	goto	u2130
  5986  08C2                     u2131:
  5987  08C2  28CA               	goto	l2139
  5988  08C3                     u2130:
  5989  08C3                     l2135:
  5990  08C3  09BD               	comf	___awmod@dividend,f
  5991  08C4  09BE               	comf	___awmod@dividend+1,f
  5992  08C5  0ABD               	incf	___awmod@dividend,f
  5993  08C6  1903               	skipnz
  5994  08C7  0ABE               	incf	___awmod@dividend+1,f
  5995  08C8                     l2137:
  5996  08C8  01C1               	clrf	___awmod@sign
  5997  08C9  0AC1               	incf	___awmod@sign,f
  5998  08CA                     l2139:
  5999  08CA  1FBC               	btfss	___awmod@divisor+1,7
  6000  08CB  28CD               	goto	u2141
  6001  08CC  28CE               	goto	u2140
  6002  08CD                     u2141:
  6003  08CD  28D3               	goto	l2143
  6004  08CE                     u2140:
  6005  08CE                     l2141:
  6006  08CE  09BB               	comf	___awmod@divisor,f
  6007  08CF  09BC               	comf	___awmod@divisor+1,f
  6008  08D0  0ABB               	incf	___awmod@divisor,f
  6009  08D1  1903               	skipnz
  6010  08D2  0ABC               	incf	___awmod@divisor+1,f
  6011  08D3                     l2143:
  6012  08D3  083B               	movf	___awmod@divisor,w
  6013  08D4  043C               	iorwf	___awmod@divisor+1,w
  6014  08D5  1903               	btfsc	3,2
  6015  08D6  28D8               	goto	u2151
  6016  08D7  28D9               	goto	u2150
  6017  08D8                     u2151:
  6018  08D8  2908               	goto	l2161
  6019  08D9                     u2150:
  6020  08D9                     l2145:
  6021  08D9  01C0               	clrf	___awmod@counter
  6022  08DA  0AC0               	incf	___awmod@counter,f
  6023  08DB  28E7               	goto	l2151
  6024  08DC                     l2147:
  6025  08DC  3001               	movlw	1
  6026  08DD                     u2165:
  6027  08DD  1003               	clrc
  6028  08DE  0DBB               	rlf	___awmod@divisor,f
  6029  08DF  0DBC               	rlf	___awmod@divisor+1,f
  6030  08E0  3EFF               	addlw	-1
  6031  08E1  1D03               	skipz
  6032  08E2  28DD               	goto	u2165
  6033  08E3                     l2149:
  6034  08E3  3001               	movlw	1
  6035  08E4  00BF               	movwf	??___awmod
  6036  08E5  083F               	movf	??___awmod,w
  6037  08E6  07C0               	addwf	___awmod@counter,f
  6038  08E7                     l2151:
  6039  08E7  1FBC               	btfss	___awmod@divisor+1,7
  6040  08E8  28EA               	goto	u2171
  6041  08E9  28EB               	goto	u2170
  6042  08EA                     u2171:
  6043  08EA  28DC               	goto	l2147
  6044  08EB                     u2170:
  6045  08EB                     l2153:
  6046  08EB  083C               	movf	___awmod@divisor+1,w
  6047  08EC  023E               	subwf	___awmod@dividend+1,w
  6048  08ED  1D03               	skipz
  6049  08EE  28F1               	goto	u2185
  6050  08EF  083B               	movf	___awmod@divisor,w
  6051  08F0  023D               	subwf	___awmod@dividend,w
  6052  08F1                     u2185:
  6053  08F1  1C03               	skipc
  6054  08F2  28F4               	goto	u2181
  6055  08F3  28F5               	goto	u2180
  6056  08F4                     u2181:
  6057  08F4  28FB               	goto	l2157
  6058  08F5                     u2180:
  6059  08F5                     l2155:
  6060  08F5  083B               	movf	___awmod@divisor,w
  6061  08F6  02BD               	subwf	___awmod@dividend,f
  6062  08F7  083C               	movf	___awmod@divisor+1,w
  6063  08F8  1C03               	skipc
  6064  08F9  03BE               	decf	___awmod@dividend+1,f
  6065  08FA  02BE               	subwf	___awmod@dividend+1,f
  6066  08FB                     l2157:
  6067  08FB  3001               	movlw	1
  6068  08FC                     u2195:
  6069  08FC  1003               	clrc
  6070  08FD  0CBC               	rrf	___awmod@divisor+1,f
  6071  08FE  0CBB               	rrf	___awmod@divisor,f
  6072  08FF  3EFF               	addlw	-1
  6073  0900  1D03               	skipz
  6074  0901  28FC               	goto	u2195
  6075  0902                     l2159:
  6076  0902  3001               	movlw	1
  6077  0903  02C0               	subwf	___awmod@counter,f
  6078  0904  1D03               	btfss	3,2
  6079  0905  2907               	goto	u2201
  6080  0906  2908               	goto	u2200
  6081  0907                     u2201:
  6082  0907  28EB               	goto	l2153
  6083  0908                     u2200:
  6084  0908                     l2161:
  6085  0908  0841               	movf	___awmod@sign,w
  6086  0909  1903               	btfsc	3,2
  6087  090A  290C               	goto	u2211
  6088  090B  290D               	goto	u2210
  6089  090C                     u2211:
  6090  090C  2912               	goto	l2165
  6091  090D                     u2210:
  6092  090D                     l2163:
  6093  090D  09BD               	comf	___awmod@dividend,f
  6094  090E  09BE               	comf	___awmod@dividend+1,f
  6095  090F  0ABD               	incf	___awmod@dividend,f
  6096  0910  1903               	skipnz
  6097  0911  0ABE               	incf	___awmod@dividend+1,f
  6098  0912                     l2165:
  6099  0912  083E               	movf	___awmod@dividend+1,w
  6100  0913  00BC               	movwf	?___awmod+1
  6101  0914  083D               	movf	___awmod@dividend,w
  6102  0915  00BB               	movwf	?___awmod
  6103  0916                     l476:
  6104  0916  0008               	return
  6105  0917                     __end_of___awmod:
  6106                           
  6107                           	psect	text14
  6108  0917                     __ptext14:	
  6109 ;; *************** function ___awdiv *****************
  6110 ;; Defined at:
  6111 ;;		line 5 in file "C:\Program Files\Microchip\xc8\v2.31\pic\sources\c90\common\awdiv.c"
  6112 ;; Parameters:    Size  Location     Type
  6113 ;;  divisor         2   18[BANK0 ] int 
  6114 ;;  dividend        2   20[BANK0 ] int 
  6115 ;; Auto vars:     Size  Location     Type
  6116 ;;  quotient        2   25[BANK0 ] int 
  6117 ;;  sign            1   24[BANK0 ] unsigned char 
  6118 ;;  counter         1   23[BANK0 ] unsigned char 
  6119 ;; Return value:  Size  Location     Type
  6120 ;;                  2   18[BANK0 ] int 
  6121 ;; Registers used:
  6122 ;;		wreg, status,2, status,0
  6123 ;; Tracked objects:
  6124 ;;		On entry : 0/0
  6125 ;;		On exit  : 0/0
  6126 ;;		Unchanged: 0/0
  6127 ;; Data sizes:     COMMON   BANK0   BANK1   BANK3   BANK2
  6128 ;;      Params:         0       4       0       0       0
  6129 ;;      Locals:         0       4       0       0       0
  6130 ;;      Temps:          0       1       0       0       0
  6131 ;;      Totals:         0       9       0       0       0
  6132 ;;Total ram usage:        9 bytes
  6133 ;; Hardware stack levels used:    1
  6134 ;; Hardware stack levels required when called:    4
  6135 ;; This function calls:
  6136 ;;		Nothing
  6137 ;; This function is called by:
  6138 ;;		_main
  6139 ;; This function uses a non-reentrant model
  6140 ;;
  6141                           
  6142                           
  6143                           ;psect for function ___awdiv
  6144  0917                     ___awdiv:
  6145  0917                     l2087:	
  6146                           ;incstack = 0
  6147                           ; Regs used in ___awdiv: [wreg+status,2+status,0]
  6148                           
  6149  0917  1283               	bcf	3,5	;RP0=0, select bank0
  6150  0918  1303               	bcf	3,6	;RP1=0, select bank0
  6151  0919  01B8               	clrf	___awdiv@sign
  6152  091A                     l2089:
  6153  091A  1FB3               	btfss	___awdiv@divisor+1,7
  6154  091B  291D               	goto	u2031
  6155  091C  291E               	goto	u2030
  6156  091D                     u2031:
  6157  091D  2925               	goto	l2095
  6158  091E                     u2030:
  6159  091E                     l2091:
  6160  091E  09B2               	comf	___awdiv@divisor,f
  6161  091F  09B3               	comf	___awdiv@divisor+1,f
  6162  0920  0AB2               	incf	___awdiv@divisor,f
  6163  0921  1903               	skipnz
  6164  0922  0AB3               	incf	___awdiv@divisor+1,f
  6165  0923                     l2093:
  6166  0923  01B8               	clrf	___awdiv@sign
  6167  0924  0AB8               	incf	___awdiv@sign,f
  6168  0925                     l2095:
  6169  0925  1FB5               	btfss	___awdiv@dividend+1,7
  6170  0926  2928               	goto	u2041
  6171  0927  2929               	goto	u2040
  6172  0928                     u2041:
  6173  0928  2932               	goto	l2101
  6174  0929                     u2040:
  6175  0929                     l2097:
  6176  0929  09B4               	comf	___awdiv@dividend,f
  6177  092A  09B5               	comf	___awdiv@dividend+1,f
  6178  092B  0AB4               	incf	___awdiv@dividend,f
  6179  092C  1903               	skipnz
  6180  092D  0AB5               	incf	___awdiv@dividend+1,f
  6181  092E                     l2099:
  6182  092E  3001               	movlw	1
  6183  092F  00B6               	movwf	??___awdiv
  6184  0930  0836               	movf	??___awdiv,w
  6185  0931  06B8               	xorwf	___awdiv@sign,f
  6186  0932                     l2101:
  6187  0932  01B9               	clrf	___awdiv@quotient
  6188  0933  01BA               	clrf	___awdiv@quotient+1
  6189  0934                     l2103:
  6190  0934  0832               	movf	___awdiv@divisor,w
  6191  0935  0433               	iorwf	___awdiv@divisor+1,w
  6192  0936  1903               	btfsc	3,2
  6193  0937  2939               	goto	u2051
  6194  0938  293A               	goto	u2050
  6195  0939                     u2051:
  6196  0939  2971               	goto	l2123
  6197  093A                     u2050:
  6198  093A                     l2105:
  6199  093A  01B7               	clrf	___awdiv@counter
  6200  093B  0AB7               	incf	___awdiv@counter,f
  6201  093C  2948               	goto	l2111
  6202  093D                     l2107:
  6203  093D  3001               	movlw	1
  6204  093E                     u2065:
  6205  093E  1003               	clrc
  6206  093F  0DB2               	rlf	___awdiv@divisor,f
  6207  0940  0DB3               	rlf	___awdiv@divisor+1,f
  6208  0941  3EFF               	addlw	-1
  6209  0942  1D03               	skipz
  6210  0943  293E               	goto	u2065
  6211  0944                     l2109:
  6212  0944  3001               	movlw	1
  6213  0945  00B6               	movwf	??___awdiv
  6214  0946  0836               	movf	??___awdiv,w
  6215  0947  07B7               	addwf	___awdiv@counter,f
  6216  0948                     l2111:
  6217  0948  1FB3               	btfss	___awdiv@divisor+1,7
  6218  0949  294B               	goto	u2071
  6219  094A  294C               	goto	u2070
  6220  094B                     u2071:
  6221  094B  293D               	goto	l2107
  6222  094C                     u2070:
  6223  094C                     l2113:
  6224  094C  3001               	movlw	1
  6225  094D                     u2085:
  6226  094D  1003               	clrc
  6227  094E  0DB9               	rlf	___awdiv@quotient,f
  6228  094F  0DBA               	rlf	___awdiv@quotient+1,f
  6229  0950  3EFF               	addlw	-1
  6230  0951  1D03               	skipz
  6231  0952  294D               	goto	u2085
  6232  0953  0833               	movf	___awdiv@divisor+1,w
  6233  0954  0235               	subwf	___awdiv@dividend+1,w
  6234  0955  1D03               	skipz
  6235  0956  2959               	goto	u2095
  6236  0957  0832               	movf	___awdiv@divisor,w
  6237  0958  0234               	subwf	___awdiv@dividend,w
  6238  0959                     u2095:
  6239  0959  1C03               	skipc
  6240  095A  295C               	goto	u2091
  6241  095B  295D               	goto	u2090
  6242  095C                     u2091:
  6243  095C  2964               	goto	l2119
  6244  095D                     u2090:
  6245  095D                     l2115:
  6246  095D  0832               	movf	___awdiv@divisor,w
  6247  095E  02B4               	subwf	___awdiv@dividend,f
  6248  095F  0833               	movf	___awdiv@divisor+1,w
  6249  0960  1C03               	skipc
  6250  0961  03B5               	decf	___awdiv@dividend+1,f
  6251  0962  02B5               	subwf	___awdiv@dividend+1,f
  6252  0963                     l2117:
  6253  0963  1439               	bsf	___awdiv@quotient,0
  6254  0964                     l2119:
  6255  0964  3001               	movlw	1
  6256  0965                     u2105:
  6257  0965  1003               	clrc
  6258  0966  0CB3               	rrf	___awdiv@divisor+1,f
  6259  0967  0CB2               	rrf	___awdiv@divisor,f
  6260  0968  3EFF               	addlw	-1
  6261  0969  1D03               	skipz
  6262  096A  2965               	goto	u2105
  6263  096B                     l2121:
  6264  096B  3001               	movlw	1
  6265  096C  02B7               	subwf	___awdiv@counter,f
  6266  096D  1D03               	btfss	3,2
  6267  096E  2970               	goto	u2111
  6268  096F  2971               	goto	u2110
  6269  0970                     u2111:
  6270  0970  294C               	goto	l2113
  6271  0971                     u2110:
  6272  0971                     l2123:
  6273  0971  0838               	movf	___awdiv@sign,w
  6274  0972  1903               	btfsc	3,2
  6275  0973  2975               	goto	u2121
  6276  0974  2976               	goto	u2120
  6277  0975                     u2121:
  6278  0975  297B               	goto	l2127
  6279  0976                     u2120:
  6280  0976                     l2125:
  6281  0976  09B9               	comf	___awdiv@quotient,f
  6282  0977  09BA               	comf	___awdiv@quotient+1,f
  6283  0978  0AB9               	incf	___awdiv@quotient,f
  6284  0979  1903               	skipnz
  6285  097A  0ABA               	incf	___awdiv@quotient+1,f
  6286  097B                     l2127:
  6287  097B  083A               	movf	___awdiv@quotient+1,w
  6288  097C  00B3               	movwf	?___awdiv+1
  6289  097D  0839               	movf	___awdiv@quotient,w
  6290  097E  00B2               	movwf	?___awdiv
  6291  097F                     l463:
  6292  097F  0008               	return
  6293  0980                     __end_of___awdiv:
  6294                           
  6295                           	psect	text15
  6296  15C8                     __ptext15:	
  6297 ;; *************** function _UART_Write *****************
  6298 ;; Defined at:
  6299 ;;		line 35 in file "UART.c"
  6300 ;; Parameters:    Size  Location     Type
  6301 ;;  a               1    wreg     unsigned char 
  6302 ;; Auto vars:     Size  Location     Type
  6303 ;;  a               1   18[BANK0 ] unsigned char 
  6304 ;; Return value:  Size  Location     Type
  6305 ;;                  1    wreg      void 
  6306 ;; Registers used:
  6307 ;;		wreg
  6308 ;; Tracked objects:
  6309 ;;		On entry : 0/0
  6310 ;;		On exit  : 0/0
  6311 ;;		Unchanged: 0/0
  6312 ;; Data sizes:     COMMON   BANK0   BANK1   BANK3   BANK2
  6313 ;;      Params:         0       0       0       0       0
  6314 ;;      Locals:         0       1       0       0       0
  6315 ;;      Temps:          0       0       0       0       0
  6316 ;;      Totals:         0       1       0       0       0
  6317 ;;Total ram usage:        1 bytes
  6318 ;; Hardware stack levels used:    1
  6319 ;; Hardware stack levels required when called:    4
  6320 ;; This function calls:
  6321 ;;		Nothing
  6322 ;; This function is called by:
  6323 ;;		_main
  6324 ;; This function uses a non-reentrant model
  6325 ;;
  6326                           
  6327                           
  6328                           ;psect for function _UART_Write
  6329  15C8                     _UART_Write:
  6330                           
  6331                           ;incstack = 0
  6332                           ; Regs used in _UART_Write: [wreg]
  6333                           ;UART_Write@a stored from wreg
  6334  15C8  1283               	bcf	3,5	;RP0=0, select bank0
  6335  15C9  1303               	bcf	3,6	;RP1=0, select bank0
  6336  15CA  00B2               	movwf	UART_Write@a
  6337  15CB                     l2083:
  6338  15CB                     l221:	
  6339                           ;UART.c: 36:   while(!TRMT);
  6340                           
  6341  15CB  1683               	bsf	3,5	;RP0=1, select bank1
  6342  15CC  1303               	bcf	3,6	;RP1=0, select bank1
  6343  15CD  1C98               	btfss	24,1	;volatile
  6344  15CE  2DD0               	goto	u2021
  6345  15CF  2DD1               	goto	u2020
  6346  15D0                     u2021:
  6347  15D0  2DCB               	goto	l221
  6348  15D1                     u2020:
  6349  15D1                     l2085:
  6350                           
  6351                           ;UART.c: 37:   TXREG = a;
  6352  15D1  1283               	bcf	3,5	;RP0=0, select bank0
  6353  15D2  1303               	bcf	3,6	;RP1=0, select bank0
  6354  15D3  0832               	movf	UART_Write@a,w
  6355  15D4  0099               	movwf	25	;volatile
  6356  15D5                     l224:
  6357  15D5  0008               	return
  6358  15D6                     __end_of_UART_Write:
  6359                           
  6360                           	psect	text16
  6361  15E9                     __ptext16:	
  6362 ;; *************** function _SERIAL_Init *****************
  6363 ;; Defined at:
  6364 ;;		line 8 in file "UART.c"
  6365 ;; Parameters:    Size  Location     Type
  6366 ;;		None
  6367 ;; Auto vars:     Size  Location     Type
  6368 ;;		None
  6369 ;; Return value:  Size  Location     Type
  6370 ;;                  1    wreg      void 
  6371 ;; Registers used:
  6372 ;;		wreg
  6373 ;; Tracked objects:
  6374 ;;		On entry : 0/0
  6375 ;;		On exit  : 0/0
  6376 ;;		Unchanged: 0/0
  6377 ;; Data sizes:     COMMON   BANK0   BANK1   BANK3   BANK2
  6378 ;;      Params:         0       0       0       0       0
  6379 ;;      Locals:         0       0       0       0       0
  6380 ;;      Temps:          0       0       0       0       0
  6381 ;;      Totals:         0       0       0       0       0
  6382 ;;Total ram usage:        0 bytes
  6383 ;; Hardware stack levels used:    1
  6384 ;; Hardware stack levels required when called:    4
  6385 ;; This function calls:
  6386 ;;		Nothing
  6387 ;; This function is called by:
  6388 ;;		_main
  6389 ;; This function uses a non-reentrant model
  6390 ;;
  6391                           
  6392                           
  6393                           ;psect for function _SERIAL_Init
  6394  15E9                     _SERIAL_Init:
  6395  15E9                     l2019:	
  6396                           ;incstack = 0
  6397                           ; Regs used in _SERIAL_Init: [wreg]
  6398                           
  6399                           
  6400                           ;UART.c: 9:     SPBRG = 25;
  6401  15E9  3019               	movlw	25
  6402  15EA  1683               	bsf	3,5	;RP0=1, select bank1
  6403  15EB  1303               	bcf	3,6	;RP1=0, select bank1
  6404  15EC  0099               	movwf	25	;volatile
  6405  15ED                     l2021:
  6406                           
  6407                           ;UART.c: 11:     TXSTAbits.BRGH = 1;
  6408  15ED  1518               	bsf	24,2	;volatile
  6409  15EE                     l2023:
  6410                           
  6411                           ;UART.c: 12:     TXSTAbits.TXEN = 1;
  6412  15EE  1698               	bsf	24,5	;volatile
  6413  15EF                     l2025:
  6414                           
  6415                           ;UART.c: 13:     TXSTAbits.SYNC = 0;
  6416  15EF  1218               	bcf	24,4	;volatile
  6417  15F0                     l2027:
  6418                           
  6419                           ;UART.c: 14:     TXSTAbits.TX9 = 0;
  6420  15F0  1318               	bcf	24,6	;volatile
  6421  15F1                     l2029:
  6422                           
  6423                           ;UART.c: 16:     RCSTAbits.CREN = 1;
  6424  15F1  1283               	bcf	3,5	;RP0=0, select bank0
  6425  15F2  1303               	bcf	3,6	;RP1=0, select bank0
  6426  15F3  1618               	bsf	24,4	;volatile
  6427  15F4                     l2031:
  6428                           
  6429                           ;UART.c: 17:     RCSTAbits.SPEN = 1;
  6430  15F4  1798               	bsf	24,7	;volatile
  6431  15F5                     l2033:
  6432                           
  6433                           ;UART.c: 18:     RCSTAbits.RX9 = 0;
  6434  15F5  1318               	bcf	24,6	;volatile
  6435  15F6                     l2035:
  6436                           
  6437                           ;UART.c: 20:     PIE1bits.RCIE = 1;
  6438  15F6  1683               	bsf	3,5	;RP0=1, select bank1
  6439  15F7  1303               	bcf	3,6	;RP1=0, select bank1
  6440  15F8  168C               	bsf	12,5	;volatile
  6441  15F9                     l2037:
  6442                           
  6443                           ;UART.c: 21:     INTCONbits.PEIE = 1;
  6444  15F9  170B               	bsf	11,6	;volatile
  6445  15FA                     l2039:
  6446                           
  6447                           ;UART.c: 22:     INTCONbits.GIE = 1;
  6448  15FA  178B               	bsf	11,7	;volatile
  6449  15FB                     l209:
  6450  15FB  0008               	return
  6451  15FC                     __end_of_SERIAL_Init:
  6452                           
  6453                           	psect	text17
  6454  165C                     __ptext17:	
  6455 ;; *************** function _Lcd_Write_String *****************
  6456 ;; Defined at:
  6457 ;;		line 83 in file "LCD.c"
  6458 ;; Parameters:    Size  Location     Type
  6459 ;;  a               2   21[BANK0 ] PTR unsigned char 
  6460 ;;		 -> STR_5(2), STR_4(2), POT2SC(5), POT1SC(5), 
  6461 ;;		 -> STR_1(17), COMPARE(5), 
  6462 ;; Auto vars:     Size  Location     Type
  6463 ;;		None
  6464 ;; Return value:  Size  Location     Type
  6465 ;;                  1    wreg      void 
  6466 ;; Registers used:
  6467 ;;		wreg, fsr0l, fsr0h, status,2, status,0, btemp+1, pclath, cstack
  6468 ;; Tracked objects:
  6469 ;;		On entry : 0/0
  6470 ;;		On exit  : 0/0
  6471 ;;		Unchanged: 0/0
  6472 ;; Data sizes:     COMMON   BANK0   BANK1   BANK3   BANK2
  6473 ;;      Params:         0       2       0       0       0
  6474 ;;      Locals:         0       0       0       0       0
  6475 ;;      Temps:          0       0       0       0       0
  6476 ;;      Totals:         0       2       0       0       0
  6477 ;;Total ram usage:        2 bytes
  6478 ;; Hardware stack levels used:    1
  6479 ;; Hardware stack levels required when called:    5
  6480 ;; This function calls:
  6481 ;;		_Lcd_Write_Char
  6482 ;; This function is called by:
  6483 ;;		_main
  6484 ;; This function uses a non-reentrant model
  6485 ;;
  6486                           
  6487                           
  6488                           ;psect for function _Lcd_Write_String
  6489  165C                     _Lcd_Write_String:
  6490  165C                     l2043:	
  6491                           ;incstack = 0
  6492                           ; Regs used in _Lcd_Write_String: [wreg-fsr0h+status,2+status,0+btemp+1+pclath+cstack]
  6493                           
  6494                           
  6495                           ;LCD.c: 84:     while(*a != 0)
  6496  165C  2E73               	goto	l2049
  6497  165D                     l2045:
  6498                           
  6499                           ;LCD.c: 85:         Lcd_Write_Char(*a++);
  6500  165D  0836               	movf	Lcd_Write_String@a+1,w
  6501  165E  00FF               	movwf	btemp+1
  6502  165F  0835               	movf	Lcd_Write_String@a,w
  6503  1660  0084               	movwf	4
  6504  1661  160A  118A  2000  160A  118A  	fcall	stringtab
  6505  1666  160A  118A  27BD  160A  118A  	fcall	_Lcd_Write_Char
  6506  166B                     l2047:
  6507  166B  3001               	movlw	1
  6508  166C  1283               	bcf	3,5	;RP0=0, select bank0
  6509  166D  1303               	bcf	3,6	;RP1=0, select bank0
  6510  166E  07B5               	addwf	Lcd_Write_String@a,f
  6511  166F  1803               	skipnc
  6512  1670  0AB6               	incf	Lcd_Write_String@a+1,f
  6513  1671  3000               	movlw	0
  6514  1672  07B6               	addwf	Lcd_Write_String@a+1,f
  6515  1673                     l2049:
  6516                           
  6517                           ;LCD.c: 84:     while(*a != 0)
  6518  1673  1283               	bcf	3,5	;RP0=0, select bank0
  6519  1674  1303               	bcf	3,6	;RP1=0, select bank0
  6520  1675  0836               	movf	Lcd_Write_String@a+1,w
  6521  1676  00FF               	movwf	btemp+1
  6522  1677  0835               	movf	Lcd_Write_String@a,w
  6523  1678  0084               	movwf	4
  6524  1679  160A  118A  2000  160A  118A  	fcall	stringtab
  6525  167E  3A00               	xorlw	0
  6526  167F  1D03               	skipz
  6527  1680  2E82               	goto	u1981
  6528  1681  2E83               	goto	u1980
  6529  1682                     u1981:
  6530  1682  2E5D               	goto	l2045
  6531  1683                     u1980:
  6532  1683                     l161:
  6533  1683  0008               	return
  6534  1684                     __end_of_Lcd_Write_String:
  6535                           
  6536                           	psect	text18
  6537  17BD                     __ptext18:	
  6538 ;; *************** function _Lcd_Write_Char *****************
  6539 ;; Defined at:
  6540 ;;		line 60 in file "LCD.c"
  6541 ;; Parameters:    Size  Location     Type
  6542 ;;  a               1    wreg     unsigned char 
  6543 ;; Auto vars:     Size  Location     Type
  6544 ;;  a               1   20[BANK0 ] unsigned char 
  6545 ;; Return value:  Size  Location     Type
  6546 ;;                  1    wreg      void 
  6547 ;; Registers used:
  6548 ;;		wreg, status,2, status,0
  6549 ;; Tracked objects:
  6550 ;;		On entry : 0/0
  6551 ;;		On exit  : 0/0
  6552 ;;		Unchanged: 0/0
  6553 ;; Data sizes:     COMMON   BANK0   BANK1   BANK3   BANK2
  6554 ;;      Params:         0       0       0       0       0
  6555 ;;      Locals:         0       1       0       0       0
  6556 ;;      Temps:          0       2       0       0       0
  6557 ;;      Totals:         0       3       0       0       0
  6558 ;;Total ram usage:        3 bytes
  6559 ;; Hardware stack levels used:    1
  6560 ;; Hardware stack levels required when called:    4
  6561 ;; This function calls:
  6562 ;;		Nothing
  6563 ;; This function is called by:
  6564 ;;		_Lcd_Write_String
  6565 ;; This function uses a non-reentrant model
  6566 ;;
  6567                           
  6568                           
  6569                           ;psect for function _Lcd_Write_Char
  6570  17BD                     _Lcd_Write_Char:
  6571                           
  6572                           ;incstack = 0
  6573                           ; Regs used in _Lcd_Write_Char: [wreg+status,2+status,0]
  6574                           ;Lcd_Write_Char@a stored from wreg
  6575  17BD  1283               	bcf	3,5	;RP0=0, select bank0
  6576  17BE  1303               	bcf	3,6	;RP1=0, select bank0
  6577  17BF  00B4               	movwf	Lcd_Write_Char@a
  6578  17C0                     l1879:
  6579                           
  6580                           ;LCD.c: 61:     PORTD = 0xFF;
  6581  17C0  30FF               	movlw	255
  6582  17C1  0088               	movwf	8	;volatile
  6583  17C2                     l1881:
  6584                           
  6585                           ;LCD.c: 62:     PORTD &= 0x80;
  6586  17C2  3080               	movlw	128
  6587  17C3  00B2               	movwf	??_Lcd_Write_Char
  6588  17C4  0832               	movf	??_Lcd_Write_Char,w
  6589  17C5  0588               	andwf	8,f	;volatile
  6590  17C6                     l1883:
  6591                           
  6592                           ;LCD.c: 63:     RE0 = 0;
  6593  17C6  1009               	bcf	9,0	;volatile
  6594  17C7                     l1885:
  6595                           
  6596                           ;LCD.c: 64:     RE1 = 1;
  6597  17C7  1489               	bsf	9,1	;volatile
  6598  17C8                     l1887:
  6599                           
  6600                           ;LCD.c: 65:     RE2 = 0;
  6601  17C8  1109               	bcf	9,2	;volatile
  6602  17C9                     l1889:
  6603                           
  6604                           ;LCD.c: 66:     _delay((unsigned long)((30)*(4000000/4000.0)));
  6605  17C9  3027               	movlw	39
  6606  17CA  1283               	bcf	3,5	;RP0=0, select bank0
  6607  17CB  1303               	bcf	3,6	;RP1=0, select bank0
  6608  17CC  00B3               	movwf	??_Lcd_Write_Char+1
  6609  17CD  30F4               	movlw	244
  6610  17CE  00B2               	movwf	??_Lcd_Write_Char
  6611  17CF                     u4127:
  6612  17CF  0BB2               	decfsz	??_Lcd_Write_Char,f
  6613  17D0  2FCF               	goto	u4127
  6614  17D1  0BB3               	decfsz	??_Lcd_Write_Char+1,f
  6615  17D2  2FCF               	goto	u4127
  6616  17D3  0000               	nop
  6617  17D4                     l1891:
  6618                           
  6619                           ;LCD.c: 67:     RE2 = 1;
  6620  17D4  1283               	bcf	3,5	;RP0=0, select bank0
  6621  17D5  1303               	bcf	3,6	;RP1=0, select bank0
  6622  17D6  1509               	bsf	9,2	;volatile
  6623                           
  6624                           ;LCD.c: 68:     if (PORTD == 0x80){
  6625  17D7  3080               	movlw	128
  6626  17D8  0608               	xorwf	8,w	;volatile
  6627  17D9  1D03               	btfss	3,2
  6628  17DA  2FDC               	goto	u1871
  6629  17DB  2FDD               	goto	u1870
  6630  17DC                     u1871:
  6631  17DC  2FEC               	goto	l1899
  6632  17DD                     u1870:
  6633  17DD                     l1893:
  6634                           
  6635                           ;LCD.c: 69:     RE2 = 0;
  6636  17DD  1109               	bcf	9,2	;volatile
  6637  17DE                     l1895:
  6638                           
  6639                           ;LCD.c: 70:     _delay((unsigned long)((30)*(4000000/4000.0)));
  6640  17DE  3027               	movlw	39
  6641  17DF  1283               	bcf	3,5	;RP0=0, select bank0
  6642  17E0  1303               	bcf	3,6	;RP1=0, select bank0
  6643  17E1  00B3               	movwf	??_Lcd_Write_Char+1
  6644  17E2  30F4               	movlw	244
  6645  17E3  00B2               	movwf	??_Lcd_Write_Char
  6646  17E4                     u4137:
  6647  17E4  0BB2               	decfsz	??_Lcd_Write_Char,f
  6648  17E5  2FE4               	goto	u4137
  6649  17E6  0BB3               	decfsz	??_Lcd_Write_Char+1,f
  6650  17E7  2FE4               	goto	u4137
  6651  17E8  0000               	nop
  6652  17E9                     l1897:
  6653                           
  6654                           ;LCD.c: 71:     RE2 = 1;
  6655  17E9  1283               	bcf	3,5	;RP0=0, select bank0
  6656  17EA  1303               	bcf	3,6	;RP1=0, select bank0
  6657  17EB  1509               	bsf	9,2	;volatile
  6658  17EC                     l1899:	
  6659                           ;LCD.c: 72:     }
  6660                           
  6661                           
  6662                           ;LCD.c: 75:     PORTD = a;
  6663  17EC  0834               	movf	Lcd_Write_Char@a,w
  6664  17ED  0088               	movwf	8	;volatile
  6665  17EE                     l1901:
  6666                           
  6667                           ;LCD.c: 76:     RE0 = 1;
  6668  17EE  1409               	bsf	9,0	;volatile
  6669  17EF                     l1903:
  6670                           
  6671                           ;LCD.c: 77:     RE1 = 0;
  6672  17EF  1089               	bcf	9,1	;volatile
  6673  17F0                     l1905:
  6674                           
  6675                           ;LCD.c: 78:     RE2 = 1;
  6676  17F0  1509               	bsf	9,2	;volatile
  6677                           
  6678                           ;LCD.c: 79:     _delay((unsigned long)((30)*(4000000/4000.0)));
  6679  17F1  3027               	movlw	39
  6680  17F2  1283               	bcf	3,5	;RP0=0, select bank0
  6681  17F3  1303               	bcf	3,6	;RP1=0, select bank0
  6682  17F4  00B3               	movwf	??_Lcd_Write_Char+1
  6683  17F5  30F4               	movlw	244
  6684  17F6  00B2               	movwf	??_Lcd_Write_Char
  6685  17F7                     u4147:
  6686  17F7  0BB2               	decfsz	??_Lcd_Write_Char,f
  6687  17F8  2FF7               	goto	u4147
  6688  17F9  0BB3               	decfsz	??_Lcd_Write_Char+1,f
  6689  17FA  2FF7               	goto	u4147
  6690  17FB  0000               	nop
  6691  17FC                     l1907:
  6692                           
  6693                           ;LCD.c: 80:     RE2 = 0;
  6694  17FC  1283               	bcf	3,5	;RP0=0, select bank0
  6695  17FD  1303               	bcf	3,6	;RP1=0, select bank0
  6696  17FE  1109               	bcf	9,2	;volatile
  6697  17FF                     l155:
  6698  17FF  0008               	return
  6699  1800                     __end_of_Lcd_Write_Char:
  6700                           
  6701                           	psect	text19
  6702  161A                     __ptext19:	
  6703 ;; *************** function _Lcd_Init *****************
  6704 ;; Defined at:
  6705 ;;		line 52 in file "LCD.c"
  6706 ;; Parameters:    Size  Location     Type
  6707 ;;		None
  6708 ;; Auto vars:     Size  Location     Type
  6709 ;;		None
  6710 ;; Return value:  Size  Location     Type
  6711 ;;                  1    wreg      void 
  6712 ;; Registers used:
  6713 ;;		wreg, status,2, status,0, pclath, cstack
  6714 ;; Tracked objects:
  6715 ;;		On entry : 0/0
  6716 ;;		On exit  : 0/0
  6717 ;;		Unchanged: 0/0
  6718 ;; Data sizes:     COMMON   BANK0   BANK1   BANK3   BANK2
  6719 ;;      Params:         0       0       0       0       0
  6720 ;;      Locals:         0       0       0       0       0
  6721 ;;      Temps:          0       0       0       0       0
  6722 ;;      Totals:         0       0       0       0       0
  6723 ;;Total ram usage:        0 bytes
  6724 ;; Hardware stack levels used:    1
  6725 ;; Hardware stack levels required when called:    5
  6726 ;; This function calls:
  6727 ;;		_Lcd_Cmd
  6728 ;; This function is called by:
  6729 ;;		_main
  6730 ;; This function uses a non-reentrant model
  6731 ;;
  6732                           
  6733                           
  6734                           ;psect for function _Lcd_Init
  6735  161A                     _Lcd_Init:
  6736  161A                     l2017:	
  6737                           ;incstack = 0
  6738                           ; Regs used in _Lcd_Init: [wreg+status,2+status,0+pclath+cstack]
  6739                           
  6740                           
  6741                           ;LCD.c: 53:     Lcd_Cmd(0x38);
  6742  161A  3038               	movlw	56
  6743  161B  160A  118A  277A  160A  118A  	fcall	_Lcd_Cmd
  6744                           
  6745                           ;LCD.c: 54:     Lcd_Cmd(0x0C);
  6746  1620  300C               	movlw	12
  6747  1621  160A  118A  277A  160A  118A  	fcall	_Lcd_Cmd
  6748                           
  6749                           ;LCD.c: 55:     Lcd_Cmd(0x01);
  6750  1626  3001               	movlw	1
  6751  1627  160A  118A  277A  160A  118A  	fcall	_Lcd_Cmd
  6752                           
  6753                           ;LCD.c: 56:     Lcd_Cmd(0x06);
  6754  162C  3006               	movlw	6
  6755  162D  160A  118A  277A  160A  118A  	fcall	_Lcd_Cmd
  6756                           
  6757                           ;LCD.c: 57:     Lcd_Cmd(0x80);
  6758  1632  3080               	movlw	128
  6759  1633  160A  118A  277A  160A  118A  	fcall	_Lcd_Cmd
  6760  1638                     l150:
  6761  1638  0008               	return
  6762  1639                     __end_of_Lcd_Init:
  6763                           
  6764                           	psect	text20
  6765  177A                     __ptext20:	
  6766 ;; *************** function _Lcd_Cmd *****************
  6767 ;; Defined at:
  6768 ;;		line 13 in file "LCD.c"
  6769 ;; Parameters:    Size  Location     Type
  6770 ;;  a               1    wreg     unsigned char 
  6771 ;; Auto vars:     Size  Location     Type
  6772 ;;  a               1   20[BANK0 ] unsigned char 
  6773 ;; Return value:  Size  Location     Type
  6774 ;;                  1    wreg      void 
  6775 ;; Registers used:
  6776 ;;		wreg, status,2, status,0
  6777 ;; Tracked objects:
  6778 ;;		On entry : 0/0
  6779 ;;		On exit  : 0/0
  6780 ;;		Unchanged: 0/0
  6781 ;; Data sizes:     COMMON   BANK0   BANK1   BANK3   BANK2
  6782 ;;      Params:         0       0       0       0       0
  6783 ;;      Locals:         0       1       0       0       0
  6784 ;;      Temps:          0       2       0       0       0
  6785 ;;      Totals:         0       3       0       0       0
  6786 ;;Total ram usage:        3 bytes
  6787 ;; Hardware stack levels used:    1
  6788 ;; Hardware stack levels required when called:    4
  6789 ;; This function calls:
  6790 ;;		Nothing
  6791 ;; This function is called by:
  6792 ;;		_main
  6793 ;;		_Lcd_Init
  6794 ;;		_Lcd_Clear
  6795 ;;		_Lcd_Set_Cursor
  6796 ;;		_Lcd_Shift_Right
  6797 ;;		_Lcd_Shift_Left
  6798 ;; This function uses a non-reentrant model
  6799 ;;
  6800                           
  6801                           
  6802                           ;psect for function _Lcd_Cmd
  6803  177A                     _Lcd_Cmd:
  6804                           
  6805                           ;incstack = 0
  6806                           ; Regs used in _Lcd_Cmd: [wreg+status,2+status,0]
  6807                           ;Lcd_Cmd@a stored from wreg
  6808  177A  1283               	bcf	3,5	;RP0=0, select bank0
  6809  177B  1303               	bcf	3,6	;RP1=0, select bank0
  6810  177C  00B4               	movwf	Lcd_Cmd@a
  6811  177D                     l1849:
  6812                           
  6813                           ;LCD.c: 14:  PORTD = 0xFF;
  6814  177D  30FF               	movlw	255
  6815  177E  0088               	movwf	8	;volatile
  6816  177F                     l1851:
  6817                           
  6818                           ;LCD.c: 15:     PORTD &= 0x80;
  6819  177F  3080               	movlw	128
  6820  1780  00B2               	movwf	??_Lcd_Cmd
  6821  1781  0832               	movf	??_Lcd_Cmd,w
  6822  1782  0588               	andwf	8,f	;volatile
  6823  1783                     l1853:
  6824                           
  6825                           ;LCD.c: 16:     RE0 = 0;
  6826  1783  1009               	bcf	9,0	;volatile
  6827  1784                     l1855:
  6828                           
  6829                           ;LCD.c: 17:     RE1 = 1;
  6830  1784  1489               	bsf	9,1	;volatile
  6831  1785                     l1857:
  6832                           
  6833                           ;LCD.c: 18:     RE2 = 0;
  6834  1785  1109               	bcf	9,2	;volatile
  6835  1786                     l1859:
  6836                           
  6837                           ;LCD.c: 19:     _delay((unsigned long)((30)*(4000000/4000.0)));
  6838  1786  3027               	movlw	39
  6839  1787  1283               	bcf	3,5	;RP0=0, select bank0
  6840  1788  1303               	bcf	3,6	;RP1=0, select bank0
  6841  1789  00B3               	movwf	??_Lcd_Cmd+1
  6842  178A  30F4               	movlw	244
  6843  178B  00B2               	movwf	??_Lcd_Cmd
  6844  178C                     u4157:
  6845  178C  0BB2               	decfsz	??_Lcd_Cmd,f
  6846  178D  2F8C               	goto	u4157
  6847  178E  0BB3               	decfsz	??_Lcd_Cmd+1,f
  6848  178F  2F8C               	goto	u4157
  6849  1790  0000               	nop
  6850  1791                     l1861:
  6851                           
  6852                           ;LCD.c: 20:     RE2 = 1;
  6853  1791  1283               	bcf	3,5	;RP0=0, select bank0
  6854  1792  1303               	bcf	3,6	;RP1=0, select bank0
  6855  1793  1509               	bsf	9,2	;volatile
  6856                           
  6857                           ;LCD.c: 21:     if (PORTD == 0x80){
  6858  1794  3080               	movlw	128
  6859  1795  0608               	xorwf	8,w	;volatile
  6860  1796  1D03               	btfss	3,2
  6861  1797  2F99               	goto	u1861
  6862  1798  2F9A               	goto	u1860
  6863  1799                     u1861:
  6864  1799  2FA9               	goto	l1869
  6865  179A                     u1860:
  6866  179A                     l1863:
  6867                           
  6868                           ;LCD.c: 22:     RE2 = 0;
  6869  179A  1109               	bcf	9,2	;volatile
  6870  179B                     l1865:
  6871                           
  6872                           ;LCD.c: 23:     _delay((unsigned long)((30)*(4000000/4000.0)));
  6873  179B  3027               	movlw	39
  6874  179C  1283               	bcf	3,5	;RP0=0, select bank0
  6875  179D  1303               	bcf	3,6	;RP1=0, select bank0
  6876  179E  00B3               	movwf	??_Lcd_Cmd+1
  6877  179F  30F4               	movlw	244
  6878  17A0  00B2               	movwf	??_Lcd_Cmd
  6879  17A1                     u4167:
  6880  17A1  0BB2               	decfsz	??_Lcd_Cmd,f
  6881  17A2  2FA1               	goto	u4167
  6882  17A3  0BB3               	decfsz	??_Lcd_Cmd+1,f
  6883  17A4  2FA1               	goto	u4167
  6884  17A5  0000               	nop
  6885  17A6                     l1867:
  6886                           
  6887                           ;LCD.c: 24:     RE2 = 1;
  6888  17A6  1283               	bcf	3,5	;RP0=0, select bank0
  6889  17A7  1303               	bcf	3,6	;RP1=0, select bank0
  6890  17A8  1509               	bsf	9,2	;volatile
  6891  17A9                     l1869:	
  6892                           ;LCD.c: 25:     }
  6893                           
  6894                           
  6895                           ;LCD.c: 28:     PORTD = a;
  6896  17A9  0834               	movf	Lcd_Cmd@a,w
  6897  17AA  0088               	movwf	8	;volatile
  6898  17AB                     l1871:
  6899                           
  6900                           ;LCD.c: 29:     RE0 = 0;
  6901  17AB  1009               	bcf	9,0	;volatile
  6902  17AC                     l1873:
  6903                           
  6904                           ;LCD.c: 30:     RE1 = 0;
  6905  17AC  1089               	bcf	9,1	;volatile
  6906  17AD                     l1875:
  6907                           
  6908                           ;LCD.c: 31:     RE2 = 1;
  6909  17AD  1509               	bsf	9,2	;volatile
  6910                           
  6911                           ;LCD.c: 32:     _delay((unsigned long)((30)*(4000000/4000.0)));
  6912  17AE  3027               	movlw	39
  6913  17AF  1283               	bcf	3,5	;RP0=0, select bank0
  6914  17B0  1303               	bcf	3,6	;RP1=0, select bank0
  6915  17B1  00B3               	movwf	??_Lcd_Cmd+1
  6916  17B2  30F4               	movlw	244
  6917  17B3  00B2               	movwf	??_Lcd_Cmd
  6918  17B4                     u4177:
  6919  17B4  0BB2               	decfsz	??_Lcd_Cmd,f
  6920  17B5  2FB4               	goto	u4177
  6921  17B6  0BB3               	decfsz	??_Lcd_Cmd+1,f
  6922  17B7  2FB4               	goto	u4177
  6923  17B8  0000               	nop
  6924  17B9                     l1877:
  6925                           
  6926                           ;LCD.c: 33:     RE2 = 0;
  6927  17B9  1283               	bcf	3,5	;RP0=0, select bank0
  6928  17BA  1303               	bcf	3,6	;RP1=0, select bank0
  6929  17BB  1109               	bcf	9,2	;volatile
  6930  17BC                     l138:
  6931  17BC  0008               	return
  6932  17BD                     __end_of_Lcd_Cmd:
  6933                           
  6934                           	psect	text21
  6935  15D6                     __ptext21:	
  6936 ;; *************** function _ADC_Read *****************
  6937 ;; Defined at:
  6938 ;;		line 22 in file "ADC.c"
  6939 ;; Parameters:    Size  Location     Type
  6940 ;;  a               2   18[BANK0 ] int 
  6941 ;;  b               2   20[BANK0 ] int 
  6942 ;; Auto vars:     Size  Location     Type
  6943 ;;		None
  6944 ;; Return value:  Size  Location     Type
  6945 ;;                  1    wreg      unsigned char 
  6946 ;; Registers used:
  6947 ;;		wreg, status,0
  6948 ;; Tracked objects:
  6949 ;;		On entry : 0/0
  6950 ;;		On exit  : 0/0
  6951 ;;		Unchanged: 0/0
  6952 ;; Data sizes:     COMMON   BANK0   BANK1   BANK3   BANK2
  6953 ;;      Params:         0       4       0       0       0
  6954 ;;      Locals:         0       0       0       0       0
  6955 ;;      Temps:          0       0       0       0       0
  6956 ;;      Totals:         0       4       0       0       0
  6957 ;;Total ram usage:        4 bytes
  6958 ;; Hardware stack levels used:    1
  6959 ;; Hardware stack levels required when called:    4
  6960 ;; This function calls:
  6961 ;;		Nothing
  6962 ;; This function is called by:
  6963 ;;		_main
  6964 ;; This function uses a non-reentrant model
  6965 ;;
  6966                           
  6967                           
  6968                           ;psect for function _ADC_Read
  6969  15D6                     _ADC_Read:
  6970  15D6                     l2051:	
  6971                           ;incstack = 0
  6972                           ; Regs used in _ADC_Read: [wreg+status,0]
  6973                           
  6974                           
  6975                           ;ADC.c: 23:     ADCON0bits.CHS0 = a;
  6976  15D6  1283               	bcf	3,5	;RP0=0, select bank0
  6977  15D7  1303               	bcf	3,6	;RP1=0, select bank0
  6978  15D8  0C32               	rrf	ADC_Read@a,w
  6979  15D9  1C03               	skipc
  6980  15DA  111F               	bcf	31,2	;volatile
  6981  15DB  1803               	skipnc
  6982  15DC  151F               	bsf	31,2	;volatile
  6983                           
  6984                           ;ADC.c: 24:     ADCON0bits.CHS1 = b;
  6985  15DD  0C34               	rrf	ADC_Read@b,w
  6986  15DE  1C03               	skipc
  6987  15DF  119F               	bcf	31,3	;volatile
  6988  15E0  1803               	skipnc
  6989  15E1  159F               	bsf	31,3	;volatile
  6990  15E2                     l2053:
  6991                           
  6992                           ;ADC.c: 25:     ADCON0bits.CHS2 = 0;
  6993  15E2  121F               	bcf	31,4	;volatile
  6994  15E3                     l2055:
  6995                           
  6996                           ;ADC.c: 26:     ADCON0bits.CHS3 = 0;
  6997  15E3  129F               	bcf	31,5	;volatile
  6998  15E4                     l2057:
  6999                           
  7000                           ;ADC.c: 27:     ADCON0bits.ADON = 1;
  7001  15E4  141F               	bsf	31,0	;volatile
  7002  15E5                     l2059:
  7003                           
  7004                           ;ADC.c: 28:     ADCON0bits.GO = 1;
  7005  15E5  149F               	bsf	31,1	;volatile
  7006  15E6                     l2061:
  7007                           
  7008                           ;ADC.c: 29:     PIR1bits.ADIF = 0;
  7009  15E6  130C               	bcf	12,6	;volatile
  7010  15E7                     l2063:
  7011                           
  7012                           ;ADC.c: 30:     return(ADRESH);
  7013  15E7  081E               	movf	30,w	;volatile
  7014  15E8                     l188:
  7015  15E8  0008               	return
  7016  15E9                     __end_of_ADC_Read:
  7017                           
  7018                           	psect	text22
  7019  15BD                     __ptext22:	
  7020 ;; *************** function _ADC_Init *****************
  7021 ;; Defined at:
  7022 ;;		line 13 in file "ADC.c"
  7023 ;; Parameters:    Size  Location     Type
  7024 ;;		None
  7025 ;; Auto vars:     Size  Location     Type
  7026 ;;		None
  7027 ;; Return value:  Size  Location     Type
  7028 ;;                  1    wreg      void 
  7029 ;; Registers used:
  7030 ;;		None
  7031 ;; Tracked objects:
  7032 ;;		On entry : 0/0
  7033 ;;		On exit  : 0/0
  7034 ;;		Unchanged: 0/0
  7035 ;; Data sizes:     COMMON   BANK0   BANK1   BANK3   BANK2
  7036 ;;      Params:         0       0       0       0       0
  7037 ;;      Locals:         0       0       0       0       0
  7038 ;;      Temps:          0       0       0       0       0
  7039 ;;      Totals:         0       0       0       0       0
  7040 ;;Total ram usage:        0 bytes
  7041 ;; Hardware stack levels used:    1
  7042 ;; Hardware stack levels required when called:    4
  7043 ;; This function calls:
  7044 ;;		Nothing
  7045 ;; This function is called by:
  7046 ;;		_main
  7047 ;; This function uses a non-reentrant model
  7048 ;;
  7049                           
  7050                           
  7051                           ;psect for function _ADC_Init
  7052  15BD                     _ADC_Init:
  7053  15BD                     l2041:	
  7054                           ;incstack = 0
  7055                           ; Regs used in _ADC_Init: []
  7056                           
  7057                           
  7058                           ;ADC.c: 14:     ADCON0bits.ADCS0 = 1;
  7059  15BD  1283               	bcf	3,5	;RP0=0, select bank0
  7060  15BE  1303               	bcf	3,6	;RP1=0, select bank0
  7061  15BF  171F               	bsf	31,6	;volatile
  7062                           
  7063                           ;ADC.c: 15:     ADCON0bits.ADCS1 = 0;
  7064  15C0  139F               	bcf	31,7	;volatile
  7065                           
  7066                           ;ADC.c: 16:     ADCON0bits.ADON = 1;
  7067  15C1  141F               	bsf	31,0	;volatile
  7068                           
  7069                           ;ADC.c: 17:     ADCON1bits.ADFM = 0;
  7070  15C2  1683               	bsf	3,5	;RP0=1, select bank1
  7071  15C3  1303               	bcf	3,6	;RP1=0, select bank1
  7072  15C4  139F               	bcf	31,7	;volatile
  7073                           
  7074                           ;ADC.c: 18:     ADCON1bits.VCFG0 = 0;
  7075  15C5  121F               	bcf	31,4	;volatile
  7076                           
  7077                           ;ADC.c: 19:     ADCON1bits.VCFG1 = 0;
  7078  15C6  129F               	bcf	31,5	;volatile
  7079  15C7                     l185:
  7080  15C7  0008               	return
  7081  15C8                     __end_of_ADC_Init:
  7082                           
  7083                           	psect	text23
  7084  07C8                     __ptext23:	
  7085 ;; *************** function _ISR *****************
  7086 ;; Defined at:
  7087 ;;		line 87 in file "LAB3.c"
  7088 ;; Parameters:    Size  Location     Type
  7089 ;;		None
  7090 ;; Auto vars:     Size  Location     Type
  7091 ;;		None
  7092 ;; Return value:  Size  Location     Type
  7093 ;;                  1    wreg      void 
  7094 ;; Registers used:
  7095 ;;		wreg, fsr0l, fsr0h, status,2, status,0, pclath, cstack
  7096 ;; Tracked objects:
  7097 ;;		On entry : 0/0
  7098 ;;		On exit  : 0/0
  7099 ;;		Unchanged: 0/0
  7100 ;; Data sizes:     COMMON   BANK0   BANK1   BANK3   BANK2
  7101 ;;      Params:         0       0       0       0       0
  7102 ;;      Locals:         0       0       0       0       0
  7103 ;;      Temps:          0       5       0       0       0
  7104 ;;      Totals:         0       5       0       0       0
  7105 ;;Total ram usage:        5 bytes
  7106 ;; Hardware stack levels used:    1
  7107 ;; Hardware stack levels required when called:    3
  7108 ;; This function calls:
  7109 ;;		_CONTADOR
  7110 ;;		i1_itoa
  7111 ;; This function is called by:
  7112 ;;		Interrupt level 1
  7113 ;; This function uses a non-reentrant model
  7114 ;;
  7115                           
  7116                           
  7117                           ;psect for function _ISR
  7118  07C8                     _ISR:
  7119  07C8                     i1l3073:
  7120                           
  7121                           ;LAB3.c: 88:     if (RCIF==1){
  7122  07C8  1E8C               	btfss	12,5	;volatile
  7123  07C9  2FCB               	goto	u407_21
  7124  07CA  2FCC               	goto	u407_20
  7125  07CB                     u407_21:
  7126  07CB  2FF2               	goto	i1l108
  7127  07CC                     u407_20:
  7128  07CC                     i1l3075:
  7129                           
  7130                           ;LAB3.c: 89:         O = CONTADOR ((int)RCREG);
  7131  07CC  081A               	movf	26,w	;volatile
  7132  07CD  00AD               	movwf	??_ISR
  7133  07CE  01AE               	clrf	??_ISR+1
  7134  07CF  082D               	movf	??_ISR,w
  7135  07D0  00F0               	movwf	CONTADOR@n
  7136  07D1  082E               	movf	??_ISR+1,w
  7137  07D2  00F1               	movwf	CONTADOR@n+1
  7138  07D3  160A  118A  25B2  120A  118A  	fcall	_CONTADOR
  7139  07D8  0871               	movf	?_CONTADOR+1,w
  7140  07D9  1283               	bcf	3,5	;RP0=0, select bank0
  7141  07DA  1303               	bcf	3,6	;RP1=0, select bank0
  7142  07DB  00DA               	movwf	_O+1
  7143  07DC  0870               	movf	?_CONTADOR,w
  7144  07DD  00D9               	movwf	_O
  7145  07DE                     i1l3077:
  7146                           
  7147                           ;LAB3.c: 90:         itoa(COMPARE,O,10);
  7148  07DE  30A1               	movlw	(low (_COMPARE| (0+256)))& (0+255)
  7149  07DF  00A4               	movwf	i1itoa@buf
  7150  07E0  3001               	movlw	1
  7151  07E1  00A5               	movwf	i1itoa@buf+1
  7152  07E2  085A               	movf	_O+1,w
  7153  07E3  00A7               	movwf	i1itoa@val+1
  7154  07E4  0859               	movf	_O,w
  7155  07E5  00A6               	movwf	i1itoa@val
  7156  07E6  300A               	movlw	10
  7157  07E7  00A8               	movwf	i1itoa@base
  7158  07E8  3000               	movlw	0
  7159  07E9  00A9               	movwf	i1itoa@base+1
  7160  07EA  160A  118A  26D8  120A  118A  	fcall	i1_itoa
  7161  07EF                     i1l3079:
  7162                           
  7163                           ;LAB3.c: 91:         RCIF=0;
  7164  07EF  1283               	bcf	3,5	;RP0=0, select bank0
  7165  07F0  1303               	bcf	3,6	;RP1=0, select bank0
  7166  07F1  128C               	bcf	12,5	;volatile
  7167  07F2                     i1l108:
  7168  07F2  0831               	movf	??_ISR+4,w
  7169  07F3  008A               	movwf	10
  7170  07F4  0830               	movf	??_ISR+3,w
  7171  07F5  0084               	movwf	4
  7172  07F6  0E2F               	swapf	??_ISR+2,w
  7173  07F7  0083               	movwf	3
  7174  07F8  0EFE               	swapf	btemp,f
  7175  07F9  0E7E               	swapf	btemp,w
  7176  07FA  0009               	retfie
  7177  07FB                     __end_of_ISR:
  7178                           
  7179                           	psect	intentry
  7180  0004                     __pintentry:	
  7181                           ;incstack = 0
  7182                           ; Regs used in _ISR: [wreg-fsr0h+status,2+status,0+pclath+cstack]
  7183                           
  7184  0004                     interrupt_function:
  7185  007E                     saved_w	set	btemp
  7186  0004  00FE               	movwf	btemp
  7187  0005  0E03               	swapf	3,w
  7188  0006  1283               	bcf	3,5	;RP0=0, select bank0
  7189  0007  1303               	bcf	3,6	;RP1=0, select bank0
  7190  0008  00AF               	movwf	??_ISR+2
  7191  0009  0804               	movf	4,w
  7192  000A  00B0               	movwf	??_ISR+3
  7193  000B  080A               	movf	10,w
  7194  000C  00B1               	movwf	??_ISR+4
  7195  000D  120A  118A  2FC8   	ljmp	_ISR
  7196                           
  7197                           	psect	text24
  7198  16D8                     __ptext24:	
  7199 ;; *************** function i1_itoa *****************
  7200 ;; Defined at:
  7201 ;;		line 4 in file "C:\Program Files\Microchip\xc8\v2.31\pic\sources\c90\common\itoa.c"
  7202 ;; Parameters:    Size  Location     Type
  7203 ;;  buf             2    4[BANK0 ] PTR unsigned char 
  7204 ;;		 -> POT2SC(5), POT2SB(5), POT2SA(5), POT1SC(5), 
  7205 ;;		 -> POT1SB(5), POT1SA(5), COMPARE(5), 
  7206 ;;  val             2    6[BANK0 ] int 
  7207 ;;  base            2    8[BANK0 ] int 
  7208 ;; Auto vars:     Size  Location     Type
  7209 ;;  cp              2    0        PTR unsigned char 
  7210 ;;		 -> POT2SC(5), POT2SB(5), POT2SA(5), POT1SC(5), 
  7211 ;;		 -> POT1SB(5), POT1SA(5), COMPARE(5), 
  7212 ;; Return value:  Size  Location     Type
  7213 ;;                  1    wreg      PTR unsigned char 
  7214 ;; Registers used:
  7215 ;;		wreg, fsr0l, fsr0h, status,2, status,0, pclath, cstack
  7216 ;; Tracked objects:
  7217 ;;		On entry : 0/0
  7218 ;;		On exit  : 0/0
  7219 ;;		Unchanged: 0/0
  7220 ;; Data sizes:     COMMON   BANK0   BANK1   BANK3   BANK2
  7221 ;;      Params:         0       6       0       0       0
  7222 ;;      Locals:         0       2       0       0       0
  7223 ;;      Temps:          0       1       0       0       0
  7224 ;;      Totals:         0       9       0       0       0
  7225 ;;Total ram usage:        9 bytes
  7226 ;; Hardware stack levels used:    1
  7227 ;; Hardware stack levels required when called:    2
  7228 ;; This function calls:
  7229 ;;		i1_utoa
  7230 ;; This function is called by:
  7231 ;;		_ISR
  7232 ;; This function uses a non-reentrant model
  7233 ;;
  7234                           
  7235                           
  7236                           ;psect for function i1_itoa
  7237  16D8                     i1_itoa:
  7238  16D8                     i1l3059:	
  7239                           ;incstack = 0
  7240                           ; Regs used in i1_itoa: [wreg-fsr0h+status,2+status,0+pclath+cstack]
  7241                           
  7242  16D8                     i1l3061:
  7243  16D8  1283               	bcf	3,5	;RP0=0, select bank0
  7244  16D9  1303               	bcf	3,6	;RP1=0, select bank0
  7245  16DA  1FA7               	btfss	i1itoa@val+1,7
  7246  16DB  2EDD               	goto	u406_21
  7247  16DC  2EDE               	goto	u406_20
  7248  16DD                     u406_21:
  7249  16DD  2EF2               	goto	i1l3069
  7250  16DE                     u406_20:
  7251  16DE                     i1l3063:
  7252  16DE  302D               	movlw	45
  7253  16DF  00AA               	movwf	??i1_itoa
  7254  16E0  0824               	movf	i1itoa@buf,w
  7255  16E1  0084               	movwf	4
  7256  16E2  1783               	bsf	3,7
  7257  16E3  1C25               	btfss	i1itoa@buf+1,0
  7258  16E4  1383               	bcf	3,7
  7259  16E5  082A               	movf	??i1_itoa,w
  7260  16E6  0080               	movwf	0
  7261  16E7                     i1l3065:
  7262  16E7  3001               	movlw	1
  7263  16E8  07A4               	addwf	i1itoa@buf,f
  7264  16E9  1803               	skipnc
  7265  16EA  0AA5               	incf	i1itoa@buf+1,f
  7266  16EB  3000               	movlw	0
  7267  16EC  07A5               	addwf	i1itoa@buf+1,f
  7268  16ED                     i1l3067:
  7269  16ED  09A6               	comf	i1itoa@val,f
  7270  16EE  09A7               	comf	i1itoa@val+1,f
  7271  16EF  0AA6               	incf	i1itoa@val,f
  7272  16F0  1903               	skipnz
  7273  16F1  0AA7               	incf	i1itoa@val+1,f
  7274  16F2                     i1l3069:
  7275  16F2  0824               	movf	i1itoa@buf,w
  7276  16F3  00F8               	movwf	i1utoa@buf
  7277  16F4  0825               	movf	i1itoa@buf+1,w
  7278  16F5  00F9               	movwf	i1utoa@buf+1
  7279  16F6  0827               	movf	i1itoa@val+1,w
  7280  16F7  00FB               	movwf	i1utoa@val+1
  7281  16F8  0826               	movf	i1itoa@val,w
  7282  16F9  00FA               	movwf	i1utoa@val
  7283  16FA  0829               	movf	i1itoa@base+1,w
  7284  16FB  00FD               	movwf	i1utoa@base+1
  7285  16FC  0828               	movf	i1itoa@base,w
  7286  16FD  00FC               	movwf	i1utoa@base
  7287  16FE  120A  118A  26CB  160A  118A  	fcall	i1_utoa
  7288  1703                     i1l764:
  7289  1703  0008               	return
  7290  1704                     __end_ofi1_itoa:
  7291                           
  7292                           	psect	text25
  7293  06CB                     __ptext25:	
  7294 ;; *************** function i1_utoa *****************
  7295 ;; Defined at:
  7296 ;;		line 17 in file "C:\Program Files\Microchip\xc8\v2.31\pic\sources\c90\common\itoa.c"
  7297 ;; Parameters:    Size  Location     Type
  7298 ;;  buf             2    8[COMMON] PTR unsigned char 
  7299 ;;		 -> POT2SC(5), POT2SB(5), POT2SA(5), POT1SC(5), 
  7300 ;;		 -> POT1SB(5), POT1SA(5), COMPARE(5), 
  7301 ;;  val             2   10[COMMON] unsigned int 
  7302 ;;  base            2   12[COMMON] int 
  7303 ;; Auto vars:     Size  Location     Type
  7304 ;;  v               2    1[BANK0 ] unsigned int 
  7305 ;;  c               1    3[BANK0 ] unsigned char 
  7306 ;; Return value:  Size  Location     Type
  7307 ;;                  1    wreg      PTR unsigned char 
  7308 ;; Registers used:
  7309 ;;		wreg, fsr0l, fsr0h, status,2, status,0, pclath, cstack
  7310 ;; Tracked objects:
  7311 ;;		On entry : 0/0
  7312 ;;		On exit  : 0/0
  7313 ;;		Unchanged: 0/0
  7314 ;; Data sizes:     COMMON   BANK0   BANK1   BANK3   BANK2
  7315 ;;      Params:         6       0       0       0       0
  7316 ;;      Locals:         0       3       0       0       0
  7317 ;;      Temps:          0       1       0       0       0
  7318 ;;      Totals:         6       4       0       0       0
  7319 ;;Total ram usage:       10 bytes
  7320 ;; Hardware stack levels used:    1
  7321 ;; Hardware stack levels required when called:    1
  7322 ;; This function calls:
  7323 ;;		i1___lwdiv
  7324 ;;		i1___lwmod
  7325 ;; This function is called by:
  7326 ;;		i1_itoa
  7327 ;; This function uses a non-reentrant model
  7328 ;;
  7329                           
  7330                           
  7331                           ;psect for function i1_utoa
  7332  06CB                     i1_utoa:
  7333  06CB                     i1l2697:	
  7334                           ;incstack = 0
  7335                           ; Regs used in i1_utoa: [wreg-fsr0h+status,2+status,0+pclath+cstack]
  7336                           
  7337  06CB  087B               	movf	i1utoa@val+1,w
  7338  06CC  1283               	bcf	3,5	;RP0=0, select bank0
  7339  06CD  1303               	bcf	3,6	;RP1=0, select bank0
  7340  06CE  00A2               	movwf	i1utoa@v+1
  7341  06CF  087A               	movf	i1utoa@val,w
  7342  06D0  00A1               	movwf	i1utoa@v
  7343  06D1                     i1l2699:
  7344  06D1  087D               	movf	i1utoa@base+1,w
  7345  06D2  00F1               	movwf	i1___lwdiv@divisor+1
  7346  06D3  087C               	movf	i1utoa@base,w
  7347  06D4  00F0               	movwf	i1___lwdiv@divisor
  7348  06D5  0822               	movf	i1utoa@v+1,w
  7349  06D6  00F3               	movwf	i1___lwdiv@dividend+1
  7350  06D7  0821               	movf	i1utoa@v,w
  7351  06D8  00F2               	movwf	i1___lwdiv@dividend
  7352  06D9  120A  158A  2032  120A  118A  	fcall	i1___lwdiv
  7353  06DE  0871               	movf	?i1___lwdiv+1,w
  7354  06DF  1283               	bcf	3,5	;RP0=0, select bank0
  7355  06E0  1303               	bcf	3,6	;RP1=0, select bank0
  7356  06E1  00A2               	movwf	i1utoa@v+1
  7357  06E2  0870               	movf	?i1___lwdiv,w
  7358  06E3  00A1               	movwf	i1utoa@v
  7359  06E4                     i1l2701:
  7360  06E4  3001               	movlw	1
  7361  06E5  07F8               	addwf	i1utoa@buf,f
  7362  06E6  1803               	skipnc
  7363  06E7  0AF9               	incf	i1utoa@buf+1,f
  7364  06E8  3000               	movlw	0
  7365  06E9  07F9               	addwf	i1utoa@buf+1,f
  7366  06EA                     i1l2703:
  7367  06EA  0821               	movf	i1utoa@v,w
  7368  06EB  0422               	iorwf	i1utoa@v+1,w
  7369  06EC  1D03               	btfss	3,2
  7370  06ED  2EEF               	goto	u325_21
  7371  06EE  2EF0               	goto	u325_20
  7372  06EF                     u325_21:
  7373  06EF  2ED1               	goto	i1l2699
  7374  06F0                     u325_20:
  7375  06F0                     i1l2705:
  7376  06F0  0878               	movf	i1utoa@buf,w
  7377  06F1  0084               	movwf	4
  7378  06F2  1783               	bsf	3,7
  7379  06F3  1C79               	btfss	i1utoa@buf+1,0
  7380  06F4  1383               	bcf	3,7
  7381  06F5  0180               	clrf	0
  7382  06F6                     i1l2707:
  7383  06F6  3001               	movlw	1
  7384  06F7  02F8               	subwf	i1utoa@buf,f
  7385  06F8  3000               	movlw	0
  7386  06F9  1C03               	skipc
  7387  06FA  03F9               	decf	i1utoa@buf+1,f
  7388  06FB  02F9               	subwf	i1utoa@buf+1,f
  7389  06FC                     i1l2709:
  7390  06FC  087D               	movf	i1utoa@base+1,w
  7391  06FD  00F1               	movwf	i1___lwmod@divisor+1
  7392  06FE  087C               	movf	i1utoa@base,w
  7393  06FF  00F0               	movwf	i1___lwmod@divisor
  7394  0700  087B               	movf	i1utoa@val+1,w
  7395  0701  00F3               	movwf	i1___lwmod@dividend+1
  7396  0702  087A               	movf	i1utoa@val,w
  7397  0703  00F2               	movwf	i1___lwmod@dividend
  7398  0704  160A  118A  2704  120A  118A  	fcall	i1___lwmod
  7399  0709  0870               	movf	?i1___lwmod,w
  7400  070A  1283               	bcf	3,5	;RP0=0, select bank0
  7401  070B  1303               	bcf	3,6	;RP1=0, select bank0
  7402  070C  00A0               	movwf	??i1_utoa
  7403  070D  0820               	movf	??i1_utoa,w
  7404  070E  00A3               	movwf	i1utoa@c
  7405  070F                     i1l2711:
  7406  070F  087D               	movf	i1utoa@base+1,w
  7407  0710  00F1               	movwf	i1___lwdiv@divisor+1
  7408  0711  087C               	movf	i1utoa@base,w
  7409  0712  00F0               	movwf	i1___lwdiv@divisor
  7410  0713  087B               	movf	i1utoa@val+1,w
  7411  0714  00F3               	movwf	i1___lwdiv@dividend+1
  7412  0715  087A               	movf	i1utoa@val,w
  7413  0716  00F2               	movwf	i1___lwdiv@dividend
  7414  0717  120A  158A  2032  120A  118A  	fcall	i1___lwdiv
  7415  071C  0871               	movf	?i1___lwdiv+1,w
  7416  071D  00FB               	movwf	i1utoa@val+1
  7417  071E  0870               	movf	?i1___lwdiv,w
  7418  071F  00FA               	movwf	i1utoa@val
  7419  0720                     i1l2713:
  7420  0720  300A               	movlw	10
  7421  0721  1283               	bcf	3,5	;RP0=0, select bank0
  7422  0722  1303               	bcf	3,6	;RP1=0, select bank0
  7423  0723  0223               	subwf	i1utoa@c,w
  7424  0724  1C03               	skipc
  7425  0725  2F27               	goto	u326_21
  7426  0726  2F28               	goto	u326_20
  7427  0727                     u326_21:
  7428  0727  2F2C               	goto	i1l770
  7429  0728                     u326_20:
  7430  0728                     i1l2715:
  7431  0728  3007               	movlw	7
  7432  0729  00A0               	movwf	??i1_utoa
  7433  072A  0820               	movf	??i1_utoa,w
  7434  072B  07A3               	addwf	i1utoa@c,f
  7435  072C                     i1l770:
  7436  072C  3030               	movlw	48
  7437  072D  00A0               	movwf	??i1_utoa
  7438  072E  0820               	movf	??i1_utoa,w
  7439  072F  07A3               	addwf	i1utoa@c,f
  7440  0730                     i1l2717:
  7441  0730  0823               	movf	i1utoa@c,w
  7442  0731  00A0               	movwf	??i1_utoa
  7443  0732  0878               	movf	i1utoa@buf,w
  7444  0733  0084               	movwf	4
  7445  0734  1783               	bsf	3,7
  7446  0735  1C79               	btfss	i1utoa@buf+1,0
  7447  0736  1383               	bcf	3,7
  7448  0737  0820               	movf	??i1_utoa,w
  7449  0738  0080               	movwf	0
  7450  0739                     i1l2719:
  7451  0739  3001               	movlw	1
  7452  073A  02F8               	subwf	i1utoa@buf,f
  7453  073B  3000               	movlw	0
  7454  073C  1C03               	skipc
  7455  073D  03F9               	decf	i1utoa@buf+1,f
  7456  073E  02F9               	subwf	i1utoa@buf+1,f
  7457  073F                     i1l2721:
  7458  073F  087A               	movf	i1utoa@val,w
  7459  0740  047B               	iorwf	i1utoa@val+1,w
  7460  0741  1D03               	btfss	3,2
  7461  0742  2F44               	goto	u327_21
  7462  0743  2F45               	goto	u327_20
  7463  0744                     u327_21:
  7464  0744  2EFC               	goto	i1l2709
  7465  0745                     u327_20:
  7466  0745                     i1l2723:
  7467                           
  7468                           ;	Return value of i1_utoa is never used
  7469  0745  3001               	movlw	1
  7470  0746  07F8               	addwf	i1utoa@buf,f
  7471  0747  1803               	skipnc
  7472  0748  0AF9               	incf	i1utoa@buf+1,f
  7473  0749  3000               	movlw	0
  7474  074A  07F9               	addwf	i1utoa@buf+1,f
  7475  074B                     i1l772:
  7476  074B  0008               	return
  7477  074C                     __end_ofi1_utoa:
  7478                           
  7479                           	psect	text26
  7480  1704                     __ptext26:	
  7481 ;; *************** function i1___lwmod *****************
  7482 ;; Defined at:
  7483 ;;		line 5 in file "C:\Program Files\Microchip\xc8\v2.31\pic\sources\c90\common\lwmod.c"
  7484 ;; Parameters:    Size  Location     Type
  7485 ;;  divisor         2    0[COMMON] unsigned int 
  7486 ;;  dividend        2    2[COMMON] unsigned int 
  7487 ;; Auto vars:     Size  Location     Type
  7488 ;;  counter         1    5[COMMON] unsigned char 
  7489 ;; Return value:  Size  Location     Type
  7490 ;;                  2    0[COMMON] unsigned int 
  7491 ;; Registers used:
  7492 ;;		wreg, status,2, status,0
  7493 ;; Tracked objects:
  7494 ;;		On entry : 0/0
  7495 ;;		On exit  : 0/0
  7496 ;;		Unchanged: 0/0
  7497 ;; Data sizes:     COMMON   BANK0   BANK1   BANK3   BANK2
  7498 ;;      Params:         4       0       0       0       0
  7499 ;;      Locals:         1       0       0       0       0
  7500 ;;      Temps:          1       0       0       0       0
  7501 ;;      Totals:         6       0       0       0       0
  7502 ;;Total ram usage:        6 bytes
  7503 ;; Hardware stack levels used:    1
  7504 ;; This function calls:
  7505 ;;		Nothing
  7506 ;; This function is called by:
  7507 ;;		i1_utoa
  7508 ;; This function uses a non-reentrant model
  7509 ;;
  7510                           
  7511                           
  7512                           ;psect for function i1___lwmod
  7513  1704                     i1___lwmod:
  7514  1704                     i1l1827:	
  7515                           ;incstack = 0
  7516                           ; Regs used in i1___lwmod: [wreg+status,2+status,0]
  7517                           
  7518  1704  0870               	movf	i1___lwmod@divisor,w
  7519  1705  0471               	iorwf	i1___lwmod@divisor+1,w
  7520  1706  1903               	btfsc	3,2
  7521  1707  2F09               	goto	u180_21
  7522  1708  2F0A               	goto	u180_20
  7523  1709                     u180_21:
  7524  1709  2F39               	goto	i1l1845
  7525  170A                     u180_20:
  7526  170A                     i1l1829:
  7527  170A  01F5               	clrf	i1___lwmod@counter
  7528  170B  0AF5               	incf	i1___lwmod@counter,f
  7529  170C  2F18               	goto	i1l1835
  7530  170D                     i1l1831:
  7531  170D  3001               	movlw	1
  7532  170E                     u181_25:
  7533  170E  1003               	clrc
  7534  170F  0DF0               	rlf	i1___lwmod@divisor,f
  7535  1710  0DF1               	rlf	i1___lwmod@divisor+1,f
  7536  1711  3EFF               	addlw	-1
  7537  1712  1D03               	skipz
  7538  1713  2F0E               	goto	u181_25
  7539  1714                     i1l1833:
  7540  1714  3001               	movlw	1
  7541  1715  00F4               	movwf	??i1___lwmod
  7542  1716  0874               	movf	??i1___lwmod,w
  7543  1717  07F5               	addwf	i1___lwmod@counter,f
  7544  1718                     i1l1835:
  7545  1718  1FF1               	btfss	i1___lwmod@divisor+1,7
  7546  1719  2F1B               	goto	u182_21
  7547  171A  2F1C               	goto	u182_20
  7548  171B                     u182_21:
  7549  171B  2F0D               	goto	i1l1831
  7550  171C                     u182_20:
  7551  171C                     i1l1837:
  7552  171C  0871               	movf	i1___lwmod@divisor+1,w
  7553  171D  0273               	subwf	i1___lwmod@dividend+1,w
  7554  171E  1D03               	skipz
  7555  171F  2F22               	goto	u183_25
  7556  1720  0870               	movf	i1___lwmod@divisor,w
  7557  1721  0272               	subwf	i1___lwmod@dividend,w
  7558  1722                     u183_25:
  7559  1722  1C03               	skipc
  7560  1723  2F25               	goto	u183_21
  7561  1724  2F26               	goto	u183_20
  7562  1725                     u183_21:
  7563  1725  2F2C               	goto	i1l1841
  7564  1726                     u183_20:
  7565  1726                     i1l1839:
  7566  1726  0870               	movf	i1___lwmod@divisor,w
  7567  1727  02F2               	subwf	i1___lwmod@dividend,f
  7568  1728  0871               	movf	i1___lwmod@divisor+1,w
  7569  1729  1C03               	skipc
  7570  172A  03F3               	decf	i1___lwmod@dividend+1,f
  7571  172B  02F3               	subwf	i1___lwmod@dividend+1,f
  7572  172C                     i1l1841:
  7573  172C  3001               	movlw	1
  7574  172D                     u184_25:
  7575  172D  1003               	clrc
  7576  172E  0CF1               	rrf	i1___lwmod@divisor+1,f
  7577  172F  0CF0               	rrf	i1___lwmod@divisor,f
  7578  1730  3EFF               	addlw	-1
  7579  1731  1D03               	skipz
  7580  1732  2F2D               	goto	u184_25
  7581  1733                     i1l1843:
  7582  1733  3001               	movlw	1
  7583  1734  02F5               	subwf	i1___lwmod@counter,f
  7584  1735  1D03               	btfss	3,2
  7585  1736  2F38               	goto	u185_21
  7586  1737  2F39               	goto	u185_20
  7587  1738                     u185_21:
  7588  1738  2F1C               	goto	i1l1837
  7589  1739                     u185_20:
  7590  1739                     i1l1845:
  7591  1739  0873               	movf	i1___lwmod@dividend+1,w
  7592  173A  00F1               	movwf	?i1___lwmod+1
  7593  173B  0872               	movf	i1___lwmod@dividend,w
  7594  173C  00F0               	movwf	?i1___lwmod
  7595  173D                     i1l592:
  7596  173D  0008               	return
  7597  173E                     __end_ofi1___lwmod:
  7598                           
  7599                           	psect	text27
  7600  0832                     __ptext27:	
  7601 ;; *************** function i1___lwdiv *****************
  7602 ;; Defined at:
  7603 ;;		line 5 in file "C:\Program Files\Microchip\xc8\v2.31\pic\sources\c90\common\lwdiv.c"
  7604 ;; Parameters:    Size  Location     Type
  7605 ;;  divisor         2    0[COMMON] unsigned int 
  7606 ;;  dividend        2    2[COMMON] unsigned int 
  7607 ;; Auto vars:     Size  Location     Type
  7608 ;;  quotient        2    5[COMMON] unsigned int 
  7609 ;;  counter         1    7[COMMON] unsigned char 
  7610 ;; Return value:  Size  Location     Type
  7611 ;;                  2    0[COMMON] unsigned int 
  7612 ;; Registers used:
  7613 ;;		wreg, status,2, status,0
  7614 ;; Tracked objects:
  7615 ;;		On entry : 0/0
  7616 ;;		On exit  : 0/0
  7617 ;;		Unchanged: 0/0
  7618 ;; Data sizes:     COMMON   BANK0   BANK1   BANK3   BANK2
  7619 ;;      Params:         4       0       0       0       0
  7620 ;;      Locals:         3       0       0       0       0
  7621 ;;      Temps:          1       0       0       0       0
  7622 ;;      Totals:         8       0       0       0       0
  7623 ;;Total ram usage:        8 bytes
  7624 ;; Hardware stack levels used:    1
  7625 ;; This function calls:
  7626 ;;		Nothing
  7627 ;; This function is called by:
  7628 ;;		i1_utoa
  7629 ;; This function uses a non-reentrant model
  7630 ;;
  7631                           
  7632                           
  7633                           ;psect for function i1___lwdiv
  7634  0832                     i1___lwdiv:
  7635  0832                     i1l1801:	
  7636                           ;incstack = 0
  7637                           ; Regs used in i1___lwdiv: [wreg+status,2+status,0]
  7638                           
  7639  0832  01F5               	clrf	i1___lwdiv@quotient
  7640  0833  01F6               	clrf	i1___lwdiv@quotient+1
  7641  0834                     i1l1803:
  7642  0834  0870               	movf	i1___lwdiv@divisor,w
  7643  0835  0471               	iorwf	i1___lwdiv@divisor+1,w
  7644  0836  1903               	btfsc	3,2
  7645  0837  2839               	goto	u173_21
  7646  0838  283A               	goto	u173_20
  7647  0839                     u173_21:
  7648  0839  2871               	goto	i1l1823
  7649  083A                     u173_20:
  7650  083A                     i1l1805:
  7651  083A  01F7               	clrf	i1___lwdiv@counter
  7652  083B  0AF7               	incf	i1___lwdiv@counter,f
  7653  083C  2848               	goto	i1l1811
  7654  083D                     i1l1807:
  7655  083D  3001               	movlw	1
  7656  083E                     u174_25:
  7657  083E  1003               	clrc
  7658  083F  0DF0               	rlf	i1___lwdiv@divisor,f
  7659  0840  0DF1               	rlf	i1___lwdiv@divisor+1,f
  7660  0841  3EFF               	addlw	-1
  7661  0842  1D03               	skipz
  7662  0843  283E               	goto	u174_25
  7663  0844                     i1l1809:
  7664  0844  3001               	movlw	1
  7665  0845  00F4               	movwf	??i1___lwdiv
  7666  0846  0874               	movf	??i1___lwdiv,w
  7667  0847  07F7               	addwf	i1___lwdiv@counter,f
  7668  0848                     i1l1811:
  7669  0848  1FF1               	btfss	i1___lwdiv@divisor+1,7
  7670  0849  284B               	goto	u175_21
  7671  084A  284C               	goto	u175_20
  7672  084B                     u175_21:
  7673  084B  283D               	goto	i1l1807
  7674  084C                     u175_20:
  7675  084C                     i1l1813:
  7676  084C  3001               	movlw	1
  7677  084D                     u176_25:
  7678  084D  1003               	clrc
  7679  084E  0DF5               	rlf	i1___lwdiv@quotient,f
  7680  084F  0DF6               	rlf	i1___lwdiv@quotient+1,f
  7681  0850  3EFF               	addlw	-1
  7682  0851  1D03               	skipz
  7683  0852  284D               	goto	u176_25
  7684  0853  0871               	movf	i1___lwdiv@divisor+1,w
  7685  0854  0273               	subwf	i1___lwdiv@dividend+1,w
  7686  0855  1D03               	skipz
  7687  0856  2859               	goto	u177_25
  7688  0857  0870               	movf	i1___lwdiv@divisor,w
  7689  0858  0272               	subwf	i1___lwdiv@dividend,w
  7690  0859                     u177_25:
  7691  0859  1C03               	skipc
  7692  085A  285C               	goto	u177_21
  7693  085B  285D               	goto	u177_20
  7694  085C                     u177_21:
  7695  085C  2864               	goto	i1l1819
  7696  085D                     u177_20:
  7697  085D                     i1l1815:
  7698  085D  0870               	movf	i1___lwdiv@divisor,w
  7699  085E  02F2               	subwf	i1___lwdiv@dividend,f
  7700  085F  0871               	movf	i1___lwdiv@divisor+1,w
  7701  0860  1C03               	skipc
  7702  0861  03F3               	decf	i1___lwdiv@dividend+1,f
  7703  0862  02F3               	subwf	i1___lwdiv@dividend+1,f
  7704  0863                     i1l1817:
  7705  0863  1475               	bsf	i1___lwdiv@quotient,0
  7706  0864                     i1l1819:
  7707  0864  3001               	movlw	1
  7708  0865                     u178_25:
  7709  0865  1003               	clrc
  7710  0866  0CF1               	rrf	i1___lwdiv@divisor+1,f
  7711  0867  0CF0               	rrf	i1___lwdiv@divisor,f
  7712  0868  3EFF               	addlw	-1
  7713  0869  1D03               	skipz
  7714  086A  2865               	goto	u178_25
  7715  086B                     i1l1821:
  7716  086B  3001               	movlw	1
  7717  086C  02F7               	subwf	i1___lwdiv@counter,f
  7718  086D  1D03               	btfss	3,2
  7719  086E  2870               	goto	u179_21
  7720  086F  2871               	goto	u179_20
  7721  0870                     u179_21:
  7722  0870  284C               	goto	i1l1813
  7723  0871                     u179_20:
  7724  0871                     i1l1823:
  7725  0871  0876               	movf	i1___lwdiv@quotient+1,w
  7726  0872  00F1               	movwf	?i1___lwdiv+1
  7727  0873  0875               	movf	i1___lwdiv@quotient,w
  7728  0874  00F0               	movwf	?i1___lwdiv
  7729  0875                     i1l582:
  7730  0875  0008               	return
  7731  0876                     __end_ofi1___lwdiv:
  7732                           
  7733                           	psect	text28
  7734  15B2                     __ptext28:	
  7735 ;; *************** function _CONTADOR *****************
  7736 ;; Defined at:
  7737 ;;		line 8 in file "ADC.c"
  7738 ;; Parameters:    Size  Location     Type
  7739 ;;  n               2    0[COMMON] int 
  7740 ;; Auto vars:     Size  Location     Type
  7741 ;;		None
  7742 ;; Return value:  Size  Location     Type
  7743 ;;                  2    0[COMMON] int 
  7744 ;; Registers used:
  7745 ;;		wreg
  7746 ;; Tracked objects:
  7747 ;;		On entry : 0/0
  7748 ;;		On exit  : 0/0
  7749 ;;		Unchanged: 0/0
  7750 ;; Data sizes:     COMMON   BANK0   BANK1   BANK3   BANK2
  7751 ;;      Params:         2       0       0       0       0
  7752 ;;      Locals:         0       0       0       0       0
  7753 ;;      Temps:          0       0       0       0       0
  7754 ;;      Totals:         2       0       0       0       0
  7755 ;;Total ram usage:        2 bytes
  7756 ;; Hardware stack levels used:    1
  7757 ;; This function calls:
  7758 ;;		Nothing
  7759 ;; This function is called by:
  7760 ;;		_ISR
  7761 ;; This function uses a non-reentrant model
  7762 ;;
  7763                           
  7764                           
  7765                           ;psect for function _CONTADOR
  7766  15B2                     _CONTADOR:
  7767  15B2                     i1l1983:	
  7768                           ;incstack = 0
  7769                           ; Regs used in _CONTADOR: [wreg]
  7770                           
  7771                           
  7772                           ;ADC.c: 9:     Destination = n;
  7773  15B2  0871               	movf	CONTADOR@n+1,w
  7774  15B3  1283               	bcf	3,5	;RP0=0, select bank0
  7775  15B4  1303               	bcf	3,6	;RP1=0, select bank0
  7776  15B5  00D8               	movwf	_Destination+1
  7777  15B6  0870               	movf	CONTADOR@n,w
  7778  15B7  00D7               	movwf	_Destination
  7779                           
  7780                           ;ADC.c: 10:     return ((Destination)*1);
  7781  15B8  0858               	movf	_Destination+1,w
  7782  15B9  00F1               	movwf	?_CONTADOR+1
  7783  15BA  0857               	movf	_Destination,w
  7784  15BB  00F0               	movwf	?_CONTADOR
  7785  15BC                     i1l182:
  7786  15BC  0008               	return
  7787  15BD                     __end_of_CONTADOR:
  7788  007E                     btemp	set	126	;btemp
  7789  007E                     wtemp0	set	126
  7790                           
  7791                           	psect	config
  7792                           
  7793                           ;Config register CONFIG1 @ 0x2007
  7794                           ;	Oscillator Selection bits
  7795                           ;	FOSC = INTRC_NOCLKOUT, INTOSCIO oscillator: I/O function on RA6/OSC2/CLKOUT pin, I/O f
      +                          unction on RA7/OSC1/CLKIN
  7796                           ;	Watchdog Timer Enable bit
  7797                           ;	WDTE = OFF, WDT disabled and can be enabled by SWDTEN bit of the WDTCON register
  7798                           ;	Power-up Timer Enable bit
  7799                           ;	PWRTE = OFF, PWRT disabled
  7800                           ;	RE3/MCLR pin function select bit
  7801                           ;	MCLRE = OFF, RE3/MCLR pin function is digital input, MCLR internally tied to VDD
  7802                           ;	Code Protection bit
  7803                           ;	CP = OFF, Program memory code protection is disabled
  7804                           ;	Data Code Protection bit
  7805                           ;	CPD = OFF, Data memory code protection is disabled
  7806                           ;	Brown Out Reset Selection bits
  7807                           ;	BOREN = OFF, BOR disabled
  7808                           ;	Internal External Switchover bit
  7809                           ;	IESO = OFF, Internal/External Switchover mode is disabled
  7810                           ;	Fail-Safe Clock Monitor Enabled bit
  7811                           ;	FCMEN = OFF, Fail-Safe Clock Monitor is disabled
  7812                           ;	Low Voltage Programming Enable bit
  7813                           ;	LVP = OFF, RB3 pin has digital I/O, HV on MCLR must be used for programming
  7814                           ;	In-Circuit Debugger Mode bit
  7815                           ;	DEBUG = 0x1, unprogrammed default
  7816  2007                     	org	8199
  7817  2007  20D4               	dw	8404
  7818                           
  7819                           ;Config register CONFIG2 @ 0x2008
  7820                           ;	Brown-out Reset Selection bit
  7821                           ;	BOR4V = BOR40V, Brown-out Reset set to 4.0V
  7822                           ;	Flash Program Memory Self Write Enable bits
  7823                           ;	WRT = OFF, Write protection off
  7824  2008                     	org	8200
  7825  2008  3FFF               	dw	16383

Data Sizes:
    Strings     19
    Constant    0
    Data        0
    BSS         75
    Persistent  0
    Stack       0

Auto Spaces:
    Space          Size  Autos    Used
    COMMON           14     14      14
    BANK0            80     45      61
    BANK1            80     26      80
    BANK3            96     17      22
    BANK2            96      0       0

Pointer List with Targets:

    strcpy@from	PTR const unsigned char  size(1) Largest target is 2
		 -> STR_3(CODE[2]), STR_2(CODE[2]), 

    strcpy@to	PTR unsigned char  size(1) Largest target is 5
		 -> PUNTO2(BANK1[5]), PUNTO1(BANK1[5]), 

    strcpy@cp	PTR unsigned char  size(1) Largest target is 5
		 -> PUNTO2(BANK1[5]), PUNTO1(BANK1[5]), 

    strcat@from	PTR const unsigned char  size(1) Largest target is 5
		 -> PUNTO2(BANK1[5]), POT2SB(BANK1[5]), POT2SA(BANK1[5]), PUNTO1(BANK1[5]), 
		 -> POT1SB(BANK1[5]), POT1SA(BANK1[5]), 

    strcat@to	PTR unsigned char  size(1) Largest target is 5
		 -> PUNTO2(BANK1[5]), POT2SC(BANK1[5]), POT2SB(BANK1[5]), PUNTO1(BANK1[5]), 
		 -> POT1SC(BANK1[5]), POT1SB(BANK1[5]), 

    strcat@cp	PTR unsigned char  size(1) Largest target is 5
		 -> PUNTO2(BANK1[5]), POT2SC(BANK1[5]), POT2SB(BANK1[5]), PUNTO1(BANK1[5]), 
		 -> POT1SC(BANK1[5]), POT1SB(BANK1[5]), 

    utoa@buf	PTR unsigned char  size(2) Largest target is 5
		 -> POT2SC(BANK1[5]), POT2SB(BANK1[5]), POT2SA(BANK1[5]), POT1SC(BANK1[5]), 
		 -> POT1SB(BANK1[5]), POT1SA(BANK1[5]), COMPARE(BANK3[5]), 

    sp__utoa	PTR unsigned char  size(2) Largest target is 5
		 -> POT2SC(BANK1[5]), POT2SB(BANK1[5]), POT2SA(BANK1[5]), POT1SC(BANK1[5]), 
		 -> POT1SB(BANK1[5]), POT1SA(BANK1[5]), COMPARE(BANK3[5]), 

    itoa@buf	PTR unsigned char  size(2) Largest target is 5
		 -> POT2SC(BANK1[5]), POT2SB(BANK1[5]), POT2SA(BANK1[5]), POT1SC(BANK1[5]), 
		 -> POT1SB(BANK1[5]), POT1SA(BANK1[5]), COMPARE(BANK3[5]), 

    itoa@cp	PTR unsigned char  size(2) Largest target is 5
		 -> POT2SC(BANK1[5]), POT2SB(BANK1[5]), POT2SA(BANK1[5]), POT1SC(BANK1[5]), 
		 -> POT1SB(BANK1[5]), POT1SA(BANK1[5]), COMPARE(BANK3[5]), 

    Lcd_Write_String@a	PTR unsigned char  size(2) Largest target is 17
		 -> STR_5(CODE[2]), STR_4(CODE[2]), POT2SC(BANK1[5]), POT1SC(BANK1[5]), 
		 -> STR_1(CODE[17]), COMPARE(BANK3[5]), 

    sp__strcat	PTR unsigned char  size(1) Largest target is 5
		 -> PUNTO2(BANK1[5]), POT2SC(BANK1[5]), POT2SB(BANK1[5]), PUNTO1(BANK1[5]), 
		 -> POT1SC(BANK1[5]), POT1SB(BANK1[5]), 

    sp__strcpy	PTR unsigned char  size(1) Largest target is 5
		 -> PUNTO2(BANK1[5]), PUNTO1(BANK1[5]), 

    sp__itoa	PTR unsigned char  size(2) Largest target is 5
		 -> POT2SC(BANK1[5]), POT2SB(BANK1[5]), POT2SA(BANK1[5]), POT1SC(BANK1[5]), 
		 -> POT1SB(BANK1[5]), POT1SA(BANK1[5]), COMPARE(BANK3[5]), 


Critical Paths under _main in COMMON

    None.

Critical Paths under _ISR in COMMON

    i1_itoa->i1_utoa
    i1_utoa->i1___lwdiv

Critical Paths under _main in BANK0

    _main->___flmul
    _main->_itoa
    _itoa->_utoa
    _utoa->___lwdiv
    ___fltol->___flmul
    ___flmul->___xxtofl
    ___fldiv->___flmul
    ___awmod->___awdiv
    _Lcd_Write_String->_Lcd_Write_Char
    _Lcd_Init->_Lcd_Cmd

Critical Paths under _ISR in BANK0

    _ISR->i1_itoa
    i1_itoa->i1_utoa

Critical Paths under _main in BANK1

    _main->___fldiv
    ___fltol->___flmul
    ___fldiv->___flmul

Critical Paths under _ISR in BANK1

    None.

Critical Paths under _main in BANK3

    _main->___fldiv

Critical Paths under _ISR in BANK3

    None.

Critical Paths under _main in BANK2

    None.

Critical Paths under _ISR in BANK2

    None.

Call Graph Tables:

 ---------------------------------------------------------------------------------
 (Depth) Function   	        Calls       Base Space   Used Autos Params    Refs
 ---------------------------------------------------------------------------------
 (0) _main                                                 4     4      0   14161
                                             13 BANK3      4     4      0
                           _ADC_Init
                           _ADC_Read
                            _Lcd_Cmd
                           _Lcd_Init
                   _Lcd_Write_String
                        _SERIAL_Init
                         _UART_Write
                            ___awdiv
                            ___awmod
                            ___fldiv
                            ___flmul
                            ___fltol
                           ___xxtofl
                               _itoa
                              _setup
                             _strcat
                             _strcpy
 ---------------------------------------------------------------------------------
 (1) _strcpy                                               4     3      1     293
                                             18 BANK0      4     3      1
 ---------------------------------------------------------------------------------
 (1) _strcat                                               4     3      1     752
                                             18 BANK0      4     3      1
 ---------------------------------------------------------------------------------
 (1) _setup                                                0     0      0       0
 ---------------------------------------------------------------------------------
 (1) _itoa                                                 9     3      6    3136
                                             36 BANK0      9     3      6
                               _utoa
 ---------------------------------------------------------------------------------
 (2) _utoa                                                10     4      6    1437
                                             26 BANK0     10     4      6
                            ___lwdiv
                            ___lwmod
 ---------------------------------------------------------------------------------
 (3) ___lwmod                                              6     2      4     311
                                             18 BANK0      6     2      4
 ---------------------------------------------------------------------------------
 (3) ___lwdiv                                              8     4      4     466
                                             18 BANK0      8     4      4
 ---------------------------------------------------------------------------------
 (1) ___xxtofl                                            14    10      4     474
                                             18 BANK0     14    10      4
 ---------------------------------------------------------------------------------
 (1) ___fltol                                             11     7      4     517
                                             13 BANK1     11     7      4
                            ___flmul (ARG)
 ---------------------------------------------------------------------------------
 (1) ___flmul                                             26    18      8    3893
                                             32 BANK0     13     5      8
                                              0 BANK1     13    13      0
                          __Umul8_16
                           ___xxtofl (ARG)
 ---------------------------------------------------------------------------------
 (2) __Umul8_16                                            9     7      2     980
                                             18 BANK0      9     7      2
 ---------------------------------------------------------------------------------
 (1) ___fldiv                                             26    18      8    2043
                                             13 BANK1     13     5      8
                                              0 BANK3     13    13      0
                            ___flmul (ARG)
                           ___xxtofl (ARG)
 ---------------------------------------------------------------------------------
 (1) ___awmod                                              7     3      4    1208
                                             27 BANK0      7     3      4
                            ___awdiv (ARG)
 ---------------------------------------------------------------------------------
 (1) ___awdiv                                              9     5      4     908
                                             18 BANK0      9     5      4
 ---------------------------------------------------------------------------------
 (1) _UART_Write                                           1     1      0      22
                                             18 BANK0      1     1      0
 ---------------------------------------------------------------------------------
 (1) _SERIAL_Init                                          0     0      0       0
 ---------------------------------------------------------------------------------
 (1) _Lcd_Write_String                                     2     0      2     523
                                             21 BANK0      2     0      2
                     _Lcd_Write_Char
 ---------------------------------------------------------------------------------
 (2) _Lcd_Write_Char                                       3     3      0      22
                                             18 BANK0      3     3      0
 ---------------------------------------------------------------------------------
 (1) _Lcd_Init                                             0     0      0      22
                            _Lcd_Cmd
 ---------------------------------------------------------------------------------
 (2) _Lcd_Cmd                                              3     3      0      22
                                             18 BANK0      3     3      0
 ---------------------------------------------------------------------------------
 (1) _ADC_Read                                             4     0      4     348
                                             18 BANK0      4     0      4
 ---------------------------------------------------------------------------------
 (1) _ADC_Init                                             0     0      0       0
 ---------------------------------------------------------------------------------
 Estimated maximum stack depth 3
 ---------------------------------------------------------------------------------
 (Depth) Function   	        Calls       Base Space   Used Autos Params    Refs
 ---------------------------------------------------------------------------------
 (4) _ISR                                                  5     5      0    1396
                                             13 BANK0      5     5      0
                           _CONTADOR
                             i1_itoa
 ---------------------------------------------------------------------------------
 (5) i1_itoa                                               9     3      6    1298
                                              4 BANK0      9     3      6
                             i1_utoa
 ---------------------------------------------------------------------------------
 (6) i1_utoa                                              10     4      6     991
                                              8 COMMON     6     0      6
                                              0 BANK0      4     4      0
                          i1___lwdiv
                          i1___lwmod
 ---------------------------------------------------------------------------------
 (7) i1___lwmod                                            6     2      4     211
                                              0 COMMON     6     2      4
 ---------------------------------------------------------------------------------
 (7) i1___lwdiv                                            8     4      4     266
                                              0 COMMON     8     4      4
 ---------------------------------------------------------------------------------
 (5) _CONTADOR                                             2     0      2      98
                                              0 COMMON     2     0      2
 ---------------------------------------------------------------------------------
 Estimated maximum stack depth 7
 ---------------------------------------------------------------------------------

 Call Graph Graphs:

 _main (ROOT)
   _ADC_Init
   _ADC_Read
   _Lcd_Cmd
   _Lcd_Init
     _Lcd_Cmd
   _Lcd_Write_String
     _Lcd_Write_Char
   _SERIAL_Init
   _UART_Write
   ___awdiv
   ___awmod
     ___awdiv (ARG)
   ___fldiv
     ___flmul (ARG)
       __Umul8_16
       ___xxtofl (ARG)
     ___xxtofl (ARG)
   ___flmul
     __Umul8_16
     ___xxtofl (ARG)
   ___fltol
     ___flmul (ARG)
       __Umul8_16
       ___xxtofl (ARG)
   ___xxtofl
   _itoa
     _utoa
       ___lwdiv
       ___lwmod
   _setup
   _strcat
   _strcpy

 _ISR (ROOT)
   _CONTADOR
   i1_itoa
     i1_utoa
       i1___lwdiv
       i1___lwmod

 Address spaces:
Name               Size   Autos  Total    Cost      Usage
BITCOMMON            E      0       0       0        0.0%
EEDATA             100      0       0       0        0.0%
NULL                 0      0       0       0        0.0%
CODE                 0      0       0       0        0.0%
COMMON               E      E       E       1      100.0%
BITSFR0              0      0       0       1        0.0%
SFR0                 0      0       0       1        0.0%
BITSFR1              0      0       0       2        0.0%
SFR1                 0      0       0       2        0.0%
STACK                0      0       0       2        0.0%
ABS                  0      0      B1       3        0.0%
BITBANK0            50      0       0       4        0.0%
BITSFR3              0      0       0       4        0.0%
SFR3                 0      0       0       4        0.0%
BANK0               50     2D      3D       5       76.2%
BITSFR2              0      0       0       5        0.0%
SFR2                 0      0       0       5        0.0%
BITBANK1            50      0       0       6        0.0%
BANK1               50     1A      50       7      100.0%
BITBANK3            60      0       0       8        0.0%
BANK3               60     11      16       9       22.9%
BITBANK2            60      0       0      10        0.0%
BANK2               60      0       0      11        0.0%
DATA                 0      0      B1      12        0.0%


Microchip Technology PIC Macro Assembler V2.31 build 20201012212115 
Symbol Table                                                                                   Tue Feb 09 16:35:19 2021

                        _O 0059               ___fldiv@aexp 019C               ___fldiv@bexp 019B  
                        pc 0002               ___fldiv@sign 0194                         _V1 0055  
                       _V2 004D               ___awdiv@sign 0038                         fsr 0004  
      __Umul8_16@word_mpld 0038                        l113 0C25                        l123 1619  
                      l115 0FF0                        l221 15CB                        l150 1638  
                      l224 15D5                        l161 1683                        l209 15FB  
                      l138 17BC                        l155 17FF                        l503 07B2  
                      l185 15C7                        l506 07C7                        l188 15E8  
                      l463 097F                        l711 056F                        l720 16AC  
                      l705 04C1                        l476 0916                        l661 0C1F  
                      l718 169A                        l582 08BB                        l743 05B2  
                      l496 07C7                        l592 1779                        l681 0BF3  
                      l745 0649                        l770 06AB                        l683 0C0B  
                      l675 0B73                        l659 09FE                        l756 0613  
                      l772 06CA                        l764 0831                        l757 061F  
                      l749 05F7                        l781 16D7                        l699 058D  
                      l787 165B                        _RE0 0048                        _RE1 0049  
                      _RE2 004A                        _ISR 07C8                        _adc 005C  
                      fsr0 0004                        indf 0000               ___awmod@sign 0041  
             ___flmul@aexp 00D7               ___flmul@bexp 00DC               ___flmul@sign 00D6  
             ___flmul@temp 00E1               ___flmul@prod 00DD                       ?_ISR 0070  
             ___fltol@exp1 00ED                       l2001 15FC                       l2011 1616  
                     l2003 1600                       l2021 15ED                       l2101 0932  
                     l2013 1617                       l2005 1601                       l2031 15F4  
                     l2023 15EE                       l2111 0948                       l2103 0934  
                     l2015 1618                       l2007 160F                       l2041 15BD  
                     l2017 161A                       l2033 15F5                       l2025 15EF  
                     l2121 096B                       l2113 094C                       l2105 093A  
                     l3001 043D                       l2009 1615                       l2051 15D6  
                     l2043 165C                       l2035 15F6                       l2027 15F0  
                     l2019 15E9                       l2115 095D                       l2107 093D  
                     l2123 0971                       l2131 08BC                       l3011 047A  
                     l3003 044C                       l2061 15E6                       l2053 15E2  
                     l2045 165D                       l2037 15F9                       l2029 15F1  
                     l2125 0976                       l2117 0963                       l2109 0944  
                     l2141 08CE                       l2133 08BF                       l3021 049A  
                     l3013 0489                       l3005 0464                       l3101 0D5C  
                     l2063 15E7                       l2055 15E3                       l2047 166B  
                     l2039 15FA                       l2127 097B                       l2119 0964  
                     l2151 08E7                       l2143 08D3                       l2135 08C3  
                     l3031 04DB                       l3023 04BC                       l3007 0473  
                     l3015 0491                       l2071 1649                       l3111 0DBE  
                     l3103 0D6D                       l2057 15E4                       l2049 1673  
                     l2153 08EB                       l2145 08D9                       l2161 0908  
                     l2137 08C8                       l3041 0532                       l3033 04DF  
                     l3017 0495                       l3009 0479                       l2081 16CA  
                     l2073 16B0                       l3121 0E63                       l3113 0DCC  
                     l3105 0D91                       l2059 15E5                       l2083 15CB  
                     l2091 091E                       l2163 090D                       l2155 08F5  
                     l2147 08DC                       l2139 08CA                       l3051 0563  
                     l3043 0541                       l3035 0514                       l3027 04C8  
                     l3019 0496                       l2075 16B5                       l2067 163C  
                     l3131 0F28                       l3123 0EAF                       l3115 0DDA  
                     l3107 0DA2                       l2085 15D1                       l2093 0923  
                     l2165 0912                       l2157 08FB                       l2149 08E3  
                     l3053 0564                       l3045 054B                       l3029 04CD  
                     l3037 051A                       l2501 05C8                       l2077 16B9  
                     l2069 1641                       l3141 0F97                       l3133 0F52  
                     l3125 0EC8                       l3117 0DE0                       l3109 0DB0  
                     l2095 0925                       l2087 0917                       l2159 0902  
                     l3055 0577                       l3047 054D                       l3039 0527  
                     l2511 05FE                       l2503 05D5                       l2079 16C2  
                     l3151 0FCC                       l3143 0FA5                       l3135 0F6D  
                     l3127 0EE3                       l3119 0DF6                       l2097 0929  
                     l2089 091A                       l3049 055F                       l2521 0637  
                     l2513 0609                       l2505 05DC                       l3161 0FF6  
                     l3153 0FD7                       l3145 0FAB                       l3137 0F7B  
                     l3129 0F0D                       l3081 0C20                       l2099 092E  
                     l2523 063C                       l2515 060D                       l2507 05E0  
                     l3155 0FE2                       l3147 0FB6                       l3139 0F89  
                     l3091 0C5B                       l3083 0C2F                       l1901 17EE  
                     l2525 0640                       l2517 0617                       l2509 05EE  
                     l3157 0FE8                       l3149 0FC1                       l3093 0CC8  
                     l3085 0C34                       l1903 17EF                       l2527 0641  
                     l2519 0621                       l3159 0FF4                       l3095 0D14  
                     l3087 0C3F                       l1905 17F0                       l2801 09D1  
                     l1761 088A                       l1753 0876                       l3097 0D27  
                     l3089 0C47                       l1851 177F                       l1907 17FC  
                     l2811 09F0                       l2803 09D7                       l2491 059A  
                     l1771 08AA                       l1763 088E                       l1755 087A  
                     l2731 080C                       l3099 0D38                       l1861 1791  
                     l1853 1783                       l2901 0BD3                       l2821 0A1A  
                     l2813 09F2                       l2805 09DA                       l2661 16A3  
                     l2653 1687                       l2741 074C                       l2493 05AA  
                     l1773 08B1                       l1765 0892                       l1757 0880  
                     l1781 1746                       l2733 0815                       l1871 17AB  
                     l1863 179A                       l1855 1784                       l2911 0C01  
                     l2903 0BE2                       l2831 0A35                       l2807 09E1  
                     l2815 09F4                       l2663 16A8                       l2655 1689  
                     l2751 0778                       l2743 0759                       l2495 05BA  
                     l2487 0591                       l1767 08A3                       l1759 0883  
                     l1775 08B7                       l1791 1762                       l1783 1749  
                     l2671 0663                       l2735 081B                       l2727 0806  
                     l1873 17AC                       l1865 179B                       l1857 1785  
                     l1849 177D                       l1881 17C2                       l2913 0C05  
                     l2905 0BE6                       l2841 0A81                       l2833 0A53  
                     l2817 0A06                       l2825 0A23                       l2809 09E6  
                     l2657 1690                       l2921 0038                       l2753 0780  
                     l2489 0596                       l1769 08A9                       l1793 1768  
                     l1785 1750                       l2681 068E                       l2673 0669  
                     l2737 0820                       l2729 0806                       l1875 17AD  
                     l1867 17A6                       l1859 1786                       l1891 17D4  
                     l1883 17C6                       l2907 0BF0                       l2843 0A86  
                     l2851 0AB5                       l2835 0A6B                       l2827 0A2A  
                     l2819 0A12                       l2659 1694                       l2931 0057  
                     l2923 0042                       l2771 07A7                       l2763 078E  
                     l2755 0782                       l2747 0762                       l2499 05C3  
                     l1795 176F                       l1787 1754                       l1779 173E  
                     l2691 06BE                       l2683 06A1                       l2675 066F  
                     l2667 064A                       l1877 17B9                       l1869 17A9  
                     l1893 17DD                       l1885 17C7                       l2909 0BFD  
                     l2861 0B0D                       l2853 0AD6                       l2845 0A9E  
                     l2837 0A75                       l2781 0993                       l2941 007F  
                     l2933 0061                       l2925 0048                       l2773 07B7  
                     l2757 0786                       l2765 07A0                       l2749 0777  
                     l1789 1758                       l1797 1775                       l2693 06C4  
                     l2685 06A7                       l2677 0675                       l2669 0650  
                     l1895 17DE                       l1887 17C8                       l1879 17C0  
                     l2871 0B29                       l2863 0B15                       l2855 0AD7  
                     l2847 0AA4                       l2839 0A7F                       l2791 09B2  
                     l2783 0999                       l2951 009E                       l2943 0085  
                     l2935 0064                       l2927 004B                       l2919 002F  
                     l2775 07BC                       l2687 06AF                       l2679 067B  
                     l1897 17E9                       l1889 17C9                       l2881 0B4C  
                     l2873 0B37                       l2865 0B17                       l2857 0AFF  
                     l2849 0AA7                       l2793 09B4                       l2785 099C  
                     l2777 0980                       l2953 00A1                       l2945 0088  
                     l2937 006E                       l2929 0052                       l2689 06B8  
                     l1899 17EC                       l2891 0B8F                       l2883 0B6E  
                     l2867 0B20                       l2875 0B3F                       l2859 0B07  
                     l2787 09A3                       l2795 09B6                       l2779 0989  
                     l2971 015C                       l2963 00C2                       l2955 00AB  
                     l2947 008F                       l2939 0075                       l2893 0B93  
                     l2877 0B45                       l2869 0B26                       l2797 09C0  
                     l2789 09A8                       l2981 0229                       l2973 01A4  
                     l2965 00DA                       l2957 00B2                       l2949 0094  
                     l2895 0BAC                       l2887 0B78                       l2879 0B48  
                     l2799 09C7                       l2991 0305                       l2983 025E  
                     l2975 01D4                       l2967 00F7                       l2959 00B7  
                     l2889 0B7F                       l2897 0BB4                       l2993 0352  
                     l2985 0276                       l2977 0204                       l2969 012C  
                     l2899 0BC3                       l2995 036A                       l2987 02AB  
                     l2979 0213                       l2997 03B7                       l2989 02D0  
                     l2999 03F5                       STR_1 1010                       STR_2 1021  
                     STR_3 1021                       STR_4 101F                       STR_5 101F  
                     u2000 16C1                       u2001 16C0                       u2010 16D7  
                     u2011 16D6                       u2020 15D1                       u2021 15D0  
                     u2110 0971                       u2030 091E                       u2111 0970  
                     u2031 091D                       u2120 0976                       u2040 0929  
                     u2200 0908                       u3000 059A                       u2121 0975  
                     u2105 0965                       u2041 0928                       u2201 0907  
                     u3001 0599                       u2050 093A                       u2210 090D  
                     u2130 08C3                       u3010 05BA                       u2051 0939  
                     u2211 090C                       u2131 08C2                       u3011 05B9  
                     u2140 08CE                       u3100 062C                       u2141 08CD  
                     u2070 094C                       u2150 08D9                       u3110 063C  
                     u3030 05DB                       u2071 094B                       u2151 08D8  
                     u3111 063B                       u3031 05DA                       u4000 04CD  
                     u3120 0640                       u1600 0880                       u2065 093E  
                     u4001 04CC                       u3121 063F                       u3105 0627  
                     u3025 05CD                       u1601 087F                       u2090 095D  
                     u2170 08EB                       u3210 16A8                       u4010 04DF  
                     u3050 05FD                       u2091 095C                       u2171 08EA  
                     u3211 16A7                       u4011 04DE                       u3051 05FC  
                     u2180 08F5                       u4020 04FC                       u3300 0770  
                     u1620 0892                       u1700 1762                       u3220 066F  
                     u2085 094D                       u2181 08F4                       u2165 08DD  
                     u3205 169B                       u3045 05EF                       u1621 0891  
                     u1701 1761                       u3221 066E                       u4030 0527  
                     u3310 0786                       u3070 060D                       u3230 06A7  
                     u2095 0959                       u4031 0526                       u3311 0785  
                     u3071 060C                       u1615 0884                       u3231 06A6  
                     u3400 09A3                       u4040 0541                       u3320 078D  
                     u3080 0613                       u1640 08A3                       u1720 1775  
                     u3240 06C4                       u2185 08F1                       u3401 09A2  
                     u4041 0540                       u4025 04F7                       u3321 078C  
                     u3305 076B                       u3081 0612                       u3065 0602  
                     u1641 08A2                       u1721 1774                       u1705 175E  
                     u3241 06C3                       u3410 09A8                       u4050 0563  
                     u3090 0617                       u2195 08FC                       u3411 09A7  
                     u4051 0562                       u4035 0523                       u3091 0616  
                     u1635 0893                       u1715 1769                       u4107 0C43  
                     u3500 0AA4                       u3420 09D7                       u3340 079F  
                     u1660 08B7                       u3501 0AA3                       u3421 09D6  
                     u4045 053D                       u3341 079E                       u1661 08B6  
                     u1645 089F                       u4117 0DDE                       u3430 09E1  
                     u3190 1694                       u3350 07A6                       u1670 1746  
                     u4127 17CF                       u3431 09E0                       u3191 1693  
                     u3351 07A5                       u3335 078F                       u1655 08AB  
                     u1671 1745                       u3600 0B4C                       u3520 0AD6  
                     u3440 09E6                       u3280 080C                       u4080 0FE8  
                     u4137 17E4                       u3601 0B4B                       u3521 0AD5  
                     u3441 09E5                       u3281 080B                       u4081 0FE7  
                     u3610 0B6E                       u3530 0AFB                       u3450 0A06  
                     u3370 07B7                       u3290 0759                       u1690 1758  
                     u4090 0FF4                       u4147 17F7                       u3611 0B6D  
                     u3515 0AAA                       u3451 0A05                       u3371 07B6  
                     u3291 0758                       u1691 1757                       u4091 0FF3  
                     u1860 179A                       u3620 0B77                       u3540 0B0D  
                     u3460 0A2A                       u3700 0052                       u3380 07BC  
                     u1861 1799                       u4157 178C                       u3621 0B76  
                     u3541 0B0C                       u3525 0AD2                       u3461 0A29  
                     u3701 0051                       u3381 07BB                       u3365 07A9  
                     u1685 174A                       u1870 17DD                       u3630 0B7F  
                     u3550 0B15                       u3470 0A86                       u3390 0999  
                     u3710 0057                       u4167 17A1                       u1871 17DC  
                     u3631 0B7E                       u3551 0B14                       u3535 0AE4  
                     u3471 0A85                       u3391 0998                       u3711 0056  
                     u3640 0B93                       u3536 0AE7                       u3720 0085  
                     u4177 17B4                       u3641 0B92                       u3537 0AEE  
                     u3801 01EA                       u3721 0084                       u3650 0BA2  
                     u3570 0B26                       u3538 0AF1                       u3802 01F5  
                     u3730 008F                       u3571 0B25                       u3539 0AF8  
                     u3803 0200                       u3731 008E                       u1980 1683  
                     u3660 0BC3                       u3900 0411                       u3740 0094  
                     u1981 1682                       u3661 0BC2                       u3565 0B19  
                     u3485 0A8A                       u3821 0244                       u3741 0093  
                     u3670 0BE2                       u3590 0B45                       u3822 024F  
                     u3750 00B2                       u1990 165B                       u3671 0BE1  
                     u3655 0B9D                       u3591 0B44                       u3495 0A97  
                     u3911 0423                       u3831 0291                       u3823 025A  
                     u3815 0208                       u3751 00B1                       u1991 165A  
                     u3680 0C01                       u3912 042E                       u3832 029C  
                     u3760 00B7                       u3681 0C00                       u3665 0BBF  
                     u3585 0B2C                       u3913 0439                       u3905 040C  
                     u3833 02A7                       u3761 00B6                       u3690 0048  
                     u3675 0BDE                       u3851 02EB                       u3771 0142  
                     u3691 0047                       u3940 0479                       u3852 02F6  
                     u3772 014D                       _RCIF 0065                       u3941 0478  
                     u3925 0441                       u3861 0338                       u3853 0301  
                     u3845 02AF                       u3781 0172                       u3773 0158  
                     u3862 0343                       u3782 017D                       u2990 0596  
                     u3935 0468                       u3871 0385                       u3863 034E  
                     u3791 01BA                       u3783 0188                       u2991 0595  
                     u3960 0495                       u3880 03C9                       u3872 0390  
                     u3792 01C5                       u3961 0494                       u3873 039B  
                     u3793 01D0                       u3970 049A                       u3971 0499  
                     u3955 047E                       u3891 03DB                       u3980 04BC  
                     u3892 03E6                       u3981 04BB                       u3893 03F1  
                     u3885 03C4                       u3990 04C7                       u3991 04C6  
                     _TRMT 04C1          ?_Lcd_Write_String 0035                       _main 0C20  
                     _itoa 0806                       btemp 007E                       _utoa 064A  
         __end_of_ADC_Init 15C8           __end_of_ADC_Read 15E9                       start 0010  
       ??_Lcd_Write_String 0037            ___fldiv@new_exp 0195            __end_of_Lcd_Cmd 17BD  
         __end_of_CONTADOR 15BD                      ??_ISR 002D              ___fltol@sign1 00EC  
                    ?_main 0070            __end_of___fldiv 0C20                      ?_itoa 0044  
          __end_of___awdiv 0980            __end_of___awmod 0917            __end_of___flmul 058E  
          __end_of___fltol 07C8                      _ANSEL 0188                      ?_utoa 003A  
          ___awdiv@divisor 0032            __end_of___lwdiv 08BC                      i1l108 07F2  
                    i1l182 15BC            __end_of___lwmod 177A                      i1l582 0875  
                    i1l592 173D                      i1l770 072C                      i1l772 074B  
                    i1l764 1703            ___awdiv@counter 0037                      _RCREG 001A  
                    _POT1A 0053                      _POT1B 0051                      _POT2A 00AC  
                    _POT1C 004F                      _POT2B 00AA                      _POT2C 00A8  
                    _SPBRG 0099                      _PORTA 0005                      _PORTB 0006  
                    _PORTC 0007                      _PORTD 0008                      _PORTE 0009  
                    _TRISA 0085                      _TRISB 0086                      _TRISD 0088  
                    _TRISE 0089                 i1itoa@base 0028                      _TXREG 0019  
              ?_UART_Write 0070         i1___lwmod@dividend 0072                      _setup 15FC  
                    pclath 000A                      utoa@c 0043                      utoa@v 0041  
                    status 0003                      wtemp0 007E         __size_ofi1___lwdiv 0044  
       __size_ofi1___lwmod 003A           __end_of_Lcd_Init 1639               ?_SERIAL_Init 0070  
          __initialization 0013               __end_of_main 1000               __end_of_itoa 0832  
             __end_of_utoa 06CB                 i1utoa@base 007C                     ??_main 019D  
                   ??_itoa 004A                     ??_utoa 0040                     _ADRESH 001E  
         ___awdiv@dividend 0034                  ADC_Read@a 0032                  ADC_Read@b 0034  
                   ?_setup 0070                     _ANSELH 0189                _Destination 0057  
                   i1l3061 16D8                     i1l3063 16DE                     i1l1801 0832  
                   i1l3065 16E7                     i1l3073 07C8                     i1l1811 0848  
                   i1l1803 0834                     i1l3067 16ED                     i1l3059 16D8  
                   i1l3075 07CC                     i1l1821 086B                     i1l1813 084C  
                   i1l1805 083A                     i1l2701 06E4                     i1l3069 16F2  
                   i1l3077 07DE                     i1l1815 085D                     i1l1807 083D  
                   i1l1823 0871                     i1l1831 170D                     i1l2711 070F  
                   i1l2703 06EA                     i1l3079 07EF                     i1l1817 0863  
                   i1l1809 0844                     i1l1841 172C                     i1l1833 1714  
                   i1l2721 073F                     i1l2713 0720                     i1l2705 06F0  
                   i1l1819 0864                     i1l1843 1733                     i1l1835 1718  
                   i1l1827 1704                     i1l2723 0745                     i1l2715 0728  
                   i1l2707 06F6                     i1l1837 171C                     i1l1829 170A  
                   i1l1845 1739                     i1l2717 0730                     i1l2709 06FC  
                   i1l1839 1726                     i1l2719 0739                     i1l1983 15B2  
                   i1l2697 06CB                     i1l2699 06D1                     u180_20 170A  
                   u180_21 1709                     u173_20 083A                     u325_20 06F0  
                   u173_21 0839                     u325_21 06EF                     u181_25 170E  
                   u182_20 171C                     u326_20 0728                     u406_20 16DE  
                   u182_21 171B                     u326_21 0727                     u406_21 16DD  
                   u174_25 083E                     u175_20 084C                     u183_20 1726  
                   u327_20 0745                     u407_20 07CC                     u175_21 084B  
                   u183_21 1725                     u327_21 0744                     u407_21 07CB  
                   u183_25 1722                     u176_25 084D                     u184_25 172D  
                   u177_20 085D                     u185_20 1739                     u177_21 085C  
                   u185_21 1738                     u177_25 0859                     u178_25 0865  
                   u179_20 0871                     u179_21 0870                     _POT1SA 00D1  
                   _POT1SB 00CC                     _POT1SC 00C7                     _POT2SA 00BD  
                   _POT2SB 00B8                     _POT2SC 00B3                  ??_Lcd_Cmd 0032  
  __size_of_Lcd_Write_Char 0043                     _PUNTO1 00C2                     _PUNTO2 00AE  
         __end_of___xxtofl 064A                     i1_itoa 16D8                     i1_utoa 06CB  
      __size_of_UART_Write 000E                  ??___fldiv 00EB                  ??___awdiv 0036  
                ??___awmod 003F                  ??___flmul 0048                  ??___fltol 00E7  
                ??___lwdiv 0036                  ??___lwmod 0036           ___awdiv@quotient 0039  
          ___awmod@divisor 003B            ___awmod@counter 0040                     _strcat 16AD  
                   _strcpy 1639          __end_ofi1___lwdiv 0876          __end_ofi1___lwmod 173E  
       __size_of__Umul8_16 0029                  CONTADOR@n 0070                  ?_ADC_Init 0070  
                ?_ADC_Read 0032                     saved_w 007E                  ?_CONTADOR 0070  
             ___xxtofl@arg 003C               ___xxtofl@exp 003B               ___xxtofl@val 0032  
  __end_of__initialization 002B                 ___fltol@f1 00E3             __pcstackCOMMON 0070  
            __end_of_setup 161A                 ??_ADC_Init 0032                 ??_ADC_Read 0036  
                ?_Lcd_Init 0070                    ??_setup 0032                 ??_CONTADOR 0072  
               __pbssBANK0 004D                 __pbssBANK1 00A0                 __pbssBANK3 01A1  
                  ?i1_itoa 0024                    ?i1_utoa 0078          __end_of__Umul8_16 16AD  
               __pmaintext 0C20       __size_of_SERIAL_Init 0013                 __pintentry 0004  
__size_of_Lcd_Write_String 0028                    ?_strcat 0032                    ?_strcpy 0032  
                  _COMPARE 01A1                  ?___xxtofl 0032               ??_UART_Write 0032  
               ??_Lcd_Init 0035                 __stringtab 1000             _Lcd_Write_Char 17BD  
                  _Lcd_Cmd 177A            __size_ofi1_itoa 002C                    i1utoa@c 0023  
                  i1utoa@v 0021            __size_ofi1_utoa 0081                    ___fldiv 0980  
                  ___awdiv 0917                    ___awmod 08BC                    ___flmul 002F  
                  ___fltol 074C         __end_of_UART_Write 15D6                    ___lwdiv 0876  
                  ___lwmod 173E                    __ptext1 1639                    __ptext2 16AD  
                  __ptext3 15FC                    __ptext4 0806                    __ptext5 064A  
                  __ptext6 173E                    __ptext7 0876                    __ptext8 058E  
                  __ptext9 074C            __size_of_strcat 002B            __size_of_strcpy 0023  
             __size_of_ISR 0033          i1___lwdiv@divisor 0070          i1___lwdiv@counter 0077  
               ??___xxtofl 0036           ___awmod@dividend 003D                UART_Write@a 0032  
                  clrloop0 15AB                    _voltaje 00A4     __end_of_Lcd_Write_Char 1800  
     end_of_initialization 002B                    itoa@buf 0044                    itoa@val 0046  
                _RCSTAbits 0018                    utoa@buf 003A                    utoa@val 003C  
                _PORTBbits 0006              ___xxtofl@sign 003A                ___fldiv@grs 0197  
              ___fldiv@rem 0190          __size_of_ADC_Init 000B          __size_of_ADC_Read 0013  
                i1___lwdiv 0832                  i1___lwmod 1704            ?_Lcd_Write_Char 0070  
        Lcd_Write_String@a 0035                ___flmul@grs 00D8          __size_of_CONTADOR 000B  
                _TXSTAbits 0098             __end_ofi1_itoa 1704             __end_ofi1_utoa 074C  
                i1itoa@buf 0024           _Lcd_Write_String 165C                  i1itoa@val 0026  
        i1___lwmod@divisor 0070          i1___lwmod@counter 0075             __end_of_strcat 16D8  
           __end_of_strcpy 165C        start_initialization 0013                __end_of_ISR 07FB  
               ?i1___lwdiv 0070                 ?i1___lwmod 0070                  i1utoa@buf 0078  
                i1utoa@val 007A          __size_of_Lcd_Init 001F                   ??i1_itoa 002A  
                 ??i1_utoa 0020                  __Umul8_16 1684            Lcd_Write_Char@a 0034  
                 ??_strcat 0033                   ??_strcpy 0033                  ___fldiv@a 00E3  
                ___fldiv@b 00E7                  ___flmul@a 0044                  ___flmul@b 0040  
                ___latbits 0002              __pcstackBANK0 0020              __pcstackBANK1 00D6  
            __pcstackBANK3 0190          __size_of___xxtofl 00BC                   ?_Lcd_Cmd 0070  
            ??_SERIAL_Init 0032           ___lwdiv@dividend 0034                   ?___fldiv 00E3  
                 ?___awdiv 0032                   ?___awmod 003B                   ?___flmul 0040  
                 ?___fltol 00E3                 ?__Umul8_16 0032                   ?___lwdiv 0032  
                 ?___lwmod 0032                  __pstrings 1000                   _ADC_Init 15BD  
                 _ADC_Read 15D6           ___lwdiv@quotient 0037                ??i1___lwdiv 0074  
              ??i1___lwmod 0074                   _CONTADOR 15B2             __size_of_setup 001E  
        interrupt_function 0004                  clear_ram0 15AA                   _PIE1bits 008C  
                 Lcd_Cmd@a 0034                   _PIR1bits 000C        __end_of_SERIAL_Init 15FC  
               _ADCON0bits 001F                __stringbase 100F                 _ADCON1bits 009F  
         ??_Lcd_Write_Char 0032                   _Lcd_Init 161A                   _Contador 005B  
 __end_of_Lcd_Write_String 1684           __size_of_Lcd_Cmd 0043                ??__Umul8_16 0034  
         __size_of___fldiv 02A0           __size_of___awdiv 0069           __size_of___awmod 005B  
         __size_of___flmul 055F           __size_of___fltol 007C           __size_of___lwdiv 0046  
         __size_of___lwmod 003C         __end_of__stringtab 1010                   ___xxtofl 058E  
               strcat@from 0032            ___lwdiv@divisor 0032            ___lwdiv@counter 0039  
                 __ptext10 002F                   __ptext11 1684                   __ptext20 177A  
                 __ptext12 0980                   __ptext21 15D6                   __ptext13 08BC  
                 __ptext22 15BD                   __ptext14 0917                   __ptext23 07C8  
                 __ptext15 15C8                   __ptext24 16D8                   __ptext16 15E9  
                 __ptext25 06CB                   __ptext17 165C                   __ptext26 1704  
                 __ptext18 17BD                   __ptext27 0832                   __ptext19 161A  
                 __ptext28 15B2         i1___lwdiv@dividend 0072                 strcpy@from 0032  
            __size_of_main 03E0              __size_of_itoa 002C              __size_of_utoa 0081  
              _SERIAL_Init 15E9                   _voltaje2 00A0         i1___lwdiv@quotient 0075  
               _INTCONbits 000B                   itoa@base 0048                   intlevel1 0000  
         ___lwmod@dividend 0034                  stringcode 100A                 _OSCCONbits 008F  
                 utoa@base 003E     __Umul8_16@multiplicand 0032                   strcat@cp 0034  
                 strcat@to 0035            ___lwmod@divisor 0032                   strcpy@cp 0034  
                 strcpy@to 0035            ___lwmod@counter 0037                   stringdir 100A  
                 stringtab 1000                 _UART_Write 15C8       __Umul8_16@multiplier 003A  
        __Umul8_16@product 0036  
