

Microchip MPLAB XC8 Assembler V2.32 build 20210201212658 
                                                                                               Tue Mar 09 22:02:01 2021

Microchip MPLAB XC8 C Compiler v2.32 (Free license) build 20210201212658 Og1 
     1                           	processor	16F887
     2                           	pagewidth 120
     3                           	opt	flic
     4                           	psect	cinit,global,class=CODE,merge=1,delta=2
     5                           	psect	bssBANK0,global,class=BANK0,space=1,delta=1,noexec
     6                           	psect	cstackBANK1,global,class=BANK1,space=1,delta=1,noexec
     7                           	psect	cstackCOMMON,global,class=COMMON,space=1,delta=1,noexec
     8                           	psect	cstackBANK0,global,class=BANK0,space=1,delta=1,noexec
     9                           	psect	maintext,global,class=CODE,split=1,delta=2
    10                           	psect	text1,local,class=CODE,merge=1,delta=2
    11                           	psect	text2,local,class=CODE,merge=1,delta=2,group=1
    12                           	psect	text3,local,class=CODE,merge=1,delta=2,group=1
    13                           	psect	text4,local,class=CODE,merge=1,delta=2,group=1
    14                           	psect	text5,local,class=CODE,merge=1,delta=2,group=1
    15                           	psect	text6,local,class=CODE,merge=1,delta=2,group=1
    16                           	psect	text7,local,class=CODE,merge=1,delta=2
    17                           	psect	text8,local,class=CODE,merge=1,delta=2
    18                           	psect	text9,local,class=CODE,merge=1,delta=2
    19                           	psect	text10,local,class=CODE,merge=1,delta=2
    20                           	psect	text11,local,class=CODE,merge=1,delta=2
    21                           	psect	text12,local,class=CODE,merge=1,delta=2
    22                           	psect	text13,local,class=CODE,merge=1,delta=2
    23                           	psect	text14,local,class=CODE,merge=1,delta=2
    24                           	psect	text15,local,class=CODE,merge=1,delta=2
    25                           	psect	text16,local,class=CODE,merge=1,delta=2,group=1
    26                           	psect	text17,local,class=CODE,merge=1,delta=2
    27                           	psect	intentry,global,class=CODE,delta=2
    28                           	psect	text18,local,class=CODE,merge=1,delta=2,group=2
    29                           	psect	text19,local,class=CODE,merge=1,delta=2,group=2
    30                           	psect	text20,local,class=CODE,merge=1,delta=2,group=1
    31                           	psect	text21,local,class=CODE,merge=1,delta=2,group=1
    32                           	psect	text22,local,class=CODE,merge=1,delta=2
    33                           	psect	config,global,abs,ovrld,class=CONFIG,space=4,delta=2,noexec
    34                           	dabs	1,0x7E,2
    35  0000                     
    36                           ; Version 2.20
    37                           ; Generated 12/02/2020 GMT
    38                           ; 
    39                           ; Copyright © 2020, Microchip Technology Inc. and its subsidiaries ("Microchip")
    40                           ; All rights reserved.
    41                           ; 
    42                           ; This software is developed by Microchip Technology Inc. and its subsidiaries ("Microch
      +                          ip").
    43                           ; 
    44                           ; Redistribution and use in source and binary forms, with or without modification, are
    45                           ; permitted provided that the following conditions are met:
    46                           ; 
    47                           ;     1. Redistributions of source code must retain the above copyright notice, this lis
      +                          t of
    48                           ;        conditions and the following disclaimer.
    49                           ; 
    50                           ;     2. Redistributions in binary form must reproduce the above copyright notice, this 
      +                          list
    51                           ;        of conditions and the following disclaimer in the documentation and/or other
    52                           ;        materials provided with the distribution.
    53                           ; 
    54                           ;     3. Microchip's name may not be used to endorse or promote products derived from th
      +                          is
    55                           ;        software without specific prior written permission.
    56                           ; 
    57                           ; THIS SOFTWARE IS PROVIDED BY MICROCHIP "AS IS" AND ANY EXPRESS OR IMPLIED WARRANTIES,
    58                           ; INCLUDING, BUT NOT LIMITED TO, THE IMPLIED WARRANTIES OF MERCHANTABILITY AND FITNESS F
      +                          OR
    59                           ; PURPOSE ARE DISCLAIMED.  IN NO EVENT SHALL MICROCHIP BE LIABLE FOR ANY DIRECT, INDIREC
      +                          T,
    60                           ; INCIDENTAL, SPECIAL, EXEMPLARY, OR CONSEQUENTIAL DAMAGES (INCLUDING BUT NOT LIMITED TO
    61                           ; PROCUREMENT OF SUBSTITUTE GOODS OR SERVICES; LOSS OF USE, DATA OR PROFITS; OR BUSINESS
    62                           ; INTERRUPTION) HOWSOEVER CAUSED AND ON ANY THEORY OF LIABILITY, WHETHER IN CONTRACT, ST
      +                          RICT
    63                           ; LIABILITY, OR TORT (INCLUDING NEGLIGENCE OR OTHERWISE) ARISING IN ANY WAY OUT OF THE U
      +                          SE OF
    64                           ; THIS SOFTWARE, EVEN IF ADVISED OF THE POSSIBILITY OF SUCH DAMAGE.
    65                           ; 
    66                           ; 
    67                           ; Code-generator required, PIC16F887 Definitions
    68                           ; 
    69                           ; SFR Addresses
    70  0000                     	;# 
    71  0001                     	;# 
    72  0002                     	;# 
    73  0003                     	;# 
    74  0004                     	;# 
    75  0005                     	;# 
    76  0006                     	;# 
    77  0007                     	;# 
    78  0008                     	;# 
    79  0009                     	;# 
    80  000A                     	;# 
    81  000B                     	;# 
    82  000C                     	;# 
    83  000D                     	;# 
    84  000E                     	;# 
    85  000E                     	;# 
    86  000F                     	;# 
    87  0010                     	;# 
    88  0011                     	;# 
    89  0012                     	;# 
    90  0013                     	;# 
    91  0014                     	;# 
    92  0015                     	;# 
    93  0015                     	;# 
    94  0016                     	;# 
    95  0017                     	;# 
    96  0018                     	;# 
    97  0019                     	;# 
    98  001A                     	;# 
    99  001B                     	;# 
   100  001B                     	;# 
   101  001C                     	;# 
   102  001D                     	;# 
   103  001E                     	;# 
   104  001F                     	;# 
   105  0081                     	;# 
   106  0085                     	;# 
   107  0086                     	;# 
   108  0087                     	;# 
   109  0088                     	;# 
   110  0089                     	;# 
   111  008C                     	;# 
   112  008D                     	;# 
   113  008E                     	;# 
   114  008F                     	;# 
   115  0090                     	;# 
   116  0091                     	;# 
   117  0092                     	;# 
   118  0093                     	;# 
   119  0093                     	;# 
   120  0093                     	;# 
   121  0094                     	;# 
   122  0095                     	;# 
   123  0096                     	;# 
   124  0097                     	;# 
   125  0098                     	;# 
   126  0099                     	;# 
   127  009A                     	;# 
   128  009B                     	;# 
   129  009C                     	;# 
   130  009D                     	;# 
   131  009E                     	;# 
   132  009F                     	;# 
   133  0105                     	;# 
   134  0107                     	;# 
   135  0108                     	;# 
   136  0109                     	;# 
   137  010C                     	;# 
   138  010C                     	;# 
   139  010D                     	;# 
   140  010E                     	;# 
   141  010F                     	;# 
   142  0185                     	;# 
   143  0187                     	;# 
   144  0188                     	;# 
   145  0189                     	;# 
   146  018C                     	;# 
   147  018D                     	;# 
   148  0000                     	;# 
   149  0001                     	;# 
   150  0002                     	;# 
   151  0003                     	;# 
   152  0004                     	;# 
   153  0005                     	;# 
   154  0006                     	;# 
   155  0007                     	;# 
   156  0008                     	;# 
   157  0009                     	;# 
   158  000A                     	;# 
   159  000B                     	;# 
   160  000C                     	;# 
   161  000D                     	;# 
   162  000E                     	;# 
   163  000E                     	;# 
   164  000F                     	;# 
   165  0010                     	;# 
   166  0011                     	;# 
   167  0012                     	;# 
   168  0013                     	;# 
   169  0014                     	;# 
   170  0015                     	;# 
   171  0015                     	;# 
   172  0016                     	;# 
   173  0017                     	;# 
   174  0018                     	;# 
   175  0019                     	;# 
   176  001A                     	;# 
   177  001B                     	;# 
   178  001B                     	;# 
   179  001C                     	;# 
   180  001D                     	;# 
   181  001E                     	;# 
   182  001F                     	;# 
   183  0081                     	;# 
   184  0085                     	;# 
   185  0086                     	;# 
   186  0087                     	;# 
   187  0088                     	;# 
   188  0089                     	;# 
   189  008C                     	;# 
   190  008D                     	;# 
   191  008E                     	;# 
   192  008F                     	;# 
   193  0090                     	;# 
   194  0091                     	;# 
   195  0092                     	;# 
   196  0093                     	;# 
   197  0093                     	;# 
   198  0093                     	;# 
   199  0094                     	;# 
   200  0095                     	;# 
   201  0096                     	;# 
   202  0097                     	;# 
   203  0098                     	;# 
   204  0099                     	;# 
   205  009A                     	;# 
   206  009B                     	;# 
   207  009C                     	;# 
   208  009D                     	;# 
   209  009E                     	;# 
   210  009F                     	;# 
   211  0105                     	;# 
   212  0107                     	;# 
   213  0108                     	;# 
   214  0109                     	;# 
   215  010C                     	;# 
   216  010C                     	;# 
   217  010D                     	;# 
   218  010E                     	;# 
   219  010F                     	;# 
   220  0185                     	;# 
   221  0187                     	;# 
   222  0188                     	;# 
   223  0189                     	;# 
   224  018C                     	;# 
   225  018D                     	;# 
   226  0000                     	;# 
   227  0001                     	;# 
   228  0002                     	;# 
   229  0003                     	;# 
   230  0004                     	;# 
   231  0005                     	;# 
   232  0006                     	;# 
   233  0007                     	;# 
   234  0008                     	;# 
   235  0009                     	;# 
   236  000A                     	;# 
   237  000B                     	;# 
   238  000C                     	;# 
   239  000D                     	;# 
   240  000E                     	;# 
   241  000E                     	;# 
   242  000F                     	;# 
   243  0010                     	;# 
   244  0011                     	;# 
   245  0012                     	;# 
   246  0013                     	;# 
   247  0014                     	;# 
   248  0015                     	;# 
   249  0015                     	;# 
   250  0016                     	;# 
   251  0017                     	;# 
   252  0018                     	;# 
   253  0019                     	;# 
   254  001A                     	;# 
   255  001B                     	;# 
   256  001B                     	;# 
   257  001C                     	;# 
   258  001D                     	;# 
   259  001E                     	;# 
   260  001F                     	;# 
   261  0081                     	;# 
   262  0085                     	;# 
   263  0086                     	;# 
   264  0087                     	;# 
   265  0088                     	;# 
   266  0089                     	;# 
   267  008C                     	;# 
   268  008D                     	;# 
   269  008E                     	;# 
   270  008F                     	;# 
   271  0090                     	;# 
   272  0091                     	;# 
   273  0092                     	;# 
   274  0093                     	;# 
   275  0093                     	;# 
   276  0093                     	;# 
   277  0094                     	;# 
   278  0095                     	;# 
   279  0096                     	;# 
   280  0097                     	;# 
   281  0098                     	;# 
   282  0099                     	;# 
   283  009A                     	;# 
   284  009B                     	;# 
   285  009C                     	;# 
   286  009D                     	;# 
   287  009E                     	;# 
   288  009F                     	;# 
   289  0105                     	;# 
   290  0107                     	;# 
   291  0108                     	;# 
   292  0109                     	;# 
   293  010C                     	;# 
   294  010C                     	;# 
   295  010D                     	;# 
   296  010E                     	;# 
   297  010F                     	;# 
   298  0185                     	;# 
   299  0187                     	;# 
   300  0188                     	;# 
   301  0189                     	;# 
   302  018C                     	;# 
   303  018D                     	;# 
   304  0000                     	;# 
   305  0001                     	;# 
   306  0002                     	;# 
   307  0003                     	;# 
   308  0004                     	;# 
   309  0005                     	;# 
   310  0006                     	;# 
   311  0007                     	;# 
   312  0008                     	;# 
   313  0009                     	;# 
   314  000A                     	;# 
   315  000B                     	;# 
   316  000C                     	;# 
   317  000D                     	;# 
   318  000E                     	;# 
   319  000E                     	;# 
   320  000F                     	;# 
   321  0010                     	;# 
   322  0011                     	;# 
   323  0012                     	;# 
   324  0013                     	;# 
   325  0014                     	;# 
   326  0015                     	;# 
   327  0015                     	;# 
   328  0016                     	;# 
   329  0017                     	;# 
   330  0018                     	;# 
   331  0019                     	;# 
   332  001A                     	;# 
   333  001B                     	;# 
   334  001B                     	;# 
   335  001C                     	;# 
   336  001D                     	;# 
   337  001E                     	;# 
   338  001F                     	;# 
   339  0081                     	;# 
   340  0085                     	;# 
   341  0086                     	;# 
   342  0087                     	;# 
   343  0088                     	;# 
   344  0089                     	;# 
   345  008C                     	;# 
   346  008D                     	;# 
   347  008E                     	;# 
   348  008F                     	;# 
   349  0090                     	;# 
   350  0091                     	;# 
   351  0092                     	;# 
   352  0093                     	;# 
   353  0093                     	;# 
   354  0093                     	;# 
   355  0094                     	;# 
   356  0095                     	;# 
   357  0096                     	;# 
   358  0097                     	;# 
   359  0098                     	;# 
   360  0099                     	;# 
   361  009A                     	;# 
   362  009B                     	;# 
   363  009C                     	;# 
   364  009D                     	;# 
   365  009E                     	;# 
   366  009F                     	;# 
   367  0105                     	;# 
   368  0107                     	;# 
   369  0108                     	;# 
   370  0109                     	;# 
   371  010C                     	;# 
   372  010C                     	;# 
   373  010D                     	;# 
   374  010E                     	;# 
   375  010F                     	;# 
   376  0185                     	;# 
   377  0187                     	;# 
   378  0188                     	;# 
   379  0189                     	;# 
   380  018C                     	;# 
   381  018D                     	;# 
   382  0000                     	;# 
   383  0001                     	;# 
   384  0002                     	;# 
   385  0003                     	;# 
   386  0004                     	;# 
   387  0005                     	;# 
   388  0006                     	;# 
   389  0007                     	;# 
   390  0008                     	;# 
   391  0009                     	;# 
   392  000A                     	;# 
   393  000B                     	;# 
   394  000C                     	;# 
   395  000D                     	;# 
   396  000E                     	;# 
   397  000E                     	;# 
   398  000F                     	;# 
   399  0010                     	;# 
   400  0011                     	;# 
   401  0012                     	;# 
   402  0013                     	;# 
   403  0014                     	;# 
   404  0015                     	;# 
   405  0015                     	;# 
   406  0016                     	;# 
   407  0017                     	;# 
   408  0018                     	;# 
   409  0019                     	;# 
   410  001A                     	;# 
   411  001B                     	;# 
   412  001B                     	;# 
   413  001C                     	;# 
   414  001D                     	;# 
   415  001E                     	;# 
   416  001F                     	;# 
   417  0081                     	;# 
   418  0085                     	;# 
   419  0086                     	;# 
   420  0087                     	;# 
   421  0088                     	;# 
   422  0089                     	;# 
   423  008C                     	;# 
   424  008D                     	;# 
   425  008E                     	;# 
   426  008F                     	;# 
   427  0090                     	;# 
   428  0091                     	;# 
   429  0092                     	;# 
   430  0093                     	;# 
   431  0093                     	;# 
   432  0093                     	;# 
   433  0094                     	;# 
   434  0095                     	;# 
   435  0096                     	;# 
   436  0097                     	;# 
   437  0098                     	;# 
   438  0099                     	;# 
   439  009A                     	;# 
   440  009B                     	;# 
   441  009C                     	;# 
   442  009D                     	;# 
   443  009E                     	;# 
   444  009F                     	;# 
   445  0105                     	;# 
   446  0107                     	;# 
   447  0108                     	;# 
   448  0109                     	;# 
   449  010C                     	;# 
   450  010C                     	;# 
   451  010D                     	;# 
   452  010E                     	;# 
   453  010F                     	;# 
   454  0185                     	;# 
   455  0187                     	;# 
   456  0188                     	;# 
   457  0189                     	;# 
   458  018C                     	;# 
   459  018D                     	;# 
   460  0019                     _TXREG	set	25
   461  000B                     _INTCONbits	set	11
   462  0018                     _RCSTAbits	set	24
   463  0013                     _SSPBUF	set	19
   464  0014                     _SSPCON	set	20
   465  0009                     _PORTE	set	9
   466  0008                     _PORTD	set	8
   467  0007                     _PORTC	set	7
   468  0006                     _PORTB	set	6
   469  0005                     _PORTA	set	5
   470  0008                     _PORTDbits	set	8
   471  001A                     _RCREG	set	26
   472  0063                     _SSPIF	set	99
   473  005E                     _PEIE	set	94
   474  005F                     _GIE	set	95
   475  0065                     _RCIF	set	101
   476  008F                     _OSCCONbits	set	143
   477  008C                     _PIE1bits	set	140
   478  0098                     _TXSTAbits	set	152
   479  0099                     _SPBRG	set	153
   480  0091                     _SSPCON2bits	set	145
   481  0087                     _TRISCbits	set	135
   482  0094                     _SSPSTAT	set	148
   483  0093                     _SSPADD	set	147
   484  0091                     _SSPCON2	set	145
   485  0089                     _TRISE	set	137
   486  0088                     _TRISD	set	136
   487  0087                     _TRISC	set	135
   488  0086                     _TRISB	set	134
   489  0085                     _TRISA	set	133
   490  04C1                     _TRMT	set	1217
   491  0463                     _SSPIE	set	1123
   492  043C                     _TRISC4	set	1084
   493  043B                     _TRISC3	set	1083
   494  048B                     _RCEN	set	1163
   495                           
   496                           	psect	cinit
   497  0013                     start_initialization:	
   498                           ; #config settings
   499                           
   500  0013                     __initialization:
   501                           
   502                           ; Clear objects allocated to BANK0
   503  0013  1283               	bcf	3,5	;RP0=0, select bank0
   504  0014  1303               	bcf	3,6	;RP1=0, select bank0
   505  0015  01D5               	clrf	__pbssBANK0& (0+127)
   506  0016  01D6               	clrf	(__pbssBANK0+1)& (0+127)
   507  0017  01D7               	clrf	(__pbssBANK0+2)& (0+127)
   508  0018  01D8               	clrf	(__pbssBANK0+3)& (0+127)
   509  0019  01D9               	clrf	(__pbssBANK0+4)& (0+127)
   510  001A  01DA               	clrf	(__pbssBANK0+5)& (0+127)
   511  001B  01DB               	clrf	(__pbssBANK0+6)& (0+127)
   512  001C  01DC               	clrf	(__pbssBANK0+7)& (0+127)
   513  001D  01DD               	clrf	(__pbssBANK0+8)& (0+127)
   514  001E  01DE               	clrf	(__pbssBANK0+9)& (0+127)
   515  001F  01DF               	clrf	(__pbssBANK0+10)& (0+127)
   516  0020                     end_of_initialization:	
   517                           ;End of C runtime variable initialization code
   518                           
   519  0020                     __end_of__initialization:
   520  0020  0183               	clrf	3
   521  0021  120A  118A  2D83   	ljmp	_main	;jump to C main() function
   522                           
   523                           	psect	bssBANK0
   524  0055                     __pbssBANK0:
   525  0055                     _Destination:
   526  0055                     	ds	2
   527  0057                     _O:
   528  0057                     	ds	2
   529  0059                     _DatoIntermedio:
   530  0059                     	ds	2
   531  005B                     _Enviar:
   532  005B                     	ds	2
   533  005D                     _sensor:
   534  005D                     	ds	2
   535  005F                     _COMPARE:
   536  005F                     	ds	1
   537                           
   538                           	psect	cstackBANK1
   539  00A0                     __pcstackBANK1:
   540  00A0                     ___flmul@sign:
   541                           
   542                           ; 1 bytes @ 0x0
   543  00A0                     	ds	1
   544  00A1                     ___flmul@aexp:
   545                           
   546                           ; 1 bytes @ 0x1
   547  00A1                     	ds	1
   548  00A2                     ___flmul@grs:
   549                           
   550                           ; 4 bytes @ 0x2
   551  00A2                     	ds	4
   552  00A6                     ___flmul@bexp:
   553                           
   554                           ; 1 bytes @ 0x6
   555  00A6                     	ds	1
   556  00A7                     ___flmul@prod:
   557                           
   558                           ; 4 bytes @ 0x7
   559  00A7                     	ds	4
   560  00AB                     ___flmul@temp:
   561                           
   562                           ; 2 bytes @ 0xB
   563  00AB                     	ds	2
   564  00AD                     ??___fldiv:
   565                           
   566                           ; 1 bytes @ 0xD
   567  00AD                     	ds	5
   568  00B2                     ___fldiv@rem:
   569                           
   570                           ; 4 bytes @ 0x12
   571  00B2                     	ds	4
   572  00B6                     ___fldiv@sign:
   573                           
   574                           ; 1 bytes @ 0x16
   575  00B6                     	ds	1
   576  00B7                     ___fldiv@new_exp:
   577                           
   578                           ; 2 bytes @ 0x17
   579  00B7                     	ds	2
   580  00B9                     ___fldiv@grs:
   581                           
   582                           ; 4 bytes @ 0x19
   583  00B9                     	ds	4
   584  00BD                     ___fldiv@bexp:
   585                           
   586                           ; 1 bytes @ 0x1D
   587  00BD                     	ds	1
   588  00BE                     ___fldiv@aexp:
   589                           
   590                           ; 1 bytes @ 0x1E
   591  00BE                     	ds	1
   592  00BF                     ?___fltol:
   593  00BF                     ___fltol@f1:	
   594                           ; 4 bytes @ 0x1F
   595                           
   596                           
   597                           ; 4 bytes @ 0x1F
   598  00BF                     	ds	4
   599  00C3                     ??___fltol:
   600                           
   601                           ; 1 bytes @ 0x23
   602  00C3                     	ds	5
   603  00C8                     ??_main:
   604                           
   605                           ; 1 bytes @ 0x28
   606  00C8                     	ds	3
   607                           
   608                           	psect	cstackCOMMON
   609  0070                     __pcstackCOMMON:
   610  0070                     ?_setup:
   611  0070                     ?_InitOSC:	
   612                           ; 1 bytes @ 0x0
   613                           
   614  0070                     ?_SERIAL_Init:	
   615                           ; 1 bytes @ 0x0
   616                           
   617  0070                     ?_I2C_M_Start:	
   618                           ; 1 bytes @ 0x0
   619                           
   620  0070                     ?_I2C_M_Stop:	
   621                           ; 1 bytes @ 0x0
   622                           
   623  0070                     ?_UART_Write:	
   624                           ; 1 bytes @ 0x0
   625                           
   626  0070                     ?_UART_READ:	
   627                           ; 1 bytes @ 0x0
   628                           
   629  0070                     ?_ISR:	
   630                           ; 1 bytes @ 0x0
   631                           
   632  0070                     ?_main:	
   633                           ; 1 bytes @ 0x0
   634                           
   635  0070                     ?_I2C_M_Wait:	
   636                           ; 1 bytes @ 0x0
   637                           
   638  0070                     ?_Read:	
   639                           ; 1 bytes @ 0x0
   640                           
   641  0070                     ?___lwdiv:	
   642                           ; 2 bytes @ 0x0
   643                           
   644  0070                     ?___lwmod:	
   645                           ; 2 bytes @ 0x0
   646                           
   647  0070                     Read@n:	
   648                           ; 2 bytes @ 0x0
   649                           
   650  0070                     ___lwdiv@divisor:	
   651                           ; 2 bytes @ 0x0
   652                           
   653  0070                     ___lwmod@divisor:	
   654                           ; 2 bytes @ 0x0
   655                           
   656                           
   657                           ; 2 bytes @ 0x0
   658  0070                     	ds	2
   659  0072                     ??_Read:
   660  0072                     ___lwdiv@dividend:	
   661                           ; 1 bytes @ 0x2
   662                           
   663  0072                     ___lwmod@dividend:	
   664                           ; 2 bytes @ 0x2
   665                           
   666                           
   667                           ; 2 bytes @ 0x2
   668  0072                     	ds	2
   669  0074                     ??___lwdiv:
   670  0074                     ??___lwmod:	
   671                           ; 1 bytes @ 0x4
   672                           
   673                           
   674                           ; 1 bytes @ 0x4
   675  0074                     	ds	1
   676  0075                     ___lwmod@counter:
   677  0075                     ___lwdiv@quotient:	
   678                           ; 1 bytes @ 0x5
   679                           
   680                           
   681                           ; 2 bytes @ 0x5
   682  0075                     	ds	2
   683  0077                     ___lwdiv@counter:
   684                           
   685                           ; 1 bytes @ 0x7
   686  0077                     	ds	1
   687  0078                     ?_utoa:
   688  0078                     utoa@buf:	
   689                           ; 2 bytes @ 0x8
   690                           
   691                           
   692                           ; 2 bytes @ 0x8
   693  0078                     	ds	2
   694  007A                     utoa@val:
   695                           
   696                           ; 2 bytes @ 0xA
   697  007A                     	ds	2
   698  007C                     utoa@base:
   699                           
   700                           ; 2 bytes @ 0xC
   701  007C                     	ds	2
   702                           
   703                           	psect	cstackBANK0
   704  0020                     __pcstackBANK0:
   705  0020                     ??_utoa:
   706                           
   707                           ; 1 bytes @ 0x0
   708  0020                     	ds	1
   709  0021                     utoa@v:
   710                           
   711                           ; 2 bytes @ 0x1
   712  0021                     	ds	2
   713  0023                     utoa@c:
   714                           
   715                           ; 1 bytes @ 0x3
   716  0023                     	ds	1
   717  0024                     ?_itoa:
   718  0024                     itoa@buf:	
   719                           ; 2 bytes @ 0x4
   720                           
   721                           
   722                           ; 2 bytes @ 0x4
   723  0024                     	ds	2
   724  0026                     itoa@val:
   725                           
   726                           ; 2 bytes @ 0x6
   727  0026                     	ds	2
   728  0028                     itoa@base:
   729                           
   730                           ; 2 bytes @ 0x8
   731  0028                     	ds	2
   732  002A                     ??_itoa:
   733                           
   734                           ; 1 bytes @ 0xA
   735  002A                     	ds	1
   736  002B                     ??_ISR:
   737                           
   738                           ; 1 bytes @ 0xB
   739  002B                     	ds	5
   740  0030                     ??_setup:
   741  0030                     ??_InitOSC:	
   742                           ; 1 bytes @ 0x10
   743                           
   744  0030                     ??_SERIAL_Init:	
   745                           ; 1 bytes @ 0x10
   746                           
   747  0030                     ??_I2C_M_Start:	
   748                           ; 1 bytes @ 0x10
   749                           
   750  0030                     ??_I2C_M_Stop:	
   751                           ; 1 bytes @ 0x10
   752                           
   753  0030                     ??_UART_Write:	
   754                           ; 1 bytes @ 0x10
   755                           
   756  0030                     ??_UART_READ:	
   757                           ; 1 bytes @ 0x10
   758                           
   759  0030                     ??_I2C_M_Wait:	
   760                           ; 1 bytes @ 0x10
   761                           
   762  0030                     ?_I2C_M_Read:	
   763                           ; 1 bytes @ 0x10
   764                           
   765  0030                     ?__Umul8_16:	
   766                           ; 2 bytes @ 0x10
   767                           
   768  0030                     ?___lldiv:	
   769                           ; 2 bytes @ 0x10
   770                           
   771  0030                     ?___xxtofl:	
   772                           ; 4 bytes @ 0x10
   773                           
   774  0030                     UART_Write@a:	
   775                           ; 4 bytes @ 0x10
   776                           
   777  0030                     __Umul8_16@multiplicand:	
   778                           ; 1 bytes @ 0x10
   779                           
   780  0030                     I2C_M_Read@a:	
   781                           ; 1 bytes @ 0x10
   782                           
   783  0030                     ___lldiv@divisor:	
   784                           ; 2 bytes @ 0x10
   785                           
   786  0030                     ___xxtofl@val:	
   787                           ; 4 bytes @ 0x10
   788                           
   789                           
   790                           ; 4 bytes @ 0x10
   791  0030                     	ds	2
   792  0032                     ??_I2C_M_Read:
   793  0032                     ??__Umul8_16:	
   794                           ; 1 bytes @ 0x12
   795                           
   796  0032                     InitOSC@frec:	
   797                           ; 1 bytes @ 0x12
   798                           
   799                           
   800                           ; 1 bytes @ 0x12
   801  0032                     	ds	2
   802  0034                     ??___xxtofl:
   803  0034                     I2C_M_Read@temp:	
   804                           ; 1 bytes @ 0x14
   805                           
   806  0034                     __Umul8_16@product:	
   807                           ; 2 bytes @ 0x14
   808                           
   809  0034                     ___lldiv@dividend:	
   810                           ; 2 bytes @ 0x14
   811                           
   812                           
   813                           ; 4 bytes @ 0x14
   814  0034                     	ds	2
   815  0036                     __Umul8_16@word_mpld:
   816                           
   817                           ; 2 bytes @ 0x16
   818  0036                     	ds	2
   819  0038                     ??___lldiv:
   820  0038                     __Umul8_16@multiplier:	
   821                           ; 1 bytes @ 0x18
   822                           
   823  0038                     ___xxtofl@sign:	
   824                           ; 1 bytes @ 0x18
   825                           
   826                           
   827                           ; 1 bytes @ 0x18
   828  0038                     	ds	1
   829  0039                     ___xxtofl@exp:
   830  0039                     ___lldiv@quotient:	
   831                           ; 1 bytes @ 0x19
   832                           
   833                           
   834                           ; 4 bytes @ 0x19
   835  0039                     	ds	1
   836  003A                     ___xxtofl@arg:
   837                           
   838                           ; 4 bytes @ 0x1A
   839  003A                     	ds	3
   840  003D                     ___lldiv@counter:
   841                           
   842                           ; 1 bytes @ 0x1D
   843  003D                     	ds	1
   844  003E                     ?_I2C_Init:
   845  003E                     ?___flmul:	
   846                           ; 1 bytes @ 0x1E
   847                           
   848  003E                     I2C_Init@a:	
   849                           ; 4 bytes @ 0x1E
   850                           
   851  003E                     ___flmul@b:	
   852                           ; 4 bytes @ 0x1E
   853                           
   854                           
   855                           ; 4 bytes @ 0x1E
   856  003E                     	ds	4
   857  0042                     ??_I2C_Init:
   858  0042                     ___flmul@a:	
   859                           ; 1 bytes @ 0x22
   860                           
   861                           
   862                           ; 4 bytes @ 0x22
   863  0042                     	ds	4
   864  0046                     ??___flmul:
   865                           
   866                           ; 1 bytes @ 0x26
   867  0046                     	ds	5
   868  004B                     ?___fldiv:
   869  004B                     ___fldiv@a:	
   870                           ; 4 bytes @ 0x2B
   871                           
   872                           
   873                           ; 4 bytes @ 0x2B
   874  004B                     	ds	4
   875  004F                     ___fldiv@b:
   876                           
   877                           ; 4 bytes @ 0x2F
   878  004F                     	ds	4
   879  0053                     ___fltol@sign1:
   880                           
   881                           ; 1 bytes @ 0x33
   882  0053                     	ds	1
   883  0054                     ___fltol@exp1:
   884                           
   885                           ; 1 bytes @ 0x34
   886  0054                     	ds	1
   887                           
   888                           	psect	maintext
   889  0583                     __pmaintext:	
   890 ;;
   891 ;;Main: autosize = 0, tempsize = 3, incstack = 0, save=0
   892 ;;
   893 ;; *************** function _main *****************
   894 ;; Defined at:
   895 ;;		line 80 in file "Master.c"
   896 ;; Parameters:    Size  Location     Type
   897 ;;		None
   898 ;; Auto vars:     Size  Location     Type
   899 ;;		None
   900 ;; Return value:  Size  Location     Type
   901 ;;                  1    wreg      void 
   902 ;; Registers used:
   903 ;;		wreg, fsr0l, fsr0h, status,2, status,0, btemp+1, pclath, cstack
   904 ;; Tracked objects:
   905 ;;		On entry : B00/0
   906 ;;		On exit  : 0/0
   907 ;;		Unchanged: 0/0
   908 ;; Data sizes:     COMMON   BANK0   BANK1   BANK3   BANK2
   909 ;;      Params:         0       0       0       0       0
   910 ;;      Locals:         0       0       0       0       0
   911 ;;      Temps:          0       0       3       0       0
   912 ;;      Totals:         0       0       3       0       0
   913 ;;Total ram usage:        3 bytes
   914 ;; Hardware stack levels required when called: 6
   915 ;; This function calls:
   916 ;;		_I2C_Init
   917 ;;		_I2C_M_Read
   918 ;;		_I2C_M_Start
   919 ;;		_I2C_M_Stop
   920 ;;		_InitOSC
   921 ;;		_SERIAL_Init
   922 ;;		_UART_READ
   923 ;;		_UART_Write
   924 ;;		___fldiv
   925 ;;		___flmul
   926 ;;		___fltol
   927 ;;		___xxtofl
   928 ;;		_setup
   929 ;; This function is called by:
   930 ;;		Startup code after reset
   931 ;; This function uses a non-reentrant model
   932 ;;
   933                           
   934                           
   935                           ;psect for function _main
   936  0583                     _main:
   937  0583                     l2313:	
   938                           ;incstack = 0
   939                           ; Regs used in _main: [wreg-fsr0h+status,2+status,0+btemp+1+pclath+cstack]
   940                           
   941                           
   942                           ;Master.c: 82:     setup();
   943  0583  120A  158A  22D1  120A  118A  	fcall	_setup
   944  0588                     l2315:
   945                           
   946                           ;Master.c: 83:     I2C_Init(100000);
   947  0588  3000               	movlw	0
   948  0589  1283               	bcf	3,5	;RP0=0, select bank0
   949  058A  1303               	bcf	3,6	;RP1=0, select bank0
   950  058B  00C1               	movwf	I2C_Init@a+3
   951  058C  3001               	movlw	1
   952  058D  00C0               	movwf	I2C_Init@a+2
   953  058E  3086               	movlw	134
   954  058F  00BF               	movwf	I2C_Init@a+1
   955  0590  30A0               	movlw	160
   956  0591  00BE               	movwf	I2C_Init@a
   957  0592  120A  158A  23EA  120A  118A  	fcall	_I2C_Init
   958  0597                     l2317:
   959                           
   960                           ;Master.c: 84:     InitOSC(7);
   961  0597  3007               	movlw	7
   962  0598  120A  158A  2424  120A  118A  	fcall	_InitOSC
   963  059D                     l2319:
   964                           
   965                           ;Master.c: 85:     SERIAL_Init();
   966  059D  120A  158A  22E0  120A  118A  	fcall	_SERIAL_Init
   967  05A2                     l2321:
   968                           
   969                           ;Master.c: 93:         if (COMPARE==0){
   970  05A2  1283               	bcf	3,5	;RP0=0, select bank0
   971  05A3  1303               	bcf	3,6	;RP1=0, select bank0
   972  05A4  085F               	movf	_COMPARE,w
   973  05A5  1D03               	btfss	3,2
   974  05A6  2DA8               	goto	u3021
   975  05A7  2DA9               	goto	u3020
   976  05A8                     u3021:
   977  05A8  2DAC               	goto	l74
   978  05A9                     u3020:
   979  05A9                     l2323:
   980                           
   981                           ;Master.c: 94:             PORTDbits.RD6 = 1;
   982  05A9  1708               	bsf	8,6	;volatile
   983                           
   984                           ;Master.c: 95:             PORTDbits.RD7 = 0;
   985  05AA  1388               	bcf	8,7	;volatile
   986                           
   987                           ;Master.c: 96:         }
   988  05AB  2DAE               	goto	l2325
   989  05AC                     l74:	
   990                           ;Master.c: 97:         else {
   991                           
   992                           
   993                           ;Master.c: 98:             PORTDbits.RD6 = 0;
   994  05AC  1308               	bcf	8,6	;volatile
   995                           
   996                           ;Master.c: 99:             PORTDbits.RD7 = 1;
   997  05AD  1788               	bsf	8,7	;volatile
   998  05AE                     l2325:
   999                           
  1000                           ;Master.c: 103:         I2C_M_Start();
  1001  05AE  120A  158A  2299  120A  118A  	fcall	_I2C_M_Start
  1002                           
  1003                           ;Master.c: 104:         sensor = I2C_M_Read(0);
  1004  05B3  3000               	movlw	0
  1005  05B4  1283               	bcf	3,5	;RP0=0, select bank0
  1006  05B5  1303               	bcf	3,6	;RP1=0, select bank0
  1007  05B6  00B0               	movwf	I2C_M_Read@a
  1008  05B7  00B1               	movwf	I2C_M_Read@a+1
  1009  05B8  120A  158A  2348  120A  118A  	fcall	_I2C_M_Read
  1010  05BD  1283               	bcf	3,5	;RP0=0, select bank0
  1011  05BE  1303               	bcf	3,6	;RP1=0, select bank0
  1012  05BF  0831               	movf	?_I2C_M_Read+1,w
  1013  05C0  00DE               	movwf	_sensor+1
  1014  05C1  0830               	movf	?_I2C_M_Read,w
  1015  05C2  00DD               	movwf	_sensor
  1016                           
  1017                           ;Master.c: 105:         I2C_M_Stop();
  1018  05C3  120A  158A  22A2  120A  118A  	fcall	_I2C_M_Stop
  1019  05C8                     l2327:
  1020                           
  1021                           ;Master.c: 107:         _delay((unsigned long)((200)*(8000000/4000.0)));
  1022  05C8  3003               	movlw	3
  1023  05C9  1683               	bsf	3,5	;RP0=1, select bank1
  1024  05CA  1303               	bcf	3,6	;RP1=0, select bank1
  1025  05CB  00CA               	movwf	(??_main^(0+128)+2)
  1026  05CC  3008               	movlw	8
  1027  05CD  00C9               	movwf	(??_main^(0+128)+1)
  1028  05CE  3076               	movlw	118
  1029  05CF  00C8               	movwf	??_main^(0+128)
  1030  05D0                     u3037:
  1031  05D0  0BC8               	decfsz	??_main^(0+128),f
  1032  05D1  2DD0               	goto	u3037
  1033  05D2  0BC9               	decfsz	(??_main^(0+128)+1),f
  1034  05D3  2DD0               	goto	u3037
  1035  05D4  0BCA               	decfsz	(??_main^(0+128)+2),f
  1036  05D5  2DD0               	goto	u3037
  1037  05D6  0000               	nop
  1038  05D7                     l2329:
  1039                           
  1040                           ;Master.c: 109:         Enviar = (sensor*30.0)/255.0;
  1041  05D7  1283               	bcf	3,5	;RP0=0, select bank0
  1042  05D8  1303               	bcf	3,6	;RP1=0, select bank0
  1043  05D9  085D               	movf	_sensor,w
  1044  05DA  00B0               	movwf	___xxtofl@val
  1045  05DB  085E               	movf	_sensor+1,w
  1046  05DC  00B1               	movwf	___xxtofl@val+1
  1047  05DD  3000               	movlw	0
  1048  05DE  1BB1               	btfsc	___xxtofl@val+1,7
  1049  05DF  30FF               	movlw	255
  1050  05E0  00B2               	movwf	___xxtofl@val+2
  1051  05E1  00B3               	movwf	___xxtofl@val+3
  1052  05E2  3001               	movlw	1
  1053  05E3  120A  118A  266B  120A  118A  	fcall	___xxtofl
  1054  05E8  1283               	bcf	3,5	;RP0=0, select bank0
  1055  05E9  1303               	bcf	3,6	;RP1=0, select bank0
  1056  05EA  0833               	movf	?___xxtofl+3,w
  1057  05EB  00C5               	movwf	___flmul@a+3
  1058  05EC  0832               	movf	?___xxtofl+2,w
  1059  05ED  00C4               	movwf	___flmul@a+2
  1060  05EE  0831               	movf	?___xxtofl+1,w
  1061  05EF  00C3               	movwf	___flmul@a+1
  1062  05F0  0830               	movf	?___xxtofl,w
  1063  05F1  00C2               	movwf	___flmul@a
  1064  05F2  3041               	movlw	65
  1065  05F3  00C1               	movwf	___flmul@b+3
  1066  05F4  30F0               	movlw	240
  1067  05F5  00C0               	movwf	___flmul@b+2
  1068  05F6  3000               	movlw	0
  1069  05F7  00BF               	movwf	___flmul@b+1
  1070  05F8  3000               	movlw	0
  1071  05F9  00BE               	movwf	___flmul@b
  1072  05FA  120A  118A  2024  120A  118A  	fcall	___flmul
  1073  05FF  1283               	bcf	3,5	;RP0=0, select bank0
  1074  0600  1303               	bcf	3,6	;RP1=0, select bank0
  1075  0601  0841               	movf	?___flmul+3,w
  1076  0602  00D2               	movwf	___fldiv@b+3
  1077  0603  0840               	movf	?___flmul+2,w
  1078  0604  00D1               	movwf	___fldiv@b+2
  1079  0605  083F               	movf	?___flmul+1,w
  1080  0606  00D0               	movwf	___fldiv@b+1
  1081  0607  083E               	movf	?___flmul,w
  1082  0608  00CF               	movwf	___fldiv@b
  1083  0609  3043               	movlw	67
  1084  060A  00CE               	movwf	___fldiv@a+3
  1085  060B  307F               	movlw	127
  1086  060C  00CD               	movwf	___fldiv@a+2
  1087  060D  3000               	movlw	0
  1088  060E  00CC               	movwf	___fldiv@a+1
  1089  060F  3000               	movlw	0
  1090  0610  00CB               	movwf	___fldiv@a
  1091  0611  120A  158A  256B  120A  118A  	fcall	___fldiv
  1092  0616  1283               	bcf	3,5	;RP0=0, select bank0
  1093  0617  1303               	bcf	3,6	;RP1=0, select bank0
  1094  0618  084E               	movf	?___fldiv+3,w
  1095  0619  1683               	bsf	3,5	;RP0=1, select bank1
  1096  061A  1303               	bcf	3,6	;RP1=0, select bank1
  1097  061B  00C2               	movwf	(___fltol@f1+3)^(0+128)
  1098  061C  1283               	bcf	3,5	;RP0=0, select bank0
  1099  061D  1303               	bcf	3,6	;RP1=0, select bank0
  1100  061E  084D               	movf	?___fldiv+2,w
  1101  061F  1683               	bsf	3,5	;RP0=1, select bank1
  1102  0620  1303               	bcf	3,6	;RP1=0, select bank1
  1103  0621  00C1               	movwf	(___fltol@f1+2)^(0+128)
  1104  0622  1283               	bcf	3,5	;RP0=0, select bank0
  1105  0623  1303               	bcf	3,6	;RP1=0, select bank0
  1106  0624  084C               	movf	?___fldiv+1,w
  1107  0625  1683               	bsf	3,5	;RP0=1, select bank1
  1108  0626  1303               	bcf	3,6	;RP1=0, select bank1
  1109  0627  00C0               	movwf	(___fltol@f1+1)^(0+128)
  1110  0628  1283               	bcf	3,5	;RP0=0, select bank0
  1111  0629  1303               	bcf	3,6	;RP1=0, select bank0
  1112  062A  084B               	movf	?___fldiv,w
  1113  062B  1683               	bsf	3,5	;RP0=1, select bank1
  1114  062C  1303               	bcf	3,6	;RP1=0, select bank1
  1115  062D  00BF               	movwf	___fltol@f1^(0+128)
  1116  062E  120A  118A  2727  120A  118A  	fcall	___fltol
  1117  0633  1683               	bsf	3,5	;RP0=1, select bank1
  1118  0634  1303               	bcf	3,6	;RP1=0, select bank1
  1119  0635  0840               	movf	(?___fltol+1)^(0+128),w
  1120  0636  1283               	bcf	3,5	;RP0=0, select bank0
  1121  0637  1303               	bcf	3,6	;RP1=0, select bank0
  1122  0638  00DC               	movwf	_Enviar+1
  1123  0639  1683               	bsf	3,5	;RP0=1, select bank1
  1124  063A  1303               	bcf	3,6	;RP1=0, select bank1
  1125  063B  083F               	movf	?___fltol^(0+128),w
  1126  063C  1283               	bcf	3,5	;RP0=0, select bank0
  1127  063D  1303               	bcf	3,6	;RP1=0, select bank0
  1128  063E  00DB               	movwf	_Enviar
  1129  063F                     l2331:
  1130                           
  1131                           ;Master.c: 112:         UART_Write(Enviar);
  1132  063F  085B               	movf	_Enviar,w
  1133  0640  120A  158A  22C3  120A  118A  	fcall	_UART_Write
  1134  0645                     l2333:
  1135                           
  1136                           ;Master.c: 113:         _delay((unsigned long)((10)*(8000000/4000.0)));
  1137  0645  301A               	movlw	26
  1138  0646  1683               	bsf	3,5	;RP0=1, select bank1
  1139  0647  1303               	bcf	3,6	;RP1=0, select bank1
  1140  0648  00C9               	movwf	(??_main^(0+128)+1)
  1141  0649  30F7               	movlw	247
  1142  064A  00C8               	movwf	??_main^(0+128)
  1143  064B                     u3047:
  1144  064B  0BC8               	decfsz	??_main^(0+128),f
  1145  064C  2E4B               	goto	u3047
  1146  064D  0BC9               	decfsz	(??_main^(0+128)+1),f
  1147  064E  2E4B               	goto	u3047
  1148  064F  2E50               	nop2
  1149  0650                     l2335:
  1150                           
  1151                           ;Master.c: 115:         COMPARE = UART_READ();
  1152  0650  120A  158A  2291  120A  118A  	fcall	_UART_READ
  1153  0655  1683               	bsf	3,5	;RP0=1, select bank1
  1154  0656  1303               	bcf	3,6	;RP1=0, select bank1
  1155  0657  00C8               	movwf	??_main^(0+128)
  1156  0658  0848               	movf	??_main^(0+128),w
  1157  0659  1283               	bcf	3,5	;RP0=0, select bank0
  1158  065A  1303               	bcf	3,6	;RP1=0, select bank0
  1159  065B  00DF               	movwf	_COMPARE
  1160  065C                     l2337:
  1161                           
  1162                           ;Master.c: 116:         _delay((unsigned long)((10)*(8000000/4000.0)));
  1163  065C  301A               	movlw	26
  1164  065D  1683               	bsf	3,5	;RP0=1, select bank1
  1165  065E  1303               	bcf	3,6	;RP1=0, select bank1
  1166  065F  00C9               	movwf	(??_main^(0+128)+1)
  1167  0660  30F7               	movlw	247
  1168  0661  00C8               	movwf	??_main^(0+128)
  1169  0662                     u3057:
  1170  0662  0BC8               	decfsz	??_main^(0+128),f
  1171  0663  2E62               	goto	u3057
  1172  0664  0BC9               	decfsz	(??_main^(0+128)+1),f
  1173  0665  2E62               	goto	u3057
  1174  0666  2E67               	nop2
  1175  0667  2DA2               	goto	l2321
  1176  0668  120A  118A  2810   	ljmp	start
  1177  066B                     __end_of_main:
  1178                           
  1179                           	psect	text1
  1180  0AD1                     __ptext1:	
  1181 ;; *************** function _setup *****************
  1182 ;; Defined at:
  1183 ;;		line 125 in file "Master.c"
  1184 ;; Parameters:    Size  Location     Type
  1185 ;;		None
  1186 ;; Auto vars:     Size  Location     Type
  1187 ;;		None
  1188 ;; Return value:  Size  Location     Type
  1189 ;;                  1    wreg      void 
  1190 ;; Registers used:
  1191 ;;		status,2
  1192 ;; Tracked objects:
  1193 ;;		On entry : 0/0
  1194 ;;		On exit  : 0/0
  1195 ;;		Unchanged: 0/0
  1196 ;; Data sizes:     COMMON   BANK0   BANK1   BANK3   BANK2
  1197 ;;      Params:         0       0       0       0       0
  1198 ;;      Locals:         0       0       0       0       0
  1199 ;;      Temps:          0       0       0       0       0
  1200 ;;      Totals:         0       0       0       0       0
  1201 ;;Total ram usage:        0 bytes
  1202 ;; Hardware stack levels used: 1
  1203 ;; Hardware stack levels required when called: 4
  1204 ;; This function calls:
  1205 ;;		Nothing
  1206 ;; This function is called by:
  1207 ;;		_main
  1208 ;; This function uses a non-reentrant model
  1209 ;;
  1210                           
  1211                           
  1212                           ;psect for function _setup
  1213  0AD1                     _setup:
  1214  0AD1                     l1607:	
  1215                           ;incstack = 0
  1216                           ; Regs used in _setup: [status,2]
  1217                           
  1218                           
  1219                           ;Master.c: 126:     TRISA=0;
  1220  0AD1  1683               	bsf	3,5	;RP0=1, select bank1
  1221  0AD2  1303               	bcf	3,6	;RP1=0, select bank1
  1222  0AD3  0185               	clrf	5	;volatile
  1223                           
  1224                           ;Master.c: 127:     TRISB=0;
  1225  0AD4  0186               	clrf	6	;volatile
  1226                           
  1227                           ;Master.c: 128:     TRISC=0;
  1228  0AD5  0187               	clrf	7	;volatile
  1229                           
  1230                           ;Master.c: 129:     TRISD=0;
  1231  0AD6  0188               	clrf	8	;volatile
  1232                           
  1233                           ;Master.c: 130:     TRISE=0;
  1234  0AD7  0189               	clrf	9	;volatile
  1235                           
  1236                           ;Master.c: 132:     PORTA=0;
  1237  0AD8  1283               	bcf	3,5	;RP0=0, select bank0
  1238  0AD9  1303               	bcf	3,6	;RP1=0, select bank0
  1239  0ADA  0185               	clrf	5	;volatile
  1240                           
  1241                           ;Master.c: 133:     PORTB=0;
  1242  0ADB  0186               	clrf	6	;volatile
  1243                           
  1244                           ;Master.c: 134:     PORTC=0;
  1245  0ADC  0187               	clrf	7	;volatile
  1246                           
  1247                           ;Master.c: 135:     PORTD=0;
  1248  0ADD  0188               	clrf	8	;volatile
  1249                           
  1250                           ;Master.c: 136:     PORTE=0;
  1251  0ADE  0189               	clrf	9	;volatile
  1252  0ADF                     l81:
  1253  0ADF  0008               	return
  1254  0AE0                     __end_of_setup:
  1255                           
  1256                           	psect	text2
  1257  066B                     __ptext2:	
  1258 ;; *************** function ___xxtofl *****************
  1259 ;; Defined at:
  1260 ;;		line 10 in file "C:\Program Files\Microchip\xc8\v2.32\pic\sources\c90\common\xxtofl.c"
  1261 ;; Parameters:    Size  Location     Type
  1262 ;;  sign            1    wreg     unsigned char 
  1263 ;;  val             4   16[BANK0 ] long 
  1264 ;; Auto vars:     Size  Location     Type
  1265 ;;  sign            1   24[BANK0 ] unsigned char 
  1266 ;;  arg             4   26[BANK0 ] unsigned long 
  1267 ;;  exp             1   25[BANK0 ] unsigned char 
  1268 ;; Return value:  Size  Location     Type
  1269 ;;                  4   16[BANK0 ] unsigned char 
  1270 ;; Registers used:
  1271 ;;		wreg, status,2, status,0
  1272 ;; Tracked objects:
  1273 ;;		On entry : 0/0
  1274 ;;		On exit  : 0/0
  1275 ;;		Unchanged: 0/0
  1276 ;; Data sizes:     COMMON   BANK0   BANK1   BANK3   BANK2
  1277 ;;      Params:         0       4       0       0       0
  1278 ;;      Locals:         0       6       0       0       0
  1279 ;;      Temps:          0       4       0       0       0
  1280 ;;      Totals:         0      14       0       0       0
  1281 ;;Total ram usage:       14 bytes
  1282 ;; Hardware stack levels used: 1
  1283 ;; Hardware stack levels required when called: 4
  1284 ;; This function calls:
  1285 ;;		Nothing
  1286 ;; This function is called by:
  1287 ;;		_main
  1288 ;; This function uses a non-reentrant model
  1289 ;;
  1290                           
  1291                           
  1292                           ;psect for function ___xxtofl
  1293  066B                     ___xxtofl:
  1294                           
  1295                           ;incstack = 0
  1296                           ; Regs used in ___xxtofl: [wreg+status,2+status,0]
  1297                           ;___xxtofl@sign stored from wreg
  1298  066B  1283               	bcf	3,5	;RP0=0, select bank0
  1299  066C  1303               	bcf	3,6	;RP1=0, select bank0
  1300  066D  00B8               	movwf	___xxtofl@sign
  1301  066E                     l2007:
  1302  066E  0838               	movf	___xxtofl@sign,w
  1303  066F  1903               	btfsc	3,2
  1304  0670  2E72               	goto	u2361
  1305  0671  2E73               	goto	u2360
  1306  0672                     u2361:
  1307  0672  2E87               	goto	l2013
  1308  0673                     u2360:
  1309  0673                     l2009:
  1310  0673  1FB3               	btfss	___xxtofl@val+3,7
  1311  0674  2E76               	goto	u2371
  1312  0675  2E77               	goto	u2370
  1313  0676                     u2371:
  1314  0676  2E87               	goto	l2013
  1315  0677                     u2370:
  1316  0677                     l2011:
  1317  0677  0930               	comf	___xxtofl@val,w
  1318  0678  00BA               	movwf	___xxtofl@arg
  1319  0679  0931               	comf	___xxtofl@val+1,w
  1320  067A  00BB               	movwf	___xxtofl@arg+1
  1321  067B  0932               	comf	___xxtofl@val+2,w
  1322  067C  00BC               	movwf	___xxtofl@arg+2
  1323  067D  0933               	comf	___xxtofl@val+3,w
  1324  067E  00BD               	movwf	___xxtofl@arg+3
  1325  067F  0ABA               	incf	___xxtofl@arg,f
  1326  0680  1903               	skipnz
  1327  0681  0ABB               	incf	___xxtofl@arg+1,f
  1328  0682  1903               	skipnz
  1329  0683  0ABC               	incf	___xxtofl@arg+2,f
  1330  0684  1903               	skipnz
  1331  0685  0ABD               	incf	___xxtofl@arg+3,f
  1332  0686  2E8F               	goto	l712
  1333  0687                     l2013:
  1334  0687  0833               	movf	___xxtofl@val+3,w
  1335  0688  00BD               	movwf	___xxtofl@arg+3
  1336  0689  0832               	movf	___xxtofl@val+2,w
  1337  068A  00BC               	movwf	___xxtofl@arg+2
  1338  068B  0831               	movf	___xxtofl@val+1,w
  1339  068C  00BB               	movwf	___xxtofl@arg+1
  1340  068D  0830               	movf	___xxtofl@val,w
  1341  068E  00BA               	movwf	___xxtofl@arg
  1342  068F                     l712:
  1343  068F  0833               	movf	___xxtofl@val+3,w
  1344  0690  0432               	iorwf	___xxtofl@val+2,w
  1345  0691  0431               	iorwf	___xxtofl@val+1,w
  1346  0692  0430               	iorwf	___xxtofl@val,w
  1347  0693  1D03               	skipz
  1348  0694  2E96               	goto	u2381
  1349  0695  2E97               	goto	u2380
  1350  0696                     u2381:
  1351  0696  2EA0               	goto	l2019
  1352  0697                     u2380:
  1353  0697                     l2015:
  1354  0697  3000               	movlw	0
  1355  0698  00B3               	movwf	?___xxtofl+3
  1356  0699  3000               	movlw	0
  1357  069A  00B2               	movwf	?___xxtofl+2
  1358  069B  3000               	movlw	0
  1359  069C  00B1               	movwf	?___xxtofl+1
  1360  069D  3000               	movlw	0
  1361  069E  00B0               	movwf	?___xxtofl
  1362  069F  2F26               	goto	l714
  1363  06A0                     l2019:
  1364  06A0  3096               	movlw	150
  1365  06A1  00B4               	movwf	??___xxtofl
  1366  06A2  0834               	movf	??___xxtofl,w
  1367  06A3  00B9               	movwf	___xxtofl@exp
  1368  06A4  2EB2               	goto	l2023
  1369  06A5                     l2021:
  1370  06A5  3001               	movlw	1
  1371  06A6  00B4               	movwf	??___xxtofl
  1372  06A7  0834               	movf	??___xxtofl,w
  1373  06A8  07B9               	addwf	___xxtofl@exp,f
  1374  06A9  3001               	movlw	1
  1375  06AA                     u2395:
  1376  06AA  1003               	clrc
  1377  06AB  0CBD               	rrf	___xxtofl@arg+3,f
  1378  06AC  0CBC               	rrf	___xxtofl@arg+2,f
  1379  06AD  0CBB               	rrf	___xxtofl@arg+1,f
  1380  06AE  0CBA               	rrf	___xxtofl@arg,f
  1381  06AF  3EFF               	addlw	-1
  1382  06B0  1D03               	skipz
  1383  06B1  2EAA               	goto	u2395
  1384  06B2                     l2023:
  1385  06B2  30FE               	movlw	254
  1386  06B3  053D               	andwf	___xxtofl@arg+3,w
  1387  06B4  1D03               	btfss	3,2
  1388  06B5  2EB7               	goto	u2401
  1389  06B6  2EB8               	goto	u2400
  1390  06B7                     u2401:
  1391  06B7  2EA5               	goto	l2021
  1392  06B8                     u2400:
  1393  06B8  2ED4               	goto	l718
  1394  06B9                     l2025:
  1395  06B9  3001               	movlw	1
  1396  06BA  00B4               	movwf	??___xxtofl
  1397  06BB  0834               	movf	??___xxtofl,w
  1398  06BC  07B9               	addwf	___xxtofl@exp,f
  1399  06BD                     l2027:
  1400  06BD  3001               	movlw	1
  1401  06BE  07BA               	addwf	___xxtofl@arg,f
  1402  06BF  3000               	movlw	0
  1403  06C0  1803               	skipnc
  1404  06C1  3001               	movlw	1
  1405  06C2  07BB               	addwf	___xxtofl@arg+1,f
  1406  06C3  3000               	movlw	0
  1407  06C4  1803               	skipnc
  1408  06C5  3001               	movlw	1
  1409  06C6  07BC               	addwf	___xxtofl@arg+2,f
  1410  06C7  3000               	movlw	0
  1411  06C8  1803               	skipnc
  1412  06C9  3001               	movlw	1
  1413  06CA  07BD               	addwf	___xxtofl@arg+3,f
  1414  06CB                     l2029:
  1415  06CB  3001               	movlw	1
  1416  06CC                     u2415:
  1417  06CC  1003               	clrc
  1418  06CD  0CBD               	rrf	___xxtofl@arg+3,f
  1419  06CE  0CBC               	rrf	___xxtofl@arg+2,f
  1420  06CF  0CBB               	rrf	___xxtofl@arg+1,f
  1421  06D0  0CBA               	rrf	___xxtofl@arg,f
  1422  06D1  3EFF               	addlw	-1
  1423  06D2  1D03               	skipz
  1424  06D3  2ECC               	goto	u2415
  1425  06D4                     l718:
  1426  06D4  30FF               	movlw	255
  1427  06D5  053D               	andwf	___xxtofl@arg+3,w
  1428  06D6  1D03               	btfss	3,2
  1429  06D7  2ED9               	goto	u2421
  1430  06D8  2EDA               	goto	u2420
  1431  06D9                     u2421:
  1432  06D9  2EB9               	goto	l2025
  1433  06DA                     u2420:
  1434  06DA  2EE6               	goto	l2033
  1435  06DB                     l2031:
  1436  06DB  3001               	movlw	1
  1437  06DC  02B9               	subwf	___xxtofl@exp,f
  1438  06DD  3001               	movlw	1
  1439  06DE  00B4               	movwf	??___xxtofl
  1440  06DF                     u2435:
  1441  06DF  1003               	clrc
  1442  06E0  0DBA               	rlf	___xxtofl@arg,f
  1443  06E1  0DBB               	rlf	___xxtofl@arg+1,f
  1444  06E2  0DBC               	rlf	___xxtofl@arg+2,f
  1445  06E3  0DBD               	rlf	___xxtofl@arg+3,f
  1446  06E4  0BB4               	decfsz	??___xxtofl,f
  1447  06E5  2EDF               	goto	u2435
  1448  06E6                     l2033:
  1449  06E6  1BBC               	btfsc	___xxtofl@arg+2,7
  1450  06E7  2EE9               	goto	u2441
  1451  06E8  2EEA               	goto	u2440
  1452  06E9                     u2441:
  1453  06E9  2EF0               	goto	l725
  1454  06EA                     u2440:
  1455  06EA                     l2035:
  1456  06EA  3002               	movlw	2
  1457  06EB  0239               	subwf	___xxtofl@exp,w
  1458  06EC  1803               	skipnc
  1459  06ED  2EEF               	goto	u2451
  1460  06EE  2EF0               	goto	u2450
  1461  06EF                     u2451:
  1462  06EF  2EDB               	goto	l2031
  1463  06F0                     u2450:
  1464  06F0                     l725:
  1465  06F0  1839               	btfsc	___xxtofl@exp,0
  1466  06F1  2EF3               	goto	u2461
  1467  06F2  2EF4               	goto	u2460
  1468  06F3                     u2461:
  1469  06F3  2EFC               	goto	l726
  1470  06F4                     u2460:
  1471  06F4                     l2037:
  1472  06F4  30FF               	movlw	255
  1473  06F5  05BA               	andwf	___xxtofl@arg,f
  1474  06F6  30FF               	movlw	255
  1475  06F7  05BB               	andwf	___xxtofl@arg+1,f
  1476  06F8  307F               	movlw	127
  1477  06F9  05BC               	andwf	___xxtofl@arg+2,f
  1478  06FA  30FF               	movlw	255
  1479  06FB  05BD               	andwf	___xxtofl@arg+3,f
  1480  06FC                     l726:
  1481  06FC  1003               	clrc
  1482  06FD  0CB9               	rrf	___xxtofl@exp,f
  1483  06FE                     l2039:
  1484  06FE  0839               	movf	___xxtofl@exp,w
  1485  06FF  00B4               	movwf	??___xxtofl
  1486  0700  01B5               	clrf	??___xxtofl+1
  1487  0701  01B6               	clrf	??___xxtofl+2
  1488  0702  01B7               	clrf	??___xxtofl+3
  1489  0703  3018               	movlw	24
  1490  0704                     u2475:
  1491  0704  1003               	clrc
  1492  0705  0DB4               	rlf	??___xxtofl,f
  1493  0706  0DB5               	rlf	??___xxtofl+1,f
  1494  0707  0DB6               	rlf	??___xxtofl+2,f
  1495  0708  0DB7               	rlf	??___xxtofl+3,f
  1496  0709                     u2470:
  1497  0709  3EFF               	addlw	-1
  1498  070A  1D03               	skipz
  1499  070B  2F04               	goto	u2475
  1500  070C  0834               	movf	??___xxtofl,w
  1501  070D  04BA               	iorwf	___xxtofl@arg,f
  1502  070E  0835               	movf	??___xxtofl+1,w
  1503  070F  04BB               	iorwf	___xxtofl@arg+1,f
  1504  0710  0836               	movf	??___xxtofl+2,w
  1505  0711  04BC               	iorwf	___xxtofl@arg+2,f
  1506  0712  0837               	movf	??___xxtofl+3,w
  1507  0713  04BD               	iorwf	___xxtofl@arg+3,f
  1508  0714                     l2041:
  1509  0714  0838               	movf	___xxtofl@sign,w
  1510  0715  1903               	btfsc	3,2
  1511  0716  2F18               	goto	u2481
  1512  0717  2F19               	goto	u2480
  1513  0718                     u2481:
  1514  0718  2F1E               	goto	l2047
  1515  0719                     u2480:
  1516  0719                     l2043:
  1517  0719  1FB3               	btfss	___xxtofl@val+3,7
  1518  071A  2F1C               	goto	u2491
  1519  071B  2F1D               	goto	u2490
  1520  071C                     u2491:
  1521  071C  2F1E               	goto	l2047
  1522  071D                     u2490:
  1523  071D                     l2045:
  1524  071D  17BD               	bsf	___xxtofl@arg+3,7
  1525  071E                     l2047:
  1526  071E  083D               	movf	___xxtofl@arg+3,w
  1527  071F  00B3               	movwf	?___xxtofl+3
  1528  0720  083C               	movf	___xxtofl@arg+2,w
  1529  0721  00B2               	movwf	?___xxtofl+2
  1530  0722  083B               	movf	___xxtofl@arg+1,w
  1531  0723  00B1               	movwf	?___xxtofl+1
  1532  0724  083A               	movf	___xxtofl@arg,w
  1533  0725  00B0               	movwf	?___xxtofl
  1534  0726                     l714:
  1535  0726  0008               	return
  1536  0727                     __end_of___xxtofl:
  1537                           
  1538                           	psect	text3
  1539  0727                     __ptext3:	
  1540 ;; *************** function ___fltol *****************
  1541 ;; Defined at:
  1542 ;;		line 43 in file "C:\Program Files\Microchip\xc8\v2.32\pic\sources\c90\common\fltol.c"
  1543 ;; Parameters:    Size  Location     Type
  1544 ;;  f1              4   31[BANK1 ] unsigned char 
  1545 ;; Auto vars:     Size  Location     Type
  1546 ;;  exp1            1   52[BANK0 ] unsigned char 
  1547 ;;  sign1           1   51[BANK0 ] unsigned char 
  1548 ;; Return value:  Size  Location     Type
  1549 ;;                  4   31[BANK1 ] long 
  1550 ;; Registers used:
  1551 ;;		wreg, status,2, status,0
  1552 ;; Tracked objects:
  1553 ;;		On entry : 0/0
  1554 ;;		On exit  : 0/0
  1555 ;;		Unchanged: 0/0
  1556 ;; Data sizes:     COMMON   BANK0   BANK1   BANK3   BANK2
  1557 ;;      Params:         0       0       4       0       0
  1558 ;;      Locals:         0       2       0       0       0
  1559 ;;      Temps:          0       0       5       0       0
  1560 ;;      Totals:         0       2       9       0       0
  1561 ;;Total ram usage:       11 bytes
  1562 ;; Hardware stack levels used: 1
  1563 ;; Hardware stack levels required when called: 4
  1564 ;; This function calls:
  1565 ;;		Nothing
  1566 ;; This function is called by:
  1567 ;;		_main
  1568 ;; This function uses a non-reentrant model
  1569 ;;
  1570                           
  1571                           
  1572                           ;psect for function ___fltol
  1573  0727                     ___fltol:
  1574  0727                     l2137:	
  1575                           ;incstack = 0
  1576                           ; Regs used in ___fltol: [wreg+status,2+status,0]
  1577                           
  1578  0727  1003               	clrc
  1579  0728  1683               	bsf	3,5	;RP0=1, select bank1
  1580  0729  1303               	bcf	3,6	;RP1=0, select bank1
  1581  072A  0D41               	rlf	(___fltol@f1+2)^(0+128),w
  1582  072B  0D42               	rlf	(___fltol@f1+3)^(0+128),w
  1583  072C  00C3               	movwf	??___fltol^(0+128)
  1584  072D  0843               	movf	??___fltol^(0+128),w
  1585  072E  1283               	bcf	3,5	;RP0=0, select bank0
  1586  072F  1303               	bcf	3,6	;RP1=0, select bank0
  1587  0730  00D4               	movwf	___fltol@exp1
  1588  0731  0854               	movf	___fltol@exp1,w
  1589  0732  1D03               	btfss	3,2
  1590  0733  2F35               	goto	u2551
  1591  0734  2F36               	goto	u2550
  1592  0735                     u2551:
  1593  0735  2F41               	goto	l2143
  1594  0736                     u2550:
  1595  0736                     l2139:
  1596  0736  3000               	movlw	0
  1597  0737  1683               	bsf	3,5	;RP0=1, select bank1
  1598  0738  1303               	bcf	3,6	;RP1=0, select bank1
  1599  0739  00C2               	movwf	(?___fltol+3)^(0+128)
  1600  073A  3000               	movlw	0
  1601  073B  00C1               	movwf	(?___fltol+2)^(0+128)
  1602  073C  3000               	movlw	0
  1603  073D  00C0               	movwf	(?___fltol+1)^(0+128)
  1604  073E  3000               	movlw	0
  1605  073F  00BF               	movwf	?___fltol^(0+128)
  1606  0740  2FB8               	goto	l465
  1607  0741                     l2143:
  1608  0741  1683               	bsf	3,5	;RP0=1, select bank1
  1609  0742  1303               	bcf	3,6	;RP1=0, select bank1
  1610  0743  083F               	movf	___fltol@f1^(0+128),w
  1611  0744  00C3               	movwf	??___fltol^(0+128)
  1612  0745  0840               	movf	(___fltol@f1+1)^(0+128),w
  1613  0746  00C4               	movwf	(??___fltol^(0+128)+1)
  1614  0747  0841               	movf	(___fltol@f1+2)^(0+128),w
  1615  0748  00C5               	movwf	(??___fltol^(0+128)+2)
  1616  0749  0842               	movf	(___fltol@f1+3)^(0+128),w
  1617  074A  00C6               	movwf	(??___fltol^(0+128)+3)
  1618  074B  301F               	movlw	31
  1619  074C                     u2565:
  1620  074C  1003               	clrc
  1621  074D  0CC6               	rrf	(??___fltol^(0+128)+3),f
  1622  074E  0CC5               	rrf	(??___fltol^(0+128)+2),f
  1623  074F  0CC4               	rrf	(??___fltol^(0+128)+1),f
  1624  0750  0CC3               	rrf	??___fltol^(0+128),f
  1625  0751                     u2560:
  1626  0751  3EFF               	addlw	-1
  1627  0752  1D03               	skipz
  1628  0753  2F4C               	goto	u2565
  1629  0754  0843               	movf	??___fltol^(0+128),w
  1630  0755  00C7               	movwf	(??___fltol+4)^(0+128)
  1631  0756  0847               	movf	(??___fltol+4)^(0+128),w
  1632  0757  1283               	bcf	3,5	;RP0=0, select bank0
  1633  0758  1303               	bcf	3,6	;RP1=0, select bank0
  1634  0759  00D3               	movwf	___fltol@sign1
  1635  075A                     l2145:
  1636  075A  1683               	bsf	3,5	;RP0=1, select bank1
  1637  075B  1303               	bcf	3,6	;RP1=0, select bank1
  1638  075C  17C1               	bsf	(___fltol@f1^(0+128)+2),7
  1639  075D                     l2147:
  1640  075D  30FF               	movlw	255
  1641  075E  05BF               	andwf	___fltol@f1^(0+128),f
  1642  075F  30FF               	movlw	255
  1643  0760  05C0               	andwf	(___fltol@f1+1)^(0+128),f
  1644  0761  30FF               	movlw	255
  1645  0762  05C1               	andwf	(___fltol@f1+2)^(0+128),f
  1646  0763  3000               	movlw	0
  1647  0764  05C2               	andwf	(___fltol@f1+3)^(0+128),f
  1648  0765                     l2149:
  1649  0765  3096               	movlw	150
  1650  0766  1283               	bcf	3,5	;RP0=0, select bank0
  1651  0767  1303               	bcf	3,6	;RP1=0, select bank0
  1652  0768  02D4               	subwf	___fltol@exp1,f
  1653  0769                     l2151:
  1654  0769  1FD4               	btfss	___fltol@exp1,7
  1655  076A  2F6C               	goto	u2571
  1656  076B  2F6D               	goto	u2570
  1657  076C                     u2571:
  1658  076C  2F8B               	goto	l2161
  1659  076D                     u2570:
  1660  076D                     l2153:
  1661  076D  0854               	movf	___fltol@exp1,w
  1662  076E  3A80               	xorlw	128
  1663  076F  3E97               	addlw	151
  1664  0770  1803               	skipnc
  1665  0771  2F73               	goto	u2581
  1666  0772  2F74               	goto	u2580
  1667  0773                     u2581:
  1668  0773  2F75               	goto	l2159
  1669  0774                     u2580:
  1670  0774  2F36               	goto	l2139
  1671  0775                     l2159:
  1672  0775  3001               	movlw	1
  1673  0776                     u2595:
  1674  0776  1003               	clrc
  1675  0777  1683               	bsf	3,5	;RP0=1, select bank1
  1676  0778  1303               	bcf	3,6	;RP1=0, select bank1
  1677  0779  0CC2               	rrf	(___fltol@f1+3)^(0+128),f
  1678  077A  0CC1               	rrf	(___fltol@f1+2)^(0+128),f
  1679  077B  0CC0               	rrf	(___fltol@f1+1)^(0+128),f
  1680  077C  0CBF               	rrf	___fltol@f1^(0+128),f
  1681  077D  3EFF               	addlw	-1
  1682  077E  1D03               	skipz
  1683  077F  2F76               	goto	u2595
  1684  0780  3001               	movlw	1
  1685  0781  00C3               	movwf	??___fltol^(0+128)
  1686  0782  0843               	movf	??___fltol^(0+128),w
  1687  0783  1283               	bcf	3,5	;RP0=0, select bank0
  1688  0784  1303               	bcf	3,6	;RP1=0, select bank0
  1689  0785  07D4               	addwf	___fltol@exp1,f
  1690  0786  1D03               	btfss	3,2
  1691  0787  2F89               	goto	u2601
  1692  0788  2F8A               	goto	u2600
  1693  0789                     u2601:
  1694  0789  2F75               	goto	l2159
  1695  078A                     u2600:
  1696  078A  2FA6               	goto	l2169
  1697  078B                     l2161:
  1698  078B  3020               	movlw	32
  1699  078C  0254               	subwf	___fltol@exp1,w
  1700  078D  1C03               	skipc
  1701  078E  2F90               	goto	u2611
  1702  078F  2F91               	goto	u2610
  1703  0790                     u2611:
  1704  0790  2FA1               	goto	l472
  1705  0791                     u2610:
  1706  0791  2F36               	goto	l2139
  1707  0792                     l2167:
  1708  0792  3001               	movlw	1
  1709  0793  1683               	bsf	3,5	;RP0=1, select bank1
  1710  0794  1303               	bcf	3,6	;RP1=0, select bank1
  1711  0795  00C3               	movwf	??___fltol^(0+128)
  1712  0796                     u2625:
  1713  0796  1003               	clrc
  1714  0797  0DBF               	rlf	___fltol@f1^(0+128),f
  1715  0798  0DC0               	rlf	(___fltol@f1+1)^(0+128),f
  1716  0799  0DC1               	rlf	(___fltol@f1+2)^(0+128),f
  1717  079A  0DC2               	rlf	(___fltol@f1+3)^(0+128),f
  1718  079B  0BC3               	decfsz	??___fltol^(0+128),f
  1719  079C  2F96               	goto	u2625
  1720  079D  3001               	movlw	1
  1721  079E  1283               	bcf	3,5	;RP0=0, select bank0
  1722  079F  1303               	bcf	3,6	;RP1=0, select bank0
  1723  07A0  02D4               	subwf	___fltol@exp1,f
  1724  07A1                     l472:
  1725  07A1  0854               	movf	___fltol@exp1,w
  1726  07A2  1D03               	btfss	3,2
  1727  07A3  2FA5               	goto	u2631
  1728  07A4  2FA6               	goto	u2630
  1729  07A5                     u2631:
  1730  07A5  2F92               	goto	l2167
  1731  07A6                     u2630:
  1732  07A6                     l2169:
  1733  07A6  0853               	movf	___fltol@sign1,w
  1734  07A7  1903               	btfsc	3,2
  1735  07A8  2FAA               	goto	u2641
  1736  07A9  2FAB               	goto	u2640
  1737  07AA                     u2641:
  1738  07AA  2FB8               	goto	l475
  1739  07AB                     u2640:
  1740  07AB                     l2171:
  1741  07AB  1683               	bsf	3,5	;RP0=1, select bank1
  1742  07AC  1303               	bcf	3,6	;RP1=0, select bank1
  1743  07AD  09BF               	comf	___fltol@f1^(0+128),f
  1744  07AE  09C0               	comf	(___fltol@f1+1)^(0+128),f
  1745  07AF  09C1               	comf	(___fltol@f1+2)^(0+128),f
  1746  07B0  09C2               	comf	(___fltol@f1+3)^(0+128),f
  1747  07B1  0ABF               	incf	___fltol@f1^(0+128),f
  1748  07B2  1903               	skipnz
  1749  07B3  0AC0               	incf	(___fltol@f1+1)^(0+128),f
  1750  07B4  1903               	skipnz
  1751  07B5  0AC1               	incf	(___fltol@f1+2)^(0+128),f
  1752  07B6  1903               	skipnz
  1753  07B7  0AC2               	incf	(___fltol@f1+3)^(0+128),f
  1754  07B8                     l475:
  1755  07B8                     l465:
  1756  07B8  0008               	return
  1757  07B9                     __end_of___fltol:
  1758                           
  1759                           	psect	text4
  1760  0024                     __ptext4:	
  1761 ;; *************** function ___flmul *****************
  1762 ;; Defined at:
  1763 ;;		line 8 in file "C:\Program Files\Microchip\xc8\v2.32\pic\sources\c90\common\sprcmul.c"
  1764 ;; Parameters:    Size  Location     Type
  1765 ;;  b               4   30[BANK0 ] long 
  1766 ;;  a               4   34[BANK0 ] long 
  1767 ;; Auto vars:     Size  Location     Type
  1768 ;;  prod            4    7[BANK1 ] struct .
  1769 ;;  grs             4    2[BANK1 ] unsigned long 
  1770 ;;  temp            2   11[BANK1 ] struct .
  1771 ;;  bexp            1    6[BANK1 ] unsigned char 
  1772 ;;  aexp            1    1[BANK1 ] unsigned char 
  1773 ;;  sign            1    0[BANK1 ] unsigned char 
  1774 ;; Return value:  Size  Location     Type
  1775 ;;                  4   30[BANK0 ] unsigned char 
  1776 ;; Registers used:
  1777 ;;		wreg, status,2, status,0, btemp+1, pclath, cstack
  1778 ;; Tracked objects:
  1779 ;;		On entry : 0/0
  1780 ;;		On exit  : 0/0
  1781 ;;		Unchanged: 0/0
  1782 ;; Data sizes:     COMMON   BANK0   BANK1   BANK3   BANK2
  1783 ;;      Params:         0       8       0       0       0
  1784 ;;      Locals:         0       0      13       0       0
  1785 ;;      Temps:          0       5       0       0       0
  1786 ;;      Totals:         0      13      13       0       0
  1787 ;;Total ram usage:       26 bytes
  1788 ;; Hardware stack levels used: 1
  1789 ;; Hardware stack levels required when called: 5
  1790 ;; This function calls:
  1791 ;;		__Umul8_16
  1792 ;; This function is called by:
  1793 ;;		_main
  1794 ;; This function uses a non-reentrant model
  1795 ;;
  1796                           
  1797                           
  1798                           ;psect for function ___flmul
  1799  0024                     ___flmul:
  1800  0024                     l2173:	
  1801                           ;incstack = 0
  1802                           ; Regs used in ___flmul: [wreg+status,2+status,0+btemp+1+pclath+cstack]
  1803                           
  1804  0024  1283               	bcf	3,5	;RP0=0, select bank0
  1805  0025  1303               	bcf	3,6	;RP1=0, select bank0
  1806  0026  0841               	movf	___flmul@b+3,w
  1807  0027  3980               	andlw	128
  1808  0028  00C6               	movwf	??___flmul
  1809  0029  0846               	movf	??___flmul,w
  1810  002A  1683               	bsf	3,5	;RP0=1, select bank1
  1811  002B  1303               	bcf	3,6	;RP1=0, select bank1
  1812  002C  00A0               	movwf	___flmul@sign^(0+128)
  1813  002D                     l2175:
  1814  002D  1283               	bcf	3,5	;RP0=0, select bank0
  1815  002E  1303               	bcf	3,6	;RP1=0, select bank0
  1816  002F  0841               	movf	___flmul@b+3,w
  1817  0030  00C6               	movwf	??___flmul
  1818  0031  0746               	addwf	??___flmul,w
  1819  0032  00C7               	movwf	??___flmul+1
  1820  0033  0847               	movf	??___flmul+1,w
  1821  0034  1683               	bsf	3,5	;RP0=1, select bank1
  1822  0035  1303               	bcf	3,6	;RP1=0, select bank1
  1823  0036  00A6               	movwf	___flmul@bexp^(0+128)
  1824  0037                     l2177:
  1825  0037  1283               	bcf	3,5	;RP0=0, select bank0
  1826  0038  1303               	bcf	3,6	;RP1=0, select bank0
  1827  0039  1FC0               	btfss	___flmul@b+2,7
  1828  003A  283C               	goto	u2651
  1829  003B  283D               	goto	u2650
  1830  003C                     u2651:
  1831  003C  2840               	goto	l2181
  1832  003D                     u2650:
  1833  003D                     l2179:
  1834  003D  1683               	bsf	3,5	;RP0=1, select bank1
  1835  003E  1303               	bcf	3,6	;RP1=0, select bank1
  1836  003F  1426               	bsf	___flmul@bexp^(0+128),0
  1837  0040                     l2181:
  1838  0040  1683               	bsf	3,5	;RP0=1, select bank1
  1839  0041  1303               	bcf	3,6	;RP1=0, select bank1
  1840  0042  0826               	movf	___flmul@bexp^(0+128),w
  1841  0043  1903               	btfsc	3,2
  1842  0044  2846               	goto	u2661
  1843  0045  2847               	goto	u2660
  1844  0046                     u2661:
  1845  0046  2859               	goto	l2189
  1846  0047                     u2660:
  1847  0047                     l2183:
  1848  0047  0A26               	incf	___flmul@bexp^(0+128),w
  1849  0048  1D03               	btfss	3,2
  1850  0049  284B               	goto	u2671
  1851  004A  284C               	goto	u2670
  1852  004B                     u2671:
  1853  004B  2856               	goto	l2187
  1854  004C                     u2670:
  1855  004C                     l2185:
  1856  004C  3000               	movlw	0
  1857  004D  1283               	bcf	3,5	;RP0=0, select bank0
  1858  004E  1303               	bcf	3,6	;RP1=0, select bank0
  1859  004F  00C1               	movwf	___flmul@b+3
  1860  0050  3000               	movlw	0
  1861  0051  00C0               	movwf	___flmul@b+2
  1862  0052  3000               	movlw	0
  1863  0053  00BF               	movwf	___flmul@b+1
  1864  0054  3000               	movlw	0
  1865  0055  00BE               	movwf	___flmul@b
  1866  0056                     l2187:
  1867  0056  1283               	bcf	3,5	;RP0=0, select bank0
  1868  0057  17C0               	bsf	___flmul@b+2,7
  1869  0058  2863               	goto	l2191
  1870  0059                     l2189:
  1871  0059  3000               	movlw	0
  1872  005A  1283               	bcf	3,5	;RP0=0, select bank0
  1873  005B  1303               	bcf	3,6	;RP1=0, select bank0
  1874  005C  00C1               	movwf	___flmul@b+3
  1875  005D  3000               	movlw	0
  1876  005E  00C0               	movwf	___flmul@b+2
  1877  005F  3000               	movlw	0
  1878  0060  00BF               	movwf	___flmul@b+1
  1879  0061  3000               	movlw	0
  1880  0062  00BE               	movwf	___flmul@b
  1881  0063                     l2191:
  1882  0063  0845               	movf	___flmul@a+3,w
  1883  0064  3980               	andlw	128
  1884  0065  00C6               	movwf	??___flmul
  1885  0066  0846               	movf	??___flmul,w
  1886  0067  1683               	bsf	3,5	;RP0=1, select bank1
  1887  0068  1303               	bcf	3,6	;RP1=0, select bank1
  1888  0069  06A0               	xorwf	___flmul@sign^(0+128),f
  1889  006A                     l2193:
  1890  006A  1283               	bcf	3,5	;RP0=0, select bank0
  1891  006B  1303               	bcf	3,6	;RP1=0, select bank0
  1892  006C  0845               	movf	___flmul@a+3,w
  1893  006D  00C6               	movwf	??___flmul
  1894  006E  0746               	addwf	??___flmul,w
  1895  006F  00C7               	movwf	??___flmul+1
  1896  0070  0847               	movf	??___flmul+1,w
  1897  0071  1683               	bsf	3,5	;RP0=1, select bank1
  1898  0072  1303               	bcf	3,6	;RP1=0, select bank1
  1899  0073  00A1               	movwf	___flmul@aexp^(0+128)
  1900  0074                     l2195:
  1901  0074  1283               	bcf	3,5	;RP0=0, select bank0
  1902  0075  1303               	bcf	3,6	;RP1=0, select bank0
  1903  0076  1FC4               	btfss	___flmul@a+2,7
  1904  0077  2879               	goto	u2681
  1905  0078  287A               	goto	u2680
  1906  0079                     u2681:
  1907  0079  287D               	goto	l2199
  1908  007A                     u2680:
  1909  007A                     l2197:
  1910  007A  1683               	bsf	3,5	;RP0=1, select bank1
  1911  007B  1303               	bcf	3,6	;RP1=0, select bank1
  1912  007C  1421               	bsf	___flmul@aexp^(0+128),0
  1913  007D                     l2199:
  1914  007D  1683               	bsf	3,5	;RP0=1, select bank1
  1915  007E  1303               	bcf	3,6	;RP1=0, select bank1
  1916  007F  0821               	movf	___flmul@aexp^(0+128),w
  1917  0080  1903               	btfsc	3,2
  1918  0081  2883               	goto	u2691
  1919  0082  2884               	goto	u2690
  1920  0083                     u2691:
  1921  0083  2896               	goto	l2207
  1922  0084                     u2690:
  1923  0084                     l2201:
  1924  0084  0A21               	incf	___flmul@aexp^(0+128),w
  1925  0085  1D03               	btfss	3,2
  1926  0086  2888               	goto	u2701
  1927  0087  2889               	goto	u2700
  1928  0088                     u2701:
  1929  0088  2893               	goto	l2205
  1930  0089                     u2700:
  1931  0089                     l2203:
  1932  0089  3000               	movlw	0
  1933  008A  1283               	bcf	3,5	;RP0=0, select bank0
  1934  008B  1303               	bcf	3,6	;RP1=0, select bank0
  1935  008C  00C5               	movwf	___flmul@a+3
  1936  008D  3000               	movlw	0
  1937  008E  00C4               	movwf	___flmul@a+2
  1938  008F  3000               	movlw	0
  1939  0090  00C3               	movwf	___flmul@a+1
  1940  0091  3000               	movlw	0
  1941  0092  00C2               	movwf	___flmul@a
  1942  0093                     l2205:
  1943  0093  1283               	bcf	3,5	;RP0=0, select bank0
  1944  0094  17C4               	bsf	___flmul@a+2,7
  1945  0095  28A0               	goto	l2209
  1946  0096                     l2207:
  1947  0096  3000               	movlw	0
  1948  0097  1283               	bcf	3,5	;RP0=0, select bank0
  1949  0098  1303               	bcf	3,6	;RP1=0, select bank0
  1950  0099  00C5               	movwf	___flmul@a+3
  1951  009A  3000               	movlw	0
  1952  009B  00C4               	movwf	___flmul@a+2
  1953  009C  3000               	movlw	0
  1954  009D  00C3               	movwf	___flmul@a+1
  1955  009E  3000               	movlw	0
  1956  009F  00C2               	movwf	___flmul@a
  1957  00A0                     l2209:
  1958  00A0  1683               	bsf	3,5	;RP0=1, select bank1
  1959  00A1  1303               	bcf	3,6	;RP1=0, select bank1
  1960  00A2  0821               	movf	___flmul@aexp^(0+128),w
  1961  00A3  1903               	btfsc	3,2
  1962  00A4  28A6               	goto	u2711
  1963  00A5  28A7               	goto	u2710
  1964  00A6                     u2711:
  1965  00A6  28AC               	goto	l2213
  1966  00A7                     u2710:
  1967  00A7                     l2211:
  1968  00A7  0826               	movf	___flmul@bexp^(0+128),w
  1969  00A8  1D03               	btfss	3,2
  1970  00A9  28AB               	goto	u2721
  1971  00AA  28AC               	goto	u2720
  1972  00AB                     u2721:
  1973  00AB  28B7               	goto	l2217
  1974  00AC                     u2720:
  1975  00AC                     l2213:
  1976  00AC  3000               	movlw	0
  1977  00AD  1283               	bcf	3,5	;RP0=0, select bank0
  1978  00AE  1303               	bcf	3,6	;RP1=0, select bank0
  1979  00AF  00C1               	movwf	?___flmul+3
  1980  00B0  3000               	movlw	0
  1981  00B1  00C0               	movwf	?___flmul+2
  1982  00B2  3000               	movlw	0
  1983  00B3  00BF               	movwf	?___flmul+1
  1984  00B4  3000               	movlw	0
  1985  00B5  00BE               	movwf	?___flmul
  1986  00B6  2D82               	goto	l668
  1987  00B7                     l2217:
  1988  00B7  1283               	bcf	3,5	;RP0=0, select bank0
  1989  00B8  1303               	bcf	3,6	;RP1=0, select bank0
  1990  00B9  083E               	movf	___flmul@b,w
  1991  00BA  00C6               	movwf	??___flmul
  1992  00BB  0846               	movf	??___flmul,w
  1993  00BC  00B0               	movwf	__Umul8_16@multiplicand
  1994  00BD  0844               	movf	___flmul@a+2,w
  1995  00BE  120A  158A  22F3  120A  118A  	fcall	__Umul8_16
  1996  00C3  1283               	bcf	3,5	;RP0=0, select bank0
  1997  00C4  1303               	bcf	3,6	;RP1=0, select bank0
  1998  00C5  0831               	movf	?__Umul8_16+1,w
  1999  00C6  1683               	bsf	3,5	;RP0=1, select bank1
  2000  00C7  1303               	bcf	3,6	;RP1=0, select bank1
  2001  00C8  00AC               	movwf	(___flmul@temp+1)^(0+128)
  2002  00C9  1283               	bcf	3,5	;RP0=0, select bank0
  2003  00CA  1303               	bcf	3,6	;RP1=0, select bank0
  2004  00CB  0830               	movf	?__Umul8_16,w
  2005  00CC  1683               	bsf	3,5	;RP0=1, select bank1
  2006  00CD  1303               	bcf	3,6	;RP1=0, select bank1
  2007  00CE  00AB               	movwf	___flmul@temp^(0+128)
  2008  00CF                     l2219:
  2009  00CF  082B               	movf	___flmul@temp^(0+128),w
  2010  00D0  1283               	bcf	3,5	;RP0=0, select bank0
  2011  00D1  1303               	bcf	3,6	;RP1=0, select bank0
  2012  00D2  00C6               	movwf	??___flmul
  2013  00D3  01C7               	clrf	??___flmul+1
  2014  00D4  01C8               	clrf	??___flmul+2
  2015  00D5  01C9               	clrf	??___flmul+3
  2016  00D6  0849               	movf	??___flmul+3,w
  2017  00D7  1683               	bsf	3,5	;RP0=1, select bank1
  2018  00D8  1303               	bcf	3,6	;RP1=0, select bank1
  2019  00D9  00A5               	movwf	(___flmul@grs+3)^(0+128)
  2020  00DA  1283               	bcf	3,5	;RP0=0, select bank0
  2021  00DB  1303               	bcf	3,6	;RP1=0, select bank0
  2022  00DC  0848               	movf	??___flmul+2,w
  2023  00DD  1683               	bsf	3,5	;RP0=1, select bank1
  2024  00DE  1303               	bcf	3,6	;RP1=0, select bank1
  2025  00DF  00A4               	movwf	(___flmul@grs+2)^(0+128)
  2026  00E0  1283               	bcf	3,5	;RP0=0, select bank0
  2027  00E1  1303               	bcf	3,6	;RP1=0, select bank0
  2028  00E2  0847               	movf	??___flmul+1,w
  2029  00E3  1683               	bsf	3,5	;RP0=1, select bank1
  2030  00E4  1303               	bcf	3,6	;RP1=0, select bank1
  2031  00E5  00A3               	movwf	(___flmul@grs+1)^(0+128)
  2032  00E6  1283               	bcf	3,5	;RP0=0, select bank0
  2033  00E7  1303               	bcf	3,6	;RP1=0, select bank0
  2034  00E8  0846               	movf	??___flmul,w
  2035  00E9  1683               	bsf	3,5	;RP0=1, select bank1
  2036  00EA  1303               	bcf	3,6	;RP1=0, select bank1
  2037  00EB  00A2               	movwf	___flmul@grs^(0+128)
  2038  00EC                     l2221:
  2039  00EC  082C               	movf	(___flmul@temp^(0+128)+1),w
  2040  00ED  1283               	bcf	3,5	;RP0=0, select bank0
  2041  00EE  1303               	bcf	3,6	;RP1=0, select bank0
  2042  00EF  00C6               	movwf	??___flmul
  2043  00F0  01C7               	clrf	??___flmul+1
  2044  00F1  01C8               	clrf	??___flmul+2
  2045  00F2  01C9               	clrf	??___flmul+3
  2046  00F3  0849               	movf	??___flmul+3,w
  2047  00F4  1683               	bsf	3,5	;RP0=1, select bank1
  2048  00F5  1303               	bcf	3,6	;RP1=0, select bank1
  2049  00F6  00AA               	movwf	(___flmul@prod+3)^(0+128)
  2050  00F7  1283               	bcf	3,5	;RP0=0, select bank0
  2051  00F8  1303               	bcf	3,6	;RP1=0, select bank0
  2052  00F9  0848               	movf	??___flmul+2,w
  2053  00FA  1683               	bsf	3,5	;RP0=1, select bank1
  2054  00FB  1303               	bcf	3,6	;RP1=0, select bank1
  2055  00FC  00A9               	movwf	(___flmul@prod+2)^(0+128)
  2056  00FD  1283               	bcf	3,5	;RP0=0, select bank0
  2057  00FE  1303               	bcf	3,6	;RP1=0, select bank0
  2058  00FF  0847               	movf	??___flmul+1,w
  2059  0100  1683               	bsf	3,5	;RP0=1, select bank1
  2060  0101  1303               	bcf	3,6	;RP1=0, select bank1
  2061  0102  00A8               	movwf	(___flmul@prod+1)^(0+128)
  2062  0103  1283               	bcf	3,5	;RP0=0, select bank0
  2063  0104  1303               	bcf	3,6	;RP1=0, select bank0
  2064  0105  0846               	movf	??___flmul,w
  2065  0106  1683               	bsf	3,5	;RP0=1, select bank1
  2066  0107  1303               	bcf	3,6	;RP1=0, select bank1
  2067  0108  00A7               	movwf	___flmul@prod^(0+128)
  2068  0109  1283               	bcf	3,5	;RP0=0, select bank0
  2069  010A  1303               	bcf	3,6	;RP1=0, select bank0
  2070  010B  083F               	movf	___flmul@b+1,w
  2071  010C  00C6               	movwf	??___flmul
  2072  010D  0846               	movf	??___flmul,w
  2073  010E  00B0               	movwf	__Umul8_16@multiplicand
  2074  010F  0843               	movf	___flmul@a+1,w
  2075  0110  120A  158A  22F3  120A  118A  	fcall	__Umul8_16
  2076  0115  1283               	bcf	3,5	;RP0=0, select bank0
  2077  0116  1303               	bcf	3,6	;RP1=0, select bank0
  2078  0117  0831               	movf	?__Umul8_16+1,w
  2079  0118  1683               	bsf	3,5	;RP0=1, select bank1
  2080  0119  1303               	bcf	3,6	;RP1=0, select bank1
  2081  011A  00AC               	movwf	(___flmul@temp+1)^(0+128)
  2082  011B  1283               	bcf	3,5	;RP0=0, select bank0
  2083  011C  1303               	bcf	3,6	;RP1=0, select bank0
  2084  011D  0830               	movf	?__Umul8_16,w
  2085  011E  1683               	bsf	3,5	;RP0=1, select bank1
  2086  011F  1303               	bcf	3,6	;RP1=0, select bank1
  2087  0120  00AB               	movwf	___flmul@temp^(0+128)
  2088  0121                     l2223:
  2089  0121  082B               	movf	___flmul@temp^(0+128),w
  2090  0122  1283               	bcf	3,5	;RP0=0, select bank0
  2091  0123  1303               	bcf	3,6	;RP1=0, select bank0
  2092  0124  00C6               	movwf	??___flmul
  2093  0125  01C7               	clrf	??___flmul+1
  2094  0126  01C8               	clrf	??___flmul+2
  2095  0127  01C9               	clrf	??___flmul+3
  2096  0128  0846               	movf	??___flmul,w
  2097  0129  1683               	bsf	3,5	;RP0=1, select bank1
  2098  012A  1303               	bcf	3,6	;RP1=0, select bank1
  2099  012B  07A2               	addwf	___flmul@grs^(0+128),f
  2100  012C  1283               	bcf	3,5	;RP0=0, select bank0
  2101  012D  1303               	bcf	3,6	;RP1=0, select bank0
  2102  012E  0847               	movf	??___flmul+1,w
  2103  012F  1103               	clrz
  2104  0130  1803               	skipnc
  2105  0131  3E01               	addlw	1
  2106  0132  1903               	skipnz
  2107  0133  2937               	goto	u2731
  2108  0134  1683               	bsf	3,5	;RP0=1, select bank1
  2109  0135  1303               	bcf	3,6	;RP1=0, select bank1
  2110  0136  07A3               	addwf	(___flmul@grs+1)^(0+128),f
  2111  0137                     u2731:
  2112  0137  1283               	bcf	3,5	;RP0=0, select bank0
  2113  0138  1303               	bcf	3,6	;RP1=0, select bank0
  2114  0139  0848               	movf	??___flmul+2,w
  2115  013A  1103               	clrz
  2116  013B  1803               	skipnc
  2117  013C  3E01               	addlw	1
  2118  013D  1903               	skipnz
  2119  013E  2942               	goto	u2732
  2120  013F  1683               	bsf	3,5	;RP0=1, select bank1
  2121  0140  1303               	bcf	3,6	;RP1=0, select bank1
  2122  0141  07A4               	addwf	(___flmul@grs+2)^(0+128),f
  2123  0142                     u2732:
  2124  0142  1283               	bcf	3,5	;RP0=0, select bank0
  2125  0143  1303               	bcf	3,6	;RP1=0, select bank0
  2126  0144  0849               	movf	??___flmul+3,w
  2127  0145  1103               	clrz
  2128  0146  1803               	skipnc
  2129  0147  3E01               	addlw	1
  2130  0148  1903               	skipnz
  2131  0149  294D               	goto	u2733
  2132  014A  1683               	bsf	3,5	;RP0=1, select bank1
  2133  014B  1303               	bcf	3,6	;RP1=0, select bank1
  2134  014C  07A5               	addwf	(___flmul@grs+3)^(0+128),f
  2135  014D                     u2733:
  2136  014D  1283               	bcf	3,5	;RP0=0, select bank0
  2137  014E  1303               	bcf	3,6	;RP1=0, select bank0
  2138  014F  1683               	bsf	3,5	;RP0=1, select bank1
  2139  0150  1303               	bcf	3,6	;RP1=0, select bank1
  2140  0151                     l2225:
  2141  0151  082C               	movf	(___flmul@temp^(0+128)+1),w
  2142  0152  1283               	bcf	3,5	;RP0=0, select bank0
  2143  0153  1303               	bcf	3,6	;RP1=0, select bank0
  2144  0154  00C6               	movwf	??___flmul
  2145  0155  01C7               	clrf	??___flmul+1
  2146  0156  01C8               	clrf	??___flmul+2
  2147  0157  01C9               	clrf	??___flmul+3
  2148  0158  0846               	movf	??___flmul,w
  2149  0159  1683               	bsf	3,5	;RP0=1, select bank1
  2150  015A  1303               	bcf	3,6	;RP1=0, select bank1
  2151  015B  07A7               	addwf	___flmul@prod^(0+128),f
  2152  015C  1283               	bcf	3,5	;RP0=0, select bank0
  2153  015D  1303               	bcf	3,6	;RP1=0, select bank0
  2154  015E  0847               	movf	??___flmul+1,w
  2155  015F  1103               	clrz
  2156  0160  1803               	skipnc
  2157  0161  3E01               	addlw	1
  2158  0162  1903               	skipnz
  2159  0163  2967               	goto	u2741
  2160  0164  1683               	bsf	3,5	;RP0=1, select bank1
  2161  0165  1303               	bcf	3,6	;RP1=0, select bank1
  2162  0166  07A8               	addwf	(___flmul@prod+1)^(0+128),f
  2163  0167                     u2741:
  2164  0167  1283               	bcf	3,5	;RP0=0, select bank0
  2165  0168  1303               	bcf	3,6	;RP1=0, select bank0
  2166  0169  0848               	movf	??___flmul+2,w
  2167  016A  1103               	clrz
  2168  016B  1803               	skipnc
  2169  016C  3E01               	addlw	1
  2170  016D  1903               	skipnz
  2171  016E  2972               	goto	u2742
  2172  016F  1683               	bsf	3,5	;RP0=1, select bank1
  2173  0170  1303               	bcf	3,6	;RP1=0, select bank1
  2174  0171  07A9               	addwf	(___flmul@prod+2)^(0+128),f
  2175  0172                     u2742:
  2176  0172  1283               	bcf	3,5	;RP0=0, select bank0
  2177  0173  1303               	bcf	3,6	;RP1=0, select bank0
  2178  0174  0849               	movf	??___flmul+3,w
  2179  0175  1103               	clrz
  2180  0176  1803               	skipnc
  2181  0177  3E01               	addlw	1
  2182  0178  1903               	skipnz
  2183  0179  297D               	goto	u2743
  2184  017A  1683               	bsf	3,5	;RP0=1, select bank1
  2185  017B  1303               	bcf	3,6	;RP1=0, select bank1
  2186  017C  07AA               	addwf	(___flmul@prod+3)^(0+128),f
  2187  017D                     u2743:
  2188  017D  1283               	bcf	3,5	;RP0=0, select bank0
  2189  017E  1303               	bcf	3,6	;RP1=0, select bank0
  2190  017F  1683               	bsf	3,5	;RP0=1, select bank1
  2191  0180  1303               	bcf	3,6	;RP1=0, select bank1
  2192  0181  1283               	bcf	3,5	;RP0=0, select bank0
  2193  0182  1303               	bcf	3,6	;RP1=0, select bank0
  2194  0183  0840               	movf	___flmul@b+2,w
  2195  0184  00C6               	movwf	??___flmul
  2196  0185  0846               	movf	??___flmul,w
  2197  0186  00B0               	movwf	__Umul8_16@multiplicand
  2198  0187  0842               	movf	___flmul@a,w
  2199  0188  120A  158A  22F3  120A  118A  	fcall	__Umul8_16
  2200  018D  1283               	bcf	3,5	;RP0=0, select bank0
  2201  018E  1303               	bcf	3,6	;RP1=0, select bank0
  2202  018F  0831               	movf	?__Umul8_16+1,w
  2203  0190  1683               	bsf	3,5	;RP0=1, select bank1
  2204  0191  1303               	bcf	3,6	;RP1=0, select bank1
  2205  0192  00AC               	movwf	(___flmul@temp+1)^(0+128)
  2206  0193  1283               	bcf	3,5	;RP0=0, select bank0
  2207  0194  1303               	bcf	3,6	;RP1=0, select bank0
  2208  0195  0830               	movf	?__Umul8_16,w
  2209  0196  1683               	bsf	3,5	;RP0=1, select bank1
  2210  0197  1303               	bcf	3,6	;RP1=0, select bank1
  2211  0198  00AB               	movwf	___flmul@temp^(0+128)
  2212  0199                     l2227:
  2213  0199  082B               	movf	___flmul@temp^(0+128),w
  2214  019A  1283               	bcf	3,5	;RP0=0, select bank0
  2215  019B  1303               	bcf	3,6	;RP1=0, select bank0
  2216  019C  00C6               	movwf	??___flmul
  2217  019D  01C7               	clrf	??___flmul+1
  2218  019E  01C8               	clrf	??___flmul+2
  2219  019F  01C9               	clrf	??___flmul+3
  2220  01A0  0846               	movf	??___flmul,w
  2221  01A1  1683               	bsf	3,5	;RP0=1, select bank1
  2222  01A2  1303               	bcf	3,6	;RP1=0, select bank1
  2223  01A3  07A2               	addwf	___flmul@grs^(0+128),f
  2224  01A4  1283               	bcf	3,5	;RP0=0, select bank0
  2225  01A5  1303               	bcf	3,6	;RP1=0, select bank0
  2226  01A6  0847               	movf	??___flmul+1,w
  2227  01A7  1103               	clrz
  2228  01A8  1803               	skipnc
  2229  01A9  3E01               	addlw	1
  2230  01AA  1903               	skipnz
  2231  01AB  29AF               	goto	u2751
  2232  01AC  1683               	bsf	3,5	;RP0=1, select bank1
  2233  01AD  1303               	bcf	3,6	;RP1=0, select bank1
  2234  01AE  07A3               	addwf	(___flmul@grs+1)^(0+128),f
  2235  01AF                     u2751:
  2236  01AF  1283               	bcf	3,5	;RP0=0, select bank0
  2237  01B0  1303               	bcf	3,6	;RP1=0, select bank0
  2238  01B1  0848               	movf	??___flmul+2,w
  2239  01B2  1103               	clrz
  2240  01B3  1803               	skipnc
  2241  01B4  3E01               	addlw	1
  2242  01B5  1903               	skipnz
  2243  01B6  29BA               	goto	u2752
  2244  01B7  1683               	bsf	3,5	;RP0=1, select bank1
  2245  01B8  1303               	bcf	3,6	;RP1=0, select bank1
  2246  01B9  07A4               	addwf	(___flmul@grs+2)^(0+128),f
  2247  01BA                     u2752:
  2248  01BA  1283               	bcf	3,5	;RP0=0, select bank0
  2249  01BB  1303               	bcf	3,6	;RP1=0, select bank0
  2250  01BC  0849               	movf	??___flmul+3,w
  2251  01BD  1103               	clrz
  2252  01BE  1803               	skipnc
  2253  01BF  3E01               	addlw	1
  2254  01C0  1903               	skipnz
  2255  01C1  29C5               	goto	u2753
  2256  01C2  1683               	bsf	3,5	;RP0=1, select bank1
  2257  01C3  1303               	bcf	3,6	;RP1=0, select bank1
  2258  01C4  07A5               	addwf	(___flmul@grs+3)^(0+128),f
  2259  01C5                     u2753:
  2260  01C5  1283               	bcf	3,5	;RP0=0, select bank0
  2261  01C6  1303               	bcf	3,6	;RP1=0, select bank0
  2262  01C7  1683               	bsf	3,5	;RP0=1, select bank1
  2263  01C8  1303               	bcf	3,6	;RP1=0, select bank1
  2264  01C9                     l2229:
  2265  01C9  082C               	movf	(___flmul@temp^(0+128)+1),w
  2266  01CA  1283               	bcf	3,5	;RP0=0, select bank0
  2267  01CB  1303               	bcf	3,6	;RP1=0, select bank0
  2268  01CC  00C6               	movwf	??___flmul
  2269  01CD  01C7               	clrf	??___flmul+1
  2270  01CE  01C8               	clrf	??___flmul+2
  2271  01CF  01C9               	clrf	??___flmul+3
  2272  01D0  0846               	movf	??___flmul,w
  2273  01D1  1683               	bsf	3,5	;RP0=1, select bank1
  2274  01D2  1303               	bcf	3,6	;RP1=0, select bank1
  2275  01D3  07A7               	addwf	___flmul@prod^(0+128),f
  2276  01D4  1283               	bcf	3,5	;RP0=0, select bank0
  2277  01D5  1303               	bcf	3,6	;RP1=0, select bank0
  2278  01D6  0847               	movf	??___flmul+1,w
  2279  01D7  1103               	clrz
  2280  01D8  1803               	skipnc
  2281  01D9  3E01               	addlw	1
  2282  01DA  1903               	skipnz
  2283  01DB  29DF               	goto	u2761
  2284  01DC  1683               	bsf	3,5	;RP0=1, select bank1
  2285  01DD  1303               	bcf	3,6	;RP1=0, select bank1
  2286  01DE  07A8               	addwf	(___flmul@prod+1)^(0+128),f
  2287  01DF                     u2761:
  2288  01DF  1283               	bcf	3,5	;RP0=0, select bank0
  2289  01E0  1303               	bcf	3,6	;RP1=0, select bank0
  2290  01E1  0848               	movf	??___flmul+2,w
  2291  01E2  1103               	clrz
  2292  01E3  1803               	skipnc
  2293  01E4  3E01               	addlw	1
  2294  01E5  1903               	skipnz
  2295  01E6  29EA               	goto	u2762
  2296  01E7  1683               	bsf	3,5	;RP0=1, select bank1
  2297  01E8  1303               	bcf	3,6	;RP1=0, select bank1
  2298  01E9  07A9               	addwf	(___flmul@prod+2)^(0+128),f
  2299  01EA                     u2762:
  2300  01EA  1283               	bcf	3,5	;RP0=0, select bank0
  2301  01EB  1303               	bcf	3,6	;RP1=0, select bank0
  2302  01EC  0849               	movf	??___flmul+3,w
  2303  01ED  1103               	clrz
  2304  01EE  1803               	skipnc
  2305  01EF  3E01               	addlw	1
  2306  01F0  1903               	skipnz
  2307  01F1  29F5               	goto	u2763
  2308  01F2  1683               	bsf	3,5	;RP0=1, select bank1
  2309  01F3  1303               	bcf	3,6	;RP1=0, select bank1
  2310  01F4  07AA               	addwf	(___flmul@prod+3)^(0+128),f
  2311  01F5                     u2763:
  2312  01F5  1283               	bcf	3,5	;RP0=0, select bank0
  2313  01F6  1303               	bcf	3,6	;RP1=0, select bank0
  2314  01F7  1683               	bsf	3,5	;RP0=1, select bank1
  2315  01F8  1303               	bcf	3,6	;RP1=0, select bank1
  2316  01F9                     l2231:
  2317  01F9  3008               	movlw	8
  2318  01FA  1283               	bcf	3,5	;RP0=0, select bank0
  2319  01FB  1303               	bcf	3,6	;RP1=0, select bank0
  2320  01FC  00C6               	movwf	??___flmul
  2321  01FD                     u2775:
  2322  01FD  1003               	clrc
  2323  01FE  1683               	bsf	3,5	;RP0=1, select bank1
  2324  01FF  1303               	bcf	3,6	;RP1=0, select bank1
  2325  0200  0DA2               	rlf	___flmul@grs^(0+128),f
  2326  0201  0DA3               	rlf	(___flmul@grs+1)^(0+128),f
  2327  0202  0DA4               	rlf	(___flmul@grs+2)^(0+128),f
  2328  0203  0DA5               	rlf	(___flmul@grs+3)^(0+128),f
  2329  0204  1283               	bcf	3,5	;RP0=0, select bank0
  2330  0205  1303               	bcf	3,6	;RP1=0, select bank0
  2331  0206  0BC6               	decfsz	??___flmul,f
  2332  0207  29FD               	goto	u2775
  2333  0208                     l2233:
  2334  0208  083F               	movf	___flmul@b+1,w
  2335  0209  00C6               	movwf	??___flmul
  2336  020A  0846               	movf	??___flmul,w
  2337  020B  00B0               	movwf	__Umul8_16@multiplicand
  2338  020C  0842               	movf	___flmul@a,w
  2339  020D  120A  158A  22F3  120A  118A  	fcall	__Umul8_16
  2340  0212  1283               	bcf	3,5	;RP0=0, select bank0
  2341  0213  1303               	bcf	3,6	;RP1=0, select bank0
  2342  0214  0831               	movf	?__Umul8_16+1,w
  2343  0215  1683               	bsf	3,5	;RP0=1, select bank1
  2344  0216  1303               	bcf	3,6	;RP1=0, select bank1
  2345  0217  00AC               	movwf	(___flmul@temp+1)^(0+128)
  2346  0218  1283               	bcf	3,5	;RP0=0, select bank0
  2347  0219  1303               	bcf	3,6	;RP1=0, select bank0
  2348  021A  0830               	movf	?__Umul8_16,w
  2349  021B  1683               	bsf	3,5	;RP0=1, select bank1
  2350  021C  1303               	bcf	3,6	;RP1=0, select bank1
  2351  021D  00AB               	movwf	___flmul@temp^(0+128)
  2352  021E                     l2235:
  2353  021E  082B               	movf	___flmul@temp^(0+128),w
  2354  021F  1283               	bcf	3,5	;RP0=0, select bank0
  2355  0220  1303               	bcf	3,6	;RP1=0, select bank0
  2356  0221  00C6               	movwf	??___flmul
  2357  0222  1683               	bsf	3,5	;RP0=1, select bank1
  2358  0223  1303               	bcf	3,6	;RP1=0, select bank1
  2359  0224  082C               	movf	(___flmul@temp+1)^(0+128),w
  2360  0225  1283               	bcf	3,5	;RP0=0, select bank0
  2361  0226  1303               	bcf	3,6	;RP1=0, select bank0
  2362  0227  00C7               	movwf	??___flmul+1
  2363  0228  01C8               	clrf	??___flmul+2
  2364  0229  01C9               	clrf	??___flmul+3
  2365  022A  0846               	movf	??___flmul,w
  2366  022B  1683               	bsf	3,5	;RP0=1, select bank1
  2367  022C  1303               	bcf	3,6	;RP1=0, select bank1
  2368  022D  07A2               	addwf	___flmul@grs^(0+128),f
  2369  022E  1283               	bcf	3,5	;RP0=0, select bank0
  2370  022F  1303               	bcf	3,6	;RP1=0, select bank0
  2371  0230  0847               	movf	??___flmul+1,w
  2372  0231  1103               	clrz
  2373  0232  1803               	skipnc
  2374  0233  3E01               	addlw	1
  2375  0234  1903               	skipnz
  2376  0235  2A39               	goto	u2781
  2377  0236  1683               	bsf	3,5	;RP0=1, select bank1
  2378  0237  1303               	bcf	3,6	;RP1=0, select bank1
  2379  0238  07A3               	addwf	(___flmul@grs+1)^(0+128),f
  2380  0239                     u2781:
  2381  0239  1283               	bcf	3,5	;RP0=0, select bank0
  2382  023A  1303               	bcf	3,6	;RP1=0, select bank0
  2383  023B  0848               	movf	??___flmul+2,w
  2384  023C  1103               	clrz
  2385  023D  1803               	skipnc
  2386  023E  3E01               	addlw	1
  2387  023F  1903               	skipnz
  2388  0240  2A44               	goto	u2782
  2389  0241  1683               	bsf	3,5	;RP0=1, select bank1
  2390  0242  1303               	bcf	3,6	;RP1=0, select bank1
  2391  0243  07A4               	addwf	(___flmul@grs+2)^(0+128),f
  2392  0244                     u2782:
  2393  0244  1283               	bcf	3,5	;RP0=0, select bank0
  2394  0245  1303               	bcf	3,6	;RP1=0, select bank0
  2395  0246  0849               	movf	??___flmul+3,w
  2396  0247  1103               	clrz
  2397  0248  1803               	skipnc
  2398  0249  3E01               	addlw	1
  2399  024A  1903               	skipnz
  2400  024B  2A4F               	goto	u2783
  2401  024C  1683               	bsf	3,5	;RP0=1, select bank1
  2402  024D  1303               	bcf	3,6	;RP1=0, select bank1
  2403  024E  07A5               	addwf	(___flmul@grs+3)^(0+128),f
  2404  024F                     u2783:
  2405  024F  1283               	bcf	3,5	;RP0=0, select bank0
  2406  0250  1303               	bcf	3,6	;RP1=0, select bank0
  2407  0251  1683               	bsf	3,5	;RP0=1, select bank1
  2408  0252  1303               	bcf	3,6	;RP1=0, select bank1
  2409  0253                     l2237:
  2410  0253  1283               	bcf	3,5	;RP0=0, select bank0
  2411  0254  1303               	bcf	3,6	;RP1=0, select bank0
  2412  0255  083E               	movf	___flmul@b,w
  2413  0256  00C6               	movwf	??___flmul
  2414  0257  0846               	movf	??___flmul,w
  2415  0258  00B0               	movwf	__Umul8_16@multiplicand
  2416  0259  0843               	movf	___flmul@a+1,w
  2417  025A  120A  158A  22F3  120A  118A  	fcall	__Umul8_16
  2418  025F  1283               	bcf	3,5	;RP0=0, select bank0
  2419  0260  1303               	bcf	3,6	;RP1=0, select bank0
  2420  0261  0831               	movf	?__Umul8_16+1,w
  2421  0262  1683               	bsf	3,5	;RP0=1, select bank1
  2422  0263  1303               	bcf	3,6	;RP1=0, select bank1
  2423  0264  00AC               	movwf	(___flmul@temp+1)^(0+128)
  2424  0265  1283               	bcf	3,5	;RP0=0, select bank0
  2425  0266  1303               	bcf	3,6	;RP1=0, select bank0
  2426  0267  0830               	movf	?__Umul8_16,w
  2427  0268  1683               	bsf	3,5	;RP0=1, select bank1
  2428  0269  1303               	bcf	3,6	;RP1=0, select bank1
  2429  026A  00AB               	movwf	___flmul@temp^(0+128)
  2430  026B                     l2239:
  2431  026B  082B               	movf	___flmul@temp^(0+128),w
  2432  026C  1283               	bcf	3,5	;RP0=0, select bank0
  2433  026D  1303               	bcf	3,6	;RP1=0, select bank0
  2434  026E  00C6               	movwf	??___flmul
  2435  026F  1683               	bsf	3,5	;RP0=1, select bank1
  2436  0270  1303               	bcf	3,6	;RP1=0, select bank1
  2437  0271  082C               	movf	(___flmul@temp+1)^(0+128),w
  2438  0272  1283               	bcf	3,5	;RP0=0, select bank0
  2439  0273  1303               	bcf	3,6	;RP1=0, select bank0
  2440  0274  00C7               	movwf	??___flmul+1
  2441  0275  01C8               	clrf	??___flmul+2
  2442  0276  01C9               	clrf	??___flmul+3
  2443  0277  0846               	movf	??___flmul,w
  2444  0278  1683               	bsf	3,5	;RP0=1, select bank1
  2445  0279  1303               	bcf	3,6	;RP1=0, select bank1
  2446  027A  07A2               	addwf	___flmul@grs^(0+128),f
  2447  027B  1283               	bcf	3,5	;RP0=0, select bank0
  2448  027C  1303               	bcf	3,6	;RP1=0, select bank0
  2449  027D  0847               	movf	??___flmul+1,w
  2450  027E  1103               	clrz
  2451  027F  1803               	skipnc
  2452  0280  3E01               	addlw	1
  2453  0281  1903               	skipnz
  2454  0282  2A86               	goto	u2791
  2455  0283  1683               	bsf	3,5	;RP0=1, select bank1
  2456  0284  1303               	bcf	3,6	;RP1=0, select bank1
  2457  0285  07A3               	addwf	(___flmul@grs+1)^(0+128),f
  2458  0286                     u2791:
  2459  0286  1283               	bcf	3,5	;RP0=0, select bank0
  2460  0287  1303               	bcf	3,6	;RP1=0, select bank0
  2461  0288  0848               	movf	??___flmul+2,w
  2462  0289  1103               	clrz
  2463  028A  1803               	skipnc
  2464  028B  3E01               	addlw	1
  2465  028C  1903               	skipnz
  2466  028D  2A91               	goto	u2792
  2467  028E  1683               	bsf	3,5	;RP0=1, select bank1
  2468  028F  1303               	bcf	3,6	;RP1=0, select bank1
  2469  0290  07A4               	addwf	(___flmul@grs+2)^(0+128),f
  2470  0291                     u2792:
  2471  0291  1283               	bcf	3,5	;RP0=0, select bank0
  2472  0292  1303               	bcf	3,6	;RP1=0, select bank0
  2473  0293  0849               	movf	??___flmul+3,w
  2474  0294  1103               	clrz
  2475  0295  1803               	skipnc
  2476  0296  3E01               	addlw	1
  2477  0297  1903               	skipnz
  2478  0298  2A9C               	goto	u2793
  2479  0299  1683               	bsf	3,5	;RP0=1, select bank1
  2480  029A  1303               	bcf	3,6	;RP1=0, select bank1
  2481  029B  07A5               	addwf	(___flmul@grs+3)^(0+128),f
  2482  029C                     u2793:
  2483  029C  1283               	bcf	3,5	;RP0=0, select bank0
  2484  029D  1303               	bcf	3,6	;RP1=0, select bank0
  2485  029E  1683               	bsf	3,5	;RP0=1, select bank1
  2486  029F  1303               	bcf	3,6	;RP1=0, select bank1
  2487  02A0                     l2241:
  2488  02A0  3008               	movlw	8
  2489  02A1  1283               	bcf	3,5	;RP0=0, select bank0
  2490  02A2  1303               	bcf	3,6	;RP1=0, select bank0
  2491  02A3  00C6               	movwf	??___flmul
  2492  02A4                     u2805:
  2493  02A4  1003               	clrc
  2494  02A5  1683               	bsf	3,5	;RP0=1, select bank1
  2495  02A6  1303               	bcf	3,6	;RP1=0, select bank1
  2496  02A7  0DA2               	rlf	___flmul@grs^(0+128),f
  2497  02A8  0DA3               	rlf	(___flmul@grs+1)^(0+128),f
  2498  02A9  0DA4               	rlf	(___flmul@grs+2)^(0+128),f
  2499  02AA  0DA5               	rlf	(___flmul@grs+3)^(0+128),f
  2500  02AB  1283               	bcf	3,5	;RP0=0, select bank0
  2501  02AC  1303               	bcf	3,6	;RP1=0, select bank0
  2502  02AD  0BC6               	decfsz	??___flmul,f
  2503  02AE  2AA4               	goto	u2805
  2504  02AF  083E               	movf	___flmul@b,w
  2505  02B0  00C6               	movwf	??___flmul
  2506  02B1  0846               	movf	??___flmul,w
  2507  02B2  00B0               	movwf	__Umul8_16@multiplicand
  2508  02B3  0842               	movf	___flmul@a,w
  2509  02B4  120A  158A  22F3  120A  118A  	fcall	__Umul8_16
  2510  02B9  1283               	bcf	3,5	;RP0=0, select bank0
  2511  02BA  1303               	bcf	3,6	;RP1=0, select bank0
  2512  02BB  0831               	movf	?__Umul8_16+1,w
  2513  02BC  1683               	bsf	3,5	;RP0=1, select bank1
  2514  02BD  1303               	bcf	3,6	;RP1=0, select bank1
  2515  02BE  00AC               	movwf	(___flmul@temp+1)^(0+128)
  2516  02BF  1283               	bcf	3,5	;RP0=0, select bank0
  2517  02C0  1303               	bcf	3,6	;RP1=0, select bank0
  2518  02C1  0830               	movf	?__Umul8_16,w
  2519  02C2  1683               	bsf	3,5	;RP0=1, select bank1
  2520  02C3  1303               	bcf	3,6	;RP1=0, select bank1
  2521  02C4  00AB               	movwf	___flmul@temp^(0+128)
  2522  02C5                     l2243:
  2523  02C5  082B               	movf	___flmul@temp^(0+128),w
  2524  02C6  1283               	bcf	3,5	;RP0=0, select bank0
  2525  02C7  1303               	bcf	3,6	;RP1=0, select bank0
  2526  02C8  00C6               	movwf	??___flmul
  2527  02C9  1683               	bsf	3,5	;RP0=1, select bank1
  2528  02CA  1303               	bcf	3,6	;RP1=0, select bank1
  2529  02CB  082C               	movf	(___flmul@temp+1)^(0+128),w
  2530  02CC  1283               	bcf	3,5	;RP0=0, select bank0
  2531  02CD  1303               	bcf	3,6	;RP1=0, select bank0
  2532  02CE  00C7               	movwf	??___flmul+1
  2533  02CF  01C8               	clrf	??___flmul+2
  2534  02D0  01C9               	clrf	??___flmul+3
  2535  02D1  0846               	movf	??___flmul,w
  2536  02D2  1683               	bsf	3,5	;RP0=1, select bank1
  2537  02D3  1303               	bcf	3,6	;RP1=0, select bank1
  2538  02D4  07A2               	addwf	___flmul@grs^(0+128),f
  2539  02D5  1283               	bcf	3,5	;RP0=0, select bank0
  2540  02D6  1303               	bcf	3,6	;RP1=0, select bank0
  2541  02D7  0847               	movf	??___flmul+1,w
  2542  02D8  1103               	clrz
  2543  02D9  1803               	skipnc
  2544  02DA  3E01               	addlw	1
  2545  02DB  1903               	skipnz
  2546  02DC  2AE0               	goto	u2811
  2547  02DD  1683               	bsf	3,5	;RP0=1, select bank1
  2548  02DE  1303               	bcf	3,6	;RP1=0, select bank1
  2549  02DF  07A3               	addwf	(___flmul@grs+1)^(0+128),f
  2550  02E0                     u2811:
  2551  02E0  1283               	bcf	3,5	;RP0=0, select bank0
  2552  02E1  1303               	bcf	3,6	;RP1=0, select bank0
  2553  02E2  0848               	movf	??___flmul+2,w
  2554  02E3  1103               	clrz
  2555  02E4  1803               	skipnc
  2556  02E5  3E01               	addlw	1
  2557  02E6  1903               	skipnz
  2558  02E7  2AEB               	goto	u2812
  2559  02E8  1683               	bsf	3,5	;RP0=1, select bank1
  2560  02E9  1303               	bcf	3,6	;RP1=0, select bank1
  2561  02EA  07A4               	addwf	(___flmul@grs+2)^(0+128),f
  2562  02EB                     u2812:
  2563  02EB  1283               	bcf	3,5	;RP0=0, select bank0
  2564  02EC  1303               	bcf	3,6	;RP1=0, select bank0
  2565  02ED  0849               	movf	??___flmul+3,w
  2566  02EE  1103               	clrz
  2567  02EF  1803               	skipnc
  2568  02F0  3E01               	addlw	1
  2569  02F1  1903               	skipnz
  2570  02F2  2AF6               	goto	u2813
  2571  02F3  1683               	bsf	3,5	;RP0=1, select bank1
  2572  02F4  1303               	bcf	3,6	;RP1=0, select bank1
  2573  02F5  07A5               	addwf	(___flmul@grs+3)^(0+128),f
  2574  02F6                     u2813:
  2575  02F6  1283               	bcf	3,5	;RP0=0, select bank0
  2576  02F7  1303               	bcf	3,6	;RP1=0, select bank0
  2577  02F8  1683               	bsf	3,5	;RP0=1, select bank1
  2578  02F9  1303               	bcf	3,6	;RP1=0, select bank1
  2579  02FA                     l2245:
  2580  02FA  1283               	bcf	3,5	;RP0=0, select bank0
  2581  02FB  1303               	bcf	3,6	;RP1=0, select bank0
  2582  02FC  083F               	movf	___flmul@b+1,w
  2583  02FD  00C6               	movwf	??___flmul
  2584  02FE  0846               	movf	??___flmul,w
  2585  02FF  00B0               	movwf	__Umul8_16@multiplicand
  2586  0300  0844               	movf	___flmul@a+2,w
  2587  0301  120A  158A  22F3  120A  118A  	fcall	__Umul8_16
  2588  0306  1283               	bcf	3,5	;RP0=0, select bank0
  2589  0307  1303               	bcf	3,6	;RP1=0, select bank0
  2590  0308  0831               	movf	?__Umul8_16+1,w
  2591  0309  1683               	bsf	3,5	;RP0=1, select bank1
  2592  030A  1303               	bcf	3,6	;RP1=0, select bank1
  2593  030B  00AC               	movwf	(___flmul@temp+1)^(0+128)
  2594  030C  1283               	bcf	3,5	;RP0=0, select bank0
  2595  030D  1303               	bcf	3,6	;RP1=0, select bank0
  2596  030E  0830               	movf	?__Umul8_16,w
  2597  030F  1683               	bsf	3,5	;RP0=1, select bank1
  2598  0310  1303               	bcf	3,6	;RP1=0, select bank1
  2599  0311  00AB               	movwf	___flmul@temp^(0+128)
  2600  0312  082B               	movf	___flmul@temp^(0+128),w
  2601  0313  1283               	bcf	3,5	;RP0=0, select bank0
  2602  0314  1303               	bcf	3,6	;RP1=0, select bank0
  2603  0315  00C6               	movwf	??___flmul
  2604  0316  1683               	bsf	3,5	;RP0=1, select bank1
  2605  0317  1303               	bcf	3,6	;RP1=0, select bank1
  2606  0318  082C               	movf	(___flmul@temp+1)^(0+128),w
  2607  0319  1283               	bcf	3,5	;RP0=0, select bank0
  2608  031A  1303               	bcf	3,6	;RP1=0, select bank0
  2609  031B  00C7               	movwf	??___flmul+1
  2610  031C  01C8               	clrf	??___flmul+2
  2611  031D  01C9               	clrf	??___flmul+3
  2612  031E  0846               	movf	??___flmul,w
  2613  031F  1683               	bsf	3,5	;RP0=1, select bank1
  2614  0320  1303               	bcf	3,6	;RP1=0, select bank1
  2615  0321  07A7               	addwf	___flmul@prod^(0+128),f
  2616  0322  1283               	bcf	3,5	;RP0=0, select bank0
  2617  0323  1303               	bcf	3,6	;RP1=0, select bank0
  2618  0324  0847               	movf	??___flmul+1,w
  2619  0325  1103               	clrz
  2620  0326  1803               	skipnc
  2621  0327  3E01               	addlw	1
  2622  0328  1903               	skipnz
  2623  0329  2B2D               	goto	u2821
  2624  032A  1683               	bsf	3,5	;RP0=1, select bank1
  2625  032B  1303               	bcf	3,6	;RP1=0, select bank1
  2626  032C  07A8               	addwf	(___flmul@prod+1)^(0+128),f
  2627  032D                     u2821:
  2628  032D  1283               	bcf	3,5	;RP0=0, select bank0
  2629  032E  1303               	bcf	3,6	;RP1=0, select bank0
  2630  032F  0848               	movf	??___flmul+2,w
  2631  0330  1103               	clrz
  2632  0331  1803               	skipnc
  2633  0332  3E01               	addlw	1
  2634  0333  1903               	skipnz
  2635  0334  2B38               	goto	u2822
  2636  0335  1683               	bsf	3,5	;RP0=1, select bank1
  2637  0336  1303               	bcf	3,6	;RP1=0, select bank1
  2638  0337  07A9               	addwf	(___flmul@prod+2)^(0+128),f
  2639  0338                     u2822:
  2640  0338  1283               	bcf	3,5	;RP0=0, select bank0
  2641  0339  1303               	bcf	3,6	;RP1=0, select bank0
  2642  033A  0849               	movf	??___flmul+3,w
  2643  033B  1103               	clrz
  2644  033C  1803               	skipnc
  2645  033D  3E01               	addlw	1
  2646  033E  1903               	skipnz
  2647  033F  2B43               	goto	u2823
  2648  0340  1683               	bsf	3,5	;RP0=1, select bank1
  2649  0341  1303               	bcf	3,6	;RP1=0, select bank1
  2650  0342  07AA               	addwf	(___flmul@prod+3)^(0+128),f
  2651  0343                     u2823:
  2652  0343  1283               	bcf	3,5	;RP0=0, select bank0
  2653  0344  1303               	bcf	3,6	;RP1=0, select bank0
  2654  0345  1683               	bsf	3,5	;RP0=1, select bank1
  2655  0346  1303               	bcf	3,6	;RP1=0, select bank1
  2656  0347                     l2247:
  2657  0347  1283               	bcf	3,5	;RP0=0, select bank0
  2658  0348  1303               	bcf	3,6	;RP1=0, select bank0
  2659  0349  0840               	movf	___flmul@b+2,w
  2660  034A  00C6               	movwf	??___flmul
  2661  034B  0846               	movf	??___flmul,w
  2662  034C  00B0               	movwf	__Umul8_16@multiplicand
  2663  034D  0843               	movf	___flmul@a+1,w
  2664  034E  120A  158A  22F3  120A  118A  	fcall	__Umul8_16
  2665  0353  1283               	bcf	3,5	;RP0=0, select bank0
  2666  0354  1303               	bcf	3,6	;RP1=0, select bank0
  2667  0355  0831               	movf	?__Umul8_16+1,w
  2668  0356  1683               	bsf	3,5	;RP0=1, select bank1
  2669  0357  1303               	bcf	3,6	;RP1=0, select bank1
  2670  0358  00AC               	movwf	(___flmul@temp+1)^(0+128)
  2671  0359  1283               	bcf	3,5	;RP0=0, select bank0
  2672  035A  1303               	bcf	3,6	;RP1=0, select bank0
  2673  035B  0830               	movf	?__Umul8_16,w
  2674  035C  1683               	bsf	3,5	;RP0=1, select bank1
  2675  035D  1303               	bcf	3,6	;RP1=0, select bank1
  2676  035E  00AB               	movwf	___flmul@temp^(0+128)
  2677  035F                     l2249:
  2678  035F  082B               	movf	___flmul@temp^(0+128),w
  2679  0360  1283               	bcf	3,5	;RP0=0, select bank0
  2680  0361  1303               	bcf	3,6	;RP1=0, select bank0
  2681  0362  00C6               	movwf	??___flmul
  2682  0363  1683               	bsf	3,5	;RP0=1, select bank1
  2683  0364  1303               	bcf	3,6	;RP1=0, select bank1
  2684  0365  082C               	movf	(___flmul@temp+1)^(0+128),w
  2685  0366  1283               	bcf	3,5	;RP0=0, select bank0
  2686  0367  1303               	bcf	3,6	;RP1=0, select bank0
  2687  0368  00C7               	movwf	??___flmul+1
  2688  0369  01C8               	clrf	??___flmul+2
  2689  036A  01C9               	clrf	??___flmul+3
  2690  036B  0846               	movf	??___flmul,w
  2691  036C  1683               	bsf	3,5	;RP0=1, select bank1
  2692  036D  1303               	bcf	3,6	;RP1=0, select bank1
  2693  036E  07A7               	addwf	___flmul@prod^(0+128),f
  2694  036F  1283               	bcf	3,5	;RP0=0, select bank0
  2695  0370  1303               	bcf	3,6	;RP1=0, select bank0
  2696  0371  0847               	movf	??___flmul+1,w
  2697  0372  1103               	clrz
  2698  0373  1803               	skipnc
  2699  0374  3E01               	addlw	1
  2700  0375  1903               	skipnz
  2701  0376  2B7A               	goto	u2831
  2702  0377  1683               	bsf	3,5	;RP0=1, select bank1
  2703  0378  1303               	bcf	3,6	;RP1=0, select bank1
  2704  0379  07A8               	addwf	(___flmul@prod+1)^(0+128),f
  2705  037A                     u2831:
  2706  037A  1283               	bcf	3,5	;RP0=0, select bank0
  2707  037B  1303               	bcf	3,6	;RP1=0, select bank0
  2708  037C  0848               	movf	??___flmul+2,w
  2709  037D  1103               	clrz
  2710  037E  1803               	skipnc
  2711  037F  3E01               	addlw	1
  2712  0380  1903               	skipnz
  2713  0381  2B85               	goto	u2832
  2714  0382  1683               	bsf	3,5	;RP0=1, select bank1
  2715  0383  1303               	bcf	3,6	;RP1=0, select bank1
  2716  0384  07A9               	addwf	(___flmul@prod+2)^(0+128),f
  2717  0385                     u2832:
  2718  0385  1283               	bcf	3,5	;RP0=0, select bank0
  2719  0386  1303               	bcf	3,6	;RP1=0, select bank0
  2720  0387  0849               	movf	??___flmul+3,w
  2721  0388  1103               	clrz
  2722  0389  1803               	skipnc
  2723  038A  3E01               	addlw	1
  2724  038B  1903               	skipnz
  2725  038C  2B90               	goto	u2833
  2726  038D  1683               	bsf	3,5	;RP0=1, select bank1
  2727  038E  1303               	bcf	3,6	;RP1=0, select bank1
  2728  038F  07AA               	addwf	(___flmul@prod+3)^(0+128),f
  2729  0390                     u2833:
  2730  0390  1283               	bcf	3,5	;RP0=0, select bank0
  2731  0391  1303               	bcf	3,6	;RP1=0, select bank0
  2732  0392  1683               	bsf	3,5	;RP0=1, select bank1
  2733  0393  1303               	bcf	3,6	;RP1=0, select bank1
  2734  0394  1283               	bcf	3,5	;RP0=0, select bank0
  2735  0395  1303               	bcf	3,6	;RP1=0, select bank0
  2736  0396  0840               	movf	___flmul@b+2,w
  2737  0397  00C6               	movwf	??___flmul
  2738  0398  0846               	movf	??___flmul,w
  2739  0399  00B0               	movwf	__Umul8_16@multiplicand
  2740  039A  0844               	movf	___flmul@a+2,w
  2741  039B  120A  158A  22F3  120A  118A  	fcall	__Umul8_16
  2742  03A0  1283               	bcf	3,5	;RP0=0, select bank0
  2743  03A1  1303               	bcf	3,6	;RP1=0, select bank0
  2744  03A2  0831               	movf	?__Umul8_16+1,w
  2745  03A3  1683               	bsf	3,5	;RP0=1, select bank1
  2746  03A4  1303               	bcf	3,6	;RP1=0, select bank1
  2747  03A5  00AC               	movwf	(___flmul@temp+1)^(0+128)
  2748  03A6  1283               	bcf	3,5	;RP0=0, select bank0
  2749  03A7  1303               	bcf	3,6	;RP1=0, select bank0
  2750  03A8  0830               	movf	?__Umul8_16,w
  2751  03A9  1683               	bsf	3,5	;RP0=1, select bank1
  2752  03AA  1303               	bcf	3,6	;RP1=0, select bank1
  2753  03AB  00AB               	movwf	___flmul@temp^(0+128)
  2754  03AC                     l2251:
  2755  03AC  082B               	movf	___flmul@temp^(0+128),w
  2756  03AD  1283               	bcf	3,5	;RP0=0, select bank0
  2757  03AE  1303               	bcf	3,6	;RP1=0, select bank0
  2758  03AF  00C6               	movwf	??___flmul
  2759  03B0  1683               	bsf	3,5	;RP0=1, select bank1
  2760  03B1  1303               	bcf	3,6	;RP1=0, select bank1
  2761  03B2  082C               	movf	(___flmul@temp+1)^(0+128),w
  2762  03B3  1283               	bcf	3,5	;RP0=0, select bank0
  2763  03B4  1303               	bcf	3,6	;RP1=0, select bank0
  2764  03B5  00C7               	movwf	??___flmul+1
  2765  03B6  01C8               	clrf	??___flmul+2
  2766  03B7  01C9               	clrf	??___flmul+3
  2767  03B8  3008               	movlw	8
  2768  03B9                     u2845:
  2769  03B9  1003               	clrc
  2770  03BA  0DC6               	rlf	??___flmul,f
  2771  03BB  0DC7               	rlf	??___flmul+1,f
  2772  03BC  0DC8               	rlf	??___flmul+2,f
  2773  03BD  0DC9               	rlf	??___flmul+3,f
  2774  03BE                     u2840:
  2775  03BE  3EFF               	addlw	-1
  2776  03BF  1D03               	skipz
  2777  03C0  2BB9               	goto	u2845
  2778  03C1  0846               	movf	??___flmul,w
  2779  03C2  1683               	bsf	3,5	;RP0=1, select bank1
  2780  03C3  1303               	bcf	3,6	;RP1=0, select bank1
  2781  03C4  07A7               	addwf	___flmul@prod^(0+128),f
  2782  03C5  1283               	bcf	3,5	;RP0=0, select bank0
  2783  03C6  1303               	bcf	3,6	;RP1=0, select bank0
  2784  03C7  0847               	movf	??___flmul+1,w
  2785  03C8  1103               	clrz
  2786  03C9  1803               	skipnc
  2787  03CA  3E01               	addlw	1
  2788  03CB  1903               	skipnz
  2789  03CC  2BD0               	goto	u2851
  2790  03CD  1683               	bsf	3,5	;RP0=1, select bank1
  2791  03CE  1303               	bcf	3,6	;RP1=0, select bank1
  2792  03CF  07A8               	addwf	(___flmul@prod+1)^(0+128),f
  2793  03D0                     u2851:
  2794  03D0  1283               	bcf	3,5	;RP0=0, select bank0
  2795  03D1  1303               	bcf	3,6	;RP1=0, select bank0
  2796  03D2  0848               	movf	??___flmul+2,w
  2797  03D3  1103               	clrz
  2798  03D4  1803               	skipnc
  2799  03D5  3E01               	addlw	1
  2800  03D6  1903               	skipnz
  2801  03D7  2BDB               	goto	u2852
  2802  03D8  1683               	bsf	3,5	;RP0=1, select bank1
  2803  03D9  1303               	bcf	3,6	;RP1=0, select bank1
  2804  03DA  07A9               	addwf	(___flmul@prod+2)^(0+128),f
  2805  03DB                     u2852:
  2806  03DB  1283               	bcf	3,5	;RP0=0, select bank0
  2807  03DC  1303               	bcf	3,6	;RP1=0, select bank0
  2808  03DD  0849               	movf	??___flmul+3,w
  2809  03DE  1103               	clrz
  2810  03DF  1803               	skipnc
  2811  03E0  3E01               	addlw	1
  2812  03E1  1903               	skipnz
  2813  03E2  2BE6               	goto	u2853
  2814  03E3  1683               	bsf	3,5	;RP0=1, select bank1
  2815  03E4  1303               	bcf	3,6	;RP1=0, select bank1
  2816  03E5  07AA               	addwf	(___flmul@prod+3)^(0+128),f
  2817  03E6                     u2853:
  2818  03E6  1283               	bcf	3,5	;RP0=0, select bank0
  2819  03E7  1303               	bcf	3,6	;RP1=0, select bank0
  2820  03E8  1683               	bsf	3,5	;RP0=1, select bank1
  2821  03E9  1303               	bcf	3,6	;RP1=0, select bank1
  2822  03EA                     l2253:
  2823  03EA  0822               	movf	___flmul@grs^(0+128),w
  2824  03EB  1283               	bcf	3,5	;RP0=0, select bank0
  2825  03EC  1303               	bcf	3,6	;RP1=0, select bank0
  2826  03ED  00C6               	movwf	??___flmul
  2827  03EE  1683               	bsf	3,5	;RP0=1, select bank1
  2828  03EF  1303               	bcf	3,6	;RP1=0, select bank1
  2829  03F0  0823               	movf	(___flmul@grs+1)^(0+128),w
  2830  03F1  1283               	bcf	3,5	;RP0=0, select bank0
  2831  03F2  1303               	bcf	3,6	;RP1=0, select bank0
  2832  03F3  00C7               	movwf	??___flmul+1
  2833  03F4  1683               	bsf	3,5	;RP0=1, select bank1
  2834  03F5  1303               	bcf	3,6	;RP1=0, select bank1
  2835  03F6  0824               	movf	(___flmul@grs+2)^(0+128),w
  2836  03F7  1283               	bcf	3,5	;RP0=0, select bank0
  2837  03F8  1303               	bcf	3,6	;RP1=0, select bank0
  2838  03F9  00C8               	movwf	??___flmul+2
  2839  03FA  1683               	bsf	3,5	;RP0=1, select bank1
  2840  03FB  1303               	bcf	3,6	;RP1=0, select bank1
  2841  03FC  0825               	movf	(___flmul@grs+3)^(0+128),w
  2842  03FD  1283               	bcf	3,5	;RP0=0, select bank0
  2843  03FE  1303               	bcf	3,6	;RP1=0, select bank0
  2844  03FF  00C9               	movwf	??___flmul+3
  2845  0400  3018               	movlw	24
  2846  0401                     u2865:
  2847  0401  1003               	clrc
  2848  0402  0CC9               	rrf	??___flmul+3,f
  2849  0403  0CC8               	rrf	??___flmul+2,f
  2850  0404  0CC7               	rrf	??___flmul+1,f
  2851  0405  0CC6               	rrf	??___flmul,f
  2852  0406                     u2860:
  2853  0406  3EFF               	addlw	-1
  2854  0407  1D03               	skipz
  2855  0408  2C01               	goto	u2865
  2856  0409  0846               	movf	??___flmul,w
  2857  040A  1683               	bsf	3,5	;RP0=1, select bank1
  2858  040B  1303               	bcf	3,6	;RP1=0, select bank1
  2859  040C  07A7               	addwf	___flmul@prod^(0+128),f
  2860  040D  1283               	bcf	3,5	;RP0=0, select bank0
  2861  040E  1303               	bcf	3,6	;RP1=0, select bank0
  2862  040F  0847               	movf	??___flmul+1,w
  2863  0410  1103               	clrz
  2864  0411  1803               	skipnc
  2865  0412  3E01               	addlw	1
  2866  0413  1903               	skipnz
  2867  0414  2C18               	goto	u2871
  2868  0415  1683               	bsf	3,5	;RP0=1, select bank1
  2869  0416  1303               	bcf	3,6	;RP1=0, select bank1
  2870  0417  07A8               	addwf	(___flmul@prod+1)^(0+128),f
  2871  0418                     u2871:
  2872  0418  1283               	bcf	3,5	;RP0=0, select bank0
  2873  0419  1303               	bcf	3,6	;RP1=0, select bank0
  2874  041A  0848               	movf	??___flmul+2,w
  2875  041B  1103               	clrz
  2876  041C  1803               	skipnc
  2877  041D  3E01               	addlw	1
  2878  041E  1903               	skipnz
  2879  041F  2C23               	goto	u2872
  2880  0420  1683               	bsf	3,5	;RP0=1, select bank1
  2881  0421  1303               	bcf	3,6	;RP1=0, select bank1
  2882  0422  07A9               	addwf	(___flmul@prod+2)^(0+128),f
  2883  0423                     u2872:
  2884  0423  1283               	bcf	3,5	;RP0=0, select bank0
  2885  0424  1303               	bcf	3,6	;RP1=0, select bank0
  2886  0425  0849               	movf	??___flmul+3,w
  2887  0426  1103               	clrz
  2888  0427  1803               	skipnc
  2889  0428  3E01               	addlw	1
  2890  0429  1903               	skipnz
  2891  042A  2C2E               	goto	u2873
  2892  042B  1683               	bsf	3,5	;RP0=1, select bank1
  2893  042C  1303               	bcf	3,6	;RP1=0, select bank1
  2894  042D  07AA               	addwf	(___flmul@prod+3)^(0+128),f
  2895  042E                     u2873:
  2896  042E  1283               	bcf	3,5	;RP0=0, select bank0
  2897  042F  1303               	bcf	3,6	;RP1=0, select bank0
  2898  0430  1683               	bsf	3,5	;RP0=1, select bank1
  2899  0431  1303               	bcf	3,6	;RP1=0, select bank1
  2900  0432                     l2255:
  2901  0432  3008               	movlw	8
  2902  0433  1283               	bcf	3,5	;RP0=0, select bank0
  2903  0434  1303               	bcf	3,6	;RP1=0, select bank0
  2904  0435  00C6               	movwf	??___flmul
  2905  0436                     u2885:
  2906  0436  1003               	clrc
  2907  0437  1683               	bsf	3,5	;RP0=1, select bank1
  2908  0438  1303               	bcf	3,6	;RP1=0, select bank1
  2909  0439  0DA2               	rlf	___flmul@grs^(0+128),f
  2910  043A  0DA3               	rlf	(___flmul@grs+1)^(0+128),f
  2911  043B  0DA4               	rlf	(___flmul@grs+2)^(0+128),f
  2912  043C  0DA5               	rlf	(___flmul@grs+3)^(0+128),f
  2913  043D  1283               	bcf	3,5	;RP0=0, select bank0
  2914  043E  1303               	bcf	3,6	;RP1=0, select bank0
  2915  043F  0BC6               	decfsz	??___flmul,f
  2916  0440  2C36               	goto	u2885
  2917  0441                     l2257:
  2918  0441  1683               	bsf	3,5	;RP0=1, select bank1
  2919  0442  1303               	bcf	3,6	;RP1=0, select bank1
  2920  0443  0826               	movf	___flmul@bexp^(0+128),w
  2921  0444  0721               	addwf	___flmul@aexp^(0+128),w
  2922  0445  1283               	bcf	3,5	;RP0=0, select bank0
  2923  0446  1303               	bcf	3,6	;RP1=0, select bank0
  2924  0447  00C6               	movwf	??___flmul
  2925  0448  01C7               	clrf	??___flmul+1
  2926  0449  0DC7               	rlf	??___flmul+1,f
  2927  044A  0846               	movf	??___flmul,w
  2928  044B  3E82               	addlw	130
  2929  044C  1683               	bsf	3,5	;RP0=1, select bank1
  2930  044D  1303               	bcf	3,6	;RP1=0, select bank1
  2931  044E  00AB               	movwf	___flmul@temp^(0+128)
  2932  044F  1283               	bcf	3,5	;RP0=0, select bank0
  2933  0450  1303               	bcf	3,6	;RP1=0, select bank0
  2934  0451  0847               	movf	??___flmul+1,w
  2935  0452  1803               	skipnc
  2936  0453  3E01               	addlw	1
  2937  0454  3EFF               	addlw	255
  2938  0455  1683               	bsf	3,5	;RP0=1, select bank1
  2939  0456  1303               	bcf	3,6	;RP1=0, select bank1
  2940  0457  00AC               	movwf	(___flmul@temp+1)^(0+128)
  2941  0458  2C86               	goto	l2269
  2942  0459                     l2259:
  2943  0459  3001               	movlw	1
  2944  045A  1283               	bcf	3,5	;RP0=0, select bank0
  2945  045B  1303               	bcf	3,6	;RP1=0, select bank0
  2946  045C  00C6               	movwf	??___flmul
  2947  045D                     u2895:
  2948  045D  1003               	clrc
  2949  045E  1683               	bsf	3,5	;RP0=1, select bank1
  2950  045F  1303               	bcf	3,6	;RP1=0, select bank1
  2951  0460  0DA7               	rlf	___flmul@prod^(0+128),f
  2952  0461  0DA8               	rlf	(___flmul@prod+1)^(0+128),f
  2953  0462  0DA9               	rlf	(___flmul@prod+2)^(0+128),f
  2954  0463  0DAA               	rlf	(___flmul@prod+3)^(0+128),f
  2955  0464  1283               	bcf	3,5	;RP0=0, select bank0
  2956  0465  1303               	bcf	3,6	;RP1=0, select bank0
  2957  0466  0BC6               	decfsz	??___flmul,f
  2958  0467  2C5D               	goto	u2895
  2959  0468                     l2261:
  2960  0468  1683               	bsf	3,5	;RP0=1, select bank1
  2961  0469  1303               	bcf	3,6	;RP1=0, select bank1
  2962  046A  1FA5               	btfss	(___flmul@grs+3)^(0+128),7
  2963  046B  2C6D               	goto	u2901
  2964  046C  2C6E               	goto	u2900
  2965  046D                     u2901:
  2966  046D  2C6F               	goto	l2265
  2967  046E                     u2900:
  2968  046E                     l2263:
  2969  046E  1427               	bsf	___flmul@prod^(0+128),0
  2970  046F                     l2265:
  2971  046F  3001               	movlw	1
  2972  0470  1283               	bcf	3,5	;RP0=0, select bank0
  2973  0471  1303               	bcf	3,6	;RP1=0, select bank0
  2974  0472  00C6               	movwf	??___flmul
  2975  0473                     u2915:
  2976  0473  1003               	clrc
  2977  0474  1683               	bsf	3,5	;RP0=1, select bank1
  2978  0475  1303               	bcf	3,6	;RP1=0, select bank1
  2979  0476  0DA2               	rlf	___flmul@grs^(0+128),f
  2980  0477  0DA3               	rlf	(___flmul@grs+1)^(0+128),f
  2981  0478  0DA4               	rlf	(___flmul@grs+2)^(0+128),f
  2982  0479  0DA5               	rlf	(___flmul@grs+3)^(0+128),f
  2983  047A  1283               	bcf	3,5	;RP0=0, select bank0
  2984  047B  1303               	bcf	3,6	;RP1=0, select bank0
  2985  047C  0BC6               	decfsz	??___flmul,f
  2986  047D  2C73               	goto	u2915
  2987  047E                     l2267:
  2988  047E  30FF               	movlw	255
  2989  047F  1683               	bsf	3,5	;RP0=1, select bank1
  2990  0480  1303               	bcf	3,6	;RP1=0, select bank1
  2991  0481  07AB               	addwf	___flmul@temp^(0+128),f
  2992  0482  1803               	skipnc
  2993  0483  0AAC               	incf	(___flmul@temp+1)^(0+128),f
  2994  0484  30FF               	movlw	255
  2995  0485  07AC               	addwf	(___flmul@temp+1)^(0+128),f
  2996  0486                     l2269:
  2997  0486  1FA9               	btfss	(___flmul@prod+2)^(0+128),7
  2998  0487  2C89               	goto	u2921
  2999  0488  2C8A               	goto	u2920
  3000  0489                     u2921:
  3001  0489  2C59               	goto	l2259
  3002  048A                     u2920:
  3003  048A                     l2271:
  3004  048A  01A1               	clrf	___flmul@aexp^(0+128)
  3005  048B                     l2273:
  3006  048B  1FA5               	btfss	(___flmul@grs+3)^(0+128),7
  3007  048C  2C8E               	goto	u2931
  3008  048D  2C8F               	goto	u2930
  3009  048E                     u2931:
  3010  048E  2CBD               	goto	l2281
  3011  048F                     u2930:
  3012  048F                     l2275:
  3013  048F  30FF               	movlw	255
  3014  0490  0522               	andwf	___flmul@grs^(0+128),w
  3015  0491  1283               	bcf	3,5	;RP0=0, select bank0
  3016  0492  1303               	bcf	3,6	;RP1=0, select bank0
  3017  0493  00C6               	movwf	??___flmul
  3018  0494  30FF               	movlw	255
  3019  0495  1683               	bsf	3,5	;RP0=1, select bank1
  3020  0496  1303               	bcf	3,6	;RP1=0, select bank1
  3021  0497  0523               	andwf	(___flmul@grs+1)^(0+128),w
  3022  0498  1283               	bcf	3,5	;RP0=0, select bank0
  3023  0499  1303               	bcf	3,6	;RP1=0, select bank0
  3024  049A  00C7               	movwf	??___flmul+1
  3025  049B  30FF               	movlw	255
  3026  049C  1683               	bsf	3,5	;RP0=1, select bank1
  3027  049D  1303               	bcf	3,6	;RP1=0, select bank1
  3028  049E  0524               	andwf	(___flmul@grs+2)^(0+128),w
  3029  049F  1283               	bcf	3,5	;RP0=0, select bank0
  3030  04A0  1303               	bcf	3,6	;RP1=0, select bank0
  3031  04A1  00C8               	movwf	??___flmul+2
  3032  04A2  307F               	movlw	127
  3033  04A3  1683               	bsf	3,5	;RP0=1, select bank1
  3034  04A4  1303               	bcf	3,6	;RP1=0, select bank1
  3035  04A5  0525               	andwf	(___flmul@grs+3)^(0+128),w
  3036  04A6  1283               	bcf	3,5	;RP0=0, select bank0
  3037  04A7  1303               	bcf	3,6	;RP1=0, select bank0
  3038  04A8  00C9               	movwf	??___flmul+3
  3039  04A9  0849               	movf	??___flmul+3,w
  3040  04AA  0448               	iorwf	??___flmul+2,w
  3041  04AB  0447               	iorwf	??___flmul+1,w
  3042  04AC  0446               	iorwf	??___flmul,w
  3043  04AD  1903               	skipnz
  3044  04AE  2CB0               	goto	u2941
  3045  04AF  2CB1               	goto	u2940
  3046  04B0                     u2941:
  3047  04B0  2CB6               	goto	l674
  3048  04B1                     u2940:
  3049  04B1                     l2277:
  3050  04B1  1683               	bsf	3,5	;RP0=1, select bank1
  3051  04B2  1303               	bcf	3,6	;RP1=0, select bank1
  3052  04B3  01A1               	clrf	___flmul@aexp^(0+128)
  3053  04B4  0AA1               	incf	___flmul@aexp^(0+128),f
  3054  04B5  2CBD               	goto	l2281
  3055  04B6                     l674:
  3056  04B6  1683               	bsf	3,5	;RP0=1, select bank1
  3057  04B7  1303               	bcf	3,6	;RP1=0, select bank1
  3058  04B8  1C27               	btfss	___flmul@prod^(0+128),0
  3059  04B9  2CBB               	goto	u2951
  3060  04BA  2CBC               	goto	u2950
  3061  04BB                     u2951:
  3062  04BB  2CBD               	goto	l2281
  3063  04BC                     u2950:
  3064  04BC  2CB1               	goto	l2277
  3065  04BD                     l2281:
  3066  04BD  0821               	movf	___flmul@aexp^(0+128),w
  3067  04BE  1903               	btfsc	3,2
  3068  04BF  2CC1               	goto	u2961
  3069  04C0  2CC2               	goto	u2960
  3070  04C1                     u2961:
  3071  04C1  2D0F               	goto	l2291
  3072  04C2                     u2960:
  3073  04C2                     l2283:
  3074  04C2  3001               	movlw	1
  3075  04C3  07A7               	addwf	___flmul@prod^(0+128),f
  3076  04C4  3000               	movlw	0
  3077  04C5  1803               	skipnc
  3078  04C6  3001               	movlw	1
  3079  04C7  07A8               	addwf	(___flmul@prod+1)^(0+128),f
  3080  04C8  3000               	movlw	0
  3081  04C9  1803               	skipnc
  3082  04CA  3001               	movlw	1
  3083  04CB  07A9               	addwf	(___flmul@prod+2)^(0+128),f
  3084  04CC  3000               	movlw	0
  3085  04CD  1803               	skipnc
  3086  04CE  3001               	movlw	1
  3087  04CF  07AA               	addwf	(___flmul@prod+3)^(0+128),f
  3088  04D0                     l2285:
  3089  04D0  1C2A               	btfss	(___flmul@prod+3)^(0+128),0
  3090  04D1  2CD3               	goto	u2971
  3091  04D2  2CD4               	goto	u2970
  3092  04D3                     u2971:
  3093  04D3  2D0F               	goto	l2291
  3094  04D4                     u2970:
  3095  04D4                     l2287:
  3096  04D4  0827               	movf	___flmul@prod^(0+128),w
  3097  04D5  1283               	bcf	3,5	;RP0=0, select bank0
  3098  04D6  1303               	bcf	3,6	;RP1=0, select bank0
  3099  04D7  00C6               	movwf	??___flmul
  3100  04D8  1683               	bsf	3,5	;RP0=1, select bank1
  3101  04D9  1303               	bcf	3,6	;RP1=0, select bank1
  3102  04DA  0828               	movf	(___flmul@prod+1)^(0+128),w
  3103  04DB  1283               	bcf	3,5	;RP0=0, select bank0
  3104  04DC  1303               	bcf	3,6	;RP1=0, select bank0
  3105  04DD  00C7               	movwf	??___flmul+1
  3106  04DE  1683               	bsf	3,5	;RP0=1, select bank1
  3107  04DF  1303               	bcf	3,6	;RP1=0, select bank1
  3108  04E0  0829               	movf	(___flmul@prod+2)^(0+128),w
  3109  04E1  1283               	bcf	3,5	;RP0=0, select bank0
  3110  04E2  1303               	bcf	3,6	;RP1=0, select bank0
  3111  04E3  00C8               	movwf	??___flmul+2
  3112  04E4  1683               	bsf	3,5	;RP0=1, select bank1
  3113  04E5  1303               	bcf	3,6	;RP1=0, select bank1
  3114  04E6  082A               	movf	(___flmul@prod+3)^(0+128),w
  3115  04E7  1283               	bcf	3,5	;RP0=0, select bank0
  3116  04E8  1303               	bcf	3,6	;RP1=0, select bank0
  3117  04E9  00C9               	movwf	??___flmul+3
  3118  04EA  3001               	movlw	1
  3119  04EB  00CA               	movwf	??___flmul+4
  3120  04EC                     u2985:
  3121  04EC  0D49               	rlf	??___flmul+3,w
  3122  04ED  0CC9               	rrf	??___flmul+3,f
  3123  04EE  0CC8               	rrf	??___flmul+2,f
  3124  04EF  0CC7               	rrf	??___flmul+1,f
  3125  04F0  0CC6               	rrf	??___flmul,f
  3126  04F1                     u2980:
  3127  04F1  0BCA               	decfsz	??___flmul+4,f
  3128  04F2  2CEC               	goto	u2985
  3129  04F3  0849               	movf	??___flmul+3,w
  3130  04F4  1683               	bsf	3,5	;RP0=1, select bank1
  3131  04F5  1303               	bcf	3,6	;RP1=0, select bank1
  3132  04F6  00AA               	movwf	(___flmul@prod+3)^(0+128)
  3133  04F7  1283               	bcf	3,5	;RP0=0, select bank0
  3134  04F8  1303               	bcf	3,6	;RP1=0, select bank0
  3135  04F9  0848               	movf	??___flmul+2,w
  3136  04FA  1683               	bsf	3,5	;RP0=1, select bank1
  3137  04FB  1303               	bcf	3,6	;RP1=0, select bank1
  3138  04FC  00A9               	movwf	(___flmul@prod+2)^(0+128)
  3139  04FD  1283               	bcf	3,5	;RP0=0, select bank0
  3140  04FE  1303               	bcf	3,6	;RP1=0, select bank0
  3141  04FF  0847               	movf	??___flmul+1,w
  3142  0500  1683               	bsf	3,5	;RP0=1, select bank1
  3143  0501  1303               	bcf	3,6	;RP1=0, select bank1
  3144  0502  00A8               	movwf	(___flmul@prod+1)^(0+128)
  3145  0503  1283               	bcf	3,5	;RP0=0, select bank0
  3146  0504  1303               	bcf	3,6	;RP1=0, select bank0
  3147  0505  0846               	movf	??___flmul,w
  3148  0506  1683               	bsf	3,5	;RP0=1, select bank1
  3149  0507  1303               	bcf	3,6	;RP1=0, select bank1
  3150  0508  00A7               	movwf	___flmul@prod^(0+128)
  3151  0509                     l2289:
  3152  0509  3001               	movlw	1
  3153  050A  07AB               	addwf	___flmul@temp^(0+128),f
  3154  050B  1803               	skipnc
  3155  050C  0AAC               	incf	(___flmul@temp+1)^(0+128),f
  3156  050D  3000               	movlw	0
  3157  050E  07AC               	addwf	(___flmul@temp+1)^(0+128),f
  3158  050F                     l2291:
  3159  050F  082C               	movf	(___flmul@temp+1)^(0+128),w
  3160  0510  3A80               	xorlw	128
  3161  0511  00FF               	movwf	btemp+1
  3162  0512  3080               	movlw	128
  3163  0513  027F               	subwf	btemp+1,w
  3164  0514  1D03               	skipz
  3165  0515  2D18               	goto	u2995
  3166  0516  30FF               	movlw	255
  3167  0517  022B               	subwf	___flmul@temp^(0+128),w
  3168  0518                     u2995:
  3169  0518  1C03               	skipc
  3170  0519  2D1B               	goto	u2991
  3171  051A  2D1C               	goto	u2990
  3172  051B                     u2991:
  3173  051B  2D27               	goto	l2295
  3174  051C                     u2990:
  3175  051C                     l2293:
  3176  051C  307F               	movlw	127
  3177  051D  1683               	bsf	3,5	;RP0=1, select bank1
  3178  051E  1303               	bcf	3,6	;RP1=0, select bank1
  3179  051F  00AA               	movwf	(___flmul@prod+3)^(0+128)
  3180  0520  3080               	movlw	128
  3181  0521  00A9               	movwf	(___flmul@prod+2)^(0+128)
  3182  0522  3000               	movlw	0
  3183  0523  00A8               	movwf	(___flmul@prod+1)^(0+128)
  3184  0524  3000               	movlw	0
  3185  0525  00A7               	movwf	___flmul@prod^(0+128)
  3186  0526  2D64               	goto	l680
  3187  0527                     l2295:
  3188  0527  1683               	bsf	3,5	;RP0=1, select bank1
  3189  0528  1303               	bcf	3,6	;RP1=0, select bank1
  3190  0529  082C               	movf	(___flmul@temp+1)^(0+128),w
  3191  052A  3A80               	xorlw	128
  3192  052B  00FF               	movwf	btemp+1
  3193  052C  3080               	movlw	128
  3194  052D  027F               	subwf	btemp+1,w
  3195  052E  1D03               	skipz
  3196  052F  2D32               	goto	u3005
  3197  0530  3001               	movlw	1
  3198  0531  022B               	subwf	___flmul@temp^(0+128),w
  3199  0532                     u3005:
  3200  0532  1803               	skipnc
  3201  0533  2D35               	goto	u3001
  3202  0534  2D36               	goto	u3000
  3203  0535                     u3001:
  3204  0535  2D42               	goto	l2301
  3205  0536                     u3000:
  3206  0536                     l2297:
  3207  0536  3000               	movlw	0
  3208  0537  1683               	bsf	3,5	;RP0=1, select bank1
  3209  0538  1303               	bcf	3,6	;RP1=0, select bank1
  3210  0539  00AA               	movwf	(___flmul@prod+3)^(0+128)
  3211  053A  3000               	movlw	0
  3212  053B  00A9               	movwf	(___flmul@prod+2)^(0+128)
  3213  053C  3000               	movlw	0
  3214  053D  00A8               	movwf	(___flmul@prod+1)^(0+128)
  3215  053E  3000               	movlw	0
  3216  053F  00A7               	movwf	___flmul@prod^(0+128)
  3217  0540                     l2299:
  3218  0540  01A0               	clrf	___flmul@sign^(0+128)
  3219  0541  2D64               	goto	l680
  3220  0542                     l2301:
  3221  0542  1683               	bsf	3,5	;RP0=1, select bank1
  3222  0543  1303               	bcf	3,6	;RP1=0, select bank1
  3223  0544  082B               	movf	___flmul@temp^(0+128),w
  3224  0545  1283               	bcf	3,5	;RP0=0, select bank0
  3225  0546  1303               	bcf	3,6	;RP1=0, select bank0
  3226  0547  00C6               	movwf	??___flmul
  3227  0548  0846               	movf	??___flmul,w
  3228  0549  1683               	bsf	3,5	;RP0=1, select bank1
  3229  054A  1303               	bcf	3,6	;RP1=0, select bank1
  3230  054B  00A6               	movwf	___flmul@bexp^(0+128)
  3231  054C  30FF               	movlw	255
  3232  054D  05A7               	andwf	___flmul@prod^(0+128),f
  3233  054E  30FF               	movlw	255
  3234  054F  05A8               	andwf	(___flmul@prod+1)^(0+128),f
  3235  0550  307F               	movlw	127
  3236  0551  05A9               	andwf	(___flmul@prod+2)^(0+128),f
  3237  0552  3000               	movlw	0
  3238  0553  05AA               	andwf	(___flmul@prod+3)^(0+128),f
  3239  0554                     l2303:
  3240  0554  1C26               	btfss	___flmul@bexp^(0+128),0
  3241  0555  2D57               	goto	u3011
  3242  0556  2D58               	goto	u3010
  3243  0557                     u3011:
  3244  0557  2D59               	goto	l2307
  3245  0558                     u3010:
  3246  0558                     l2305:
  3247  0558  17A9               	bsf	(___flmul@prod^(0+128)+2),7
  3248  0559                     l2307:
  3249  0559  0826               	movf	___flmul@bexp^(0+128),w
  3250  055A  1283               	bcf	3,5	;RP0=0, select bank0
  3251  055B  1303               	bcf	3,6	;RP1=0, select bank0
  3252  055C  00C6               	movwf	??___flmul
  3253  055D  1003               	clrc
  3254  055E  0C46               	rrf	??___flmul,w
  3255  055F  00C7               	movwf	??___flmul+1
  3256  0560  0847               	movf	??___flmul+1,w
  3257  0561  1683               	bsf	3,5	;RP0=1, select bank1
  3258  0562  1303               	bcf	3,6	;RP1=0, select bank1
  3259  0563  00AA               	movwf	(___flmul@prod^(0+128)+3)
  3260  0564                     l680:
  3261  0564  0820               	movf	___flmul@sign^(0+128),w
  3262  0565  1283               	bcf	3,5	;RP0=0, select bank0
  3263  0566  1303               	bcf	3,6	;RP1=0, select bank0
  3264  0567  00C6               	movwf	??___flmul
  3265  0568  0846               	movf	??___flmul,w
  3266  0569  1683               	bsf	3,5	;RP0=1, select bank1
  3267  056A  1303               	bcf	3,6	;RP1=0, select bank1
  3268  056B  04AA               	iorwf	(___flmul@prod^(0+128)+3),f
  3269  056C                     l2309:
  3270  056C  082A               	movf	(___flmul@prod+3)^(0+128),w
  3271  056D  1283               	bcf	3,5	;RP0=0, select bank0
  3272  056E  1303               	bcf	3,6	;RP1=0, select bank0
  3273  056F  00C1               	movwf	?___flmul+3
  3274  0570  1683               	bsf	3,5	;RP0=1, select bank1
  3275  0571  1303               	bcf	3,6	;RP1=0, select bank1
  3276  0572  0829               	movf	(___flmul@prod+2)^(0+128),w
  3277  0573  1283               	bcf	3,5	;RP0=0, select bank0
  3278  0574  1303               	bcf	3,6	;RP1=0, select bank0
  3279  0575  00C0               	movwf	?___flmul+2
  3280  0576  1683               	bsf	3,5	;RP0=1, select bank1
  3281  0577  1303               	bcf	3,6	;RP1=0, select bank1
  3282  0578  0828               	movf	(___flmul@prod+1)^(0+128),w
  3283  0579  1283               	bcf	3,5	;RP0=0, select bank0
  3284  057A  1303               	bcf	3,6	;RP1=0, select bank0
  3285  057B  00BF               	movwf	?___flmul+1
  3286  057C  1683               	bsf	3,5	;RP0=1, select bank1
  3287  057D  1303               	bcf	3,6	;RP1=0, select bank1
  3288  057E  0827               	movf	___flmul@prod^(0+128),w
  3289  057F  1283               	bcf	3,5	;RP0=0, select bank0
  3290  0580  1303               	bcf	3,6	;RP1=0, select bank0
  3291  0581  00BE               	movwf	?___flmul
  3292  0582                     l668:
  3293  0582  0008               	return
  3294  0583                     __end_of___flmul:
  3295                           
  3296                           	psect	text5
  3297  0AF3                     __ptext5:	
  3298 ;; *************** function __Umul8_16 *****************
  3299 ;; Defined at:
  3300 ;;		line 4 in file "C:\Program Files\Microchip\xc8\v2.32\pic\sources\c90\common\Umul8_16.c"
  3301 ;; Parameters:    Size  Location     Type
  3302 ;;  multiplier      1    wreg     unsigned char 
  3303 ;;  multiplicand    1   16[BANK0 ] unsigned char 
  3304 ;; Auto vars:     Size  Location     Type
  3305 ;;  multiplier      1   24[BANK0 ] unsigned char 
  3306 ;;  word_mpld       2   22[BANK0 ] unsigned int 
  3307 ;;  product         2   20[BANK0 ] unsigned int 
  3308 ;; Return value:  Size  Location     Type
  3309 ;;                  2   16[BANK0 ] unsigned int 
  3310 ;; Registers used:
  3311 ;;		wreg, status,2, status,0
  3312 ;; Tracked objects:
  3313 ;;		On entry : 0/0
  3314 ;;		On exit  : 0/0
  3315 ;;		Unchanged: 0/0
  3316 ;; Data sizes:     COMMON   BANK0   BANK1   BANK3   BANK2
  3317 ;;      Params:         0       2       0       0       0
  3318 ;;      Locals:         0       5       0       0       0
  3319 ;;      Temps:          0       2       0       0       0
  3320 ;;      Totals:         0       9       0       0       0
  3321 ;;Total ram usage:        9 bytes
  3322 ;; Hardware stack levels used: 1
  3323 ;; Hardware stack levels required when called: 4
  3324 ;; This function calls:
  3325 ;;		Nothing
  3326 ;; This function is called by:
  3327 ;;		___flmul
  3328 ;; This function uses a non-reentrant model
  3329 ;;
  3330                           
  3331                           
  3332                           ;psect for function __Umul8_16
  3333  0AF3                     __Umul8_16:
  3334                           
  3335                           ;incstack = 0
  3336                           ; Regs used in __Umul8_16: [wreg+status,2+status,0]
  3337                           ;__Umul8_16@multiplier stored from wreg
  3338  0AF3  1283               	bcf	3,5	;RP0=0, select bank0
  3339  0AF4  1303               	bcf	3,6	;RP1=0, select bank0
  3340  0AF5  00B8               	movwf	__Umul8_16@multiplier
  3341  0AF6                     l2123:
  3342  0AF6  01B4               	clrf	__Umul8_16@product
  3343  0AF7  01B5               	clrf	__Umul8_16@product+1
  3344  0AF8                     l2125:
  3345  0AF8  0830               	movf	__Umul8_16@multiplicand,w
  3346  0AF9  00B2               	movwf	??__Umul8_16
  3347  0AFA  01B3               	clrf	??__Umul8_16+1
  3348  0AFB  0832               	movf	??__Umul8_16,w
  3349  0AFC  00B6               	movwf	__Umul8_16@word_mpld
  3350  0AFD  0833               	movf	??__Umul8_16+1,w
  3351  0AFE  00B7               	movwf	__Umul8_16@word_mpld+1
  3352  0AFF                     l2127:
  3353  0AFF  1C38               	btfss	__Umul8_16@multiplier,0
  3354  0B00  2B02               	goto	u2521
  3355  0B01  2B03               	goto	u2520
  3356  0B02                     u2521:
  3357  0B02  2B09               	goto	l687
  3358  0B03                     u2520:
  3359  0B03                     l2129:
  3360  0B03  0836               	movf	__Umul8_16@word_mpld,w
  3361  0B04  07B4               	addwf	__Umul8_16@product,f
  3362  0B05  1803               	skipnc
  3363  0B06  0AB5               	incf	__Umul8_16@product+1,f
  3364  0B07  0837               	movf	__Umul8_16@word_mpld+1,w
  3365  0B08  07B5               	addwf	__Umul8_16@product+1,f
  3366  0B09                     l687:
  3367  0B09  3001               	movlw	1
  3368  0B0A                     u2535:
  3369  0B0A  1003               	clrc
  3370  0B0B  0DB6               	rlf	__Umul8_16@word_mpld,f
  3371  0B0C  0DB7               	rlf	__Umul8_16@word_mpld+1,f
  3372  0B0D  3EFF               	addlw	-1
  3373  0B0E  1D03               	skipz
  3374  0B0F  2B0A               	goto	u2535
  3375  0B10  1003               	clrc
  3376  0B11  0CB8               	rrf	__Umul8_16@multiplier,f
  3377  0B12                     l2131:
  3378  0B12  0838               	movf	__Umul8_16@multiplier,w
  3379  0B13  1D03               	btfss	3,2
  3380  0B14  2B16               	goto	u2541
  3381  0B15  2B17               	goto	u2540
  3382  0B16                     u2541:
  3383  0B16  2AFF               	goto	l2127
  3384  0B17                     u2540:
  3385  0B17                     l2133:
  3386  0B17  0835               	movf	__Umul8_16@product+1,w
  3387  0B18  00B1               	movwf	?__Umul8_16+1
  3388  0B19  0834               	movf	__Umul8_16@product,w
  3389  0B1A  00B0               	movwf	?__Umul8_16
  3390  0B1B                     l689:
  3391  0B1B  0008               	return
  3392  0B1C                     __end_of__Umul8_16:
  3393                           
  3394                           	psect	text6
  3395  0D6B                     __ptext6:	
  3396 ;; *************** function ___fldiv *****************
  3397 ;; Defined at:
  3398 ;;		line 8 in file "C:\Program Files\Microchip\xc8\v2.32\pic\sources\c90\common\sprcdiv.c"
  3399 ;; Parameters:    Size  Location     Type
  3400 ;;  a               4   43[BANK0 ] unsigned int 
  3401 ;;  b               4   47[BANK0 ] unsigned int 
  3402 ;; Auto vars:     Size  Location     Type
  3403 ;;  grs             4   25[BANK1 ] unsigned long 
  3404 ;;  rem             4   18[BANK1 ] unsigned long 
  3405 ;;  new_exp         2   23[BANK1 ] int 
  3406 ;;  aexp            1   30[BANK1 ] unsigned char 
  3407 ;;  bexp            1   29[BANK1 ] unsigned char 
  3408 ;;  sign            1   22[BANK1 ] unsigned char 
  3409 ;; Return value:  Size  Location     Type
  3410 ;;                  4   43[BANK0 ] unsigned char 
  3411 ;; Registers used:
  3412 ;;		wreg, status,2, status,0, btemp+1
  3413 ;; Tracked objects:
  3414 ;;		On entry : 0/0
  3415 ;;		On exit  : 0/0
  3416 ;;		Unchanged: 0/0
  3417 ;; Data sizes:     COMMON   BANK0   BANK1   BANK3   BANK2
  3418 ;;      Params:         0       8       0       0       0
  3419 ;;      Locals:         0       0      13       0       0
  3420 ;;      Temps:          0       0       5       0       0
  3421 ;;      Totals:         0       8      18       0       0
  3422 ;;Total ram usage:       26 bytes
  3423 ;; Hardware stack levels used: 1
  3424 ;; Hardware stack levels required when called: 4
  3425 ;; This function calls:
  3426 ;;		Nothing
  3427 ;; This function is called by:
  3428 ;;		_main
  3429 ;; This function uses a non-reentrant model
  3430 ;;
  3431                           
  3432                           
  3433                           ;psect for function ___fldiv
  3434  0D6B                     ___fldiv:
  3435  0D6B                     l1725:	
  3436                           ;incstack = 0
  3437                           ; Regs used in ___fldiv: [wreg+status,2+status,0+btemp+1]
  3438                           
  3439  0D6B  1283               	bcf	3,5	;RP0=0, select bank0
  3440  0D6C  1303               	bcf	3,6	;RP1=0, select bank0
  3441  0D6D  0852               	movf	___fldiv@b+3,w
  3442  0D6E  3980               	andlw	128
  3443  0D6F  1683               	bsf	3,5	;RP0=1, select bank1
  3444  0D70  1303               	bcf	3,6	;RP1=0, select bank1
  3445  0D71  00AD               	movwf	??___fldiv^(0+128)
  3446  0D72  082D               	movf	??___fldiv^(0+128),w
  3447  0D73  00B6               	movwf	___fldiv@sign^(0+128)
  3448  0D74                     l1727:
  3449  0D74  1283               	bcf	3,5	;RP0=0, select bank0
  3450  0D75  1303               	bcf	3,6	;RP1=0, select bank0
  3451  0D76  0852               	movf	___fldiv@b+3,w
  3452  0D77  1683               	bsf	3,5	;RP0=1, select bank1
  3453  0D78  1303               	bcf	3,6	;RP1=0, select bank1
  3454  0D79  00AD               	movwf	??___fldiv^(0+128)
  3455  0D7A  072D               	addwf	??___fldiv^(0+128),w
  3456  0D7B  00AE               	movwf	(??___fldiv+1)^(0+128)
  3457  0D7C  082E               	movf	(??___fldiv+1)^(0+128),w
  3458  0D7D  00BD               	movwf	___fldiv@bexp^(0+128)
  3459  0D7E                     l1729:
  3460  0D7E  1283               	bcf	3,5	;RP0=0, select bank0
  3461  0D7F  1303               	bcf	3,6	;RP1=0, select bank0
  3462  0D80  1FD1               	btfss	___fldiv@b+2,7
  3463  0D81  2D83               	goto	u1691
  3464  0D82  2D84               	goto	u1690
  3465  0D83                     u1691:
  3466  0D83  2D87               	goto	l1733
  3467  0D84                     u1690:
  3468  0D84                     l1731:
  3469  0D84  1683               	bsf	3,5	;RP0=1, select bank1
  3470  0D85  1303               	bcf	3,6	;RP1=0, select bank1
  3471  0D86  143D               	bsf	___fldiv@bexp^(0+128),0
  3472  0D87                     l1733:
  3473  0D87  1683               	bsf	3,5	;RP0=1, select bank1
  3474  0D88  1303               	bcf	3,6	;RP1=0, select bank1
  3475  0D89  083D               	movf	___fldiv@bexp^(0+128),w
  3476  0D8A  1903               	btfsc	3,2
  3477  0D8B  2D8D               	goto	u1701
  3478  0D8C  2D8E               	goto	u1700
  3479  0D8D                     u1701:
  3480  0D8D  2DA1               	goto	l1743
  3481  0D8E                     u1700:
  3482  0D8E                     l1735:
  3483  0D8E  0A3D               	incf	___fldiv@bexp^(0+128),w
  3484  0D8F  1D03               	btfss	3,2
  3485  0D90  2D92               	goto	u1711
  3486  0D91  2D93               	goto	u1710
  3487  0D92                     u1711:
  3488  0D92  2D9D               	goto	l1739
  3489  0D93                     u1710:
  3490  0D93                     l1737:
  3491  0D93  3000               	movlw	0
  3492  0D94  1283               	bcf	3,5	;RP0=0, select bank0
  3493  0D95  1303               	bcf	3,6	;RP1=0, select bank0
  3494  0D96  00D2               	movwf	___fldiv@b+3
  3495  0D97  3000               	movlw	0
  3496  0D98  00D1               	movwf	___fldiv@b+2
  3497  0D99  3000               	movlw	0
  3498  0D9A  00D0               	movwf	___fldiv@b+1
  3499  0D9B  3000               	movlw	0
  3500  0D9C  00CF               	movwf	___fldiv@b
  3501  0D9D                     l1739:
  3502  0D9D  1283               	bcf	3,5	;RP0=0, select bank0
  3503  0D9E  17D1               	bsf	___fldiv@b+2,7
  3504  0D9F                     l1741:
  3505  0D9F  01D2               	clrf	___fldiv@b+3
  3506  0DA0  2DAB               	goto	l1745
  3507  0DA1                     l1743:
  3508  0DA1  3000               	movlw	0
  3509  0DA2  1283               	bcf	3,5	;RP0=0, select bank0
  3510  0DA3  1303               	bcf	3,6	;RP1=0, select bank0
  3511  0DA4  00D2               	movwf	___fldiv@b+3
  3512  0DA5  3000               	movlw	0
  3513  0DA6  00D1               	movwf	___fldiv@b+2
  3514  0DA7  3000               	movlw	0
  3515  0DA8  00D0               	movwf	___fldiv@b+1
  3516  0DA9  3000               	movlw	0
  3517  0DAA  00CF               	movwf	___fldiv@b
  3518  0DAB                     l1745:
  3519  0DAB  084E               	movf	___fldiv@a+3,w
  3520  0DAC  3980               	andlw	128
  3521  0DAD  1683               	bsf	3,5	;RP0=1, select bank1
  3522  0DAE  1303               	bcf	3,6	;RP1=0, select bank1
  3523  0DAF  00AD               	movwf	??___fldiv^(0+128)
  3524  0DB0  082D               	movf	??___fldiv^(0+128),w
  3525  0DB1  06B6               	xorwf	___fldiv@sign^(0+128),f
  3526  0DB2                     l1747:
  3527  0DB2  1283               	bcf	3,5	;RP0=0, select bank0
  3528  0DB3  1303               	bcf	3,6	;RP1=0, select bank0
  3529  0DB4  084E               	movf	___fldiv@a+3,w
  3530  0DB5  1683               	bsf	3,5	;RP0=1, select bank1
  3531  0DB6  1303               	bcf	3,6	;RP1=0, select bank1
  3532  0DB7  00AD               	movwf	??___fldiv^(0+128)
  3533  0DB8  072D               	addwf	??___fldiv^(0+128),w
  3534  0DB9  00AE               	movwf	(??___fldiv+1)^(0+128)
  3535  0DBA  082E               	movf	(??___fldiv+1)^(0+128),w
  3536  0DBB  00BE               	movwf	___fldiv@aexp^(0+128)
  3537  0DBC                     l1749:
  3538  0DBC  1283               	bcf	3,5	;RP0=0, select bank0
  3539  0DBD  1303               	bcf	3,6	;RP1=0, select bank0
  3540  0DBE  1FCD               	btfss	___fldiv@a+2,7
  3541  0DBF  2DC1               	goto	u1721
  3542  0DC0  2DC2               	goto	u1720
  3543  0DC1                     u1721:
  3544  0DC1  2DC5               	goto	l1753
  3545  0DC2                     u1720:
  3546  0DC2                     l1751:
  3547  0DC2  1683               	bsf	3,5	;RP0=1, select bank1
  3548  0DC3  1303               	bcf	3,6	;RP1=0, select bank1
  3549  0DC4  143E               	bsf	___fldiv@aexp^(0+128),0
  3550  0DC5                     l1753:
  3551  0DC5  1683               	bsf	3,5	;RP0=1, select bank1
  3552  0DC6  1303               	bcf	3,6	;RP1=0, select bank1
  3553  0DC7  083E               	movf	___fldiv@aexp^(0+128),w
  3554  0DC8  1903               	btfsc	3,2
  3555  0DC9  2DCB               	goto	u1731
  3556  0DCA  2DCC               	goto	u1730
  3557  0DCB                     u1731:
  3558  0DCB  2DDF               	goto	l1763
  3559  0DCC                     u1730:
  3560  0DCC                     l1755:
  3561  0DCC  0A3E               	incf	___fldiv@aexp^(0+128),w
  3562  0DCD  1D03               	btfss	3,2
  3563  0DCE  2DD0               	goto	u1741
  3564  0DCF  2DD1               	goto	u1740
  3565  0DD0                     u1741:
  3566  0DD0  2DDB               	goto	l1759
  3567  0DD1                     u1740:
  3568  0DD1                     l1757:
  3569  0DD1  3000               	movlw	0
  3570  0DD2  1283               	bcf	3,5	;RP0=0, select bank0
  3571  0DD3  1303               	bcf	3,6	;RP1=0, select bank0
  3572  0DD4  00CE               	movwf	___fldiv@a+3
  3573  0DD5  3000               	movlw	0
  3574  0DD6  00CD               	movwf	___fldiv@a+2
  3575  0DD7  3000               	movlw	0
  3576  0DD8  00CC               	movwf	___fldiv@a+1
  3577  0DD9  3000               	movlw	0
  3578  0DDA  00CB               	movwf	___fldiv@a
  3579  0DDB                     l1759:
  3580  0DDB  1283               	bcf	3,5	;RP0=0, select bank0
  3581  0DDC  17CD               	bsf	___fldiv@a+2,7
  3582  0DDD                     l1761:
  3583  0DDD  01CE               	clrf	___fldiv@a+3
  3584  0DDE  2DE9               	goto	l628
  3585  0DDF                     l1763:
  3586  0DDF  3000               	movlw	0
  3587  0DE0  1283               	bcf	3,5	;RP0=0, select bank0
  3588  0DE1  1303               	bcf	3,6	;RP1=0, select bank0
  3589  0DE2  00CE               	movwf	___fldiv@a+3
  3590  0DE3  3000               	movlw	0
  3591  0DE4  00CD               	movwf	___fldiv@a+2
  3592  0DE5  3000               	movlw	0
  3593  0DE6  00CC               	movwf	___fldiv@a+1
  3594  0DE7  3000               	movlw	0
  3595  0DE8  00CB               	movwf	___fldiv@a
  3596  0DE9                     l628:
  3597  0DE9  084E               	movf	___fldiv@a+3,w
  3598  0DEA  044D               	iorwf	___fldiv@a+2,w
  3599  0DEB  044C               	iorwf	___fldiv@a+1,w
  3600  0DEC  044B               	iorwf	___fldiv@a,w
  3601  0DED  1D03               	skipz
  3602  0DEE  2DF0               	goto	u1751
  3603  0DEF  2DF1               	goto	u1750
  3604  0DF0                     u1751:
  3605  0DF0  2E0E               	goto	l1773
  3606  0DF1                     u1750:
  3607  0DF1                     l1765:
  3608  0DF1  3000               	movlw	0
  3609  0DF2  00D2               	movwf	___fldiv@b+3
  3610  0DF3  3000               	movlw	0
  3611  0DF4  00D1               	movwf	___fldiv@b+2
  3612  0DF5  3000               	movlw	0
  3613  0DF6  00D0               	movwf	___fldiv@b+1
  3614  0DF7  3000               	movlw	0
  3615  0DF8  00CF               	movwf	___fldiv@b
  3616  0DF9  3080               	movlw	128
  3617  0DFA  04D1               	iorwf	___fldiv@b+2,f
  3618  0DFB  307F               	movlw	127
  3619  0DFC  04D2               	iorwf	___fldiv@b+3,f
  3620  0DFD                     l1767:
  3621  0DFD  1683               	bsf	3,5	;RP0=1, select bank1
  3622  0DFE  1303               	bcf	3,6	;RP1=0, select bank1
  3623  0DFF  0836               	movf	___fldiv@sign^(0+128),w
  3624  0E00  00AD               	movwf	??___fldiv^(0+128)
  3625  0E01  082D               	movf	??___fldiv^(0+128),w
  3626  0E02  1283               	bcf	3,5	;RP0=0, select bank0
  3627  0E03  1303               	bcf	3,6	;RP1=0, select bank0
  3628  0E04  04D2               	iorwf	___fldiv@b+3,f
  3629  0E05                     l1769:
  3630  0E05  0852               	movf	___fldiv@b+3,w
  3631  0E06  00CE               	movwf	?___fldiv+3
  3632  0E07  0851               	movf	___fldiv@b+2,w
  3633  0E08  00CD               	movwf	?___fldiv+2
  3634  0E09  0850               	movf	___fldiv@b+1,w
  3635  0E0A  00CC               	movwf	?___fldiv+1
  3636  0E0B  084F               	movf	___fldiv@b,w
  3637  0E0C  00CB               	movwf	?___fldiv
  3638  0E0D  2FFF               	goto	l630
  3639  0E0E                     l1773:
  3640  0E0E  1683               	bsf	3,5	;RP0=1, select bank1
  3641  0E0F  1303               	bcf	3,6	;RP1=0, select bank1
  3642  0E10  083D               	movf	___fldiv@bexp^(0+128),w
  3643  0E11  1D03               	btfss	3,2
  3644  0E12  2E14               	goto	u1761
  3645  0E13  2E15               	goto	u1760
  3646  0E14                     u1761:
  3647  0E14  2E20               	goto	l1779
  3648  0E15                     u1760:
  3649  0E15                     l1775:
  3650  0E15  3000               	movlw	0
  3651  0E16  1283               	bcf	3,5	;RP0=0, select bank0
  3652  0E17  1303               	bcf	3,6	;RP1=0, select bank0
  3653  0E18  00CE               	movwf	?___fldiv+3
  3654  0E19  3000               	movlw	0
  3655  0E1A  00CD               	movwf	?___fldiv+2
  3656  0E1B  3000               	movlw	0
  3657  0E1C  00CC               	movwf	?___fldiv+1
  3658  0E1D  3000               	movlw	0
  3659  0E1E  00CB               	movwf	?___fldiv
  3660  0E1F  2FFF               	goto	l630
  3661  0E20                     l1779:
  3662  0E20  083D               	movf	___fldiv@bexp^(0+128),w
  3663  0E21  00AD               	movwf	??___fldiv^(0+128)
  3664  0E22  01AE               	clrf	(??___fldiv^(0+128)+1)
  3665  0E23  082E               	movf	(??___fldiv+1)^(0+128),w
  3666  0E24  00B0               	movwf	((??___fldiv+2)^(0+128)+1)
  3667  0E25  083E               	movf	___fldiv@aexp^(0+128),w
  3668  0E26  022D               	subwf	??___fldiv^(0+128),w
  3669  0E27  00AF               	movwf	(??___fldiv+2)^(0+128)
  3670  0E28  1C03               	skipc
  3671  0E29  03B0               	decf	((??___fldiv+2)^(0+128)+1),f
  3672  0E2A  082F               	movf	(??___fldiv+2)^(0+128),w
  3673  0E2B  3E7F               	addlw	127
  3674  0E2C  00B7               	movwf	___fldiv@new_exp^(0+128)
  3675  0E2D  0830               	movf	(??___fldiv+3)^(0+128),w
  3676  0E2E  1803               	skipnc
  3677  0E2F  3E01               	addlw	1
  3678  0E30  3E00               	addlw	0
  3679  0E31  00B8               	movwf	(___fldiv@new_exp+1)^(0+128)
  3680  0E32                     l1781:
  3681  0E32  1283               	bcf	3,5	;RP0=0, select bank0
  3682  0E33  1303               	bcf	3,6	;RP1=0, select bank0
  3683  0E34  0852               	movf	___fldiv@b+3,w
  3684  0E35  1683               	bsf	3,5	;RP0=1, select bank1
  3685  0E36  1303               	bcf	3,6	;RP1=0, select bank1
  3686  0E37  00B5               	movwf	(___fldiv@rem+3)^(0+128)
  3687  0E38  1283               	bcf	3,5	;RP0=0, select bank0
  3688  0E39  1303               	bcf	3,6	;RP1=0, select bank0
  3689  0E3A  0851               	movf	___fldiv@b+2,w
  3690  0E3B  1683               	bsf	3,5	;RP0=1, select bank1
  3691  0E3C  1303               	bcf	3,6	;RP1=0, select bank1
  3692  0E3D  00B4               	movwf	(___fldiv@rem+2)^(0+128)
  3693  0E3E  1283               	bcf	3,5	;RP0=0, select bank0
  3694  0E3F  1303               	bcf	3,6	;RP1=0, select bank0
  3695  0E40  0850               	movf	___fldiv@b+1,w
  3696  0E41  1683               	bsf	3,5	;RP0=1, select bank1
  3697  0E42  1303               	bcf	3,6	;RP1=0, select bank1
  3698  0E43  00B3               	movwf	(___fldiv@rem+1)^(0+128)
  3699  0E44  1283               	bcf	3,5	;RP0=0, select bank0
  3700  0E45  1303               	bcf	3,6	;RP1=0, select bank0
  3701  0E46  084F               	movf	___fldiv@b,w
  3702  0E47  1683               	bsf	3,5	;RP0=1, select bank1
  3703  0E48  1303               	bcf	3,6	;RP1=0, select bank1
  3704  0E49  00B2               	movwf	___fldiv@rem^(0+128)
  3705  0E4A                     l1783:
  3706  0E4A  3000               	movlw	0
  3707  0E4B  1283               	bcf	3,5	;RP0=0, select bank0
  3708  0E4C  1303               	bcf	3,6	;RP1=0, select bank0
  3709  0E4D  00D2               	movwf	___fldiv@b+3
  3710  0E4E  3000               	movlw	0
  3711  0E4F  00D1               	movwf	___fldiv@b+2
  3712  0E50  3000               	movlw	0
  3713  0E51  00D0               	movwf	___fldiv@b+1
  3714  0E52  3000               	movlw	0
  3715  0E53  00CF               	movwf	___fldiv@b
  3716  0E54                     l1785:
  3717  0E54  3000               	movlw	0
  3718  0E55  1683               	bsf	3,5	;RP0=1, select bank1
  3719  0E56  1303               	bcf	3,6	;RP1=0, select bank1
  3720  0E57  00BC               	movwf	(___fldiv@grs+3)^(0+128)
  3721  0E58  3000               	movlw	0
  3722  0E59  00BB               	movwf	(___fldiv@grs+2)^(0+128)
  3723  0E5A  3000               	movlw	0
  3724  0E5B  00BA               	movwf	(___fldiv@grs+1)^(0+128)
  3725  0E5C  3000               	movlw	0
  3726  0E5D  00B9               	movwf	___fldiv@grs^(0+128)
  3727  0E5E                     l1787:
  3728  0E5E  01BE               	clrf	___fldiv@aexp^(0+128)
  3729  0E5F  2EDC               	goto	l1807
  3730  0E60                     l1789:
  3731  0E60  083E               	movf	___fldiv@aexp^(0+128),w
  3732  0E61  1903               	btfsc	3,2
  3733  0E62  2E64               	goto	u1771
  3734  0E63  2E65               	goto	u1770
  3735  0E64                     u1771:
  3736  0E64  2E8D               	goto	l1799
  3737  0E65                     u1770:
  3738  0E65                     l1791:
  3739  0E65  3001               	movlw	1
  3740  0E66  00AD               	movwf	??___fldiv^(0+128)
  3741  0E67                     u1785:
  3742  0E67  1003               	clrc
  3743  0E68  0DB2               	rlf	___fldiv@rem^(0+128),f
  3744  0E69  0DB3               	rlf	(___fldiv@rem+1)^(0+128),f
  3745  0E6A  0DB4               	rlf	(___fldiv@rem+2)^(0+128),f
  3746  0E6B  0DB5               	rlf	(___fldiv@rem+3)^(0+128),f
  3747  0E6C  0BAD               	decfsz	??___fldiv^(0+128),f
  3748  0E6D  2E67               	goto	u1785
  3749  0E6E  3001               	movlw	1
  3750  0E6F  00AD               	movwf	??___fldiv^(0+128)
  3751  0E70                     u1795:
  3752  0E70  1003               	clrc
  3753  0E71  1283               	bcf	3,5	;RP0=0, select bank0
  3754  0E72  1303               	bcf	3,6	;RP1=0, select bank0
  3755  0E73  0DCF               	rlf	___fldiv@b,f
  3756  0E74  0DD0               	rlf	___fldiv@b+1,f
  3757  0E75  0DD1               	rlf	___fldiv@b+2,f
  3758  0E76  0DD2               	rlf	___fldiv@b+3,f
  3759  0E77  1683               	bsf	3,5	;RP0=1, select bank1
  3760  0E78  1303               	bcf	3,6	;RP1=0, select bank1
  3761  0E79  0BAD               	decfsz	??___fldiv^(0+128),f
  3762  0E7A  2E70               	goto	u1795
  3763  0E7B                     l1793:
  3764  0E7B  1FBC               	btfss	(___fldiv@grs+3)^(0+128),7
  3765  0E7C  2E7E               	goto	u1801
  3766  0E7D  2E7F               	goto	u1800
  3767  0E7E                     u1801:
  3768  0E7E  2E82               	goto	l1797
  3769  0E7F                     u1800:
  3770  0E7F                     l1795:
  3771  0E7F  1283               	bcf	3,5	;RP0=0, select bank0
  3772  0E80  1303               	bcf	3,6	;RP1=0, select bank0
  3773  0E81  144F               	bsf	___fldiv@b,0
  3774  0E82                     l1797:
  3775  0E82  3001               	movlw	1
  3776  0E83  1683               	bsf	3,5	;RP0=1, select bank1
  3777  0E84  1303               	bcf	3,6	;RP1=0, select bank1
  3778  0E85  00AD               	movwf	??___fldiv^(0+128)
  3779  0E86                     u1815:
  3780  0E86  1003               	clrc
  3781  0E87  0DB9               	rlf	___fldiv@grs^(0+128),f
  3782  0E88  0DBA               	rlf	(___fldiv@grs+1)^(0+128),f
  3783  0E89  0DBB               	rlf	(___fldiv@grs+2)^(0+128),f
  3784  0E8A  0DBC               	rlf	(___fldiv@grs+3)^(0+128),f
  3785  0E8B  0BAD               	decfsz	??___fldiv^(0+128),f
  3786  0E8C  2E86               	goto	u1815
  3787  0E8D                     l1799:
  3788  0E8D  1283               	bcf	3,5	;RP0=0, select bank0
  3789  0E8E  1303               	bcf	3,6	;RP1=0, select bank0
  3790  0E8F  084E               	movf	___fldiv@a+3,w
  3791  0E90  1683               	bsf	3,5	;RP0=1, select bank1
  3792  0E91  1303               	bcf	3,6	;RP1=0, select bank1
  3793  0E92  0235               	subwf	(___fldiv@rem+3)^(0+128),w
  3794  0E93  1D03               	skipz
  3795  0E94  2EAB               	goto	u1825
  3796  0E95  1283               	bcf	3,5	;RP0=0, select bank0
  3797  0E96  1303               	bcf	3,6	;RP1=0, select bank0
  3798  0E97  084D               	movf	___fldiv@a+2,w
  3799  0E98  1683               	bsf	3,5	;RP0=1, select bank1
  3800  0E99  1303               	bcf	3,6	;RP1=0, select bank1
  3801  0E9A  0234               	subwf	(___fldiv@rem+2)^(0+128),w
  3802  0E9B  1D03               	skipz
  3803  0E9C  2EAB               	goto	u1825
  3804  0E9D  1283               	bcf	3,5	;RP0=0, select bank0
  3805  0E9E  1303               	bcf	3,6	;RP1=0, select bank0
  3806  0E9F  084C               	movf	___fldiv@a+1,w
  3807  0EA0  1683               	bsf	3,5	;RP0=1, select bank1
  3808  0EA1  1303               	bcf	3,6	;RP1=0, select bank1
  3809  0EA2  0233               	subwf	(___fldiv@rem+1)^(0+128),w
  3810  0EA3  1D03               	skipz
  3811  0EA4  2EAB               	goto	u1825
  3812  0EA5  1283               	bcf	3,5	;RP0=0, select bank0
  3813  0EA6  1303               	bcf	3,6	;RP1=0, select bank0
  3814  0EA7  084B               	movf	___fldiv@a,w
  3815  0EA8  1683               	bsf	3,5	;RP0=1, select bank1
  3816  0EA9  1303               	bcf	3,6	;RP1=0, select bank1
  3817  0EAA  0232               	subwf	___fldiv@rem^(0+128),w
  3818  0EAB                     u1825:
  3819  0EAB  1C03               	skipc
  3820  0EAC  2EAE               	goto	u1821
  3821  0EAD  2EAF               	goto	u1820
  3822  0EAE                     u1821:
  3823  0EAE  2ED8               	goto	l1805
  3824  0EAF                     u1820:
  3825  0EAF                     l1801:
  3826  0EAF  173C               	bsf	(___fldiv@grs^(0+128)+3),6
  3827  0EB0                     l1803:
  3828  0EB0  1283               	bcf	3,5	;RP0=0, select bank0
  3829  0EB1  1303               	bcf	3,6	;RP1=0, select bank0
  3830  0EB2  084B               	movf	___fldiv@a,w
  3831  0EB3  1683               	bsf	3,5	;RP0=1, select bank1
  3832  0EB4  1303               	bcf	3,6	;RP1=0, select bank1
  3833  0EB5  02B2               	subwf	___fldiv@rem^(0+128),f
  3834  0EB6  1283               	bcf	3,5	;RP0=0, select bank0
  3835  0EB7  1303               	bcf	3,6	;RP1=0, select bank0
  3836  0EB8  084C               	movf	___fldiv@a+1,w
  3837  0EB9  1C03               	skipc
  3838  0EBA  0F4C               	incfsz	___fldiv@a+1,w
  3839  0EBB  2EBD               	goto	u1835
  3840  0EBC  2EC0               	goto	u1836
  3841  0EBD                     u1835:
  3842  0EBD  1683               	bsf	3,5	;RP0=1, select bank1
  3843  0EBE  1303               	bcf	3,6	;RP1=0, select bank1
  3844  0EBF  02B3               	subwf	(___fldiv@rem+1)^(0+128),f
  3845  0EC0                     u1836:
  3846  0EC0  1283               	bcf	3,5	;RP0=0, select bank0
  3847  0EC1  1303               	bcf	3,6	;RP1=0, select bank0
  3848  0EC2  084D               	movf	___fldiv@a+2,w
  3849  0EC3  1C03               	skipc
  3850  0EC4  0F4D               	incfsz	___fldiv@a+2,w
  3851  0EC5  2EC7               	goto	u1837
  3852  0EC6  2ECA               	goto	u1838
  3853  0EC7                     u1837:
  3854  0EC7  1683               	bsf	3,5	;RP0=1, select bank1
  3855  0EC8  1303               	bcf	3,6	;RP1=0, select bank1
  3856  0EC9  02B4               	subwf	(___fldiv@rem+2)^(0+128),f
  3857  0ECA                     u1838:
  3858  0ECA  1283               	bcf	3,5	;RP0=0, select bank0
  3859  0ECB  1303               	bcf	3,6	;RP1=0, select bank0
  3860  0ECC  084E               	movf	___fldiv@a+3,w
  3861  0ECD  1C03               	skipc
  3862  0ECE  0F4E               	incfsz	___fldiv@a+3,w
  3863  0ECF  2ED1               	goto	u1839
  3864  0ED0  2ED4               	goto	u1830
  3865  0ED1                     u1839:
  3866  0ED1  1683               	bsf	3,5	;RP0=1, select bank1
  3867  0ED2  1303               	bcf	3,6	;RP1=0, select bank1
  3868  0ED3  02B5               	subwf	(___fldiv@rem+3)^(0+128),f
  3869  0ED4                     u1830:
  3870  0ED4  1283               	bcf	3,5	;RP0=0, select bank0
  3871  0ED5  1303               	bcf	3,6	;RP1=0, select bank0
  3872  0ED6  1683               	bsf	3,5	;RP0=1, select bank1
  3873  0ED7  1303               	bcf	3,6	;RP1=0, select bank1
  3874  0ED8                     l1805:
  3875  0ED8  3001               	movlw	1
  3876  0ED9  00AD               	movwf	??___fldiv^(0+128)
  3877  0EDA  082D               	movf	??___fldiv^(0+128),w
  3878  0EDB  07BE               	addwf	___fldiv@aexp^(0+128),f
  3879  0EDC                     l1807:
  3880  0EDC  301A               	movlw	26
  3881  0EDD  023E               	subwf	___fldiv@aexp^(0+128),w
  3882  0EDE  1C03               	skipc
  3883  0EDF  2EE1               	goto	u1841
  3884  0EE0  2EE2               	goto	u1840
  3885  0EE1                     u1841:
  3886  0EE1  2E60               	goto	l1789
  3887  0EE2                     u1840:
  3888  0EE2                     l1809:
  3889  0EE2  0835               	movf	(___fldiv@rem+3)^(0+128),w
  3890  0EE3  0434               	iorwf	(___fldiv@rem+2)^(0+128),w
  3891  0EE4  0433               	iorwf	(___fldiv@rem+1)^(0+128),w
  3892  0EE5  0432               	iorwf	___fldiv@rem^(0+128),w
  3893  0EE6  1903               	skipnz
  3894  0EE7  2EE9               	goto	u1851
  3895  0EE8  2EEA               	goto	u1850
  3896  0EE9                     u1851:
  3897  0EE9  2F13               	goto	l1823
  3898  0EEA                     u1850:
  3899  0EEA                     l1811:
  3900  0EEA  1439               	bsf	___fldiv@grs^(0+128),0
  3901  0EEB  2F13               	goto	l1823
  3902  0EEC                     l1813:
  3903  0EEC  3001               	movlw	1
  3904  0EED  1683               	bsf	3,5	;RP0=1, select bank1
  3905  0EEE  1303               	bcf	3,6	;RP1=0, select bank1
  3906  0EEF  00AD               	movwf	??___fldiv^(0+128)
  3907  0EF0                     u1865:
  3908  0EF0  1003               	clrc
  3909  0EF1  1283               	bcf	3,5	;RP0=0, select bank0
  3910  0EF2  1303               	bcf	3,6	;RP1=0, select bank0
  3911  0EF3  0DCF               	rlf	___fldiv@b,f
  3912  0EF4  0DD0               	rlf	___fldiv@b+1,f
  3913  0EF5  0DD1               	rlf	___fldiv@b+2,f
  3914  0EF6  0DD2               	rlf	___fldiv@b+3,f
  3915  0EF7  1683               	bsf	3,5	;RP0=1, select bank1
  3916  0EF8  1303               	bcf	3,6	;RP1=0, select bank1
  3917  0EF9  0BAD               	decfsz	??___fldiv^(0+128),f
  3918  0EFA  2EF0               	goto	u1865
  3919  0EFB                     l1815:
  3920  0EFB  1FBC               	btfss	(___fldiv@grs+3)^(0+128),7
  3921  0EFC  2EFE               	goto	u1871
  3922  0EFD  2EFF               	goto	u1870
  3923  0EFE                     u1871:
  3924  0EFE  2F02               	goto	l1819
  3925  0EFF                     u1870:
  3926  0EFF                     l1817:
  3927  0EFF  1283               	bcf	3,5	;RP0=0, select bank0
  3928  0F00  1303               	bcf	3,6	;RP1=0, select bank0
  3929  0F01  144F               	bsf	___fldiv@b,0
  3930  0F02                     l1819:
  3931  0F02  3001               	movlw	1
  3932  0F03  1683               	bsf	3,5	;RP0=1, select bank1
  3933  0F04  1303               	bcf	3,6	;RP1=0, select bank1
  3934  0F05  00AD               	movwf	??___fldiv^(0+128)
  3935  0F06                     u1885:
  3936  0F06  1003               	clrc
  3937  0F07  0DB9               	rlf	___fldiv@grs^(0+128),f
  3938  0F08  0DBA               	rlf	(___fldiv@grs+1)^(0+128),f
  3939  0F09  0DBB               	rlf	(___fldiv@grs+2)^(0+128),f
  3940  0F0A  0DBC               	rlf	(___fldiv@grs+3)^(0+128),f
  3941  0F0B  0BAD               	decfsz	??___fldiv^(0+128),f
  3942  0F0C  2F06               	goto	u1885
  3943  0F0D                     l1821:
  3944  0F0D  30FF               	movlw	255
  3945  0F0E  07B7               	addwf	___fldiv@new_exp^(0+128),f
  3946  0F0F  1803               	skipnc
  3947  0F10  0AB8               	incf	(___fldiv@new_exp+1)^(0+128),f
  3948  0F11  30FF               	movlw	255
  3949  0F12  07B8               	addwf	(___fldiv@new_exp+1)^(0+128),f
  3950  0F13                     l1823:
  3951  0F13  1283               	bcf	3,5	;RP0=0, select bank0
  3952  0F14  1303               	bcf	3,6	;RP1=0, select bank0
  3953  0F15  1FD1               	btfss	___fldiv@b+2,7
  3954  0F16  2F18               	goto	u1891
  3955  0F17  2F19               	goto	u1890
  3956  0F18                     u1891:
  3957  0F18  2EEC               	goto	l1813
  3958  0F19                     u1890:
  3959  0F19                     l1825:
  3960  0F19  1683               	bsf	3,5	;RP0=1, select bank1
  3961  0F1A  1303               	bcf	3,6	;RP1=0, select bank1
  3962  0F1B  01BE               	clrf	___fldiv@aexp^(0+128)
  3963  0F1C                     l1827:
  3964  0F1C  1FBC               	btfss	(___fldiv@grs+3)^(0+128),7
  3965  0F1D  2F1F               	goto	u1901
  3966  0F1E  2F20               	goto	u1900
  3967  0F1F                     u1901:
  3968  0F1F  2F40               	goto	l1835
  3969  0F20                     u1900:
  3970  0F20                     l1829:
  3971  0F20  30FF               	movlw	255
  3972  0F21  0539               	andwf	___fldiv@grs^(0+128),w
  3973  0F22  00AD               	movwf	??___fldiv^(0+128)
  3974  0F23  30FF               	movlw	255
  3975  0F24  053A               	andwf	(___fldiv@grs+1)^(0+128),w
  3976  0F25  00AE               	movwf	(??___fldiv^(0+128)+1)
  3977  0F26  30FF               	movlw	255
  3978  0F27  053B               	andwf	(___fldiv@grs+2)^(0+128),w
  3979  0F28  00AF               	movwf	(??___fldiv^(0+128)+2)
  3980  0F29  307F               	movlw	127
  3981  0F2A  053C               	andwf	(___fldiv@grs+3)^(0+128),w
  3982  0F2B  00B0               	movwf	(??___fldiv^(0+128)+3)
  3983  0F2C  0830               	movf	(??___fldiv+3)^(0+128),w
  3984  0F2D  042F               	iorwf	(??___fldiv+2)^(0+128),w
  3985  0F2E  042E               	iorwf	(??___fldiv+1)^(0+128),w
  3986  0F2F  042D               	iorwf	??___fldiv^(0+128),w
  3987  0F30  1903               	skipnz
  3988  0F31  2F33               	goto	u1911
  3989  0F32  2F34               	goto	u1910
  3990  0F33                     u1911:
  3991  0F33  2F39               	goto	l644
  3992  0F34                     u1910:
  3993  0F34                     l1831:
  3994  0F34  1683               	bsf	3,5	;RP0=1, select bank1
  3995  0F35  1303               	bcf	3,6	;RP1=0, select bank1
  3996  0F36  01BE               	clrf	___fldiv@aexp^(0+128)
  3997  0F37  0ABE               	incf	___fldiv@aexp^(0+128),f
  3998  0F38  2F40               	goto	l1835
  3999  0F39                     l644:
  4000  0F39  1283               	bcf	3,5	;RP0=0, select bank0
  4001  0F3A  1303               	bcf	3,6	;RP1=0, select bank0
  4002  0F3B  1C4F               	btfss	___fldiv@b,0
  4003  0F3C  2F3E               	goto	u1921
  4004  0F3D  2F3F               	goto	u1920
  4005  0F3E                     u1921:
  4006  0F3E  2F40               	goto	l1835
  4007  0F3F                     u1920:
  4008  0F3F  2F34               	goto	l1831
  4009  0F40                     l1835:
  4010  0F40  1683               	bsf	3,5	;RP0=1, select bank1
  4011  0F41  1303               	bcf	3,6	;RP1=0, select bank1
  4012  0F42  083E               	movf	___fldiv@aexp^(0+128),w
  4013  0F43  1903               	btfsc	3,2
  4014  0F44  2F46               	goto	u1931
  4015  0F45  2F47               	goto	u1930
  4016  0F46                     u1931:
  4017  0F46  2F98               	goto	l1845
  4018  0F47                     u1930:
  4019  0F47                     l1837:
  4020  0F47  3001               	movlw	1
  4021  0F48  1283               	bcf	3,5	;RP0=0, select bank0
  4022  0F49  1303               	bcf	3,6	;RP1=0, select bank0
  4023  0F4A  07CF               	addwf	___fldiv@b,f
  4024  0F4B  3000               	movlw	0
  4025  0F4C  1803               	skipnc
  4026  0F4D  3001               	movlw	1
  4027  0F4E  07D0               	addwf	___fldiv@b+1,f
  4028  0F4F  3000               	movlw	0
  4029  0F50  1803               	skipnc
  4030  0F51  3001               	movlw	1
  4031  0F52  07D1               	addwf	___fldiv@b+2,f
  4032  0F53  3000               	movlw	0
  4033  0F54  1803               	skipnc
  4034  0F55  3001               	movlw	1
  4035  0F56  07D2               	addwf	___fldiv@b+3,f
  4036  0F57                     l1839:
  4037  0F57  1C52               	btfss	___fldiv@b+3,0
  4038  0F58  2F5A               	goto	u1941
  4039  0F59  2F5B               	goto	u1940
  4040  0F5A                     u1941:
  4041  0F5A  2F98               	goto	l1845
  4042  0F5B                     u1940:
  4043  0F5B                     l1841:
  4044  0F5B  084F               	movf	___fldiv@b,w
  4045  0F5C  1683               	bsf	3,5	;RP0=1, select bank1
  4046  0F5D  1303               	bcf	3,6	;RP1=0, select bank1
  4047  0F5E  00AD               	movwf	??___fldiv^(0+128)
  4048  0F5F  1283               	bcf	3,5	;RP0=0, select bank0
  4049  0F60  1303               	bcf	3,6	;RP1=0, select bank0
  4050  0F61  0850               	movf	___fldiv@b+1,w
  4051  0F62  1683               	bsf	3,5	;RP0=1, select bank1
  4052  0F63  1303               	bcf	3,6	;RP1=0, select bank1
  4053  0F64  00AE               	movwf	(??___fldiv^(0+128)+1)
  4054  0F65  1283               	bcf	3,5	;RP0=0, select bank0
  4055  0F66  1303               	bcf	3,6	;RP1=0, select bank0
  4056  0F67  0851               	movf	___fldiv@b+2,w
  4057  0F68  1683               	bsf	3,5	;RP0=1, select bank1
  4058  0F69  1303               	bcf	3,6	;RP1=0, select bank1
  4059  0F6A  00AF               	movwf	(??___fldiv^(0+128)+2)
  4060  0F6B  1283               	bcf	3,5	;RP0=0, select bank0
  4061  0F6C  1303               	bcf	3,6	;RP1=0, select bank0
  4062  0F6D  0852               	movf	___fldiv@b+3,w
  4063  0F6E  1683               	bsf	3,5	;RP0=1, select bank1
  4064  0F6F  1303               	bcf	3,6	;RP1=0, select bank1
  4065  0F70  00B0               	movwf	(??___fldiv^(0+128)+3)
  4066  0F71  3001               	movlw	1
  4067  0F72  00B1               	movwf	(??___fldiv+4)^(0+128)
  4068  0F73                     u1955:
  4069  0F73  0D30               	rlf	(??___fldiv^(0+128)+3),w
  4070  0F74  0CB0               	rrf	(??___fldiv^(0+128)+3),f
  4071  0F75  0CAF               	rrf	(??___fldiv^(0+128)+2),f
  4072  0F76  0CAE               	rrf	(??___fldiv^(0+128)+1),f
  4073  0F77  0CAD               	rrf	??___fldiv^(0+128),f
  4074  0F78                     u1950:
  4075  0F78  0BB1               	decfsz	(??___fldiv+4)^(0+128),f
  4076  0F79  2F73               	goto	u1955
  4077  0F7A  0830               	movf	(??___fldiv+3)^(0+128),w
  4078  0F7B  1283               	bcf	3,5	;RP0=0, select bank0
  4079  0F7C  1303               	bcf	3,6	;RP1=0, select bank0
  4080  0F7D  00D2               	movwf	___fldiv@b+3
  4081  0F7E  1683               	bsf	3,5	;RP0=1, select bank1
  4082  0F7F  1303               	bcf	3,6	;RP1=0, select bank1
  4083  0F80  082F               	movf	(??___fldiv+2)^(0+128),w
  4084  0F81  1283               	bcf	3,5	;RP0=0, select bank0
  4085  0F82  1303               	bcf	3,6	;RP1=0, select bank0
  4086  0F83  00D1               	movwf	___fldiv@b+2
  4087  0F84  1683               	bsf	3,5	;RP0=1, select bank1
  4088  0F85  1303               	bcf	3,6	;RP1=0, select bank1
  4089  0F86  082E               	movf	(??___fldiv+1)^(0+128),w
  4090  0F87  1283               	bcf	3,5	;RP0=0, select bank0
  4091  0F88  1303               	bcf	3,6	;RP1=0, select bank0
  4092  0F89  00D0               	movwf	___fldiv@b+1
  4093  0F8A  1683               	bsf	3,5	;RP0=1, select bank1
  4094  0F8B  1303               	bcf	3,6	;RP1=0, select bank1
  4095  0F8C  082D               	movf	??___fldiv^(0+128),w
  4096  0F8D  1283               	bcf	3,5	;RP0=0, select bank0
  4097  0F8E  1303               	bcf	3,6	;RP1=0, select bank0
  4098  0F8F  00CF               	movwf	___fldiv@b
  4099  0F90                     l1843:
  4100  0F90  3001               	movlw	1
  4101  0F91  1683               	bsf	3,5	;RP0=1, select bank1
  4102  0F92  1303               	bcf	3,6	;RP1=0, select bank1
  4103  0F93  07B7               	addwf	___fldiv@new_exp^(0+128),f
  4104  0F94  1803               	skipnc
  4105  0F95  0AB8               	incf	(___fldiv@new_exp+1)^(0+128),f
  4106  0F96  3000               	movlw	0
  4107  0F97  07B8               	addwf	(___fldiv@new_exp+1)^(0+128),f
  4108  0F98                     l1845:
  4109  0F98  1683               	bsf	3,5	;RP0=1, select bank1
  4110  0F99  1303               	bcf	3,6	;RP1=0, select bank1
  4111  0F9A  0838               	movf	(___fldiv@new_exp+1)^(0+128),w
  4112  0F9B  3A80               	xorlw	128
  4113  0F9C  00FF               	movwf	btemp+1
  4114  0F9D  3080               	movlw	128
  4115  0F9E  027F               	subwf	btemp+1,w
  4116  0F9F  1D03               	skipz
  4117  0FA0  2FA3               	goto	u1965
  4118  0FA1  30FF               	movlw	255
  4119  0FA2  0237               	subwf	___fldiv@new_exp^(0+128),w
  4120  0FA3                     u1965:
  4121  0FA3  1C03               	skipc
  4122  0FA4  2FA6               	goto	u1961
  4123  0FA5  2FA7               	goto	u1960
  4124  0FA6                     u1961:
  4125  0FA6  2FB7               	goto	l1849
  4126  0FA7                     u1960:
  4127  0FA7                     l1847:
  4128  0FA7  30FF               	movlw	255
  4129  0FA8  1683               	bsf	3,5	;RP0=1, select bank1
  4130  0FA9  1303               	bcf	3,6	;RP1=0, select bank1
  4131  0FAA  00B7               	movwf	___fldiv@new_exp^(0+128)
  4132  0FAB  3000               	movlw	0
  4133  0FAC  00B8               	movwf	(___fldiv@new_exp^(0+128)+1)
  4134  0FAD  3000               	movlw	0
  4135  0FAE  1283               	bcf	3,5	;RP0=0, select bank0
  4136  0FAF  1303               	bcf	3,6	;RP1=0, select bank0
  4137  0FB0  00D2               	movwf	___fldiv@b+3
  4138  0FB1  3000               	movlw	0
  4139  0FB2  00D1               	movwf	___fldiv@b+2
  4140  0FB3  3000               	movlw	0
  4141  0FB4  00D0               	movwf	___fldiv@b+1
  4142  0FB5  3000               	movlw	0
  4143  0FB6  00CF               	movwf	___fldiv@b
  4144  0FB7                     l1849:
  4145  0FB7  1683               	bsf	3,5	;RP0=1, select bank1
  4146  0FB8  1303               	bcf	3,6	;RP1=0, select bank1
  4147  0FB9  0838               	movf	(___fldiv@new_exp+1)^(0+128),w
  4148  0FBA  3A80               	xorlw	128
  4149  0FBB  00FF               	movwf	btemp+1
  4150  0FBC  3080               	movlw	128
  4151  0FBD  027F               	subwf	btemp+1,w
  4152  0FBE  1D03               	skipz
  4153  0FBF  2FC2               	goto	u1975
  4154  0FC0  3001               	movlw	1
  4155  0FC1  0237               	subwf	___fldiv@new_exp^(0+128),w
  4156  0FC2                     u1975:
  4157  0FC2  1803               	skipnc
  4158  0FC3  2FC5               	goto	u1971
  4159  0FC4  2FC6               	goto	u1970
  4160  0FC5                     u1971:
  4161  0FC5  2FD7               	goto	l650
  4162  0FC6                     u1970:
  4163  0FC6                     l1851:
  4164  0FC6  1683               	bsf	3,5	;RP0=1, select bank1
  4165  0FC7  1303               	bcf	3,6	;RP1=0, select bank1
  4166  0FC8  01B7               	clrf	___fldiv@new_exp^(0+128)
  4167  0FC9  01B8               	clrf	(___fldiv@new_exp+1)^(0+128)
  4168  0FCA                     l1853:
  4169  0FCA  3000               	movlw	0
  4170  0FCB  1283               	bcf	3,5	;RP0=0, select bank0
  4171  0FCC  1303               	bcf	3,6	;RP1=0, select bank0
  4172  0FCD  00D2               	movwf	___fldiv@b+3
  4173  0FCE  3000               	movlw	0
  4174  0FCF  00D1               	movwf	___fldiv@b+2
  4175  0FD0  3000               	movlw	0
  4176  0FD1  00D0               	movwf	___fldiv@b+1
  4177  0FD2  3000               	movlw	0
  4178  0FD3  00CF               	movwf	___fldiv@b
  4179  0FD4                     l1855:
  4180  0FD4  1683               	bsf	3,5	;RP0=1, select bank1
  4181  0FD5  1303               	bcf	3,6	;RP1=0, select bank1
  4182  0FD6  01B6               	clrf	___fldiv@sign^(0+128)
  4183  0FD7                     l650:
  4184  0FD7  1683               	bsf	3,5	;RP0=1, select bank1
  4185  0FD8  1303               	bcf	3,6	;RP1=0, select bank1
  4186  0FD9  0837               	movf	___fldiv@new_exp^(0+128),w
  4187  0FDA  00AD               	movwf	??___fldiv^(0+128)
  4188  0FDB  082D               	movf	??___fldiv^(0+128),w
  4189  0FDC  00BD               	movwf	___fldiv@bexp^(0+128)
  4190  0FDD                     l1857:
  4191  0FDD  1C3D               	btfss	___fldiv@bexp^(0+128),0
  4192  0FDE  2FE0               	goto	u1981
  4193  0FDF  2FE1               	goto	u1980
  4194  0FE0                     u1981:
  4195  0FE0  2FE5               	goto	l1861
  4196  0FE1                     u1980:
  4197  0FE1                     l1859:
  4198  0FE1  1283               	bcf	3,5	;RP0=0, select bank0
  4199  0FE2  1303               	bcf	3,6	;RP1=0, select bank0
  4200  0FE3  17D1               	bsf	___fldiv@b+2,7
  4201  0FE4  2FEB               	goto	l652
  4202  0FE5                     l1861:
  4203  0FE5  307F               	movlw	127
  4204  0FE6  00AD               	movwf	??___fldiv^(0+128)
  4205  0FE7  082D               	movf	??___fldiv^(0+128),w
  4206  0FE8  1283               	bcf	3,5	;RP0=0, select bank0
  4207  0FE9  1303               	bcf	3,6	;RP1=0, select bank0
  4208  0FEA  05D1               	andwf	___fldiv@b+2,f
  4209  0FEB                     l652:
  4210  0FEB  1683               	bsf	3,5	;RP0=1, select bank1
  4211  0FEC  1303               	bcf	3,6	;RP1=0, select bank1
  4212  0FED  083D               	movf	___fldiv@bexp^(0+128),w
  4213  0FEE  00AD               	movwf	??___fldiv^(0+128)
  4214  0FEF  1003               	clrc
  4215  0FF0  0C2D               	rrf	??___fldiv^(0+128),w
  4216  0FF1  00AE               	movwf	(??___fldiv+1)^(0+128)
  4217  0FF2  082E               	movf	(??___fldiv+1)^(0+128),w
  4218  0FF3  1283               	bcf	3,5	;RP0=0, select bank0
  4219  0FF4  1303               	bcf	3,6	;RP1=0, select bank0
  4220  0FF5  00D2               	movwf	___fldiv@b+3
  4221  0FF6  1683               	bsf	3,5	;RP0=1, select bank1
  4222  0FF7  1303               	bcf	3,6	;RP1=0, select bank1
  4223  0FF8  0836               	movf	___fldiv@sign^(0+128),w
  4224  0FF9  00AD               	movwf	??___fldiv^(0+128)
  4225  0FFA  082D               	movf	??___fldiv^(0+128),w
  4226  0FFB  1283               	bcf	3,5	;RP0=0, select bank0
  4227  0FFC  1303               	bcf	3,6	;RP1=0, select bank0
  4228  0FFD  04D2               	iorwf	___fldiv@b+3,f
  4229  0FFE  2E05               	goto	l1769
  4230  0FFF                     l630:
  4231  0FFF  0008               	return
  4232  1000                     __end_of___fldiv:
  4233                           
  4234                           	psect	text7
  4235  0AC3                     __ptext7:	
  4236 ;; *************** function _UART_Write *****************
  4237 ;; Defined at:
  4238 ;;		line 35 in file "UART.c"
  4239 ;; Parameters:    Size  Location     Type
  4240 ;;  a               1    wreg     unsigned char 
  4241 ;; Auto vars:     Size  Location     Type
  4242 ;;  a               1   16[BANK0 ] unsigned char 
  4243 ;; Return value:  Size  Location     Type
  4244 ;;                  1    wreg      void 
  4245 ;; Registers used:
  4246 ;;		wreg
  4247 ;; Tracked objects:
  4248 ;;		On entry : 0/0
  4249 ;;		On exit  : 0/0
  4250 ;;		Unchanged: 0/0
  4251 ;; Data sizes:     COMMON   BANK0   BANK1   BANK3   BANK2
  4252 ;;      Params:         0       0       0       0       0
  4253 ;;      Locals:         0       1       0       0       0
  4254 ;;      Temps:          0       0       0       0       0
  4255 ;;      Totals:         0       1       0       0       0
  4256 ;;Total ram usage:        1 bytes
  4257 ;; Hardware stack levels used: 1
  4258 ;; Hardware stack levels required when called: 4
  4259 ;; This function calls:
  4260 ;;		Nothing
  4261 ;; This function is called by:
  4262 ;;		_main
  4263 ;; This function uses a non-reentrant model
  4264 ;;
  4265                           
  4266                           
  4267                           ;psect for function _UART_Write
  4268  0AC3                     _UART_Write:
  4269                           
  4270                           ;incstack = 0
  4271                           ; Regs used in _UART_Write: [wreg]
  4272                           ;UART_Write@a stored from wreg
  4273  0AC3  1283               	bcf	3,5	;RP0=0, select bank0
  4274  0AC4  1303               	bcf	3,6	;RP1=0, select bank0
  4275  0AC5  00B0               	movwf	UART_Write@a
  4276  0AC6                     l1679:
  4277  0AC6                     l174:	
  4278                           ;UART.c: 36:   while(!TRMT);
  4279                           
  4280  0AC6  1683               	bsf	3,5	;RP0=1, select bank1
  4281  0AC7  1303               	bcf	3,6	;RP1=0, select bank1
  4282  0AC8  1C98               	btfss	24,1	;volatile
  4283  0AC9  2ACB               	goto	u1571
  4284  0ACA  2ACC               	goto	u1570
  4285  0ACB                     u1571:
  4286  0ACB  2AC6               	goto	l174
  4287  0ACC                     u1570:
  4288  0ACC                     l1681:
  4289                           
  4290                           ;UART.c: 37:   TXREG = a;
  4291  0ACC  1283               	bcf	3,5	;RP0=0, select bank0
  4292  0ACD  1303               	bcf	3,6	;RP1=0, select bank0
  4293  0ACE  0830               	movf	UART_Write@a,w
  4294  0ACF  0099               	movwf	25	;volatile
  4295  0AD0                     l177:
  4296  0AD0  0008               	return
  4297  0AD1                     __end_of_UART_Write:
  4298                           
  4299                           	psect	text8
  4300  0A91                     __ptext8:	
  4301 ;; *************** function _UART_READ *****************
  4302 ;; Defined at:
  4303 ;;		line 25 in file "UART.c"
  4304 ;; Parameters:    Size  Location     Type
  4305 ;;		None
  4306 ;; Auto vars:     Size  Location     Type
  4307 ;;		None
  4308 ;; Return value:  Size  Location     Type
  4309 ;;                  1    wreg      unsigned char 
  4310 ;; Registers used:
  4311 ;;		wreg
  4312 ;; Tracked objects:
  4313 ;;		On entry : 0/0
  4314 ;;		On exit  : 0/0
  4315 ;;		Unchanged: 0/0
  4316 ;; Data sizes:     COMMON   BANK0   BANK1   BANK3   BANK2
  4317 ;;      Params:         0       0       0       0       0
  4318 ;;      Locals:         0       0       0       0       0
  4319 ;;      Temps:          0       0       0       0       0
  4320 ;;      Totals:         0       0       0       0       0
  4321 ;;Total ram usage:        0 bytes
  4322 ;; Hardware stack levels used: 1
  4323 ;; Hardware stack levels required when called: 4
  4324 ;; This function calls:
  4325 ;;		Nothing
  4326 ;; This function is called by:
  4327 ;;		_main
  4328 ;; This function uses a non-reentrant model
  4329 ;;
  4330                           
  4331                           
  4332                           ;psect for function _UART_READ
  4333  0A91                     _UART_READ:
  4334  0A91                     l1683:	
  4335                           ;incstack = 0
  4336                           ; Regs used in _UART_READ: [wreg]
  4337                           
  4338  0A91                     l165:	
  4339                           ;UART.c: 26:     while(!RCIF);
  4340                           
  4341  0A91  1283               	bcf	3,5	;RP0=0, select bank0
  4342  0A92  1303               	bcf	3,6	;RP1=0, select bank0
  4343  0A93  1E8C               	btfss	12,5	;volatile
  4344  0A94  2A96               	goto	u1581
  4345  0A95  2A97               	goto	u1580
  4346  0A96                     u1581:
  4347  0A96  2A91               	goto	l165
  4348  0A97                     u1580:
  4349  0A97                     l1685:
  4350                           
  4351                           ;UART.c: 27:     return RCREG;
  4352  0A97  081A               	movf	26,w	;volatile
  4353  0A98                     l168:
  4354  0A98  0008               	return
  4355  0A99                     __end_of_UART_READ:
  4356                           
  4357                           	psect	text9
  4358  0AE0                     __ptext9:	
  4359 ;; *************** function _SERIAL_Init *****************
  4360 ;; Defined at:
  4361 ;;		line 8 in file "UART.c"
  4362 ;; Parameters:    Size  Location     Type
  4363 ;;		None
  4364 ;; Auto vars:     Size  Location     Type
  4365 ;;		None
  4366 ;; Return value:  Size  Location     Type
  4367 ;;                  1    wreg      void 
  4368 ;; Registers used:
  4369 ;;		wreg
  4370 ;; Tracked objects:
  4371 ;;		On entry : 0/0
  4372 ;;		On exit  : 0/0
  4373 ;;		Unchanged: 0/0
  4374 ;; Data sizes:     COMMON   BANK0   BANK1   BANK3   BANK2
  4375 ;;      Params:         0       0       0       0       0
  4376 ;;      Locals:         0       0       0       0       0
  4377 ;;      Temps:          0       0       0       0       0
  4378 ;;      Totals:         0       0       0       0       0
  4379 ;;Total ram usage:        0 bytes
  4380 ;; Hardware stack levels used: 1
  4381 ;; Hardware stack levels required when called: 4
  4382 ;; This function calls:
  4383 ;;		Nothing
  4384 ;; This function is called by:
  4385 ;;		_main
  4386 ;; This function uses a non-reentrant model
  4387 ;;
  4388                           
  4389                           
  4390                           ;psect for function _SERIAL_Init
  4391  0AE0                     _SERIAL_Init:
  4392  0AE0                     l1633:	
  4393                           ;incstack = 0
  4394                           ; Regs used in _SERIAL_Init: [wreg]
  4395                           
  4396                           
  4397                           ;UART.c: 9:     SPBRG = 25;
  4398  0AE0  3019               	movlw	25
  4399  0AE1  1683               	bsf	3,5	;RP0=1, select bank1
  4400  0AE2  1303               	bcf	3,6	;RP1=0, select bank1
  4401  0AE3  0099               	movwf	25	;volatile
  4402  0AE4                     l1635:
  4403                           
  4404                           ;UART.c: 11:     TXSTAbits.BRGH = 1;
  4405  0AE4  1518               	bsf	24,2	;volatile
  4406  0AE5                     l1637:
  4407                           
  4408                           ;UART.c: 12:     TXSTAbits.TXEN = 1;
  4409  0AE5  1698               	bsf	24,5	;volatile
  4410  0AE6                     l1639:
  4411                           
  4412                           ;UART.c: 13:     TXSTAbits.SYNC = 0;
  4413  0AE6  1218               	bcf	24,4	;volatile
  4414  0AE7                     l1641:
  4415                           
  4416                           ;UART.c: 14:     TXSTAbits.TX9 = 0;
  4417  0AE7  1318               	bcf	24,6	;volatile
  4418  0AE8                     l1643:
  4419                           
  4420                           ;UART.c: 16:     RCSTAbits.CREN = 1;
  4421  0AE8  1283               	bcf	3,5	;RP0=0, select bank0
  4422  0AE9  1303               	bcf	3,6	;RP1=0, select bank0
  4423  0AEA  1618               	bsf	24,4	;volatile
  4424  0AEB                     l1645:
  4425                           
  4426                           ;UART.c: 17:     RCSTAbits.SPEN = 1;
  4427  0AEB  1798               	bsf	24,7	;volatile
  4428  0AEC                     l1647:
  4429                           
  4430                           ;UART.c: 18:     RCSTAbits.RX9 = 0;
  4431  0AEC  1318               	bcf	24,6	;volatile
  4432  0AED                     l1649:
  4433                           
  4434                           ;UART.c: 20:     PIE1bits.RCIE = 1;
  4435  0AED  1683               	bsf	3,5	;RP0=1, select bank1
  4436  0AEE  1303               	bcf	3,6	;RP1=0, select bank1
  4437  0AEF  168C               	bsf	12,5	;volatile
  4438  0AF0                     l1651:
  4439                           
  4440                           ;UART.c: 21:     INTCONbits.PEIE = 1;
  4441  0AF0  170B               	bsf	11,6	;volatile
  4442  0AF1                     l1653:
  4443                           
  4444                           ;UART.c: 22:     INTCONbits.GIE = 1;
  4445  0AF1  178B               	bsf	11,7	;volatile
  4446  0AF2                     l162:
  4447  0AF2  0008               	return
  4448  0AF3                     __end_of_SERIAL_Init:
  4449                           
  4450                           	psect	text10
  4451  0C24                     __ptext10:	
  4452 ;; *************** function _InitOSC *****************
  4453 ;; Defined at:
  4454 ;;		line 9 in file "OSC.c"
  4455 ;; Parameters:    Size  Location     Type
  4456 ;;  frec            1    wreg     unsigned char 
  4457 ;; Auto vars:     Size  Location     Type
  4458 ;;  frec            1   18[BANK0 ] unsigned char 
  4459 ;; Return value:  Size  Location     Type
  4460 ;;                  1    wreg      void 
  4461 ;; Registers used:
  4462 ;;		wreg, fsr0l, fsr0h, status,2, status,0
  4463 ;; Tracked objects:
  4464 ;;		On entry : 0/0
  4465 ;;		On exit  : 0/0
  4466 ;;		Unchanged: 0/0
  4467 ;; Data sizes:     COMMON   BANK0   BANK1   BANK3   BANK2
  4468 ;;      Params:         0       0       0       0       0
  4469 ;;      Locals:         0       1       0       0       0
  4470 ;;      Temps:          0       2       0       0       0
  4471 ;;      Totals:         0       3       0       0       0
  4472 ;;Total ram usage:        3 bytes
  4473 ;; Hardware stack levels used: 1
  4474 ;; Hardware stack levels required when called: 4
  4475 ;; This function calls:
  4476 ;;		Nothing
  4477 ;; This function is called by:
  4478 ;;		_main
  4479 ;; This function uses a non-reentrant model
  4480 ;;
  4481                           
  4482                           
  4483                           ;psect for function _InitOSC
  4484  0C24                     _InitOSC:
  4485                           
  4486                           ;incstack = 0
  4487                           ; Regs used in _InitOSC: [wreg-fsr0h+status,2+status,0]
  4488                           ;InitOSC@frec stored from wreg
  4489  0C24  1283               	bcf	3,5	;RP0=0, select bank0
  4490  0C25  1303               	bcf	3,6	;RP1=0, select bank0
  4491  0C26  00B2               	movwf	InitOSC@frec
  4492  0C27                     l1621:
  4493                           
  4494                           ;OSC.c: 10:     switch(frec){
  4495  0C27  2C5E               	goto	l1625
  4496  0C28                     l183:	
  4497                           ;OSC.c: 11:         case 0:
  4498                           
  4499                           
  4500                           ;OSC.c: 12:             OSCCONbits.IRCF0 = 0;
  4501  0C28  1683               	bsf	3,5	;RP0=1, select bank1
  4502  0C29  1303               	bcf	3,6	;RP1=0, select bank1
  4503  0C2A  120F               	bcf	15,4	;volatile
  4504                           
  4505                           ;OSC.c: 13:             OSCCONbits.IRCF1 = 0;
  4506  0C2B  128F               	bcf	15,5	;volatile
  4507                           
  4508                           ;OSC.c: 14:             OSCCONbits.IRCF2 = 0;
  4509  0C2C  130F               	bcf	15,6	;volatile
  4510                           
  4511                           ;OSC.c: 15:             break;
  4512  0C2D  2C80               	goto	l184
  4513  0C2E                     l185:	
  4514                           ;OSC.c: 16:         case 1:
  4515                           
  4516                           
  4517                           ;OSC.c: 17:             OSCCONbits.IRCF0 = 1;
  4518  0C2E  1683               	bsf	3,5	;RP0=1, select bank1
  4519  0C2F  1303               	bcf	3,6	;RP1=0, select bank1
  4520  0C30  160F               	bsf	15,4	;volatile
  4521                           
  4522                           ;OSC.c: 18:             OSCCONbits.IRCF1 = 0;
  4523  0C31  128F               	bcf	15,5	;volatile
  4524                           
  4525                           ;OSC.c: 19:             OSCCONbits.IRCF2 = 0;
  4526  0C32  130F               	bcf	15,6	;volatile
  4527                           
  4528                           ;OSC.c: 20:             break;
  4529  0C33  2C80               	goto	l184
  4530  0C34                     l186:	
  4531                           ;OSC.c: 21:         case 2:
  4532                           
  4533                           
  4534                           ;OSC.c: 22:             OSCCONbits.IRCF0 = 0;
  4535  0C34  1683               	bsf	3,5	;RP0=1, select bank1
  4536  0C35  1303               	bcf	3,6	;RP1=0, select bank1
  4537  0C36  120F               	bcf	15,4	;volatile
  4538                           
  4539                           ;OSC.c: 23:             OSCCONbits.IRCF1 = 1;
  4540  0C37  168F               	bsf	15,5	;volatile
  4541                           
  4542                           ;OSC.c: 24:             OSCCONbits.IRCF2 = 0;
  4543  0C38  130F               	bcf	15,6	;volatile
  4544                           
  4545                           ;OSC.c: 25:             break;
  4546  0C39  2C80               	goto	l184
  4547  0C3A                     l187:	
  4548                           ;OSC.c: 26:         case 3:
  4549                           
  4550                           
  4551                           ;OSC.c: 27:             OSCCONbits.IRCF0 = 1;
  4552  0C3A  1683               	bsf	3,5	;RP0=1, select bank1
  4553  0C3B  1303               	bcf	3,6	;RP1=0, select bank1
  4554  0C3C  160F               	bsf	15,4	;volatile
  4555                           
  4556                           ;OSC.c: 28:             OSCCONbits.IRCF1 = 1;
  4557  0C3D  168F               	bsf	15,5	;volatile
  4558                           
  4559                           ;OSC.c: 29:             OSCCONbits.IRCF2 = 0;
  4560  0C3E  130F               	bcf	15,6	;volatile
  4561                           
  4562                           ;OSC.c: 30:             break;
  4563  0C3F  2C80               	goto	l184
  4564  0C40                     l188:	
  4565                           ;OSC.c: 31:         case 4:
  4566                           
  4567                           
  4568                           ;OSC.c: 32:             OSCCONbits.IRCF0 = 0;
  4569  0C40  1683               	bsf	3,5	;RP0=1, select bank1
  4570  0C41  1303               	bcf	3,6	;RP1=0, select bank1
  4571  0C42  120F               	bcf	15,4	;volatile
  4572                           
  4573                           ;OSC.c: 33:             OSCCONbits.IRCF1 = 0;
  4574  0C43  128F               	bcf	15,5	;volatile
  4575                           
  4576                           ;OSC.c: 34:             OSCCONbits.IRCF2 = 1;
  4577  0C44  170F               	bsf	15,6	;volatile
  4578                           
  4579                           ;OSC.c: 35:             break;
  4580  0C45  2C80               	goto	l184
  4581  0C46                     l189:	
  4582                           ;OSC.c: 36:         case 5:
  4583                           
  4584                           
  4585                           ;OSC.c: 37:             OSCCONbits.IRCF0 = 1;
  4586  0C46  1683               	bsf	3,5	;RP0=1, select bank1
  4587  0C47  1303               	bcf	3,6	;RP1=0, select bank1
  4588  0C48  160F               	bsf	15,4	;volatile
  4589                           
  4590                           ;OSC.c: 38:             OSCCONbits.IRCF1 = 0;
  4591  0C49  128F               	bcf	15,5	;volatile
  4592                           
  4593                           ;OSC.c: 39:             OSCCONbits.IRCF2 = 1;
  4594  0C4A  170F               	bsf	15,6	;volatile
  4595                           
  4596                           ;OSC.c: 40:             break;
  4597  0C4B  2C80               	goto	l184
  4598  0C4C                     l190:	
  4599                           ;OSC.c: 41:         case 6:
  4600                           
  4601                           
  4602                           ;OSC.c: 42:             OSCCONbits.IRCF0 = 0;
  4603  0C4C  1683               	bsf	3,5	;RP0=1, select bank1
  4604  0C4D  1303               	bcf	3,6	;RP1=0, select bank1
  4605  0C4E  120F               	bcf	15,4	;volatile
  4606                           
  4607                           ;OSC.c: 43:             OSCCONbits.IRCF1 = 1;
  4608  0C4F  168F               	bsf	15,5	;volatile
  4609                           
  4610                           ;OSC.c: 44:             OSCCONbits.IRCF2 = 1;
  4611  0C50  170F               	bsf	15,6	;volatile
  4612                           
  4613                           ;OSC.c: 45:             break;
  4614  0C51  2C80               	goto	l184
  4615  0C52                     l191:	
  4616                           ;OSC.c: 46:         case 7:
  4617                           
  4618                           
  4619                           ;OSC.c: 47:             OSCCONbits.IRCF0 = 1;
  4620  0C52  1683               	bsf	3,5	;RP0=1, select bank1
  4621  0C53  1303               	bcf	3,6	;RP1=0, select bank1
  4622  0C54  160F               	bsf	15,4	;volatile
  4623                           
  4624                           ;OSC.c: 48:             OSCCONbits.IRCF1 = 1;
  4625  0C55  168F               	bsf	15,5	;volatile
  4626                           
  4627                           ;OSC.c: 49:             OSCCONbits.IRCF2 = 1;
  4628  0C56  170F               	bsf	15,6	;volatile
  4629                           
  4630                           ;OSC.c: 50:             break;
  4631  0C57  2C80               	goto	l184
  4632  0C58                     l192:	
  4633                           ;OSC.c: 51:         default:
  4634                           
  4635                           
  4636                           ;OSC.c: 52:             OSCCONbits.IRCF0 = 0;
  4637  0C58  1683               	bsf	3,5	;RP0=1, select bank1
  4638  0C59  1303               	bcf	3,6	;RP1=0, select bank1
  4639  0C5A  120F               	bcf	15,4	;volatile
  4640                           
  4641                           ;OSC.c: 53:             OSCCONbits.IRCF1 = 1;
  4642  0C5B  168F               	bsf	15,5	;volatile
  4643                           
  4644                           ;OSC.c: 54:             OSCCONbits.IRCF2 = 1;
  4645  0C5C  170F               	bsf	15,6	;volatile
  4646                           
  4647                           ;OSC.c: 55:             break;
  4648  0C5D  2C80               	goto	l184
  4649  0C5E                     l1625:
  4650  0C5E  0832               	movf	InitOSC@frec,w
  4651  0C5F  00B0               	movwf	??_InitOSC
  4652  0C60  01B1               	clrf	??_InitOSC+1
  4653                           
  4654                           ; Switch on 2 bytes has been partitioned into a top level switch of size 1, and 1 sub-sw
      +                          itches
  4655                           ; Switch size 1, requested type "simple"
  4656                           ; Number of cases is 1, Range of values is 0 to 0
  4657                           ; switch strategies available:
  4658                           ; Name         Instructions Cycles
  4659                           ; simple_byte            4     3 (average)
  4660                           ; direct_byte           11     8 (fixed)
  4661                           ; jumptable            260     6 (fixed)
  4662                           ;	Chosen strategy is simple_byte
  4663  0C61  0831               	movf	??_InitOSC+1,w
  4664  0C62  3A00               	xorlw	0	; case 0
  4665  0C63  1903               	skipnz
  4666  0C64  2C66               	goto	l2369
  4667  0C65  2C58               	goto	l192
  4668  0C66                     l2369:
  4669                           
  4670                           ; Switch size 1, requested type "simple"
  4671                           ; Number of cases is 8, Range of values is 0 to 7
  4672                           ; switch strategies available:
  4673                           ; Name         Instructions Cycles
  4674                           ; simple_byte           25    13 (average)
  4675                           ; direct_byte           32     8 (fixed)
  4676                           ; jumptable            260     6 (fixed)
  4677                           ;	Chosen strategy is simple_byte
  4678  0C66  0830               	movf	??_InitOSC,w
  4679  0C67  3A00               	xorlw	0	; case 0
  4680  0C68  1903               	skipnz
  4681  0C69  2C28               	goto	l183
  4682  0C6A  3A01               	xorlw	1	; case 1
  4683  0C6B  1903               	skipnz
  4684  0C6C  2C2E               	goto	l185
  4685  0C6D  3A03               	xorlw	3	; case 2
  4686  0C6E  1903               	skipnz
  4687  0C6F  2C34               	goto	l186
  4688  0C70  3A01               	xorlw	1	; case 3
  4689  0C71  1903               	skipnz
  4690  0C72  2C3A               	goto	l187
  4691  0C73  3A07               	xorlw	7	; case 4
  4692  0C74  1903               	skipnz
  4693  0C75  2C40               	goto	l188
  4694  0C76  3A01               	xorlw	1	; case 5
  4695  0C77  1903               	skipnz
  4696  0C78  2C46               	goto	l189
  4697  0C79  3A03               	xorlw	3	; case 6
  4698  0C7A  1903               	skipnz
  4699  0C7B  2C4C               	goto	l190
  4700  0C7C  3A01               	xorlw	1	; case 7
  4701  0C7D  1903               	skipnz
  4702  0C7E  2C52               	goto	l191
  4703  0C7F  2C58               	goto	l192
  4704  0C80                     l184:
  4705                           
  4706                           ;OSC.c: 58:     OSCCONbits.SCS = 1;
  4707  0C80  140F               	bsf	15,0	;volatile
  4708  0C81                     l193:
  4709  0C81  0008               	return
  4710  0C82                     __end_of_InitOSC:
  4711                           
  4712                           	psect	text11
  4713  0AA2                     __ptext11:	
  4714 ;; *************** function _I2C_M_Stop *****************
  4715 ;; Defined at:
  4716 ;;		line 43 in file "I2C.c"
  4717 ;; Parameters:    Size  Location     Type
  4718 ;;		None
  4719 ;; Auto vars:     Size  Location     Type
  4720 ;;		None
  4721 ;; Return value:  Size  Location     Type
  4722 ;;                  1    wreg      void 
  4723 ;; Registers used:
  4724 ;;		wreg, status,2, status,0, pclath, cstack
  4725 ;; Tracked objects:
  4726 ;;		On entry : 0/0
  4727 ;;		On exit  : 0/0
  4728 ;;		Unchanged: 0/0
  4729 ;; Data sizes:     COMMON   BANK0   BANK1   BANK3   BANK2
  4730 ;;      Params:         0       0       0       0       0
  4731 ;;      Locals:         0       0       0       0       0
  4732 ;;      Temps:          0       0       0       0       0
  4733 ;;      Totals:         0       0       0       0       0
  4734 ;;Total ram usage:        0 bytes
  4735 ;; Hardware stack levels used: 1
  4736 ;; Hardware stack levels required when called: 5
  4737 ;; This function calls:
  4738 ;;		_I2C_M_Wait
  4739 ;; This function is called by:
  4740 ;;		_main
  4741 ;; This function uses a non-reentrant model
  4742 ;;
  4743                           
  4744                           
  4745                           ;psect for function _I2C_M_Stop
  4746  0AA2                     _I2C_M_Stop:
  4747  0AA2                     l1675:	
  4748                           ;incstack = 0
  4749                           ; Regs used in _I2C_M_Stop: [wreg+status,2+status,0+pclath+cstack]
  4750                           
  4751                           
  4752                           ;I2C.c: 44:     I2C_M_Wait();
  4753  0AA2  120A  158A  22B6  120A  158A  	fcall	_I2C_M_Wait
  4754  0AA7                     l1677:
  4755                           
  4756                           ;I2C.c: 45:     SSPCON2bits.PEN = 1;
  4757  0AA7  1683               	bsf	3,5	;RP0=1, select bank1
  4758  0AA8  1303               	bcf	3,6	;RP1=0, select bank1
  4759  0AA9  1511               	bsf	17,2	;volatile
  4760  0AAA                     l130:
  4761  0AAA  0008               	return
  4762  0AAB                     __end_of_I2C_M_Stop:
  4763                           
  4764                           	psect	text12
  4765  0A99                     __ptext12:	
  4766 ;; *************** function _I2C_M_Start *****************
  4767 ;; Defined at:
  4768 ;;		line 25 in file "I2C.c"
  4769 ;; Parameters:    Size  Location     Type
  4770 ;;		None
  4771 ;; Auto vars:     Size  Location     Type
  4772 ;;		None
  4773 ;; Return value:  Size  Location     Type
  4774 ;;                  1    wreg      void 
  4775 ;; Registers used:
  4776 ;;		wreg, status,2, status,0, pclath, cstack
  4777 ;; Tracked objects:
  4778 ;;		On entry : 0/0
  4779 ;;		On exit  : 0/0
  4780 ;;		Unchanged: 0/0
  4781 ;; Data sizes:     COMMON   BANK0   BANK1   BANK3   BANK2
  4782 ;;      Params:         0       0       0       0       0
  4783 ;;      Locals:         0       0       0       0       0
  4784 ;;      Temps:          0       0       0       0       0
  4785 ;;      Totals:         0       0       0       0       0
  4786 ;;Total ram usage:        0 bytes
  4787 ;; Hardware stack levels used: 1
  4788 ;; Hardware stack levels required when called: 5
  4789 ;; This function calls:
  4790 ;;		_I2C_M_Wait
  4791 ;; This function is called by:
  4792 ;;		_main
  4793 ;; This function uses a non-reentrant model
  4794 ;;
  4795                           
  4796                           
  4797                           ;psect for function _I2C_M_Start
  4798  0A99                     _I2C_M_Start:
  4799  0A99                     l1655:	
  4800                           ;incstack = 0
  4801                           ; Regs used in _I2C_M_Start: [wreg+status,2+status,0+pclath+cstack]
  4802                           
  4803                           
  4804                           ;I2C.c: 26:     I2C_M_Wait();
  4805  0A99  120A  158A  22B6  120A  158A  	fcall	_I2C_M_Wait
  4806  0A9E                     l1657:
  4807                           
  4808                           ;I2C.c: 27:     SSPCON2bits.SEN = 1;
  4809  0A9E  1683               	bsf	3,5	;RP0=1, select bank1
  4810  0A9F  1303               	bcf	3,6	;RP1=0, select bank1
  4811  0AA0  1411               	bsf	17,0	;volatile
  4812  0AA1                     l124:
  4813  0AA1  0008               	return
  4814  0AA2                     __end_of_I2C_M_Start:
  4815                           
  4816                           	psect	text13
  4817  0B48                     __ptext13:	
  4818 ;; *************** function _I2C_M_Read *****************
  4819 ;; Defined at:
  4820 ;;		line 61 in file "I2C.c"
  4821 ;; Parameters:    Size  Location     Type
  4822 ;;  a               2   16[BANK0 ] unsigned short 
  4823 ;; Auto vars:     Size  Location     Type
  4824 ;;  temp            2   20[BANK0 ] unsigned short 
  4825 ;; Return value:  Size  Location     Type
  4826 ;;                  2   16[BANK0 ] unsigned short 
  4827 ;; Registers used:
  4828 ;;		wreg, status,2, status,0, pclath, cstack
  4829 ;; Tracked objects:
  4830 ;;		On entry : 0/0
  4831 ;;		On exit  : 0/0
  4832 ;;		Unchanged: 0/0
  4833 ;; Data sizes:     COMMON   BANK0   BANK1   BANK3   BANK2
  4834 ;;      Params:         0       2       0       0       0
  4835 ;;      Locals:         0       2       0       0       0
  4836 ;;      Temps:          0       2       0       0       0
  4837 ;;      Totals:         0       6       0       0       0
  4838 ;;Total ram usage:        6 bytes
  4839 ;; Hardware stack levels used: 1
  4840 ;; Hardware stack levels required when called: 5
  4841 ;; This function calls:
  4842 ;;		_I2C_M_Wait
  4843 ;; This function is called by:
  4844 ;;		_main
  4845 ;; This function uses a non-reentrant model
  4846 ;;
  4847                           
  4848                           
  4849                           ;psect for function _I2C_M_Read
  4850  0B48                     _I2C_M_Read:
  4851  0B48                     l1659:	
  4852                           ;incstack = 0
  4853                           ; Regs used in _I2C_M_Read: [wreg+status,2+status,0+pclath+cstack]
  4854                           
  4855                           
  4856                           ;I2C.c: 62:     unsigned short temp;;I2C.c: 63:     I2C_M_Wait();
  4857  0B48  120A  158A  22B6  120A  158A  	fcall	_I2C_M_Wait
  4858  0B4D                     l1661:
  4859                           
  4860                           ;I2C.c: 64:     RCEN = 1;
  4861  0B4D  1683               	bsf	3,5	;RP0=1, select bank1
  4862  0B4E  1303               	bcf	3,6	;RP1=0, select bank1
  4863  0B4F  1591               	bsf	17,3	;volatile
  4864                           
  4865                           ;I2C.c: 65:     I2C_M_Wait();
  4866  0B50  120A  158A  22B6  120A  158A  	fcall	_I2C_M_Wait
  4867  0B55                     l1663:
  4868                           
  4869                           ;I2C.c: 66:     temp = SSPBUF;
  4870  0B55  1283               	bcf	3,5	;RP0=0, select bank0
  4871  0B56  1303               	bcf	3,6	;RP1=0, select bank0
  4872  0B57  0813               	movf	19,w	;volatile
  4873  0B58  00B2               	movwf	??_I2C_M_Read
  4874  0B59  01B3               	clrf	??_I2C_M_Read+1
  4875  0B5A  0832               	movf	??_I2C_M_Read,w
  4876  0B5B  00B4               	movwf	I2C_M_Read@temp
  4877  0B5C  0833               	movf	??_I2C_M_Read+1,w
  4878  0B5D  00B5               	movwf	I2C_M_Read@temp+1
  4879  0B5E                     l1665:
  4880                           
  4881                           ;I2C.c: 67:     I2C_M_Wait();
  4882  0B5E  120A  158A  22B6  120A  158A  	fcall	_I2C_M_Wait
  4883  0B63                     l1667:
  4884                           
  4885                           ;I2C.c: 68:     if(a == 1){
  4886  0B63  1283               	bcf	3,5	;RP0=0, select bank0
  4887  0B64  1303               	bcf	3,6	;RP1=0, select bank0
  4888  0B65  0330               	decf	I2C_M_Read@a,w
  4889  0B66  0431               	iorwf	I2C_M_Read@a+1,w
  4890  0B67  1D03               	btfss	3,2
  4891  0B68  2B6A               	goto	u1561
  4892  0B69  2B6B               	goto	u1560
  4893  0B6A                     u1561:
  4894  0B6A  2B6F               	goto	l136
  4895  0B6B                     u1560:
  4896  0B6B                     l1669:
  4897                           
  4898                           ;I2C.c: 69:         SSPCON2bits.ACKDT = 0;
  4899  0B6B  1683               	bsf	3,5	;RP0=1, select bank1
  4900  0B6C  1303               	bcf	3,6	;RP1=0, select bank1
  4901  0B6D  1291               	bcf	17,5	;volatile
  4902                           
  4903                           ;I2C.c: 70:     }
  4904  0B6E  2B72               	goto	l137
  4905  0B6F                     l136:	
  4906                           ;I2C.c: 71:     else{
  4907                           
  4908                           
  4909                           ;I2C.c: 72:         SSPCON2bits.ACKDT = 1;
  4910  0B6F  1683               	bsf	3,5	;RP0=1, select bank1
  4911  0B70  1303               	bcf	3,6	;RP1=0, select bank1
  4912  0B71  1691               	bsf	17,5	;volatile
  4913  0B72                     l137:	
  4914                           ;I2C.c: 73:     }
  4915                           
  4916                           
  4917                           ;I2C.c: 74:     SSPCON2bits.ACKEN = 1;
  4918  0B72  1611               	bsf	17,4	;volatile
  4919  0B73                     l1671:
  4920                           
  4921                           ;I2C.c: 75:     return temp;
  4922  0B73  1283               	bcf	3,5	;RP0=0, select bank0
  4923  0B74  1303               	bcf	3,6	;RP1=0, select bank0
  4924  0B75  0835               	movf	I2C_M_Read@temp+1,w
  4925  0B76  00B1               	movwf	?_I2C_M_Read+1
  4926  0B77  0834               	movf	I2C_M_Read@temp,w
  4927  0B78  00B0               	movwf	?_I2C_M_Read
  4928  0B79                     l138:
  4929  0B79  0008               	return
  4930  0B7A                     __end_of_I2C_M_Read:
  4931                           
  4932                           	psect	text14
  4933  0AB6                     __ptext14:	
  4934 ;; *************** function _I2C_M_Wait *****************
  4935 ;; Defined at:
  4936 ;;		line 17 in file "I2C.c"
  4937 ;; Parameters:    Size  Location     Type
  4938 ;;		None
  4939 ;; Auto vars:     Size  Location     Type
  4940 ;;		None
  4941 ;; Return value:  Size  Location     Type
  4942 ;;                  1    wreg      void 
  4943 ;; Registers used:
  4944 ;;		wreg, status,2
  4945 ;; Tracked objects:
  4946 ;;		On entry : 0/0
  4947 ;;		On exit  : 0/0
  4948 ;;		Unchanged: 0/0
  4949 ;; Data sizes:     COMMON   BANK0   BANK1   BANK3   BANK2
  4950 ;;      Params:         0       0       0       0       0
  4951 ;;      Locals:         0       0       0       0       0
  4952 ;;      Temps:          0       0       0       0       0
  4953 ;;      Totals:         0       0       0       0       0
  4954 ;;Total ram usage:        0 bytes
  4955 ;; Hardware stack levels used: 1
  4956 ;; Hardware stack levels required when called: 4
  4957 ;; This function calls:
  4958 ;;		Nothing
  4959 ;; This function is called by:
  4960 ;;		_I2C_M_Start
  4961 ;;		_I2C_M_Stop
  4962 ;;		_I2C_M_Read
  4963 ;;		_I2C_M_Restart
  4964 ;;		_I2C_M_Write
  4965 ;; This function uses a non-reentrant model
  4966 ;;
  4967                           
  4968                           
  4969                           ;psect for function _I2C_M_Wait
  4970  0AB6                     _I2C_M_Wait:
  4971  0AB6                     l1517:	
  4972                           ;incstack = 0
  4973                           ; Regs used in _I2C_M_Wait: [wreg+status,2]
  4974                           
  4975  0AB6                     l118:	
  4976                           ;I2C.c: 18:     while ((SSPSTAT & 0x04) || (SSPCON2 & 0x1F));
  4977                           
  4978  0AB6  1683               	bsf	3,5	;RP0=1, select bank1
  4979  0AB7  1303               	bcf	3,6	;RP1=0, select bank1
  4980  0AB8  1914               	btfsc	20,2	;volatile
  4981  0AB9  2ABB               	goto	u1391
  4982  0ABA  2ABC               	goto	u1390
  4983  0ABB                     u1391:
  4984  0ABB  2AB6               	goto	l118
  4985  0ABC                     u1390:
  4986  0ABC                     l1519:
  4987  0ABC  0811               	movf	17,w	;volatile
  4988  0ABD  391F               	andlw	31
  4989  0ABE  1D03               	btfss	3,2
  4990  0ABF  2AC1               	goto	u1401
  4991  0AC0  2AC2               	goto	u1400
  4992  0AC1                     u1401:
  4993  0AC1  2AB6               	goto	l118
  4994  0AC2                     u1400:
  4995  0AC2                     l121:
  4996  0AC2  0008               	return
  4997  0AC3                     __end_of_I2C_M_Wait:
  4998                           
  4999                           	psect	text15
  5000  0BEA                     __ptext15:	
  5001 ;; *************** function _I2C_Init *****************
  5002 ;; Defined at:
  5003 ;;		line 8 in file "I2C.c"
  5004 ;; Parameters:    Size  Location     Type
  5005 ;;  a               4   30[BANK0 ] const unsigned long 
  5006 ;; Auto vars:     Size  Location     Type
  5007 ;;		None
  5008 ;; Return value:  Size  Location     Type
  5009 ;;                  1    wreg      void 
  5010 ;; Registers used:
  5011 ;;		wreg, status,2, status,0, pclath, cstack
  5012 ;; Tracked objects:
  5013 ;;		On entry : 0/0
  5014 ;;		On exit  : 0/0
  5015 ;;		Unchanged: 0/0
  5016 ;; Data sizes:     COMMON   BANK0   BANK1   BANK3   BANK2
  5017 ;;      Params:         0       4       0       0       0
  5018 ;;      Locals:         0       0       0       0       0
  5019 ;;      Temps:          0       4       0       0       0
  5020 ;;      Totals:         0       8       0       0       0
  5021 ;;Total ram usage:        8 bytes
  5022 ;; Hardware stack levels used: 1
  5023 ;; Hardware stack levels required when called: 5
  5024 ;; This function calls:
  5025 ;;		___lldiv
  5026 ;; This function is called by:
  5027 ;;		_main
  5028 ;; This function uses a non-reentrant model
  5029 ;;
  5030                           
  5031                           
  5032                           ;psect for function _I2C_Init
  5033  0BEA                     _I2C_Init:
  5034  0BEA                     l1609:	
  5035                           ;incstack = 0
  5036                           ; Regs used in _I2C_Init: [wreg+status,2+status,0+pclath+cstack]
  5037                           
  5038                           
  5039                           ;I2C.c: 9:     SSPCON = 0b00101000;
  5040  0BEA  3028               	movlw	40
  5041  0BEB  1283               	bcf	3,5	;RP0=0, select bank0
  5042  0BEC  1303               	bcf	3,6	;RP1=0, select bank0
  5043  0BED  0094               	movwf	20	;volatile
  5044  0BEE                     l1611:
  5045                           
  5046                           ;I2C.c: 10:     SSPCON2 = 0;
  5047  0BEE  1683               	bsf	3,5	;RP0=1, select bank1
  5048  0BEF  1303               	bcf	3,6	;RP1=0, select bank1
  5049  0BF0  0191               	clrf	17	;volatile
  5050  0BF1                     l1613:
  5051                           
  5052                           ;I2C.c: 11:     SSPADD = (8000000/(8*a))-1;
  5053  0BF1  1283               	bcf	3,5	;RP0=0, select bank0
  5054  0BF2  1303               	bcf	3,6	;RP1=0, select bank0
  5055  0BF3  083E               	movf	I2C_Init@a,w
  5056  0BF4  00C2               	movwf	??_I2C_Init
  5057  0BF5  083F               	movf	I2C_Init@a+1,w
  5058  0BF6  00C3               	movwf	??_I2C_Init+1
  5059  0BF7  0840               	movf	I2C_Init@a+2,w
  5060  0BF8  00C4               	movwf	??_I2C_Init+2
  5061  0BF9  0841               	movf	I2C_Init@a+3,w
  5062  0BFA  00C5               	movwf	??_I2C_Init+3
  5063  0BFB  3003               	movlw	3
  5064  0BFC                     u1555:
  5065  0BFC  1003               	clrc
  5066  0BFD  0DC2               	rlf	??_I2C_Init,f
  5067  0BFE  0DC3               	rlf	??_I2C_Init+1,f
  5068  0BFF  0DC4               	rlf	??_I2C_Init+2,f
  5069  0C00  0DC5               	rlf	??_I2C_Init+3,f
  5070  0C01                     u1550:
  5071  0C01  3EFF               	addlw	-1
  5072  0C02  1D03               	skipz
  5073  0C03  2BFC               	goto	u1555
  5074  0C04  0845               	movf	??_I2C_Init+3,w
  5075  0C05  00B3               	movwf	___lldiv@divisor+3
  5076  0C06  0844               	movf	??_I2C_Init+2,w
  5077  0C07  00B2               	movwf	___lldiv@divisor+2
  5078  0C08  0843               	movf	??_I2C_Init+1,w
  5079  0C09  00B1               	movwf	___lldiv@divisor+1
  5080  0C0A  0842               	movf	??_I2C_Init,w
  5081  0C0B  00B0               	movwf	___lldiv@divisor
  5082  0C0C  3000               	movlw	0
  5083  0C0D  00B7               	movwf	___lldiv@dividend+3
  5084  0C0E  307A               	movlw	122
  5085  0C0F  00B6               	movwf	___lldiv@dividend+2
  5086  0C10  3012               	movlw	18
  5087  0C11  00B5               	movwf	___lldiv@dividend+1
  5088  0C12  3000               	movlw	0
  5089  0C13  00B4               	movwf	___lldiv@dividend
  5090  0C14  120A  158A  2482  120A  158A  	fcall	___lldiv
  5091  0C19  1283               	bcf	3,5	;RP0=0, select bank0
  5092  0C1A  1303               	bcf	3,6	;RP1=0, select bank0
  5093  0C1B  0830               	movf	?___lldiv,w
  5094  0C1C  3EFF               	addlw	255
  5095  0C1D  1683               	bsf	3,5	;RP0=1, select bank1
  5096  0C1E  1303               	bcf	3,6	;RP1=0, select bank1
  5097  0C1F  0093               	movwf	19	;volatile
  5098  0C20                     l1615:
  5099                           
  5100                           ;I2C.c: 12:     SSPSTAT = 0;
  5101  0C20  0194               	clrf	20	;volatile
  5102  0C21                     l1617:
  5103                           
  5104                           ;I2C.c: 13:     TRISCbits.TRISC3 = 1;
  5105  0C21  1587               	bsf	7,3	;volatile
  5106  0C22                     l1619:
  5107                           
  5108                           ;I2C.c: 14:     TRISCbits.TRISC4 = 1;
  5109  0C22  1607               	bsf	7,4	;volatile
  5110  0C23                     l115:
  5111  0C23  0008               	return
  5112  0C24                     __end_of_I2C_Init:
  5113                           
  5114                           	psect	text16
  5115  0C82                     __ptext16:	
  5116 ;; *************** function ___lldiv *****************
  5117 ;; Defined at:
  5118 ;;		line 5 in file "C:\Program Files\Microchip\xc8\v2.32\pic\sources\c90\common\__lldiv.c"
  5119 ;; Parameters:    Size  Location     Type
  5120 ;;  divisor         4   16[BANK0 ] unsigned long 
  5121 ;;  dividend        4   20[BANK0 ] unsigned long 
  5122 ;; Auto vars:     Size  Location     Type
  5123 ;;  quotient        4   25[BANK0 ] unsigned long 
  5124 ;;  counter         1   29[BANK0 ] unsigned char 
  5125 ;; Return value:  Size  Location     Type
  5126 ;;                  4   16[BANK0 ] unsigned long 
  5127 ;; Registers used:
  5128 ;;		wreg, status,2, status,0
  5129 ;; Tracked objects:
  5130 ;;		On entry : 0/0
  5131 ;;		On exit  : 0/0
  5132 ;;		Unchanged: 0/0
  5133 ;; Data sizes:     COMMON   BANK0   BANK1   BANK3   BANK2
  5134 ;;      Params:         0       8       0       0       0
  5135 ;;      Locals:         0       5       0       0       0
  5136 ;;      Temps:          0       1       0       0       0
  5137 ;;      Totals:         0      14       0       0       0
  5138 ;;Total ram usage:       14 bytes
  5139 ;; Hardware stack levels used: 1
  5140 ;; Hardware stack levels required when called: 4
  5141 ;; This function calls:
  5142 ;;		Nothing
  5143 ;; This function is called by:
  5144 ;;		_I2C_Init
  5145 ;; This function uses a non-reentrant model
  5146 ;;
  5147                           
  5148                           
  5149                           ;psect for function ___lldiv
  5150  0C82                     ___lldiv:
  5151  0C82                     l1521:	
  5152                           ;incstack = 0
  5153                           ; Regs used in ___lldiv: [wreg+status,2+status,0]
  5154                           
  5155  0C82  3000               	movlw	0
  5156  0C83  1283               	bcf	3,5	;RP0=0, select bank0
  5157  0C84  1303               	bcf	3,6	;RP1=0, select bank0
  5158  0C85  00BC               	movwf	___lldiv@quotient+3
  5159  0C86  3000               	movlw	0
  5160  0C87  00BB               	movwf	___lldiv@quotient+2
  5161  0C88  3000               	movlw	0
  5162  0C89  00BA               	movwf	___lldiv@quotient+1
  5163  0C8A  3000               	movlw	0
  5164  0C8B  00B9               	movwf	___lldiv@quotient
  5165  0C8C  0833               	movf	___lldiv@divisor+3,w
  5166  0C8D  0432               	iorwf	___lldiv@divisor+2,w
  5167  0C8E  0431               	iorwf	___lldiv@divisor+1,w
  5168  0C8F  0430               	iorwf	___lldiv@divisor,w
  5169  0C90  1903               	skipnz
  5170  0C91  2C93               	goto	u1411
  5171  0C92  2C94               	goto	u1410
  5172  0C93                     u1411:
  5173  0C93  2CE1               	goto	l1541
  5174  0C94                     u1410:
  5175  0C94                     l1523:
  5176  0C94  01BD               	clrf	___lldiv@counter
  5177  0C95  0ABD               	incf	___lldiv@counter,f
  5178  0C96  2CA4               	goto	l1527
  5179  0C97                     l1525:
  5180  0C97  3001               	movlw	1
  5181  0C98  00B8               	movwf	??___lldiv
  5182  0C99                     u1425:
  5183  0C99  1003               	clrc
  5184  0C9A  0DB0               	rlf	___lldiv@divisor,f
  5185  0C9B  0DB1               	rlf	___lldiv@divisor+1,f
  5186  0C9C  0DB2               	rlf	___lldiv@divisor+2,f
  5187  0C9D  0DB3               	rlf	___lldiv@divisor+3,f
  5188  0C9E  0BB8               	decfsz	??___lldiv,f
  5189  0C9F  2C99               	goto	u1425
  5190  0CA0  3001               	movlw	1
  5191  0CA1  00B8               	movwf	??___lldiv
  5192  0CA2  0838               	movf	??___lldiv,w
  5193  0CA3  07BD               	addwf	___lldiv@counter,f
  5194  0CA4                     l1527:
  5195  0CA4  1FB3               	btfss	___lldiv@divisor+3,7
  5196  0CA5  2CA7               	goto	u1431
  5197  0CA6  2CA8               	goto	u1430
  5198  0CA7                     u1431:
  5199  0CA7  2C97               	goto	l1525
  5200  0CA8                     u1430:
  5201  0CA8                     l1529:
  5202  0CA8  3001               	movlw	1
  5203  0CA9  00B8               	movwf	??___lldiv
  5204  0CAA                     u1445:
  5205  0CAA  1003               	clrc
  5206  0CAB  0DB9               	rlf	___lldiv@quotient,f
  5207  0CAC  0DBA               	rlf	___lldiv@quotient+1,f
  5208  0CAD  0DBB               	rlf	___lldiv@quotient+2,f
  5209  0CAE  0DBC               	rlf	___lldiv@quotient+3,f
  5210  0CAF  0BB8               	decfsz	??___lldiv,f
  5211  0CB0  2CAA               	goto	u1445
  5212  0CB1                     l1531:
  5213  0CB1  0833               	movf	___lldiv@divisor+3,w
  5214  0CB2  0237               	subwf	___lldiv@dividend+3,w
  5215  0CB3  1D03               	skipz
  5216  0CB4  2CBF               	goto	u1455
  5217  0CB5  0832               	movf	___lldiv@divisor+2,w
  5218  0CB6  0236               	subwf	___lldiv@dividend+2,w
  5219  0CB7  1D03               	skipz
  5220  0CB8  2CBF               	goto	u1455
  5221  0CB9  0831               	movf	___lldiv@divisor+1,w
  5222  0CBA  0235               	subwf	___lldiv@dividend+1,w
  5223  0CBB  1D03               	skipz
  5224  0CBC  2CBF               	goto	u1455
  5225  0CBD  0830               	movf	___lldiv@divisor,w
  5226  0CBE  0234               	subwf	___lldiv@dividend,w
  5227  0CBF                     u1455:
  5228  0CBF  1C03               	skipc
  5229  0CC0  2CC2               	goto	u1451
  5230  0CC1  2CC3               	goto	u1450
  5231  0CC2                     u1451:
  5232  0CC2  2CD2               	goto	l1537
  5233  0CC3                     u1450:
  5234  0CC3                     l1533:
  5235  0CC3  0830               	movf	___lldiv@divisor,w
  5236  0CC4  02B4               	subwf	___lldiv@dividend,f
  5237  0CC5  0831               	movf	___lldiv@divisor+1,w
  5238  0CC6  1C03               	skipc
  5239  0CC7  0F31               	incfsz	___lldiv@divisor+1,w
  5240  0CC8  02B5               	subwf	___lldiv@dividend+1,f
  5241  0CC9  0832               	movf	___lldiv@divisor+2,w
  5242  0CCA  1C03               	skipc
  5243  0CCB  0F32               	incfsz	___lldiv@divisor+2,w
  5244  0CCC  02B6               	subwf	___lldiv@dividend+2,f
  5245  0CCD  0833               	movf	___lldiv@divisor+3,w
  5246  0CCE  1C03               	skipc
  5247  0CCF  0F33               	incfsz	___lldiv@divisor+3,w
  5248  0CD0  02B7               	subwf	___lldiv@dividend+3,f
  5249  0CD1                     l1535:
  5250  0CD1  1439               	bsf	___lldiv@quotient,0
  5251  0CD2                     l1537:
  5252  0CD2  3001               	movlw	1
  5253  0CD3                     u1465:
  5254  0CD3  1003               	clrc
  5255  0CD4  0CB3               	rrf	___lldiv@divisor+3,f
  5256  0CD5  0CB2               	rrf	___lldiv@divisor+2,f
  5257  0CD6  0CB1               	rrf	___lldiv@divisor+1,f
  5258  0CD7  0CB0               	rrf	___lldiv@divisor,f
  5259  0CD8  3EFF               	addlw	-1
  5260  0CD9  1D03               	skipz
  5261  0CDA  2CD3               	goto	u1465
  5262  0CDB                     l1539:
  5263  0CDB  3001               	movlw	1
  5264  0CDC  02BD               	subwf	___lldiv@counter,f
  5265  0CDD  1D03               	btfss	3,2
  5266  0CDE  2CE0               	goto	u1471
  5267  0CDF  2CE1               	goto	u1470
  5268  0CE0                     u1471:
  5269  0CE0  2CA8               	goto	l1529
  5270  0CE1                     u1470:
  5271  0CE1                     l1541:
  5272  0CE1  083C               	movf	___lldiv@quotient+3,w
  5273  0CE2  00B3               	movwf	?___lldiv+3
  5274  0CE3  083B               	movf	___lldiv@quotient+2,w
  5275  0CE4  00B2               	movwf	?___lldiv+2
  5276  0CE5  083A               	movf	___lldiv@quotient+1,w
  5277  0CE6  00B1               	movwf	?___lldiv+1
  5278  0CE7  0839               	movf	___lldiv@quotient,w
  5279  0CE8  00B0               	movwf	?___lldiv
  5280  0CE9                     l315:
  5281  0CE9  0008               	return
  5282  0CEA                     __end_of___lldiv:
  5283                           
  5284                           	psect	text17
  5285  0B7A                     __ptext17:	
  5286 ;; *************** function _ISR *****************
  5287 ;; Defined at:
  5288 ;;		line 72 in file "Master.c"
  5289 ;; Parameters:    Size  Location     Type
  5290 ;;		None
  5291 ;; Auto vars:     Size  Location     Type
  5292 ;;		None
  5293 ;; Return value:  Size  Location     Type
  5294 ;;                  1    wreg      void 
  5295 ;; Registers used:
  5296 ;;		wreg, fsr0l, fsr0h, status,2, status,0, pclath, cstack
  5297 ;; Tracked objects:
  5298 ;;		On entry : 0/0
  5299 ;;		On exit  : 0/0
  5300 ;;		Unchanged: 0/0
  5301 ;; Data sizes:     COMMON   BANK0   BANK1   BANK3   BANK2
  5302 ;;      Params:         0       0       0       0       0
  5303 ;;      Locals:         0       0       0       0       0
  5304 ;;      Temps:          0       5       0       0       0
  5305 ;;      Totals:         0       5       0       0       0
  5306 ;;Total ram usage:        5 bytes
  5307 ;; Hardware stack levels used: 1
  5308 ;; Hardware stack levels required when called: 3
  5309 ;; This function calls:
  5310 ;;		_Read
  5311 ;;		_itoa
  5312 ;; This function is called by:
  5313 ;;		Interrupt level 1
  5314 ;; This function uses a non-reentrant model
  5315 ;;
  5316                           
  5317                           
  5318                           ;psect for function _ISR
  5319  0B7A                     _ISR:
  5320  0B7A                     i1l2051:
  5321                           
  5322                           ;Master.c: 73:     if (RCIF==1){
  5323  0B7A  1E8C               	btfss	12,5	;volatile
  5324  0B7B  2B7D               	goto	u250_21
  5325  0B7C  2B7E               	goto	u250_20
  5326  0B7D                     u250_21:
  5327  0B7D  2BA7               	goto	i1l68
  5328  0B7E                     u250_20:
  5329  0B7E                     i1l2053:
  5330                           
  5331                           ;Master.c: 74:         O = Read ((int)RCREG);
  5332  0B7E  081A               	movf	26,w	;volatile
  5333  0B7F  00AB               	movwf	??_ISR
  5334  0B80  01AC               	clrf	??_ISR+1
  5335  0B81  082B               	movf	??_ISR,w
  5336  0B82  00F0               	movwf	Read@n
  5337  0B83  082C               	movf	??_ISR+1,w
  5338  0B84  00F1               	movwf	Read@n+1
  5339  0B85  120A  158A  22AB  120A  158A  	fcall	_Read
  5340  0B8A  0871               	movf	?_Read+1,w
  5341  0B8B  1283               	bcf	3,5	;RP0=0, select bank0
  5342  0B8C  1303               	bcf	3,6	;RP1=0, select bank0
  5343  0B8D  00D8               	movwf	_O+1
  5344  0B8E  0870               	movf	?_Read,w
  5345  0B8F  00D7               	movwf	_O
  5346  0B90                     i1l2055:
  5347                           
  5348                           ;Master.c: 75:         itoa(COMPARE,O,10);
  5349  0B90  085F               	movf	_COMPARE,w
  5350  0B91  00AB               	movwf	??_ISR
  5351  0B92  01AC               	clrf	??_ISR+1
  5352  0B93  082B               	movf	??_ISR,w
  5353  0B94  00A4               	movwf	itoa@buf
  5354  0B95  082C               	movf	??_ISR+1,w
  5355  0B96  00A5               	movwf	itoa@buf+1
  5356  0B97  0858               	movf	_O+1,w
  5357  0B98  00A7               	movwf	itoa@val+1
  5358  0B99  0857               	movf	_O,w
  5359  0B9A  00A6               	movwf	itoa@val
  5360  0B9B  300A               	movlw	10
  5361  0B9C  00A8               	movwf	itoa@base
  5362  0B9D  3000               	movlw	0
  5363  0B9E  00A9               	movwf	itoa@base+1
  5364  0B9F  120A  158A  231C  120A  158A  	fcall	_itoa
  5365  0BA4                     i1l2057:
  5366                           
  5367                           ;Master.c: 76:         RCIF=0;
  5368  0BA4  1283               	bcf	3,5	;RP0=0, select bank0
  5369  0BA5  1303               	bcf	3,6	;RP1=0, select bank0
  5370  0BA6  128C               	bcf	12,5	;volatile
  5371  0BA7                     i1l68:
  5372  0BA7  082F               	movf	??_ISR+4,w
  5373  0BA8  008A               	movwf	10
  5374  0BA9  082E               	movf	??_ISR+3,w
  5375  0BAA  0084               	movwf	4
  5376  0BAB  0E2D               	swapf	??_ISR+2,w
  5377  0BAC  0083               	movwf	3
  5378  0BAD  0EFE               	swapf	btemp,f
  5379  0BAE  0E7E               	swapf	btemp,w
  5380  0BAF  0009               	retfie
  5381  0BB0                     __end_of_ISR:
  5382                           
  5383                           	psect	intentry
  5384  0004                     __pintentry:	
  5385                           ;incstack = 0
  5386                           ; Regs used in _ISR: [wreg-fsr0h+status,2+status,0+pclath+cstack]
  5387                           
  5388  0004                     interrupt_function:
  5389  007E                     saved_w	set	btemp
  5390  0004  00FE               	movwf	btemp
  5391  0005  0E03               	swapf	3,w
  5392  0006  1283               	bcf	3,5	;RP0=0, select bank0
  5393  0007  1303               	bcf	3,6	;RP1=0, select bank0
  5394  0008  00AD               	movwf	??_ISR+2
  5395  0009  0804               	movf	4,w
  5396  000A  00AE               	movwf	??_ISR+3
  5397  000B  080A               	movf	10,w
  5398  000C  00AF               	movwf	??_ISR+4
  5399  000D  120A  158A  2B7A   	ljmp	_ISR
  5400                           
  5401                           	psect	text18
  5402  0B1C                     __ptext18:	
  5403 ;; *************** function _itoa *****************
  5404 ;; Defined at:
  5405 ;;		line 4 in file "C:\Program Files\Microchip\xc8\v2.32\pic\sources\c90\common\itoa.c"
  5406 ;; Parameters:    Size  Location     Type
  5407 ;;  buf             2    4[BANK0 ] PTR unsigned char 
  5408 ;;		 -> RAM(512), 
  5409 ;;  val             2    6[BANK0 ] int 
  5410 ;;  base            2    8[BANK0 ] int 
  5411 ;; Auto vars:     Size  Location     Type
  5412 ;;  cp              2    0        PTR unsigned char 
  5413 ;;		 -> RAM(512), 
  5414 ;; Return value:  Size  Location     Type
  5415 ;;                  2    4[BANK0 ] PTR unsigned char 
  5416 ;; Registers used:
  5417 ;;		wreg, fsr0l, fsr0h, status,2, status,0, pclath, cstack
  5418 ;; Tracked objects:
  5419 ;;		On entry : 0/0
  5420 ;;		On exit  : 0/0
  5421 ;;		Unchanged: 0/0
  5422 ;; Data sizes:     COMMON   BANK0   BANK1   BANK3   BANK2
  5423 ;;      Params:         0       6       0       0       0
  5424 ;;      Locals:         0       0       0       0       0
  5425 ;;      Temps:          0       1       0       0       0
  5426 ;;      Totals:         0       7       0       0       0
  5427 ;;Total ram usage:        7 bytes
  5428 ;; Hardware stack levels used: 1
  5429 ;; Hardware stack levels required when called: 2
  5430 ;; This function calls:
  5431 ;;		_utoa
  5432 ;; This function is called by:
  5433 ;;		_ISR
  5434 ;; This function uses a non-reentrant model
  5435 ;;
  5436                           
  5437                           
  5438                           ;psect for function _itoa
  5439  0B1C                     _itoa:
  5440  0B1C                     i1l1593:	
  5441                           ;incstack = 0
  5442                           ; Regs used in _itoa: [wreg-fsr0h+status,2+status,0+pclath+cstack]
  5443                           
  5444  0B1C                     i1l1595:
  5445  0B1C  1283               	bcf	3,5	;RP0=0, select bank0
  5446  0B1D  1303               	bcf	3,6	;RP1=0, select bank0
  5447  0B1E  1FA7               	btfss	itoa@val+1,7
  5448  0B1F  2B21               	goto	u154_21
  5449  0B20  2B22               	goto	u154_20
  5450  0B21                     u154_21:
  5451  0B21  2B36               	goto	i1l1603
  5452  0B22                     u154_20:
  5453  0B22                     i1l1597:
  5454  0B22  302D               	movlw	45
  5455  0B23  00AA               	movwf	??_itoa
  5456  0B24  0824               	movf	itoa@buf,w
  5457  0B25  0084               	movwf	4
  5458  0B26  1783               	bsf	3,7
  5459  0B27  1C25               	btfss	itoa@buf+1,0
  5460  0B28  1383               	bcf	3,7
  5461  0B29  082A               	movf	??_itoa,w
  5462  0B2A  0080               	movwf	0
  5463  0B2B                     i1l1599:
  5464  0B2B  3001               	movlw	1
  5465  0B2C  07A4               	addwf	itoa@buf,f
  5466  0B2D  1803               	skipnc
  5467  0B2E  0AA5               	incf	itoa@buf+1,f
  5468  0B2F  3000               	movlw	0
  5469  0B30  07A5               	addwf	itoa@buf+1,f
  5470  0B31                     i1l1601:
  5471  0B31  09A6               	comf	itoa@val,f
  5472  0B32  09A7               	comf	itoa@val+1,f
  5473  0B33  0AA6               	incf	itoa@val,f
  5474  0B34  1903               	skipnz
  5475  0B35  0AA7               	incf	itoa@val+1,f
  5476  0B36                     i1l1603:
  5477  0B36  0824               	movf	itoa@buf,w
  5478  0B37  00F8               	movwf	utoa@buf
  5479  0B38  0825               	movf	itoa@buf+1,w
  5480  0B39  00F9               	movwf	utoa@buf+1
  5481  0B3A  0827               	movf	itoa@val+1,w
  5482  0B3B  00FB               	movwf	utoa@val+1
  5483  0B3C  0826               	movf	itoa@val,w
  5484  0B3D  00FA               	movwf	utoa@val
  5485  0B3E  0829               	movf	itoa@base+1,w
  5486  0B3F  00FD               	movwf	utoa@base+1
  5487  0B40  0828               	movf	itoa@base,w
  5488  0B41  00FC               	movwf	utoa@base
  5489  0B42  120A  158A  24EA  120A  158A  	fcall	_utoa
  5490  0B47                     i1l733:
  5491  0B47  0008               	return
  5492  0B48                     __end_of_itoa:
  5493                           
  5494                           	psect	text19
  5495  0CEA                     __ptext19:	
  5496 ;; *************** function _utoa *****************
  5497 ;; Defined at:
  5498 ;;		line 17 in file "C:\Program Files\Microchip\xc8\v2.32\pic\sources\c90\common\itoa.c"
  5499 ;; Parameters:    Size  Location     Type
  5500 ;;  buf             2    8[COMMON] PTR unsigned char 
  5501 ;;		 -> RAM(512), 
  5502 ;;  val             2   10[COMMON] unsigned int 
  5503 ;;  base            2   12[COMMON] int 
  5504 ;; Auto vars:     Size  Location     Type
  5505 ;;  v               2    1[BANK0 ] unsigned int 
  5506 ;;  c               1    3[BANK0 ] unsigned char 
  5507 ;; Return value:  Size  Location     Type
  5508 ;;                  2    8[COMMON] PTR unsigned char 
  5509 ;; Registers used:
  5510 ;;		wreg, fsr0l, fsr0h, status,2, status,0, pclath, cstack
  5511 ;; Tracked objects:
  5512 ;;		On entry : 0/0
  5513 ;;		On exit  : 0/0
  5514 ;;		Unchanged: 0/0
  5515 ;; Data sizes:     COMMON   BANK0   BANK1   BANK3   BANK2
  5516 ;;      Params:         6       0       0       0       0
  5517 ;;      Locals:         0       3       0       0       0
  5518 ;;      Temps:          0       1       0       0       0
  5519 ;;      Totals:         6       4       0       0       0
  5520 ;;Total ram usage:       10 bytes
  5521 ;; Hardware stack levels used: 1
  5522 ;; Hardware stack levels required when called: 1
  5523 ;; This function calls:
  5524 ;;		___lwdiv
  5525 ;;		___lwmod
  5526 ;; This function is called by:
  5527 ;;		_itoa
  5528 ;; This function uses a non-reentrant model
  5529 ;;
  5530                           
  5531                           
  5532                           ;psect for function _utoa
  5533  0CEA                     _utoa:
  5534  0CEA                     i1l1559:	
  5535                           ;incstack = 0
  5536                           ; Regs used in _utoa: [wreg-fsr0h+status,2+status,0+pclath+cstack]
  5537                           
  5538  0CEA  087B               	movf	utoa@val+1,w
  5539  0CEB  1283               	bcf	3,5	;RP0=0, select bank0
  5540  0CEC  1303               	bcf	3,6	;RP1=0, select bank0
  5541  0CED  00A2               	movwf	utoa@v+1
  5542  0CEE  087A               	movf	utoa@val,w
  5543  0CEF  00A1               	movwf	utoa@v
  5544  0CF0                     i1l1561:
  5545  0CF0  087D               	movf	utoa@base+1,w
  5546  0CF1  00F1               	movwf	___lwdiv@divisor+1
  5547  0CF2  087C               	movf	utoa@base,w
  5548  0CF3  00F0               	movwf	___lwdiv@divisor
  5549  0CF4  0822               	movf	utoa@v+1,w
  5550  0CF5  00F3               	movwf	___lwdiv@dividend+1
  5551  0CF6  0821               	movf	utoa@v,w
  5552  0CF7  00F2               	movwf	___lwdiv@dividend
  5553  0CF8  120A  118A  27B9  120A  158A  	fcall	___lwdiv
  5554  0CFD  0871               	movf	?___lwdiv+1,w
  5555  0CFE  1283               	bcf	3,5	;RP0=0, select bank0
  5556  0CFF  1303               	bcf	3,6	;RP1=0, select bank0
  5557  0D00  00A2               	movwf	utoa@v+1
  5558  0D01  0870               	movf	?___lwdiv,w
  5559  0D02  00A1               	movwf	utoa@v
  5560  0D03                     i1l1563:
  5561  0D03  3001               	movlw	1
  5562  0D04  07F8               	addwf	utoa@buf,f
  5563  0D05  1803               	skipnc
  5564  0D06  0AF9               	incf	utoa@buf+1,f
  5565  0D07  3000               	movlw	0
  5566  0D08  07F9               	addwf	utoa@buf+1,f
  5567  0D09                     i1l1565:
  5568  0D09  0821               	movf	utoa@v,w
  5569  0D0A  0422               	iorwf	utoa@v+1,w
  5570  0D0B  1D03               	btfss	3,2
  5571  0D0C  2D0E               	goto	u151_21
  5572  0D0D  2D0F               	goto	u151_20
  5573  0D0E                     u151_21:
  5574  0D0E  2CF0               	goto	i1l1561
  5575  0D0F                     u151_20:
  5576  0D0F                     i1l1567:
  5577  0D0F  0878               	movf	utoa@buf,w
  5578  0D10  0084               	movwf	4
  5579  0D11  1783               	bsf	3,7
  5580  0D12  1C79               	btfss	utoa@buf+1,0
  5581  0D13  1383               	bcf	3,7
  5582  0D14  0180               	clrf	0
  5583  0D15                     i1l1569:
  5584  0D15  3001               	movlw	1
  5585  0D16  02F8               	subwf	utoa@buf,f
  5586  0D17  3000               	movlw	0
  5587  0D18  1C03               	skipc
  5588  0D19  03F9               	decf	utoa@buf+1,f
  5589  0D1A  02F9               	subwf	utoa@buf+1,f
  5590  0D1B                     i1l1571:
  5591  0D1B  087D               	movf	utoa@base+1,w
  5592  0D1C  00F1               	movwf	___lwmod@divisor+1
  5593  0D1D  087C               	movf	utoa@base,w
  5594  0D1E  00F0               	movwf	___lwmod@divisor
  5595  0D1F  087B               	movf	utoa@val+1,w
  5596  0D20  00F3               	movwf	___lwmod@dividend+1
  5597  0D21  087A               	movf	utoa@val,w
  5598  0D22  00F2               	movwf	___lwmod@dividend
  5599  0D23  120A  158A  23B0  120A  158A  	fcall	___lwmod
  5600  0D28  0870               	movf	?___lwmod,w
  5601  0D29  1283               	bcf	3,5	;RP0=0, select bank0
  5602  0D2A  1303               	bcf	3,6	;RP1=0, select bank0
  5603  0D2B  00A0               	movwf	??_utoa
  5604  0D2C  0820               	movf	??_utoa,w
  5605  0D2D  00A3               	movwf	utoa@c
  5606  0D2E                     i1l1573:
  5607  0D2E  087D               	movf	utoa@base+1,w
  5608  0D2F  00F1               	movwf	___lwdiv@divisor+1
  5609  0D30  087C               	movf	utoa@base,w
  5610  0D31  00F0               	movwf	___lwdiv@divisor
  5611  0D32  087B               	movf	utoa@val+1,w
  5612  0D33  00F3               	movwf	___lwdiv@dividend+1
  5613  0D34  087A               	movf	utoa@val,w
  5614  0D35  00F2               	movwf	___lwdiv@dividend
  5615  0D36  120A  118A  27B9  120A  158A  	fcall	___lwdiv
  5616  0D3B  0871               	movf	?___lwdiv+1,w
  5617  0D3C  00FB               	movwf	utoa@val+1
  5618  0D3D  0870               	movf	?___lwdiv,w
  5619  0D3E  00FA               	movwf	utoa@val
  5620  0D3F                     i1l1575:
  5621  0D3F  300A               	movlw	10
  5622  0D40  1283               	bcf	3,5	;RP0=0, select bank0
  5623  0D41  1303               	bcf	3,6	;RP1=0, select bank0
  5624  0D42  0223               	subwf	utoa@c,w
  5625  0D43  1C03               	skipc
  5626  0D44  2D46               	goto	u152_21
  5627  0D45  2D47               	goto	u152_20
  5628  0D46                     u152_21:
  5629  0D46  2D4B               	goto	i1l739
  5630  0D47                     u152_20:
  5631  0D47                     i1l1577:
  5632  0D47  3007               	movlw	7
  5633  0D48  00A0               	movwf	??_utoa
  5634  0D49  0820               	movf	??_utoa,w
  5635  0D4A  07A3               	addwf	utoa@c,f
  5636  0D4B                     i1l739:
  5637  0D4B  3030               	movlw	48
  5638  0D4C  00A0               	movwf	??_utoa
  5639  0D4D  0820               	movf	??_utoa,w
  5640  0D4E  07A3               	addwf	utoa@c,f
  5641  0D4F                     i1l1579:
  5642  0D4F  0823               	movf	utoa@c,w
  5643  0D50  00A0               	movwf	??_utoa
  5644  0D51  0878               	movf	utoa@buf,w
  5645  0D52  0084               	movwf	4
  5646  0D53  1783               	bsf	3,7
  5647  0D54  1C79               	btfss	utoa@buf+1,0
  5648  0D55  1383               	bcf	3,7
  5649  0D56  0820               	movf	??_utoa,w
  5650  0D57  0080               	movwf	0
  5651  0D58                     i1l1581:
  5652  0D58  3001               	movlw	1
  5653  0D59  02F8               	subwf	utoa@buf,f
  5654  0D5A  3000               	movlw	0
  5655  0D5B  1C03               	skipc
  5656  0D5C  03F9               	decf	utoa@buf+1,f
  5657  0D5D  02F9               	subwf	utoa@buf+1,f
  5658  0D5E                     i1l1583:
  5659  0D5E  087A               	movf	utoa@val,w
  5660  0D5F  047B               	iorwf	utoa@val+1,w
  5661  0D60  1D03               	btfss	3,2
  5662  0D61  2D63               	goto	u153_21
  5663  0D62  2D64               	goto	u153_20
  5664  0D63                     u153_21:
  5665  0D63  2D1B               	goto	i1l1571
  5666  0D64                     u153_20:
  5667  0D64                     i1l1585:
  5668                           
  5669                           ;	Return value of _utoa is never used
  5670  0D64  3001               	movlw	1
  5671  0D65  07F8               	addwf	utoa@buf,f
  5672  0D66  1803               	skipnc
  5673  0D67  0AF9               	incf	utoa@buf+1,f
  5674  0D68  3000               	movlw	0
  5675  0D69  07F9               	addwf	utoa@buf+1,f
  5676  0D6A                     i1l741:
  5677  0D6A  0008               	return
  5678  0D6B                     __end_of_utoa:
  5679                           
  5680                           	psect	text20
  5681  0BB0                     __ptext20:	
  5682 ;; *************** function ___lwmod *****************
  5683 ;; Defined at:
  5684 ;;		line 5 in file "C:\Program Files\Microchip\xc8\v2.32\pic\sources\c90\common\lwmod.c"
  5685 ;; Parameters:    Size  Location     Type
  5686 ;;  divisor         2    0[COMMON] unsigned int 
  5687 ;;  dividend        2    2[COMMON] unsigned int 
  5688 ;; Auto vars:     Size  Location     Type
  5689 ;;  counter         1    5[COMMON] unsigned char 
  5690 ;; Return value:  Size  Location     Type
  5691 ;;                  2    0[COMMON] unsigned int 
  5692 ;; Registers used:
  5693 ;;		wreg, status,2, status,0
  5694 ;; Tracked objects:
  5695 ;;		On entry : 0/0
  5696 ;;		On exit  : 0/0
  5697 ;;		Unchanged: 0/0
  5698 ;; Data sizes:     COMMON   BANK0   BANK1   BANK3   BANK2
  5699 ;;      Params:         4       0       0       0       0
  5700 ;;      Locals:         1       0       0       0       0
  5701 ;;      Temps:          1       0       0       0       0
  5702 ;;      Totals:         6       0       0       0       0
  5703 ;;Total ram usage:        6 bytes
  5704 ;; Hardware stack levels used: 1
  5705 ;; This function calls:
  5706 ;;		Nothing
  5707 ;; This function is called by:
  5708 ;;		_utoa
  5709 ;; This function uses a non-reentrant model
  5710 ;;
  5711                           
  5712                           
  5713                           ;psect for function ___lwmod
  5714  0BB0                     ___lwmod:
  5715  0BB0                     i1l1495:	
  5716                           ;incstack = 0
  5717                           ; Regs used in ___lwmod: [wreg+status,2+status,0]
  5718                           
  5719  0BB0  0870               	movf	___lwmod@divisor,w
  5720  0BB1  0471               	iorwf	___lwmod@divisor+1,w
  5721  0BB2  1903               	btfsc	3,2
  5722  0BB3  2BB5               	goto	u133_21
  5723  0BB4  2BB6               	goto	u133_20
  5724  0BB5                     u133_21:
  5725  0BB5  2BE5               	goto	i1l1513
  5726  0BB6                     u133_20:
  5727  0BB6                     i1l1497:
  5728  0BB6  01F5               	clrf	___lwmod@counter
  5729  0BB7  0AF5               	incf	___lwmod@counter,f
  5730  0BB8  2BC4               	goto	i1l1503
  5731  0BB9                     i1l1499:
  5732  0BB9  3001               	movlw	1
  5733  0BBA                     u134_25:
  5734  0BBA  1003               	clrc
  5735  0BBB  0DF0               	rlf	___lwmod@divisor,f
  5736  0BBC  0DF1               	rlf	___lwmod@divisor+1,f
  5737  0BBD  3EFF               	addlw	-1
  5738  0BBE  1D03               	skipz
  5739  0BBF  2BBA               	goto	u134_25
  5740  0BC0                     i1l1501:
  5741  0BC0  3001               	movlw	1
  5742  0BC1  00F4               	movwf	??___lwmod
  5743  0BC2  0874               	movf	??___lwmod,w
  5744  0BC3  07F5               	addwf	___lwmod@counter,f
  5745  0BC4                     i1l1503:
  5746  0BC4  1FF1               	btfss	___lwmod@divisor+1,7
  5747  0BC5  2BC7               	goto	u135_21
  5748  0BC6  2BC8               	goto	u135_20
  5749  0BC7                     u135_21:
  5750  0BC7  2BB9               	goto	i1l1499
  5751  0BC8                     u135_20:
  5752  0BC8                     i1l1505:
  5753  0BC8  0871               	movf	___lwmod@divisor+1,w
  5754  0BC9  0273               	subwf	___lwmod@dividend+1,w
  5755  0BCA  1D03               	skipz
  5756  0BCB  2BCE               	goto	u136_25
  5757  0BCC  0870               	movf	___lwmod@divisor,w
  5758  0BCD  0272               	subwf	___lwmod@dividend,w
  5759  0BCE                     u136_25:
  5760  0BCE  1C03               	skipc
  5761  0BCF  2BD1               	goto	u136_21
  5762  0BD0  2BD2               	goto	u136_20
  5763  0BD1                     u136_21:
  5764  0BD1  2BD8               	goto	i1l1509
  5765  0BD2                     u136_20:
  5766  0BD2                     i1l1507:
  5767  0BD2  0870               	movf	___lwmod@divisor,w
  5768  0BD3  02F2               	subwf	___lwmod@dividend,f
  5769  0BD4  0871               	movf	___lwmod@divisor+1,w
  5770  0BD5  1C03               	skipc
  5771  0BD6  03F3               	decf	___lwmod@dividend+1,f
  5772  0BD7  02F3               	subwf	___lwmod@dividend+1,f
  5773  0BD8                     i1l1509:
  5774  0BD8  3001               	movlw	1
  5775  0BD9                     u137_25:
  5776  0BD9  1003               	clrc
  5777  0BDA  0CF1               	rrf	___lwmod@divisor+1,f
  5778  0BDB  0CF0               	rrf	___lwmod@divisor,f
  5779  0BDC  3EFF               	addlw	-1
  5780  0BDD  1D03               	skipz
  5781  0BDE  2BD9               	goto	u137_25
  5782  0BDF                     i1l1511:
  5783  0BDF  3001               	movlw	1
  5784  0BE0  02F5               	subwf	___lwmod@counter,f
  5785  0BE1  1D03               	btfss	3,2
  5786  0BE2  2BE4               	goto	u138_21
  5787  0BE3  2BE5               	goto	u138_20
  5788  0BE4                     u138_21:
  5789  0BE4  2BC8               	goto	i1l1505
  5790  0BE5                     u138_20:
  5791  0BE5                     i1l1513:
  5792  0BE5  0873               	movf	___lwmod@dividend+1,w
  5793  0BE6  00F1               	movwf	?___lwmod+1
  5794  0BE7  0872               	movf	___lwmod@dividend,w
  5795  0BE8  00F0               	movwf	?___lwmod
  5796  0BE9                     i1l561:
  5797  0BE9  0008               	return
  5798  0BEA                     __end_of___lwmod:
  5799                           
  5800                           	psect	text21
  5801  07B9                     __ptext21:	
  5802 ;; *************** function ___lwdiv *****************
  5803 ;; Defined at:
  5804 ;;		line 5 in file "C:\Program Files\Microchip\xc8\v2.32\pic\sources\c90\common\lwdiv.c"
  5805 ;; Parameters:    Size  Location     Type
  5806 ;;  divisor         2    0[COMMON] unsigned int 
  5807 ;;  dividend        2    2[COMMON] unsigned int 
  5808 ;; Auto vars:     Size  Location     Type
  5809 ;;  quotient        2    5[COMMON] unsigned int 
  5810 ;;  counter         1    7[COMMON] unsigned char 
  5811 ;; Return value:  Size  Location     Type
  5812 ;;                  2    0[COMMON] unsigned int 
  5813 ;; Registers used:
  5814 ;;		wreg, status,2, status,0
  5815 ;; Tracked objects:
  5816 ;;		On entry : 0/0
  5817 ;;		On exit  : 0/0
  5818 ;;		Unchanged: 0/0
  5819 ;; Data sizes:     COMMON   BANK0   BANK1   BANK3   BANK2
  5820 ;;      Params:         4       0       0       0       0
  5821 ;;      Locals:         3       0       0       0       0
  5822 ;;      Temps:          1       0       0       0       0
  5823 ;;      Totals:         8       0       0       0       0
  5824 ;;Total ram usage:        8 bytes
  5825 ;; Hardware stack levels used: 1
  5826 ;; This function calls:
  5827 ;;		Nothing
  5828 ;; This function is called by:
  5829 ;;		_utoa
  5830 ;; This function uses a non-reentrant model
  5831 ;;
  5832                           
  5833                           
  5834                           ;psect for function ___lwdiv
  5835  07B9                     ___lwdiv:
  5836  07B9                     i1l1469:	
  5837                           ;incstack = 0
  5838                           ; Regs used in ___lwdiv: [wreg+status,2+status,0]
  5839                           
  5840  07B9  01F5               	clrf	___lwdiv@quotient
  5841  07BA  01F6               	clrf	___lwdiv@quotient+1
  5842  07BB                     i1l1471:
  5843  07BB  0870               	movf	___lwdiv@divisor,w
  5844  07BC  0471               	iorwf	___lwdiv@divisor+1,w
  5845  07BD  1903               	btfsc	3,2
  5846  07BE  2FC0               	goto	u126_21
  5847  07BF  2FC1               	goto	u126_20
  5848  07C0                     u126_21:
  5849  07C0  2FF8               	goto	i1l1491
  5850  07C1                     u126_20:
  5851  07C1                     i1l1473:
  5852  07C1  01F7               	clrf	___lwdiv@counter
  5853  07C2  0AF7               	incf	___lwdiv@counter,f
  5854  07C3  2FCF               	goto	i1l1479
  5855  07C4                     i1l1475:
  5856  07C4  3001               	movlw	1
  5857  07C5                     u127_25:
  5858  07C5  1003               	clrc
  5859  07C6  0DF0               	rlf	___lwdiv@divisor,f
  5860  07C7  0DF1               	rlf	___lwdiv@divisor+1,f
  5861  07C8  3EFF               	addlw	-1
  5862  07C9  1D03               	skipz
  5863  07CA  2FC5               	goto	u127_25
  5864  07CB                     i1l1477:
  5865  07CB  3001               	movlw	1
  5866  07CC  00F4               	movwf	??___lwdiv
  5867  07CD  0874               	movf	??___lwdiv,w
  5868  07CE  07F7               	addwf	___lwdiv@counter,f
  5869  07CF                     i1l1479:
  5870  07CF  1FF1               	btfss	___lwdiv@divisor+1,7
  5871  07D0  2FD2               	goto	u128_21
  5872  07D1  2FD3               	goto	u128_20
  5873  07D2                     u128_21:
  5874  07D2  2FC4               	goto	i1l1475
  5875  07D3                     u128_20:
  5876  07D3                     i1l1481:
  5877  07D3  3001               	movlw	1
  5878  07D4                     u129_25:
  5879  07D4  1003               	clrc
  5880  07D5  0DF5               	rlf	___lwdiv@quotient,f
  5881  07D6  0DF6               	rlf	___lwdiv@quotient+1,f
  5882  07D7  3EFF               	addlw	-1
  5883  07D8  1D03               	skipz
  5884  07D9  2FD4               	goto	u129_25
  5885  07DA  0871               	movf	___lwdiv@divisor+1,w
  5886  07DB  0273               	subwf	___lwdiv@dividend+1,w
  5887  07DC  1D03               	skipz
  5888  07DD  2FE0               	goto	u130_25
  5889  07DE  0870               	movf	___lwdiv@divisor,w
  5890  07DF  0272               	subwf	___lwdiv@dividend,w
  5891  07E0                     u130_25:
  5892  07E0  1C03               	skipc
  5893  07E1  2FE3               	goto	u130_21
  5894  07E2  2FE4               	goto	u130_20
  5895  07E3                     u130_21:
  5896  07E3  2FEB               	goto	i1l1487
  5897  07E4                     u130_20:
  5898  07E4                     i1l1483:
  5899  07E4  0870               	movf	___lwdiv@divisor,w
  5900  07E5  02F2               	subwf	___lwdiv@dividend,f
  5901  07E6  0871               	movf	___lwdiv@divisor+1,w
  5902  07E7  1C03               	skipc
  5903  07E8  03F3               	decf	___lwdiv@dividend+1,f
  5904  07E9  02F3               	subwf	___lwdiv@dividend+1,f
  5905  07EA                     i1l1485:
  5906  07EA  1475               	bsf	___lwdiv@quotient,0
  5907  07EB                     i1l1487:
  5908  07EB  3001               	movlw	1
  5909  07EC                     u131_25:
  5910  07EC  1003               	clrc
  5911  07ED  0CF1               	rrf	___lwdiv@divisor+1,f
  5912  07EE  0CF0               	rrf	___lwdiv@divisor,f
  5913  07EF  3EFF               	addlw	-1
  5914  07F0  1D03               	skipz
  5915  07F1  2FEC               	goto	u131_25
  5916  07F2                     i1l1489:
  5917  07F2  3001               	movlw	1
  5918  07F3  02F7               	subwf	___lwdiv@counter,f
  5919  07F4  1D03               	btfss	3,2
  5920  07F5  2FF7               	goto	u132_21
  5921  07F6  2FF8               	goto	u132_20
  5922  07F7                     u132_21:
  5923  07F7  2FD3               	goto	i1l1481
  5924  07F8                     u132_20:
  5925  07F8                     i1l1491:
  5926  07F8  0876               	movf	___lwdiv@quotient+1,w
  5927  07F9  00F1               	movwf	?___lwdiv+1
  5928  07FA  0875               	movf	___lwdiv@quotient,w
  5929  07FB  00F0               	movwf	?___lwdiv
  5930  07FC                     i1l551:
  5931  07FC  0008               	return
  5932  07FD                     __end_of___lwdiv:
  5933                           
  5934                           	psect	text22
  5935  0AAB                     __ptext22:	
  5936 ;; *************** function _Read *****************
  5937 ;; Defined at:
  5938 ;;		line 142 in file "Master.c"
  5939 ;; Parameters:    Size  Location     Type
  5940 ;;  n               2    0[COMMON] int 
  5941 ;; Auto vars:     Size  Location     Type
  5942 ;;		None
  5943 ;; Return value:  Size  Location     Type
  5944 ;;                  2    0[COMMON] int 
  5945 ;; Registers used:
  5946 ;;		wreg
  5947 ;; Tracked objects:
  5948 ;;		On entry : 0/0
  5949 ;;		On exit  : 0/0
  5950 ;;		Unchanged: 0/0
  5951 ;; Data sizes:     COMMON   BANK0   BANK1   BANK3   BANK2
  5952 ;;      Params:         2       0       0       0       0
  5953 ;;      Locals:         0       0       0       0       0
  5954 ;;      Temps:          0       0       0       0       0
  5955 ;;      Totals:         2       0       0       0       0
  5956 ;;Total ram usage:        2 bytes
  5957 ;; Hardware stack levels used: 1
  5958 ;; This function calls:
  5959 ;;		Nothing
  5960 ;; This function is called by:
  5961 ;;		_ISR
  5962 ;; This function uses a non-reentrant model
  5963 ;;
  5964                           
  5965                           
  5966                           ;psect for function _Read
  5967  0AAB                     _Read:
  5968  0AAB                     i1l1589:	
  5969                           ;incstack = 0
  5970                           ; Regs used in _Read: [wreg]
  5971                           
  5972                           
  5973                           ;Master.c: 143:     Destination = n;
  5974  0AAB  0871               	movf	Read@n+1,w
  5975  0AAC  1283               	bcf	3,5	;RP0=0, select bank0
  5976  0AAD  1303               	bcf	3,6	;RP1=0, select bank0
  5977  0AAE  00D6               	movwf	_Destination+1
  5978  0AAF  0870               	movf	Read@n,w
  5979  0AB0  00D5               	movwf	_Destination
  5980                           
  5981                           ;Master.c: 144:     return ((Destination)*1);
  5982  0AB1  0856               	movf	_Destination+1,w
  5983  0AB2  00F1               	movwf	?_Read+1
  5984  0AB3  0855               	movf	_Destination,w
  5985  0AB4  00F0               	movwf	?_Read
  5986  0AB5                     i1l84:
  5987  0AB5  0008               	return
  5988  0AB6                     __end_of_Read:
  5989  007E                     btemp	set	126	;btemp
  5990  007E                     wtemp0	set	126
  5991                           
  5992                           	psect	config
  5993                           
  5994                           ;Config register CONFIG1 @ 0x2007
  5995                           ;	Oscillator Selection bits
  5996                           ;	FOSC = INTRC_NOCLKOUT, INTOSCIO oscillator: I/O function on RA6/OSC2/CLKOUT pin, I/O f
      +                          unction on RA7/OSC1/CLKIN
  5997                           ;	Watchdog Timer Enable bit
  5998                           ;	WDTE = OFF, WDT disabled and can be enabled by SWDTEN bit of the WDTCON register
  5999                           ;	Power-up Timer Enable bit
  6000                           ;	PWRTE = OFF, PWRT disabled
  6001                           ;	RE3/MCLR pin function select bit
  6002                           ;	MCLRE = OFF, RE3/MCLR pin function is digital input, MCLR internally tied to VDD
  6003                           ;	Code Protection bit
  6004                           ;	CP = OFF, Program memory code protection is disabled
  6005                           ;	Data Code Protection bit
  6006                           ;	CPD = OFF, Data memory code protection is disabled
  6007                           ;	Brown Out Reset Selection bits
  6008                           ;	BOREN = OFF, BOR disabled
  6009                           ;	Internal External Switchover bit
  6010                           ;	IESO = OFF, Internal/External Switchover mode is disabled
  6011                           ;	Fail-Safe Clock Monitor Enabled bit
  6012                           ;	FCMEN = OFF, Fail-Safe Clock Monitor is disabled
  6013                           ;	Low Voltage Programming Enable bit
  6014                           ;	LVP = OFF, RB3 pin has digital I/O, HV on MCLR must be used for programming
  6015                           ;	In-Circuit Debugger Mode bit
  6016                           ;	DEBUG = 0x1, unprogrammed default
  6017  2007                     	org	8199
  6018  2007  20D4               	dw	8404
  6019                           
  6020                           ;Config register CONFIG2 @ 0x2008
  6021                           ;	Brown-out Reset Selection bit
  6022                           ;	BOR4V = BOR40V, Brown-out Reset set to 4.0V
  6023                           ;	Flash Program Memory Self Write Enable bits
  6024                           ;	WRT = OFF, Write protection off
  6025  2008                     	org	8200
  6026  2008  3FFF               	dw	16383

Data Sizes:
    Strings     0
    Constant    0
    Data        0
    BSS         11
    Persistent  0
    Stack       0

Auto Spaces:
    Space          Size  Autos    Used
    COMMON           14     14      14
    BANK0            80     53      64
    BANK1            80     43      43
    BANK3            96      0       0
    BANK2            96      0       0

Pointer List with Targets:

    utoa@buf	PTR unsigned char  size(2) Largest target is 512
		 -> RAM(DATA[512]), 

    sp__utoa	PTR unsigned char  size(2) Largest target is 512
		 -> RAM(DATA[512]), 

    itoa@buf	PTR unsigned char  size(2) Largest target is 512
		 -> RAM(DATA[512]), 

    itoa@cp	PTR unsigned char  size(2) Largest target is 512
		 -> RAM(DATA[512]), 

    sp__itoa	PTR unsigned char  size(2) Largest target is 512
		 -> RAM(DATA[512]), 


Critical Paths under _main in COMMON

    None.

Critical Paths under _ISR in COMMON

    _itoa->_utoa
    _utoa->___lwdiv

Critical Paths under _main in BANK0

    _main->___fltol
    ___fltol->___fldiv
    ___flmul->___xxtofl
    ___fldiv->___flmul
    _I2C_Init->___lldiv

Critical Paths under _ISR in BANK0

    _ISR->_itoa
    _itoa->_utoa

Critical Paths under _main in BANK1

    _main->___fltol
    ___fltol->___fldiv
    ___fldiv->___flmul

Critical Paths under _ISR in BANK1

    None.

Critical Paths under _main in BANK3

    None.

Critical Paths under _ISR in BANK3

    None.

Critical Paths under _main in BANK2

    None.

Critical Paths under _ISR in BANK2

    None.

Call Graph Tables:

 ---------------------------------------------------------------------------------
 (Depth) Function   	        Calls       Base Space   Used Autos Params    Refs
 ---------------------------------------------------------------------------------
 (0) _main                                                 3     3      0    6028
                                             40 BANK1      3     3      0
                           _I2C_Init
                         _I2C_M_Read
                        _I2C_M_Start
                         _I2C_M_Stop
                            _InitOSC
                        _SERIAL_Init
                          _UART_READ
                         _UART_Write
                            ___fldiv
                            ___flmul
                            ___fltol
                           ___xxtofl
                              _setup
 ---------------------------------------------------------------------------------
 (1) _setup                                                0     0      0       0
 ---------------------------------------------------------------------------------
 (1) ___xxtofl                                            14    10      4     398
                                             16 BANK0     14    10      4
 ---------------------------------------------------------------------------------
 (1) ___fltol                                             11     7      4     427
                                             51 BANK0      2     2      0
                                             31 BANK1      9     5      4
                            ___fldiv (ARG)
                            ___flmul (ARG)
                           ___xxtofl (ARG)
 ---------------------------------------------------------------------------------
 (1) ___flmul                                             26    18      8    3353
                                             30 BANK0     13     5      8
                                              0 BANK1     13    13      0
                          __Umul8_16
                           ___xxtofl (ARG)
 ---------------------------------------------------------------------------------
 (2) __Umul8_16                                            9     7      2     980
                                             16 BANK0      9     7      2
 ---------------------------------------------------------------------------------
 (1) ___fldiv                                             26    18      8    1273
                                             43 BANK0      8     0      8
                                             13 BANK1     18    18      0
                            ___flmul (ARG)
                           ___xxtofl (ARG)
 ---------------------------------------------------------------------------------
 (1) _UART_Write                                           1     1      0      22
                                             16 BANK0      1     1      0
 ---------------------------------------------------------------------------------
 (1) _UART_READ                                            0     0      0       0
 ---------------------------------------------------------------------------------
 (1) _SERIAL_Init                                          0     0      0       0
 ---------------------------------------------------------------------------------
 (1) _InitOSC                                              3     3      0      22
                                             16 BANK0      3     3      0
 ---------------------------------------------------------------------------------
 (1) _I2C_M_Stop                                           0     0      0       0
                         _I2C_M_Wait
 ---------------------------------------------------------------------------------
 (1) _I2C_M_Start                                          0     0      0       0
                         _I2C_M_Wait
 ---------------------------------------------------------------------------------
 (1) _I2C_M_Read                                           6     4      2     121
                                             16 BANK0      6     4      2
                         _I2C_M_Wait
 ---------------------------------------------------------------------------------
 (2) _I2C_M_Wait                                           0     0      0       0
 ---------------------------------------------------------------------------------
 (1) _I2C_Init                                             8     4      4     412
                                             30 BANK0      8     4      4
                            ___lldiv
 ---------------------------------------------------------------------------------
 (2) ___lldiv                                             14     6      8     314
                                             16 BANK0     14     6      8
 ---------------------------------------------------------------------------------
 Estimated maximum stack depth 2
 ---------------------------------------------------------------------------------
 (Depth) Function   	        Calls       Base Space   Used Autos Params    Refs
 ---------------------------------------------------------------------------------
 (3) _ISR                                                  5     5      0    1796
                                             11 BANK0      5     5      0
                               _Read
                               _itoa
 ---------------------------------------------------------------------------------
 (4) _itoa                                                 9     3      6    1698
                                              4 BANK0      7     1      6
                               _utoa
 ---------------------------------------------------------------------------------
 (5) _utoa                                                10     4      6    1307
                                              8 COMMON     6     0      6
                                              0 BANK0      4     4      0
                            ___lwdiv
                            ___lwmod
 ---------------------------------------------------------------------------------
 (6) ___lwmod                                              6     2      4     311
                                              0 COMMON     6     2      4
 ---------------------------------------------------------------------------------
 (6) ___lwdiv                                              8     4      4     466
                                              0 COMMON     8     4      4
 ---------------------------------------------------------------------------------
 (4) _Read                                                 2     0      2      98
                                              0 COMMON     2     0      2
 ---------------------------------------------------------------------------------
 Estimated maximum stack depth 6
 ---------------------------------------------------------------------------------

 Call Graph Graphs:

 _main (ROOT)
   _I2C_Init
     ___lldiv
   _I2C_M_Read
     _I2C_M_Wait
   _I2C_M_Start
     _I2C_M_Wait
   _I2C_M_Stop
     _I2C_M_Wait
   _InitOSC
   _SERIAL_Init
   _UART_READ
   _UART_Write
   ___fldiv
     ___flmul (ARG)
       __Umul8_16
       ___xxtofl (ARG)
     ___xxtofl (ARG)
   ___flmul
   ___fltol
     ___fldiv (ARG)
     ___flmul (ARG)
     ___xxtofl (ARG)
   ___xxtofl
   _setup

 _ISR (ROOT)
   _Read
   _itoa
     _utoa
       ___lwdiv
       ___lwmod

 Address spaces:
Name               Size   Autos  Total    Cost      Usage
BITCOMMON            E      0       0       0        0.0%
EEDATA             100      0       0       0        0.0%
NULL                 0      0       0       0        0.0%
CODE                 0      0       0       0        0.0%
COMMON               E      E       E       1      100.0%
BITSFR0              0      0       0       1        0.0%
SFR0                 0      0       0       1        0.0%
BITSFR1              0      0       0       2        0.0%
SFR1                 0      0       0       2        0.0%
STACK                0      0       0       2        0.0%
ABS                  0      0      79       3        0.0%
BITBANK0            50      0       0       4        0.0%
BITSFR3              0      0       0       4        0.0%
SFR3                 0      0       0       4        0.0%
BANK0               50     35      40       5       80.0%
BITSFR2              0      0       0       5        0.0%
SFR2                 0      0       0       5        0.0%
BITBANK1            50      0       0       6        0.0%
BANK1               50     2B      2B       7       53.8%
BITBANK3            60      0       0       8        0.0%
BANK3               60      0       0       9        0.0%
BITBANK2            60      0       0      10        0.0%
BANK2               60      0       0      11        0.0%
DATA                 0      0      79      12        0.0%


Microchip Technology PIC Macro Assembler V2.32 build 20210201212658 
Symbol Table                                                                                   Tue Mar 09 22:02:01 2021

                      _O 0057             ___fldiv@aexp 00BE             ___fldiv@bexp 00BD  
    __size_of_I2C_M_Read 0032             ___fldiv@sign 00B6      __size_of_I2C_M_Wait 000D  
    __size_of_I2C_M_Stop 0009                       l81 0ADF                       l74 05AC  
   __size_of_I2C_M_Start 0009      __Umul8_16@word_mpld 0036                      l121 0AC2  
                    l130 0AAA                      l115 0C23                      l124 0AA1  
                    l118 0AB6                      l136 0B6F                      l137 0B72  
                    l138 0B79                      l162 0AF2                      l315 0CE9  
                    l165 0A91                      l190 0C4C                      l174 0AC6  
                    l191 0C52                      l183 0C28                      l192 0C58  
                    l184 0C80                      l168 0A98                      l193 0C81  
                    l185 0C2E                      l177 0AD0                      l186 0C34  
                    l187 0C3A                      l188 0C40                      l189 0C46  
                    l630 0FFF                      l472 07A1                      l712 068F  
                    l465 07B8                      l650 0FD7                      l714 0726  
                    l475 07B8                      l652 0FEB                      l644 0F39  
                    l628 0DE9                      l725 06F0                      l726 06FC  
                    l718 06D4                      l680 0564                      l674 04B6  
                    l668 0582                      l687 0B09                      l689 0B1B  
                    _GIE 005F                      _ISR 0B7A                      fsr0 0004  
                    indf 0000             ___flmul@aexp 00A1             ___flmul@bexp 00A6  
           ___flmul@sign 00A0             ___flmul@temp 00AB             ___flmul@prod 00A7  
                   ?_ISR 0070             ___fltol@exp1 0054                     l2011 0677  
                   l2021 06A5                     l2013 0687                     l2031 06DB  
                   l2023 06B2                     l2015 0697                     l2007 066E  
                   l2201 0084                     l2041 0714                     l2033 06E6  
                   l2025 06B9                     l2009 0673                     l2131 0B12  
                   l2123 0AF6                     l2211 00A7                     l2203 0089  
                   l2043 0719                     l2035 06EA                     l2027 06BD  
                   l2019 06A0                     l2133 0B17                     l2125 0AF8  
                   l2301 0542                     l2221 00EC                     l2213 00AC  
                   l2205 0093                     l2045 071D                     l2037 06F4  
                   l2029 06CB                     l2127 0AFF                     l2303 0554  
                   l2231 01F9                     l2223 0121                     l2207 0096  
                   l2151 0769                     l2143 0741                     l2047 071E  
                   l2039 06FE                     l1521 0C82                     l2129 0B03  
                   l2305 0558                     l2241 02A0                     l2233 0208  
                   l2225 0151                     l2217 00B7                     l2209 00A0  
                   l2153 076D                     l2161 078B                     l2145 075A  
                   l2137 0727                     l2321 05A2                     l2313 0583  
                   l1531 0CB1                     l1523 0C94                     l1611 0BEE  
                   l2307 0559                     l2251 03AC                     l2243 02C5  
                   l2235 021E                     l2227 0199                     l2219 00CF  
                   l2171 07AB                     l2147 075D                     l2139 0736  
                   l2331 063F                     l2323 05A9                     l2315 0588  
                   l1533 0CC3                     l1525 0C97                     l1541 0CE1  
                   l1613 0BF1                     l1517 0AB6                     l1621 0C27  
                   l2309 056C                     l2261 0468                     l2253 03EA  
                   l2245 02FA                     l2237 0253                     l2229 01C9  
                   l2181 0040                     l2173 0024                     l2149 0765  
                   l2333 0645                     l2325 05AE                     l2317 0597  
                   l1535 0CD1                     l1527 0CA4                     l1615 0C20  
                   l1519 0ABC                     l2271 048A                     l2263 046E  
                   l2255 0432                     l2247 0347                     l2239 026B  
                   l2191 0063                     l2183 0047                     l2175 002D  
                   l2167 0792                     l2159 0775                     l1607 0AD1  
                   l2335 0650                     l2327 05C8                     l2319 059D  
                   l1537 0CD2                     l1529 0CA8                     l1617 0C21  
                   l1609 0BEA                     l1625 0C5E                     l1641 0AE7  
                   l1633 0AE0                     l1801 0EAF                     l2281 04BD  
                   l2273 048B                     l2265 046F                     l2257 0441  
                   l2249 035F                     l2193 006A                     l2185 004C  
                   l2177 0037                     l2169 07A6                     l2337 065C  
                   l2329 05D7                     l1539 0CDB                     l1619 0C22  
                   l1651 0AF0                     l1643 0AE8                     l1635 0AE4  
                   l1811 0EEA                     l1803 0EB0                     l1731 0D84  
                   l2283 04C2                     l2291 050F                     l2275 048F  
                   l2267 047E                     l2259 0459                     l2195 0074  
                   l2187 0056                     l2179 003D                     l1661 0B4D  
                   l1653 0AF1                     l1645 0AEB                     l1637 0AE5  
                   l1821 0F0D                     l1813 0EEC                     l1805 0ED8  
                   l1741 0D9F                     l1733 0D87                     l1725 0D6B  
                   l2293 051C                     l2285 04D0                     l2277 04B1  
                   l2269 0486                     l2197 007A                     l2189 0059  
                   l1671 0B73                     l1663 0B55                     l1655 0A99  
                   l1647 0AEC                     l1639 0AE6                     l1831 0F34  
                   l1815 0EFB                     l1823 0F13                     l1807 0EDC  
                   l1751 0DC2                     l1735 0D8E                     l1743 0DA1  
                   l1727 0D74                     l2295 0527                     l2287 04D4  
                   l2199 007D                     l1665 0B5E                     l1657 0A9E  
                   l2369 0C66                     l1649 0AED                     l1681 0ACC  
                   l1841 0F5B                     l1825 0F19                     l1817 0EFF  
                   l1809 0EE2                     l1761 0DDD                     l1753 0DC5  
                   l1745 0DAB                     l1737 0D93                     l1729 0D7E  
                   l2297 0536                     l2289 0509                     l1667 0B63  
                   l1659 0B48                     l1675 0AA2                     l1683 0A91  
                   l1851 0FC6                     l1843 0F90                     l1835 0F40  
                   l1827 0F1C                     l1819 0F02                     l1755 0DCC  
                   l1763 0DDF                     l1747 0DB2                     l1739 0D9D  
                   l2299 0540                     l1669 0B6B                     l1677 0AA7  
                   l1685 0A97                     l1861 0FE5                     l1853 0FCA  
                   l1837 0F47                     l1845 0F98                     l1829 0F20  
                   l1781 0E32                     l1765 0DF1                     l1773 0E0E  
                   l1757 0DD1                     l1749 0DBC                     l1679 0AC6  
                   l1855 0FD4                     l1847 0FA7                     l1839 0F57  
                   l1791 0E65                     l1783 0E4A                     l1775 0E15  
                   l1767 0DFD                     l1759 0DDB                     l1857 0FDD  
                   l1849 0FB7                     l1793 0E7B                     l1785 0E54  
                   l1769 0E05                     l1859 0FE1                     l1795 0E7F  
                   l1787 0E5E                     l1779 0E20                     l1797 0E82  
                   l1789 0E60                     l1799 0E8D                     u1400 0AC2  
                   u3000 0536                     u1401 0AC1                     u3001 0535  
                   u1410 0C94                     u3010 0558                     u1411 0C93  
                   u3011 0557                     u3020 05A9                     u3005 0532  
                   u3021 05A8                     u1430 0CA8                     u1431 0CA7  
                   u2400 06B8                     u1425 0C99                     u2401 06B7  
                   u1450 0CC3                     u1451 0CC2                     u1700 0D8E  
                   u2420 06DA                     u1445 0CAA                     u1701 0D8D  
                   u2421 06D9                     u3037 05D0                     u1470 0CE1  
                   u1550 0C01                     u1390 0ABC                     u1710 0D93  
                   u1471 0CE0                     u1455 0CBF                     u1391 0ABB  
                   u1711 0D92                     u2415 06CC                     u3047 064B  
                   u1560 0B6B                     u1800 0E7F                     u1720 0DC2  
                   u2520 0B03                     u2600 078A                     u2440 06EA  
                   u2360 0673                     u1465 0CD3                     u1561 0B6A  
                   u1801 0E7E                     u1721 0DC1                     u2521 0B02  
                   u2601 0789                     u2441 06E9                     u2361 0672  
                   u3057 0662                     u1570 0ACC                     u1730 0DCC  
                   u2610 0791                     u2450 06F0                     u2370 0677  
                   u1555 0BFC                     u1571 0ACB                     u1731 0DCB  
                   u2611 0790                     u2451 06EF                     u2435 06DF  
                   u2371 0676                     u1580 0A97                     u1900 0F20  
                   u1820 0EAF                     u1740 0DD1                     u2540 0B17  
                   u2700 0089                     u2460 06F4                     u2380 0697  
                   u1581 0A96                     u1901 0F1F                     u1821 0EAE  
                   u1741 0DD0                     u2541 0B16                     u2701 0088  
                   u2461 06F3                     u2381 0696                     u1910 0F34  
                   u1830 0ED4                     u1750 0DF1                     u2710 00A7  
                   u2630 07A6                     u2550 0736                     u2470 0709  
                   u1911 0F33                     u1815 0E86                     u1751 0DF0  
                   u2535 0B0A                     u2711 00A6                     u2631 07A5  
                   u2551 0735                     u1920 0F3F                     u1840 0EE2  
                   u1760 0E15                     u2720 00AC                     u2640 07AB  
                   u2560 0751                     u2480 0719                     u1921 0F3E  
                   u1841 0EE1                     u1825 0EAB                     u1761 0E14  
                   u2721 00AB                     u2641 07AA                     u2625 0796  
                   u2481 0718                     u1930 0F47                     u1850 0EEA  
                   u1770 0E65                     u1690 0D84                     u2650 003D  
                   u2570 076D                     u2490 071D                     u1931 0F46  
                   u1851 0EE9                     u1835 0EBD                     u1771 0E64  
                   u1691 0D83                     u2811 02E0                     u2731 0137  
                   u2651 003C                     u2571 076C                     u2491 071C  
                   u2475 0704                     u2395 06AA                     u1940 0F5B  
                   u1836 0EC0                     u2900 046E                     u2812 02EB  
                   u2732 0142                     u2660 0047                     u2580 0774  
                   u1941 0F5A                     u1837 0EC7                     u2901 046D  
                   u2821 032D                     u2813 02F6                     u2805 02A4  
                   u2741 0167                     u2733 014D                     u2661 0046  
                   u2581 0773                     u2565 074C                     u1950 0F78  
                   u1870 0EFF                     u1838 0ECA                     u2822 0338  
                   u2742 0172                     u2670 004C                     u1871 0EFE  
                   u1839 0ED1                     u2831 037A                     u2823 0343  
                   u2751 01AF                     u2743 017D                     u2671 004B  
                   u1960 0FA7                     u2920 048A                     u2840 03BE  
                   u2832 0385                     u2752 01BA                     u2680 007A  
                   u1961 0FA6                     u1865 0EF0                     u1785 0E67  
                   u2921 0489                     u2833 0390                     u2761 01DF  
                   u2753 01C5                     u2681 0079                     u1970 0FC6  
                   u1890 0F19                     u2930 048F                     u2762 01EA  
                   u2690 0084                     u1971 0FC5                     u1955 0F73  
                   u1891 0F18                     u1795 0E70                     u2931 048E  
                   u2915 0473                     u2851 03D0                     u2763 01F5  
                   u2691 0083                     u2595 0776                     _PEIE 005E  
                   u1980 0FE1                     u2940 04B1                     u2860 0406  
                   u2852 03DB                     u1981 0FE0                     u1965 0FA3  
                   u1885 0F06                     u2941 04B0                     u2853 03E6  
                   u2845 03B9                     u2781 0239                     u2950 04BC  
                   u2782 0244                     u1975 0FC2                     u2951 04BB  
                   u2871 0418                     u2791 0286                     u2783 024F  
                   u2775 01FD                     u2960 04C2                     u2872 0423  
                   u2792 0291                     u2961 04C1                     u2873 042E  
                   u2865 0401                     u2793 029C                     u2970 04D4  
                   u2971 04D3                     u2980 04F1                     _RCEN 048B  
                   _RCIF 0065                     u2885 0436                     u2990 051C  
                   u2991 051B                     u2895 045D                     u2985 04EC  
                   u2995 0518                     i1l84 0AB5                     i1l68 0BA7  
                   _TRMT 04C1              InitOSC@frec 0032                     _Read 0AAB  
                   _main 0583                     _itoa 0B1C         __end_of_I2C_Init 0C24  
                   btemp 007E                     _utoa 0CEA                     start 0010  
        ___fldiv@new_exp 00B7          __end_of_InitOSC 0C82                    ??_ISR 002B  
                  ?_Read 0070            ___fltol@sign1 0053                    ?_main 0070  
        __end_of___fldiv 1000                    ?_itoa 0024          __end_of___flmul 0583  
        __end_of___fltol 07B9          __end_of___lldiv 0CEA                    ?_utoa 0078  
        __end_of___lwdiv 07FD          __end_of___lwmod 0BEA                    i1l551 07FC  
                  i1l561 0BE9                    i1l741 0D6A                    i1l733 0B47  
                  i1l739 0D4B                    _RCREG 001A                    _SPBRG 0099  
                  _PORTA 0005                    _PORTB 0006                    _PORTC 0007  
                  _PORTD 0008                    _PORTE 0009                    _TRISA 0085  
                  _TRISB 0086                    _TRISC 0087                    _TRISD 0088  
                  _SSPIE 0463                    _TRISE 0089                    _SSPIF 0063  
                  _TXREG 0019                    Read@n 0070       __size_of_UART_READ 0008  
            ?_UART_Write 0070                    _setup 0AD1                    pclath 000A  
                  utoa@c 0023                    utoa@v 0021                    status 0003  
                  wtemp0 007E             ?_SERIAL_Init 0070          __initialization 0013  
           __end_of_Read 0AB6             __end_of_main 066B             __end_of_itoa 0B48  
           __end_of_utoa 0D6B                   ??_Read 0072                   ??_main 00C8  
                 ??_itoa 002A                   ??_utoa 0020           I2C_M_Read@temp 0034  
              I2C_Init@a 003E             ??_I2C_M_Read 0032             ??_I2C_M_Wait 0030  
           ??_I2C_M_Stop 0030                   ?_setup 0070              _Destination 0055  
                 i1l2051 0B7A                   i1l1501 0BC0                   i1l2053 0B7E  
                 i1l1511 0BDF                   i1l1503 0BC4                   i1l2055 0B90  
                 i1l1505 0BC8                   i1l1513 0BE5                   i1l1601 0B31  
                 i1l2057 0BA4                   i1l1507 0BD2                   i1l1603 0B36  
                 i1l1509 0BD8                   i1l1471 07BB                   i1l1481 07D3  
                 i1l1473 07C1                   i1l1561 0CF0                   i1l1483 07E4  
                 i1l1475 07C4                   i1l1491 07F8                   i1l1571 0D1B  
                 i1l1563 0D03                   i1l1485 07EA                   i1l1477 07CB  
                 i1l1469 07B9                   i1l1581 0D58                   i1l1573 0D2E  
                 i1l1565 0D09                   i1l1487 07EB                   i1l1479 07CF  
                 i1l1495 0BB0                   i1l1583 0D5E                   i1l1575 0D3F  
                 i1l1567 0D0F                   i1l1559 0CEA                   u130_20 07E4  
                 i1l1489 07F2                   u130_21 07E3                   i1l1497 0BB6  
                 i1l1585 0D64                   i1l1577 0D47                   i1l1569 0D15  
                 i1l1593 0B1C                   i1l1499 0BB9                   i1l1579 0D4F  
                 i1l1595 0B1C                   i1l1589 0AAB                   u130_25 07E0  
                 i1l1597 0B22                   i1l1599 0B2B                   u131_25 07EC  
                 u132_20 07F8                   u132_21 07F7                   u133_20 0BB6  
                 u133_21 0BB5                   u126_20 07C1                   u126_21 07C0  
                 u134_25 0BBA                   u135_20 0BC8                   u151_20 0D0F  
                 u135_21 0BC7                   u151_21 0D0E                   u127_25 07C5  
                 u128_20 07D3                   u136_20 0BD2                   u152_20 0D47  
                 u128_21 07D2                   u136_21 0BD1                   u152_21 0D46  
                 u136_25 0BCE                   u153_20 0D64                   u153_21 0D63  
                 u129_25 07D4                   u137_25 0BD9                   u138_20 0BE5  
                 u154_20 0B22                   u250_20 0B7E                   u138_21 0BE4  
                 u154_21 0B21                   u250_21 0B7D                   _SSPADD 0093  
                 _TRISC3 043B                   _TRISC4 043C                   _SSPCON 0014  
                 _SSPBUF 0013         __end_of___xxtofl 0727                ??_InitOSC 0030  
                 _Enviar 005B        __end_of_UART_READ 0A99      __size_of_UART_Write 000E  
              ??___fldiv 00AD                ??___flmul 0046                ??___fltol 00C3  
              ??___lldiv 0038                ??___lwdiv 0074                ??___lwmod 0074  
     __end_of_I2C_M_Read 0B7A       __end_of_I2C_M_Wait 0AC3       __end_of_I2C_M_Stop 0AAB  
                 _sensor 005D                ?_I2C_Init 003E       __size_of__Umul8_16 0029  
                 saved_w 007E             ___xxtofl@arg 003A             ___xxtofl@exp 0039  
           ___xxtofl@val 0030  __end_of__initialization 0020               ___fltol@f1 00BF  
         __pcstackCOMMON 0070            __end_of_setup 0AE0               ??_I2C_Init 0042  
                ??_setup 0030               __pbssBANK0 0055        __end_of__Umul8_16 0B1C  
             __pmaintext 0583            ??_I2C_M_Start 0030     __size_of_SERIAL_Init 0013  
             __pintentry 0004                  _COMPARE 005F                ?___xxtofl 0030  
           ??_UART_Write 0030                  _SSPCON2 0091                  _SSPSTAT 0094  
                _InitOSC 0C24                  ___fldiv 0D6B                  ___flmul 0024  
                ___fltol 0727                  ___lldiv 0C82       __end_of_UART_Write 0AD1  
                ___lwdiv 07B9                  ___lwmod 0BB0                  __ptext1 0AD1  
                __ptext2 066B                  __ptext3 0727                  __ptext4 0024  
                __ptext5 0AF3                  __ptext6 0D6B                  __ptext7 0AC3  
                __ptext8 0A91                  __ptext9 0AE0             __size_of_ISR 0036  
    __end_of_I2C_M_Start 0AA2               ??___xxtofl 0034              UART_Write@a 0030  
   end_of_initialization 0020                  itoa@buf 0024                  itoa@val 0026  
        ___lldiv@divisor 0030          ___lldiv@counter 003D                _RCSTAbits 0018  
                utoa@buf 0078                  utoa@val 007A                _UART_READ 0A91  
              _PORTDbits 0008            ___xxtofl@sign 0038                _TRISCbits 0087  
      __size_of_I2C_Init 003A              ___fldiv@grs 00B9              ___fldiv@rem 00B2  
            ___flmul@grs 00A2                _TXSTAbits 0098              _I2C_M_Start 0A99  
             ?_UART_READ 0070      start_initialization 0013              __end_of_ISR 0BB0  
              __Umul8_16 0AF3                ___fldiv@a 004B                ___fldiv@b 004F  
              ___flmul@a 0042                ___flmul@b 003E                ___latbits 0002  
          __pcstackBANK0 0020            __pcstackBANK1 00A0        __size_of___xxtofl 00BC  
            I2C_M_Read@a 0030                 ?_InitOSC 0070            ??_SERIAL_Init 0030  
       ___lwdiv@dividend 0072                 ?___fldiv 004B                 ?___flmul 003E  
               ?___fltol 00BF                 ?___lldiv 0030               ?__Umul8_16 0030  
               ?___lwdiv 0070                 ?___lwmod 0070              ??_UART_READ 0030  
               _I2C_Init 0BEA         ___lwdiv@quotient 0075           __size_of_setup 000F  
      interrupt_function 0004                 _PIE1bits 008C      __end_of_SERIAL_Init 0AF3  
             _I2C_M_Read 0B48               _I2C_M_Wait 0AB6               _I2C_M_Stop 0AA2  
       __size_of_InitOSC 005E             ?_I2C_M_Start 0070              ??__Umul8_16 0032  
       __size_of___fldiv 0295         __size_of___flmul 055F         __size_of___fltol 0092  
       __size_of___lldiv 0068         __size_of___lwdiv 0044         __size_of___lwmod 003A  
               ___xxtofl 066B          ___lwdiv@divisor 0070          ___lwdiv@counter 0077  
               __ptext10 0C24                 __ptext11 0AA2                 __ptext20 0BB0  
               __ptext12 0A99                 __ptext21 07B9                 __ptext13 0B48  
               __ptext22 0AAB                 __ptext14 0AB6                 __ptext15 0BEA  
               __ptext16 0C82                 __ptext17 0B7A                 __ptext18 0B1C  
               __ptext19 0CEA            __size_of_Read 000B            __size_of_main 00E8  
          __size_of_itoa 002C            __size_of_utoa 0081           _DatoIntermedio 0059  
            _SERIAL_Init 0AE0               _INTCONbits 000B                 itoa@base 0028  
            ?_I2C_M_Read 0030              ?_I2C_M_Wait 0070              ?_I2C_M_Stop 0070  
               intlevel1 0000         ___lwmod@dividend 0072         ___lldiv@dividend 0034  
             _OSCCONbits 008F                 utoa@base 007C   __Umul8_16@multiplicand 0030  
       ___lldiv@quotient 0039          ___lwmod@divisor 0070          ___lwmod@counter 0075  
             _UART_Write 0AC3              _SSPCON2bits 0091     __Umul8_16@multiplier 0038  
      __Umul8_16@product 0034  
