

Microchip MPLAB XC8 Assembler V2.31 build 20201012212115 
                                                                                               Mon Feb 22 20:10:58 2021

Microchip MPLAB XC8 C Compiler v2.31 (Free license) build 20201012212115 Og1 
     1                           	processor	16F887
     2                           	pagewidth 120
     3                           	opt	flic
     4                           	psect	strings,global,class=STRING,delta=2,noexec
     5                           	psect	cinit,global,class=CODE,merge=1,delta=2
     6                           	psect	bssBANK0,global,class=BANK0,space=1,delta=1,noexec
     7                           	psect	bssBANK1,global,class=BANK1,space=1,delta=1,noexec
     8                           	psect	clrtext,global,class=CODE,delta=2
     9                           	psect	cstackCOMMON,global,class=COMMON,space=1,delta=1,noexec
    10                           	psect	cstackBANK0,global,class=BANK0,space=1,delta=1,noexec
    11                           	psect	maintext,global,class=CODE,split=1,delta=2
    12                           	psect	text1,local,class=CODE,merge=1,delta=2,group=2
    13                           	psect	text2,local,class=CODE,merge=1,delta=2,group=2
    14                           	psect	text3,local,class=CODE,merge=1,delta=2
    15                           	psect	text4,local,class=CODE,merge=1,delta=2,group=2
    16                           	psect	text5,local,class=CODE,merge=1,delta=2,group=2
    17                           	psect	text6,local,class=CODE,merge=1,delta=2,group=1
    18                           	psect	text7,local,class=CODE,merge=1,delta=2,group=1
    19                           	psect	text8,local,class=CODE,merge=1,delta=2,group=1
    20                           	psect	text9,local,class=CODE,merge=1,delta=2,group=1
    21                           	psect	text10,local,class=CODE,merge=1,delta=2,group=1
    22                           	psect	text11,local,class=CODE,merge=1,delta=2,group=1
    23                           	psect	text12,local,class=CODE,merge=1,delta=2,group=1
    24                           	psect	text13,local,class=CODE,merge=1,delta=2,group=1
    25                           	psect	text14,local,class=CODE,merge=1,delta=2,group=1
    26                           	psect	text15,local,class=CODE,merge=1,delta=2
    27                           	psect	text16,local,class=CODE,merge=1,delta=2
    28                           	psect	text17,local,class=CODE,merge=1,delta=2
    29                           	psect	text18,local,class=CODE,merge=1,delta=2
    30                           	psect	text19,local,class=CODE,merge=1,delta=2
    31                           	psect	config,global,abs,ovrld,class=CONFIG,space=4,delta=2,noexec
    32                           	dabs	1,0x7E,2
    33  0000                     
    34                           ; Version 2.20
    35                           ; Generated 12/02/2020 GMT
    36                           ; 
    37                           ; Copyright © 2020, Microchip Technology Inc. and its subsidiaries ("Microchip")
    38                           ; All rights reserved.
    39                           ; 
    40                           ; This software is developed by Microchip Technology Inc. and its subsidiaries ("Microch
      +                          ip").
    41                           ; 
    42                           ; Redistribution and use in source and binary forms, with or without modification, are
    43                           ; permitted provided that the following conditions are met:
    44                           ; 
    45                           ;     1. Redistributions of source code must retain the above copyright notice, this lis
      +                          t of
    46                           ;        conditions and the following disclaimer.
    47                           ; 
    48                           ;     2. Redistributions in binary form must reproduce the above copyright notice, this 
      +                          list
    49                           ;        of conditions and the following disclaimer in the documentation and/or other
    50                           ;        materials provided with the distribution.
    51                           ; 
    52                           ;     3. Microchip's name may not be used to endorse or promote products derived from th
      +                          is
    53                           ;        software without specific prior written permission.
    54                           ; 
    55                           ; THIS SOFTWARE IS PROVIDED BY MICROCHIP "AS IS" AND ANY EXPRESS OR IMPLIED WARRANTIES,
    56                           ; INCLUDING, BUT NOT LIMITED TO, THE IMPLIED WARRANTIES OF MERCHANTABILITY AND FITNESS F
      +                          OR
    57                           ; PURPOSE ARE DISCLAIMED.  IN NO EVENT SHALL MICROCHIP BE LIABLE FOR ANY DIRECT, INDIREC
      +                          T,
    58                           ; INCIDENTAL, SPECIAL, EXEMPLARY, OR CONSEQUENTIAL DAMAGES (INCLUDING BUT NOT LIMITED TO
    59                           ; PROCUREMENT OF SUBSTITUTE GOODS OR SERVICES; LOSS OF USE, DATA OR PROFITS; OR BUSINESS
    60                           ; INTERRUPTION) HOWSOEVER CAUSED AND ON ANY THEORY OF LIABILITY, WHETHER IN CONTRACT, ST
      +                          RICT
    61                           ; LIABILITY, OR TORT (INCLUDING NEGLIGENCE OR OTHERWISE) ARISING IN ANY WAY OUT OF THE U
      +                          SE OF
    62                           ; THIS SOFTWARE, EVEN IF ADVISED OF THE POSSIBILITY OF SUCH DAMAGE.
    63                           ; 
    64                           ; 
    65                           ; Code-generator required, PIC16F887 Definitions
    66                           ; 
    67                           ; SFR Addresses
    68  0000                     	;# 
    69  0001                     	;# 
    70  0002                     	;# 
    71  0003                     	;# 
    72  0004                     	;# 
    73  0005                     	;# 
    74  0006                     	;# 
    75  0007                     	;# 
    76  0008                     	;# 
    77  0009                     	;# 
    78  000A                     	;# 
    79  000B                     	;# 
    80  000C                     	;# 
    81  000D                     	;# 
    82  000E                     	;# 
    83  000E                     	;# 
    84  000F                     	;# 
    85  0010                     	;# 
    86  0011                     	;# 
    87  0012                     	;# 
    88  0013                     	;# 
    89  0014                     	;# 
    90  0015                     	;# 
    91  0015                     	;# 
    92  0016                     	;# 
    93  0017                     	;# 
    94  0018                     	;# 
    95  0019                     	;# 
    96  001A                     	;# 
    97  001B                     	;# 
    98  001B                     	;# 
    99  001C                     	;# 
   100  001D                     	;# 
   101  001E                     	;# 
   102  001F                     	;# 
   103  0081                     	;# 
   104  0085                     	;# 
   105  0086                     	;# 
   106  0087                     	;# 
   107  0088                     	;# 
   108  0089                     	;# 
   109  008C                     	;# 
   110  008D                     	;# 
   111  008E                     	;# 
   112  008F                     	;# 
   113  0090                     	;# 
   114  0091                     	;# 
   115  0092                     	;# 
   116  0093                     	;# 
   117  0093                     	;# 
   118  0093                     	;# 
   119  0094                     	;# 
   120  0095                     	;# 
   121  0096                     	;# 
   122  0097                     	;# 
   123  0098                     	;# 
   124  0099                     	;# 
   125  009A                     	;# 
   126  009B                     	;# 
   127  009C                     	;# 
   128  009D                     	;# 
   129  009E                     	;# 
   130  009F                     	;# 
   131  0105                     	;# 
   132  0107                     	;# 
   133  0108                     	;# 
   134  0109                     	;# 
   135  010C                     	;# 
   136  010C                     	;# 
   137  010D                     	;# 
   138  010E                     	;# 
   139  010F                     	;# 
   140  0185                     	;# 
   141  0187                     	;# 
   142  0188                     	;# 
   143  0189                     	;# 
   144  018C                     	;# 
   145  018D                     	;# 
   146  0000                     	;# 
   147  0001                     	;# 
   148  0002                     	;# 
   149  0003                     	;# 
   150  0004                     	;# 
   151  0005                     	;# 
   152  0006                     	;# 
   153  0007                     	;# 
   154  0008                     	;# 
   155  0009                     	;# 
   156  000A                     	;# 
   157  000B                     	;# 
   158  000C                     	;# 
   159  000D                     	;# 
   160  000E                     	;# 
   161  000E                     	;# 
   162  000F                     	;# 
   163  0010                     	;# 
   164  0011                     	;# 
   165  0012                     	;# 
   166  0013                     	;# 
   167  0014                     	;# 
   168  0015                     	;# 
   169  0015                     	;# 
   170  0016                     	;# 
   171  0017                     	;# 
   172  0018                     	;# 
   173  0019                     	;# 
   174  001A                     	;# 
   175  001B                     	;# 
   176  001B                     	;# 
   177  001C                     	;# 
   178  001D                     	;# 
   179  001E                     	;# 
   180  001F                     	;# 
   181  0081                     	;# 
   182  0085                     	;# 
   183  0086                     	;# 
   184  0087                     	;# 
   185  0088                     	;# 
   186  0089                     	;# 
   187  008C                     	;# 
   188  008D                     	;# 
   189  008E                     	;# 
   190  008F                     	;# 
   191  0090                     	;# 
   192  0091                     	;# 
   193  0092                     	;# 
   194  0093                     	;# 
   195  0093                     	;# 
   196  0093                     	;# 
   197  0094                     	;# 
   198  0095                     	;# 
   199  0096                     	;# 
   200  0097                     	;# 
   201  0098                     	;# 
   202  0099                     	;# 
   203  009A                     	;# 
   204  009B                     	;# 
   205  009C                     	;# 
   206  009D                     	;# 
   207  009E                     	;# 
   208  009F                     	;# 
   209  0105                     	;# 
   210  0107                     	;# 
   211  0108                     	;# 
   212  0109                     	;# 
   213  010C                     	;# 
   214  010C                     	;# 
   215  010D                     	;# 
   216  010E                     	;# 
   217  010F                     	;# 
   218  0185                     	;# 
   219  0187                     	;# 
   220  0188                     	;# 
   221  0189                     	;# 
   222  018C                     	;# 
   223  018D                     	;# 
   224  0000                     	;# 
   225  0001                     	;# 
   226  0002                     	;# 
   227  0003                     	;# 
   228  0004                     	;# 
   229  0005                     	;# 
   230  0006                     	;# 
   231  0007                     	;# 
   232  0008                     	;# 
   233  0009                     	;# 
   234  000A                     	;# 
   235  000B                     	;# 
   236  000C                     	;# 
   237  000D                     	;# 
   238  000E                     	;# 
   239  000E                     	;# 
   240  000F                     	;# 
   241  0010                     	;# 
   242  0011                     	;# 
   243  0012                     	;# 
   244  0013                     	;# 
   245  0014                     	;# 
   246  0015                     	;# 
   247  0015                     	;# 
   248  0016                     	;# 
   249  0017                     	;# 
   250  0018                     	;# 
   251  0019                     	;# 
   252  001A                     	;# 
   253  001B                     	;# 
   254  001B                     	;# 
   255  001C                     	;# 
   256  001D                     	;# 
   257  001E                     	;# 
   258  001F                     	;# 
   259  0081                     	;# 
   260  0085                     	;# 
   261  0086                     	;# 
   262  0087                     	;# 
   263  0088                     	;# 
   264  0089                     	;# 
   265  008C                     	;# 
   266  008D                     	;# 
   267  008E                     	;# 
   268  008F                     	;# 
   269  0090                     	;# 
   270  0091                     	;# 
   271  0092                     	;# 
   272  0093                     	;# 
   273  0093                     	;# 
   274  0093                     	;# 
   275  0094                     	;# 
   276  0095                     	;# 
   277  0096                     	;# 
   278  0097                     	;# 
   279  0098                     	;# 
   280  0099                     	;# 
   281  009A                     	;# 
   282  009B                     	;# 
   283  009C                     	;# 
   284  009D                     	;# 
   285  009E                     	;# 
   286  009F                     	;# 
   287  0105                     	;# 
   288  0107                     	;# 
   289  0108                     	;# 
   290  0109                     	;# 
   291  010C                     	;# 
   292  010C                     	;# 
   293  010D                     	;# 
   294  010E                     	;# 
   295  010F                     	;# 
   296  0185                     	;# 
   297  0187                     	;# 
   298  0188                     	;# 
   299  0189                     	;# 
   300  018C                     	;# 
   301  018D                     	;# 
   302  0000                     	;# 
   303  0001                     	;# 
   304  0002                     	;# 
   305  0003                     	;# 
   306  0004                     	;# 
   307  0005                     	;# 
   308  0006                     	;# 
   309  0007                     	;# 
   310  0008                     	;# 
   311  0009                     	;# 
   312  000A                     	;# 
   313  000B                     	;# 
   314  000C                     	;# 
   315  000D                     	;# 
   316  000E                     	;# 
   317  000E                     	;# 
   318  000F                     	;# 
   319  0010                     	;# 
   320  0011                     	;# 
   321  0012                     	;# 
   322  0013                     	;# 
   323  0014                     	;# 
   324  0015                     	;# 
   325  0015                     	;# 
   326  0016                     	;# 
   327  0017                     	;# 
   328  0018                     	;# 
   329  0019                     	;# 
   330  001A                     	;# 
   331  001B                     	;# 
   332  001B                     	;# 
   333  001C                     	;# 
   334  001D                     	;# 
   335  001E                     	;# 
   336  001F                     	;# 
   337  0081                     	;# 
   338  0085                     	;# 
   339  0086                     	;# 
   340  0087                     	;# 
   341  0088                     	;# 
   342  0089                     	;# 
   343  008C                     	;# 
   344  008D                     	;# 
   345  008E                     	;# 
   346  008F                     	;# 
   347  0090                     	;# 
   348  0091                     	;# 
   349  0092                     	;# 
   350  0093                     	;# 
   351  0093                     	;# 
   352  0093                     	;# 
   353  0094                     	;# 
   354  0095                     	;# 
   355  0096                     	;# 
   356  0097                     	;# 
   357  0098                     	;# 
   358  0099                     	;# 
   359  009A                     	;# 
   360  009B                     	;# 
   361  009C                     	;# 
   362  009D                     	;# 
   363  009E                     	;# 
   364  009F                     	;# 
   365  0105                     	;# 
   366  0107                     	;# 
   367  0108                     	;# 
   368  0109                     	;# 
   369  010C                     	;# 
   370  010C                     	;# 
   371  010D                     	;# 
   372  010E                     	;# 
   373  010F                     	;# 
   374  0185                     	;# 
   375  0187                     	;# 
   376  0188                     	;# 
   377  0189                     	;# 
   378  018C                     	;# 
   379  018D                     	;# 
   380  0013                     _SSPBUF	set	19
   381  0014                     _SSPCON	set	20
   382  001E                     _ADRESH	set	30
   383  000C                     _PIR1bits	set	12
   384  001F                     _ADCON0bits	set	31
   385  0009                     _PORTE	set	9
   386  0008                     _PORTD	set	8
   387  0007                     _PORTC	set	7
   388  0006                     _PORTB	set	6
   389  0005                     _PORTA	set	5
   390  0063                     _SSPIF	set	99
   391  0094                     _SSPSTATbits	set	148
   392  0087                     _TRISCbits	set	135
   393  009F                     _ADCON1bits	set	159
   394  008F                     _OSCCONbits	set	143
   395  0089                     _TRISE	set	137
   396  0088                     _TRISD	set	136
   397  0086                     _TRISB	set	134
   398  0085                     _TRISA	set	133
   399  0189                     _ANSELH	set	393
   400  0188                     _ANSEL	set	392
   401                           
   402                           	psect	strings
   403  0800                     __pstrings:
   404  0800                     stringtab:
   405  0800                     __stringtab:
   406  0800                     stringcode:	
   407                           ;	String table - string pointers are 1 byte each
   408                           
   409  0800                     stringdir:
   410  0800  3008               	movlw	high stringdir
   411  0801  008A               	movwf	10
   412  0802  0804               	movf	4,w
   413  0803  0A84               	incf	4,f
   414  0804  0782               	addwf	2,f
   415  0805                     __stringbase:
   416  0805  3400               	retlw	0
   417  0806                     __end_of__stringtab:
   418  0806                     STR_1:
   419  0806  342E               	retlw	46	;'.'
   420  0807  3400               	retlw	0
   421                           
   422                           	psect	cinit
   423  07EB                     start_initialization:	
   424                           ; #config settings
   425                           
   426  07EB                     __initialization:
   427                           
   428                           ; Clear objects allocated to BANK0
   429  07EB  1383               	bcf	3,7	;select IRP bank0
   430  07EC  3058               	movlw	low __pbssBANK0
   431  07ED  0084               	movwf	4
   432  07EE  3070               	movlw	low (__pbssBANK0+24)
   433  07EF  120A  158A  2530  120A  118A  	fcall	clear_ram0
   434                           
   435                           ; Clear objects allocated to BANK1
   436  07F4  30A0               	movlw	low __pbssBANK1
   437  07F5  0084               	movwf	4
   438  07F6  30AA               	movlw	low (__pbssBANK1+10)
   439  07F7  120A  158A  2530  120A  118A  	fcall	clear_ram0
   440  07FC                     end_of_initialization:	
   441                           ;End of C runtime variable initialization code
   442                           
   443  07FC                     __end_of__initialization:
   444  07FC  0183               	clrf	3
   445  07FD  120A  118A  294F   	ljmp	_main	;jump to C main() function
   446                           
   447                           	psect	bssBANK0
   448  0058                     __pbssBANK0:
   449  0058                     _voltaje:
   450  0058                     	ds	4
   451  005C                     _POT1C:
   452  005C                     	ds	2
   453  005E                     _POT1B:
   454  005E                     	ds	2
   455  0060                     _POT1A:
   456  0060                     	ds	2
   457  0062                     _V1:
   458  0062                     	ds	2
   459  0064                     _Ready:
   460  0064                     	ds	1
   461  0065                     _adc:
   462  0065                     	ds	1
   463  0066                     _POT1SC:
   464  0066                     	ds	5
   465  006B                     _POT1SB:
   466  006B                     	ds	5
   467                           
   468                           	psect	bssBANK1
   469  00A0                     __pbssBANK1:
   470  00A0                     _PUNTO1:
   471  00A0                     	ds	5
   472  00A5                     _POT1SA:
   473  00A5                     	ds	5
   474                           
   475                           	psect	clrtext
   476  0D30                     clear_ram0:	
   477                           ;	Called with FSR containing the base address, and
   478                           ;	W with the last address+1
   479                           
   480  0D30  0064               	clrwdt	;clear the watchdog before getting into this loop
   481  0D31                     clrloop0:
   482  0D31  0180               	clrf	0	;clear RAM location pointed to by FSR
   483  0D32  0A84               	incf	4,f	;increment pointer
   484  0D33  0604               	xorwf	4,w	;XOR with final address
   485  0D34  1903               	btfsc	3,2	;have we reached the end yet?
   486  0D35  3400               	retlw	0	;all done for this memory range, return
   487  0D36  0604               	xorwf	4,w	;XOR again to restore value
   488  0D37  2D31               	goto	clrloop0	;do the next byte
   489                           
   490                           	psect	cstackCOMMON
   491  0070                     __pcstackCOMMON:
   492  0070                     ?_setup:
   493  0070                     ??_setup:	
   494                           ; 1 bytes @ 0x0
   495                           
   496  0070                     ?_ADC_Init:	
   497                           ; 1 bytes @ 0x0
   498                           
   499  0070                     ??_ADC_Init:	
   500                           ; 1 bytes @ 0x0
   501                           
   502  0070                     ?_SPI_Init:	
   503                           ; 1 bytes @ 0x0
   504                           
   505  0070                     ??_SPI_Init:	
   506                           ; 1 bytes @ 0x0
   507                           
   508  0070                     ?_ADC_Read:	
   509                           ; 1 bytes @ 0x0
   510                           
   511  0070                     ?_strcpy:	
   512                           ; 1 bytes @ 0x0
   513                           
   514  0070                     ?_strcat:	
   515                           ; 1 bytes @ 0x0
   516                           
   517  0070                     ?_SPI_Ready:	
   518                           ; 1 bytes @ 0x0
   519                           
   520  0070                     ??_SPI_Ready:	
   521                           ; 1 bytes @ 0x0
   522                           
   523  0070                     ?_SPI_Write:	
   524                           ; 1 bytes @ 0x0
   525                           
   526  0070                     ??_SPI_Write:	
   527                           ; 1 bytes @ 0x0
   528                           
   529  0070                     ?_main:	
   530                           ; 1 bytes @ 0x0
   531                           
   532  0070                     ?__Umul8_16:	
   533                           ; 1 bytes @ 0x0
   534                           
   535  0070                     ?___awdiv:	
   536                           ; 2 bytes @ 0x0
   537                           
   538  0070                     ?___lwdiv:	
   539                           ; 2 bytes @ 0x0
   540                           
   541  0070                     ?___lwmod:	
   542                           ; 2 bytes @ 0x0
   543                           
   544  0070                     ?___xxtofl:	
   545                           ; 2 bytes @ 0x0
   546                           
   547  0070                     SPI_Write@a:	
   548                           ; 4 bytes @ 0x0
   549                           
   550  0070                     SPI_Ready@a:	
   551                           ; 1 bytes @ 0x0
   552                           
   553  0070                     __Umul8_16@multiplicand:	
   554                           ; 1 bytes @ 0x0
   555                           
   556  0070                     strcat@from:	
   557                           ; 1 bytes @ 0x0
   558                           
   559  0070                     strcpy@from:	
   560                           ; 1 bytes @ 0x0
   561                           
   562  0070                     ADC_Read@a:	
   563                           ; 1 bytes @ 0x0
   564                           
   565  0070                     ___awdiv@divisor:	
   566                           ; 2 bytes @ 0x0
   567                           
   568  0070                     ___lwdiv@divisor:	
   569                           ; 2 bytes @ 0x0
   570                           
   571  0070                     ___lwmod@divisor:	
   572                           ; 2 bytes @ 0x0
   573                           
   574  0070                     ___xxtofl@val:	
   575                           ; 2 bytes @ 0x0
   576                           
   577                           
   578                           ; 4 bytes @ 0x0
   579  0070                     	ds	1
   580  0071                     ??_strcpy:
   581  0071                     ??_strcat:	
   582                           ; 1 bytes @ 0x1
   583                           
   584                           
   585                           ; 1 bytes @ 0x1
   586  0071                     	ds	1
   587  0072                     ??__Umul8_16:
   588  0072                     SPI_Init@a:	
   589                           ; 1 bytes @ 0x2
   590                           
   591  0072                     strcat@to:	
   592                           ; 1 bytes @ 0x2
   593                           
   594  0072                     strcpy@to:	
   595                           ; 1 bytes @ 0x2
   596                           
   597  0072                     ADC_Read@b:	
   598                           ; 1 bytes @ 0x2
   599                           
   600  0072                     ___awdiv@dividend:	
   601                           ; 2 bytes @ 0x2
   602                           
   603  0072                     ___lwdiv@dividend:	
   604                           ; 2 bytes @ 0x2
   605                           
   606  0072                     ___lwmod@dividend:	
   607                           ; 2 bytes @ 0x2
   608                           
   609                           
   610                           ; 2 bytes @ 0x2
   611  0072                     	ds	1
   612  0073                     strcat@cp:
   613  0073                     strcpy@cp:	
   614                           ; 1 bytes @ 0x3
   615                           
   616                           
   617                           ; 1 bytes @ 0x3
   618  0073                     	ds	1
   619  0074                     ??_ADC_Read:
   620  0074                     ??___awdiv:	
   621                           ; 1 bytes @ 0x4
   622                           
   623  0074                     ??___lwdiv:	
   624                           ; 1 bytes @ 0x4
   625                           
   626  0074                     ??___lwmod:	
   627                           ; 1 bytes @ 0x4
   628                           
   629  0074                     ??___xxtofl:	
   630                           ; 1 bytes @ 0x4
   631                           
   632  0074                     __Umul8_16@product:	
   633                           ; 1 bytes @ 0x4
   634                           
   635                           
   636                           ; 2 bytes @ 0x4
   637  0074                     	ds	1
   638  0075                     ___awdiv@counter:
   639  0075                     ___lwmod@counter:	
   640                           ; 1 bytes @ 0x5
   641                           
   642  0075                     ___lwdiv@quotient:	
   643                           ; 1 bytes @ 0x5
   644                           
   645                           
   646                           ; 2 bytes @ 0x5
   647  0075                     	ds	1
   648  0076                     ___awdiv@sign:
   649  0076                     __Umul8_16@word_mpld:	
   650                           ; 1 bytes @ 0x6
   651                           
   652                           
   653                           ; 2 bytes @ 0x6
   654  0076                     	ds	1
   655  0077                     ___lwdiv@counter:
   656  0077                     ___awdiv@quotient:	
   657                           ; 1 bytes @ 0x7
   658                           
   659                           
   660                           ; 2 bytes @ 0x7
   661  0077                     	ds	1
   662  0078                     ?_utoa:
   663  0078                     __Umul8_16@multiplier:	
   664                           ; 1 bytes @ 0x8
   665                           
   666  0078                     ___xxtofl@sign:	
   667                           ; 1 bytes @ 0x8
   668                           
   669  0078                     utoa@val:	
   670                           ; 1 bytes @ 0x8
   671                           
   672                           
   673                           ; 2 bytes @ 0x8
   674  0078                     	ds	1
   675  0079                     ?___awmod:
   676  0079                     ___xxtofl@exp:	
   677                           ; 2 bytes @ 0x9
   678                           
   679  0079                     ___awmod@divisor:	
   680                           ; 1 bytes @ 0x9
   681                           
   682                           
   683                           ; 2 bytes @ 0x9
   684  0079                     	ds	1
   685  007A                     utoa@base:
   686  007A                     ___xxtofl@arg:	
   687                           ; 2 bytes @ 0xA
   688                           
   689                           
   690                           ; 4 bytes @ 0xA
   691  007A                     	ds	1
   692  007B                     ___awmod@dividend:
   693                           
   694                           ; 2 bytes @ 0xB
   695  007B                     	ds	1
   696  007C                     ??_utoa:
   697                           
   698                           ; 1 bytes @ 0xC
   699  007C                     	ds	1
   700  007D                     ??_itoa:
   701  007D                     ??___awmod:	
   702                           ; 1 bytes @ 0xD
   703                           
   704                           
   705                           ; 1 bytes @ 0xD
   706  007D                     	ds	1
   707                           
   708                           	psect	cstackBANK0
   709  0020                     __pcstackBANK0:
   710  0020                     ?___flmul:
   711  0020                     ___awmod@counter:	
   712                           ; 4 bytes @ 0x0
   713                           
   714  0020                     utoa@v:	
   715                           ; 1 bytes @ 0x0
   716                           
   717  0020                     ___flmul@b:	
   718                           ; 2 bytes @ 0x0
   719                           
   720                           
   721                           ; 4 bytes @ 0x0
   722  0020                     	ds	1
   723  0021                     ___awmod@sign:
   724                           
   725                           ; 1 bytes @ 0x1
   726  0021                     	ds	1
   727  0022                     utoa@c:
   728                           
   729                           ; 1 bytes @ 0x2
   730  0022                     	ds	1
   731  0023                     utoa@buf:
   732                           
   733                           ; 1 bytes @ 0x3
   734  0023                     	ds	1
   735  0024                     ?_itoa:
   736  0024                     itoa@val:	
   737                           ; 1 bytes @ 0x4
   738                           
   739  0024                     ___flmul@a:	
   740                           ; 2 bytes @ 0x4
   741                           
   742                           
   743                           ; 4 bytes @ 0x4
   744  0024                     	ds	2
   745  0026                     itoa@base:
   746                           
   747                           ; 2 bytes @ 0x6
   748  0026                     	ds	2
   749  0028                     ??___flmul:
   750                           
   751                           ; 1 bytes @ 0x8
   752  0028                     	ds	1
   753  0029                     itoa@buf:
   754                           
   755                           ; 1 bytes @ 0x9
   756  0029                     	ds	4
   757  002D                     ___flmul@sign:
   758                           
   759                           ; 1 bytes @ 0xD
   760  002D                     	ds	1
   761  002E                     ___flmul@grs:
   762                           
   763                           ; 4 bytes @ 0xE
   764  002E                     	ds	4
   765  0032                     ___flmul@aexp:
   766                           
   767                           ; 1 bytes @ 0x12
   768  0032                     	ds	1
   769  0033                     ___flmul@bexp:
   770                           
   771                           ; 1 bytes @ 0x13
   772  0033                     	ds	1
   773  0034                     ___flmul@prod:
   774                           
   775                           ; 4 bytes @ 0x14
   776  0034                     	ds	4
   777  0038                     ___flmul@temp:
   778                           
   779                           ; 2 bytes @ 0x18
   780  0038                     	ds	2
   781  003A                     ?___fltol:
   782  003A                     ?___fldiv:	
   783                           ; 4 bytes @ 0x1A
   784                           
   785  003A                     ___fltol@f1:	
   786                           ; 4 bytes @ 0x1A
   787                           
   788  003A                     ___fldiv@a:	
   789                           ; 4 bytes @ 0x1A
   790                           
   791                           
   792                           ; 4 bytes @ 0x1A
   793  003A                     	ds	4
   794  003E                     ??___fltol:
   795  003E                     ___fldiv@b:	
   796                           ; 1 bytes @ 0x1E
   797                           
   798                           
   799                           ; 4 bytes @ 0x1E
   800  003E                     	ds	4
   801  0042                     ??___fldiv:
   802                           
   803                           ; 1 bytes @ 0x22
   804  0042                     	ds	1
   805  0043                     ___fltol@sign1:
   806                           
   807                           ; 1 bytes @ 0x23
   808  0043                     	ds	1
   809  0044                     ___fltol@exp1:
   810                           
   811                           ; 1 bytes @ 0x24
   812  0044                     	ds	3
   813  0047                     ___fldiv@rem:
   814                           
   815                           ; 4 bytes @ 0x27
   816  0047                     	ds	4
   817  004B                     ___fldiv@sign:
   818                           
   819                           ; 1 bytes @ 0x2B
   820  004B                     	ds	1
   821  004C                     ___fldiv@new_exp:
   822                           
   823                           ; 2 bytes @ 0x2C
   824  004C                     	ds	2
   825  004E                     ___fldiv@grs:
   826                           
   827                           ; 4 bytes @ 0x2E
   828  004E                     	ds	4
   829  0052                     ___fldiv@bexp:
   830                           
   831                           ; 1 bytes @ 0x32
   832  0052                     	ds	1
   833  0053                     ___fldiv@aexp:
   834                           
   835                           ; 1 bytes @ 0x33
   836  0053                     	ds	1
   837  0054                     ??_main:
   838                           
   839                           ; 1 bytes @ 0x34
   840  0054                     	ds	4
   841                           
   842                           	psect	maintext
   843  014F                     __pmaintext:	
   844 ;;
   845 ;;Main: autosize = 0, tempsize = 4, incstack = 0, save=0
   846 ;;
   847 ;; *************** function _main *****************
   848 ;; Defined at:
   849 ;;		line 76 in file "S1.c"
   850 ;; Parameters:    Size  Location     Type
   851 ;;		None
   852 ;; Auto vars:     Size  Location     Type
   853 ;;		None
   854 ;; Return value:  Size  Location     Type
   855 ;;                  1    wreg      void 
   856 ;; Registers used:
   857 ;;		wreg, fsr0l, fsr0h, status,2, status,0, btemp+1, pclath, cstack
   858 ;; Tracked objects:
   859 ;;		On entry : B00/0
   860 ;;		On exit  : 0/0
   861 ;;		Unchanged: 0/0
   862 ;; Data sizes:     COMMON   BANK0   BANK1   BANK3   BANK2
   863 ;;      Params:         0       0       0       0       0
   864 ;;      Locals:         0       0       0       0       0
   865 ;;      Temps:          0       4       0       0       0
   866 ;;      Totals:         0       4       0       0       0
   867 ;;Total ram usage:        4 bytes
   868 ;; Hardware stack levels required when called:    3
   869 ;; This function calls:
   870 ;;		_ADC_Init
   871 ;;		_ADC_Read
   872 ;;		_SPI_Init
   873 ;;		_SPI_Ready
   874 ;;		_SPI_Write
   875 ;;		___awdiv
   876 ;;		___awmod
   877 ;;		___fldiv
   878 ;;		___flmul
   879 ;;		___fltol
   880 ;;		___xxtofl
   881 ;;		_itoa
   882 ;;		_setup
   883 ;;		_strcat
   884 ;;		_strcpy
   885 ;; This function is called by:
   886 ;;		Startup code after reset
   887 ;; This function uses a non-reentrant model
   888 ;;
   889                           
   890                           
   891                           ;psect for function _main
   892  014F                     _main:
   893  014F                     l2057:	
   894                           ;incstack = 0
   895                           ; Regs used in _main: [wreg-fsr0h+status,2+status,0+btemp+1+pclath+cstack]
   896                           
   897                           
   898                           ;S1.c: 78:     setup();
   899  014F  120A  158A  254F  120A  118A  	fcall	_setup
   900  0154                     l2059:
   901                           
   902                           ;S1.c: 85:         ADC_Init();
   903  0154  120A  158A  2538  120A  118A  	fcall	_ADC_Init
   904  0159                     l2061:
   905                           
   906                           ;S1.c: 86:         SPI_Init(3);
   907  0159  3003               	movlw	3
   908  015A  120A  158A  2682  120A  118A  	fcall	_SPI_Init
   909  015F                     l2063:
   910                           
   911                           ;S1.c: 88:         _delay((unsigned long)((1)*(4000000/4000.0)));
   912  015F  30C7               	movlw	199
   913  0160  1283               	bcf	3,5	;RP0=0, select bank0
   914  0161  1303               	bcf	3,6	;RP1=0, select bank0
   915  0162  00D4               	movwf	??_main
   916  0163                     u2697:
   917  0163  2964               	nop2
   918  0164  0BD4               	decfsz	??_main,f
   919  0165  2963               	goto	u2697
   920  0166  2967               	nop2
   921  0167                     l2065:
   922                           
   923                           ;S1.c: 89:         adc=ADC_Read(0,0);
   924  0167  3000               	movlw	0
   925  0168  00F0               	movwf	ADC_Read@a
   926  0169  00F1               	movwf	ADC_Read@a+1
   927  016A  3000               	movlw	0
   928  016B  00F2               	movwf	ADC_Read@b
   929  016C  00F3               	movwf	ADC_Read@b+1
   930  016D  120A  118A  2006  120A  118A  	fcall	_ADC_Read
   931  0172  1283               	bcf	3,5	;RP0=0, select bank0
   932  0173  1303               	bcf	3,6	;RP1=0, select bank0
   933  0174  00D4               	movwf	??_main
   934  0175  0854               	movf	??_main,w
   935  0176  00E5               	movwf	_adc
   936  0177                     l2067:
   937                           
   938                           ;S1.c: 91:         voltaje = (adc*5.0)/255.0;
   939  0177  3043               	movlw	67
   940  0178  00BD               	movwf	___fldiv@a+3
   941  0179  307F               	movlw	127
   942  017A  00BC               	movwf	___fldiv@a+2
   943  017B  3000               	movlw	0
   944  017C  00BB               	movwf	___fldiv@a+1
   945  017D  3000               	movlw	0
   946  017E  00BA               	movwf	___fldiv@a
   947  017F  3040               	movlw	64
   948  0180  00A3               	movwf	___flmul@b+3
   949  0181  30A0               	movlw	160
   950  0182  00A2               	movwf	___flmul@b+2
   951  0183  3000               	movlw	0
   952  0184  00A1               	movwf	___flmul@b+1
   953  0185  3000               	movlw	0
   954  0186  00A0               	movwf	___flmul@b
   955  0187  0865               	movf	_adc,w
   956  0188  00D4               	movwf	??_main
   957  0189  01D5               	clrf	??_main+1
   958  018A  01D6               	clrf	??_main+2
   959  018B  01D7               	clrf	??_main+3
   960  018C  0857               	movf	??_main+3,w
   961  018D  00F3               	movwf	___xxtofl@val+3
   962  018E  0856               	movf	??_main+2,w
   963  018F  00F2               	movwf	___xxtofl@val+2
   964  0190  0855               	movf	??_main+1,w
   965  0191  00F1               	movwf	___xxtofl@val+1
   966  0192  0854               	movf	??_main,w
   967  0193  00F0               	movwf	___xxtofl@val
   968  0194  3001               	movlw	1
   969  0195  120A  118A  2095  120A  118A  	fcall	___xxtofl
   970  019A  0873               	movf	?___xxtofl+3,w
   971  019B  1283               	bcf	3,5	;RP0=0, select bank0
   972  019C  1303               	bcf	3,6	;RP1=0, select bank0
   973  019D  00A7               	movwf	___flmul@a+3
   974  019E  0872               	movf	?___xxtofl+2,w
   975  019F  00A6               	movwf	___flmul@a+2
   976  01A0  0871               	movf	?___xxtofl+1,w
   977  01A1  00A5               	movwf	___flmul@a+1
   978  01A2  0870               	movf	?___xxtofl,w
   979  01A3  00A4               	movwf	___flmul@a
   980  01A4  120A  118A  248A  120A  118A  	fcall	___flmul
   981  01A9  1283               	bcf	3,5	;RP0=0, select bank0
   982  01AA  1303               	bcf	3,6	;RP1=0, select bank0
   983  01AB  0823               	movf	?___flmul+3,w
   984  01AC  00C1               	movwf	___fldiv@b+3
   985  01AD  0822               	movf	?___flmul+2,w
   986  01AE  00C0               	movwf	___fldiv@b+2
   987  01AF  0821               	movf	?___flmul+1,w
   988  01B0  00BF               	movwf	___fldiv@b+1
   989  01B1  0820               	movf	?___flmul,w
   990  01B2  00BE               	movwf	___fldiv@b
   991  01B3  120A  118A  22AD  120A  118A  	fcall	___fldiv
   992  01B8  1283               	bcf	3,5	;RP0=0, select bank0
   993  01B9  1303               	bcf	3,6	;RP1=0, select bank0
   994  01BA  083D               	movf	?___fldiv+3,w
   995  01BB  00DB               	movwf	_voltaje+3
   996  01BC  083C               	movf	?___fldiv+2,w
   997  01BD  00DA               	movwf	_voltaje+2
   998  01BE  083B               	movf	?___fldiv+1,w
   999  01BF  00D9               	movwf	_voltaje+1
  1000  01C0  083A               	movf	?___fldiv,w
  1001  01C1  00D8               	movwf	_voltaje
  1002  01C2                     l2069:
  1003                           
  1004                           ;S1.c: 92:         V1 = (voltaje)*100;
  1005  01C2  085B               	movf	_voltaje+3,w
  1006  01C3  00A7               	movwf	___flmul@a+3
  1007  01C4  085A               	movf	_voltaje+2,w
  1008  01C5  00A6               	movwf	___flmul@a+2
  1009  01C6  0859               	movf	_voltaje+1,w
  1010  01C7  00A5               	movwf	___flmul@a+1
  1011  01C8  0858               	movf	_voltaje,w
  1012  01C9  00A4               	movwf	___flmul@a
  1013  01CA  3042               	movlw	66
  1014  01CB  00A3               	movwf	___flmul@b+3
  1015  01CC  30C8               	movlw	200
  1016  01CD  00A2               	movwf	___flmul@b+2
  1017  01CE  3000               	movlw	0
  1018  01CF  00A1               	movwf	___flmul@b+1
  1019  01D0  3000               	movlw	0
  1020  01D1  00A0               	movwf	___flmul@b
  1021  01D2  120A  118A  248A  120A  118A  	fcall	___flmul
  1022  01D7  1283               	bcf	3,5	;RP0=0, select bank0
  1023  01D8  1303               	bcf	3,6	;RP1=0, select bank0
  1024  01D9  0823               	movf	?___flmul+3,w
  1025  01DA  00BD               	movwf	___fltol@f1+3
  1026  01DB  0822               	movf	?___flmul+2,w
  1027  01DC  00BC               	movwf	___fltol@f1+2
  1028  01DD  0821               	movf	?___flmul+1,w
  1029  01DE  00BB               	movwf	___fltol@f1+1
  1030  01DF  0820               	movf	?___flmul,w
  1031  01E0  00BA               	movwf	___fltol@f1
  1032  01E1  120A  118A  2019  120A  118A  	fcall	___fltol
  1033  01E6  1283               	bcf	3,5	;RP0=0, select bank0
  1034  01E7  1303               	bcf	3,6	;RP1=0, select bank0
  1035  01E8  083B               	movf	?___fltol+1,w
  1036  01E9  00E3               	movwf	_V1+1
  1037  01EA  083A               	movf	?___fltol,w
  1038  01EB  00E2               	movwf	_V1
  1039  01EC                     l2071:
  1040                           
  1041                           ;S1.c: 93:         POT1A = V1%10;
  1042  01EC  300A               	movlw	10
  1043  01ED  00F9               	movwf	___awmod@divisor
  1044  01EE  3000               	movlw	0
  1045  01EF  00FA               	movwf	___awmod@divisor+1
  1046  01F0  0863               	movf	_V1+1,w
  1047  01F1  00FC               	movwf	___awmod@dividend+1
  1048  01F2  0862               	movf	_V1,w
  1049  01F3  00FB               	movwf	___awmod@dividend
  1050  01F4  120A  158A  26CC  120A  118A  	fcall	___awmod
  1051  01F9  087A               	movf	?___awmod+1,w
  1052  01FA  1283               	bcf	3,5	;RP0=0, select bank0
  1053  01FB  1303               	bcf	3,6	;RP1=0, select bank0
  1054  01FC  00E1               	movwf	_POT1A+1
  1055  01FD  0879               	movf	?___awmod,w
  1056  01FE  00E0               	movwf	_POT1A
  1057  01FF                     l2073:
  1058                           
  1059                           ;S1.c: 94:         itoa(POT1SA,POT1A,10);
  1060  01FF  0861               	movf	_POT1A+1,w
  1061  0200  00A5               	movwf	itoa@val+1
  1062  0201  0860               	movf	_POT1A,w
  1063  0202  00A4               	movwf	itoa@val
  1064  0203  300A               	movlw	10
  1065  0204  00A6               	movwf	itoa@base
  1066  0205  3000               	movlw	0
  1067  0206  00A7               	movwf	itoa@base+1
  1068  0207  30A5               	movlw	(low (_POT1SA| 0))& (0+255)
  1069  0208  120A  158A  258E  120A  118A  	fcall	_itoa
  1070  020D                     l2075:
  1071                           
  1072                           ;S1.c: 95:         POT1B = (V1/10)%10;
  1073  020D  300A               	movlw	10
  1074  020E  00F9               	movwf	___awmod@divisor
  1075  020F  3000               	movlw	0
  1076  0210  00FA               	movwf	___awmod@divisor+1
  1077  0211  300A               	movlw	10
  1078  0212  00F0               	movwf	___awdiv@divisor
  1079  0213  3000               	movlw	0
  1080  0214  00F1               	movwf	___awdiv@divisor+1
  1081  0215  1283               	bcf	3,5	;RP0=0, select bank0
  1082  0216  1303               	bcf	3,6	;RP1=0, select bank0
  1083  0217  0863               	movf	_V1+1,w
  1084  0218  00F3               	movwf	___awdiv@dividend+1
  1085  0219  0862               	movf	_V1,w
  1086  021A  00F2               	movwf	___awdiv@dividend
  1087  021B  120A  158A  2727  120A  118A  	fcall	___awdiv
  1088  0220  0871               	movf	?___awdiv+1,w
  1089  0221  00FC               	movwf	___awmod@dividend+1
  1090  0222  0870               	movf	?___awdiv,w
  1091  0223  00FB               	movwf	___awmod@dividend
  1092  0224  120A  158A  26CC  120A  118A  	fcall	___awmod
  1093  0229  087A               	movf	?___awmod+1,w
  1094  022A  1283               	bcf	3,5	;RP0=0, select bank0
  1095  022B  1303               	bcf	3,6	;RP1=0, select bank0
  1096  022C  00DF               	movwf	_POT1B+1
  1097  022D  0879               	movf	?___awmod,w
  1098  022E  00DE               	movwf	_POT1B
  1099  022F                     l2077:
  1100                           
  1101                           ;S1.c: 96:         itoa(POT1SB,POT1B,10);
  1102  022F  085F               	movf	_POT1B+1,w
  1103  0230  00A5               	movwf	itoa@val+1
  1104  0231  085E               	movf	_POT1B,w
  1105  0232  00A4               	movwf	itoa@val
  1106  0233  300A               	movlw	10
  1107  0234  00A6               	movwf	itoa@base
  1108  0235  3000               	movlw	0
  1109  0236  00A7               	movwf	itoa@base+1
  1110  0237  306B               	movlw	(low (_POT1SB| 0))& (0+255)
  1111  0238  120A  158A  258E  120A  118A  	fcall	_itoa
  1112  023D                     l2079:
  1113                           
  1114                           ;S1.c: 97:         POT1C = (V1/100)%10;
  1115  023D  300A               	movlw	10
  1116  023E  00F9               	movwf	___awmod@divisor
  1117  023F  3000               	movlw	0
  1118  0240  00FA               	movwf	___awmod@divisor+1
  1119  0241  3064               	movlw	100
  1120  0242  00F0               	movwf	___awdiv@divisor
  1121  0243  3000               	movlw	0
  1122  0244  00F1               	movwf	___awdiv@divisor+1
  1123  0245  1283               	bcf	3,5	;RP0=0, select bank0
  1124  0246  1303               	bcf	3,6	;RP1=0, select bank0
  1125  0247  0863               	movf	_V1+1,w
  1126  0248  00F3               	movwf	___awdiv@dividend+1
  1127  0249  0862               	movf	_V1,w
  1128  024A  00F2               	movwf	___awdiv@dividend
  1129  024B  120A  158A  2727  120A  118A  	fcall	___awdiv
  1130  0250  0871               	movf	?___awdiv+1,w
  1131  0251  00FC               	movwf	___awmod@dividend+1
  1132  0252  0870               	movf	?___awdiv,w
  1133  0253  00FB               	movwf	___awmod@dividend
  1134  0254  120A  158A  26CC  120A  118A  	fcall	___awmod
  1135  0259  087A               	movf	?___awmod+1,w
  1136  025A  1283               	bcf	3,5	;RP0=0, select bank0
  1137  025B  1303               	bcf	3,6	;RP1=0, select bank0
  1138  025C  00DD               	movwf	_POT1C+1
  1139  025D  0879               	movf	?___awmod,w
  1140  025E  00DC               	movwf	_POT1C
  1141  025F                     l2081:
  1142                           
  1143                           ;S1.c: 98:         itoa(POT1SC,POT1C,10);
  1144  025F  085D               	movf	_POT1C+1,w
  1145  0260  00A5               	movwf	itoa@val+1
  1146  0261  085C               	movf	_POT1C,w
  1147  0262  00A4               	movwf	itoa@val
  1148  0263  300A               	movlw	10
  1149  0264  00A6               	movwf	itoa@base
  1150  0265  3000               	movlw	0
  1151  0266  00A7               	movwf	itoa@base+1
  1152  0267  3066               	movlw	(low (_POT1SC| 0))& (0+255)
  1153  0268  120A  158A  258E  120A  118A  	fcall	_itoa
  1154  026D                     l2083:
  1155                           
  1156                           ;S1.c: 99:         strcpy(PUNTO1,".");
  1157  026D  3001               	movlw	(low ((STR_1-__stringbase)| (0+32768)))& (0+255)
  1158  026E  1283               	bcf	3,5	;RP0=0, select bank0
  1159  026F  1303               	bcf	3,6	;RP1=0, select bank0
  1160  0270  00D4               	movwf	??_main
  1161  0271  0854               	movf	??_main,w
  1162  0272  00F0               	movwf	strcpy@from
  1163  0273  30A0               	movlw	(low (_PUNTO1| 0))& (0+255)
  1164  0274  120A  158A  256D  120A  118A  	fcall	_strcpy
  1165  0279                     l2085:
  1166                           
  1167                           ;S1.c: 100:         strcat(POT1SB,POT1SA);
  1168  0279  30A5               	movlw	(low (_POT1SA| 0))& (0+255)
  1169  027A  1283               	bcf	3,5	;RP0=0, select bank0
  1170  027B  1303               	bcf	3,6	;RP1=0, select bank0
  1171  027C  00D4               	movwf	??_main
  1172  027D  0854               	movf	??_main,w
  1173  027E  00F0               	movwf	strcat@from
  1174  027F  306B               	movlw	(low (_POT1SB| 0))& (0+255)
  1175  0280  120A  158A  25DB  120A  118A  	fcall	_strcat
  1176  0285                     l2087:
  1177                           
  1178                           ;S1.c: 101:         strcat(PUNTO1,POT1SB);
  1179  0285  306B               	movlw	(low (_POT1SB| 0))& (0+255)
  1180  0286  1283               	bcf	3,5	;RP0=0, select bank0
  1181  0287  1303               	bcf	3,6	;RP1=0, select bank0
  1182  0288  00D4               	movwf	??_main
  1183  0289  0854               	movf	??_main,w
  1184  028A  00F0               	movwf	strcat@from
  1185  028B  30A0               	movlw	(low (_PUNTO1| 0))& (0+255)
  1186  028C  120A  158A  25DB  120A  118A  	fcall	_strcat
  1187  0291                     l2089:
  1188                           
  1189                           ;S1.c: 102:         strcat(POT1SC,PUNTO1);
  1190  0291  30A0               	movlw	(low (_PUNTO1| 0))& (0+255)
  1191  0292  1283               	bcf	3,5	;RP0=0, select bank0
  1192  0293  1303               	bcf	3,6	;RP1=0, select bank0
  1193  0294  00D4               	movwf	??_main
  1194  0295  0854               	movf	??_main,w
  1195  0296  00F0               	movwf	strcat@from
  1196  0297  3066               	movlw	(low (_POT1SC| 0))& (0+255)
  1197  0298  120A  158A  25DB  120A  118A  	fcall	_strcat
  1198  029D                     l2091:
  1199                           
  1200                           ;S1.c: 104:         SPI_Ready(Ready);
  1201  029D  3000               	movlw	0
  1202  029E  120A  158A  2543  120A  118A  	fcall	_SPI_Ready
  1203  02A3                     l2093:
  1204                           
  1205                           ;S1.c: 106:         SPI_Write(POT1SC);
  1206  02A3  3066               	movlw	(low _POT1SC)& (0+255)
  1207  02A4  120A  158A  2529  120A  118A  	fcall	_SPI_Write
  1208  02A9  2954               	goto	l2059
  1209  02AA  120A  118A  2800   	ljmp	start
  1210  02AD                     __end_of_main:
  1211                           
  1212                           	psect	text1
  1213  0D6D                     __ptext1:	
  1214 ;; *************** function _strcpy *****************
  1215 ;; Defined at:
  1216 ;;		line 8 in file "C:\Program Files\Microchip\xc8\v2.31\pic\sources\c90\common\strcpy.c"
  1217 ;; Parameters:    Size  Location     Type
  1218 ;;  to              1    wreg     PTR unsigned char 
  1219 ;;		 -> PUNTO1(5), 
  1220 ;;  from            1    0[COMMON] PTR const unsigned char 
  1221 ;;		 -> STR_1(2), 
  1222 ;; Auto vars:     Size  Location     Type
  1223 ;;  to              1    2[COMMON] PTR unsigned char 
  1224 ;;		 -> PUNTO1(5), 
  1225 ;;  cp              1    3[COMMON] PTR unsigned char 
  1226 ;;		 -> PUNTO1(5), 
  1227 ;; Return value:  Size  Location     Type
  1228 ;;                  1    wreg      PTR unsigned char 
  1229 ;; Registers used:
  1230 ;;		wreg, fsr0l, fsr0h, status,2, status,0, pclath
  1231 ;; Tracked objects:
  1232 ;;		On entry : 0/0
  1233 ;;		On exit  : 0/0
  1234 ;;		Unchanged: 0/0
  1235 ;; Data sizes:     COMMON   BANK0   BANK1   BANK3   BANK2
  1236 ;;      Params:         1       0       0       0       0
  1237 ;;      Locals:         2       0       0       0       0
  1238 ;;      Temps:          1       0       0       0       0
  1239 ;;      Totals:         4       0       0       0       0
  1240 ;;Total ram usage:        4 bytes
  1241 ;; Hardware stack levels used:    2
  1242 ;; This function calls:
  1243 ;;		Nothing
  1244 ;; This function is called by:
  1245 ;;		_main
  1246 ;; This function uses a non-reentrant model
  1247 ;;
  1248                           
  1249                           
  1250                           ;psect for function _strcpy
  1251  0D6D                     _strcpy:
  1252                           
  1253                           ;incstack = 0
  1254                           ; Regs used in _strcpy: [wreg-fsr0h+status,2+status,0+pclath]
  1255                           ;strcpy@to stored from wreg
  1256  0D6D  00F2               	movwf	strcpy@to
  1257  0D6E                     l1587:
  1258  0D6E  0872               	movf	strcpy@to,w
  1259  0D6F  00F1               	movwf	??_strcpy
  1260  0D70  0871               	movf	??_strcpy,w
  1261  0D71  00F3               	movwf	strcpy@cp
  1262  0D72  2D7B               	goto	l1591
  1263  0D73                     l1589:
  1264  0D73  3001               	movlw	1
  1265  0D74  00F1               	movwf	??_strcpy
  1266  0D75  0871               	movf	??_strcpy,w
  1267  0D76  07F3               	addwf	strcpy@cp,f
  1268  0D77  3001               	movlw	1
  1269  0D78  00F1               	movwf	??_strcpy
  1270  0D79  0871               	movf	??_strcpy,w
  1271  0D7A  07F0               	addwf	strcpy@from,f
  1272  0D7B                     l1591:
  1273  0D7B  0870               	movf	strcpy@from,w
  1274  0D7C  0084               	movwf	4
  1275  0D7D  120A  158A  2000  120A  158A  	fcall	stringdir
  1276  0D82  00F1               	movwf	??_strcpy
  1277  0D83  0873               	movf	strcpy@cp,w
  1278  0D84  0084               	movwf	4
  1279  0D85  0871               	movf	??_strcpy,w
  1280  0D86  1383               	bcf	3,7	;select IRP bank0
  1281  0D87  0080               	movwf	0
  1282  0D88  0800               	movf	0,w
  1283  0D89  1D03               	btfss	3,2
  1284  0D8A  2D8C               	goto	u1551
  1285  0D8B  2D8D               	goto	u1550
  1286  0D8C                     u1551:
  1287  0D8C  2D73               	goto	l1589
  1288  0D8D                     u1550:
  1289  0D8D                     l685:
  1290  0D8D  0008               	return
  1291  0D8E                     __end_of_strcpy:
  1292                           
  1293                           	psect	text2
  1294  0DDB                     __ptext2:	
  1295 ;; *************** function _strcat *****************
  1296 ;; Defined at:
  1297 ;;		line 8 in file "C:\Program Files\Microchip\xc8\v2.31\pic\sources\c90\common\strcat.c"
  1298 ;; Parameters:    Size  Location     Type
  1299 ;;  to              1    wreg     PTR unsigned char 
  1300 ;;		 -> PUNTO1(5), POT1SC(5), POT1SB(5), 
  1301 ;;  from            1    0[COMMON] PTR const unsigned char 
  1302 ;;		 -> PUNTO1(5), POT1SB(5), POT1SA(5), 
  1303 ;; Auto vars:     Size  Location     Type
  1304 ;;  to              1    2[COMMON] PTR unsigned char 
  1305 ;;		 -> PUNTO1(5), POT1SC(5), POT1SB(5), 
  1306 ;;  cp              1    3[COMMON] PTR unsigned char 
  1307 ;;		 -> PUNTO1(5), POT1SC(5), POT1SB(5), 
  1308 ;; Return value:  Size  Location     Type
  1309 ;;                  1    wreg      PTR unsigned char 
  1310 ;; Registers used:
  1311 ;;		wreg, fsr0l, fsr0h, status,2, status,0
  1312 ;; Tracked objects:
  1313 ;;		On entry : 0/0
  1314 ;;		On exit  : 0/0
  1315 ;;		Unchanged: 0/0
  1316 ;; Data sizes:     COMMON   BANK0   BANK1   BANK3   BANK2
  1317 ;;      Params:         1       0       0       0       0
  1318 ;;      Locals:         2       0       0       0       0
  1319 ;;      Temps:          1       0       0       0       0
  1320 ;;      Totals:         4       0       0       0       0
  1321 ;;Total ram usage:        4 bytes
  1322 ;; Hardware stack levels used:    1
  1323 ;; This function calls:
  1324 ;;		Nothing
  1325 ;; This function is called by:
  1326 ;;		_main
  1327 ;; This function uses a non-reentrant model
  1328 ;;
  1329                           
  1330                           
  1331                           ;psect for function _strcat
  1332  0DDB                     _strcat:
  1333                           
  1334                           ;incstack = 0
  1335                           ; Regs used in _strcat: [wreg-fsr0h+status,2+status,0]
  1336                           ;strcat@to stored from wreg
  1337  0DDB  00F2               	movwf	strcat@to
  1338  0DDC                     l1593:
  1339  0DDC  0872               	movf	strcat@to,w
  1340  0DDD  00F1               	movwf	??_strcat
  1341  0DDE  0871               	movf	??_strcat,w
  1342  0DDF  00F3               	movwf	strcat@cp
  1343  0DE0  2DE5               	goto	l1597
  1344  0DE1                     l1595:
  1345  0DE1  3001               	movlw	1
  1346  0DE2  00F1               	movwf	??_strcat
  1347  0DE3  0871               	movf	??_strcat,w
  1348  0DE4  07F3               	addwf	strcat@cp,f
  1349  0DE5                     l1597:
  1350  0DE5  0873               	movf	strcat@cp,w
  1351  0DE6  0084               	movwf	4
  1352  0DE7  1383               	bcf	3,7	;select IRP bank0
  1353  0DE8  0800               	movf	0,w
  1354  0DE9  1D03               	btfss	3,2
  1355  0DEA  2DEC               	goto	u1561
  1356  0DEB  2DED               	goto	u1560
  1357  0DEC                     u1561:
  1358  0DEC  2DE1               	goto	l1595
  1359  0DED                     u1560:
  1360  0DED  2DF6               	goto	l1601
  1361  0DEE                     l1599:
  1362  0DEE  3001               	movlw	1
  1363  0DEF  00F1               	movwf	??_strcat
  1364  0DF0  0871               	movf	??_strcat,w
  1365  0DF1  07F3               	addwf	strcat@cp,f
  1366  0DF2  3001               	movlw	1
  1367  0DF3  00F1               	movwf	??_strcat
  1368  0DF4  0871               	movf	??_strcat,w
  1369  0DF5  07F0               	addwf	strcat@from,f
  1370  0DF6                     l1601:
  1371  0DF6  0870               	movf	strcat@from,w
  1372  0DF7  0084               	movwf	4
  1373  0DF8  0800               	movf	0,w
  1374  0DF9  00F1               	movwf	??_strcat
  1375  0DFA  0873               	movf	strcat@cp,w
  1376  0DFB  0084               	movwf	4
  1377  0DFC  0871               	movf	??_strcat,w
  1378  0DFD  0080               	movwf	0
  1379  0DFE  0800               	movf	0,w
  1380  0DFF  1D03               	btfss	3,2
  1381  0E00  2E02               	goto	u1571
  1382  0E01  2E03               	goto	u1570
  1383  0E02                     u1571:
  1384  0E02  2DEE               	goto	l1599
  1385  0E03                     u1570:
  1386  0E03                     l679:
  1387  0E03  0008               	return
  1388  0E04                     __end_of_strcat:
  1389                           
  1390                           	psect	text3
  1391  0D4F                     __ptext3:	
  1392 ;; *************** function _setup *****************
  1393 ;; Defined at:
  1394 ;;		line 115 in file "S1.c"
  1395 ;; Parameters:    Size  Location     Type
  1396 ;;		None
  1397 ;; Auto vars:     Size  Location     Type
  1398 ;;		None
  1399 ;; Return value:  Size  Location     Type
  1400 ;;                  1    wreg      void 
  1401 ;; Registers used:
  1402 ;;		wreg, status,2, status,0
  1403 ;; Tracked objects:
  1404 ;;		On entry : 0/0
  1405 ;;		On exit  : 0/0
  1406 ;;		Unchanged: 0/0
  1407 ;; Data sizes:     COMMON   BANK0   BANK1   BANK3   BANK2
  1408 ;;      Params:         0       0       0       0       0
  1409 ;;      Locals:         0       0       0       0       0
  1410 ;;      Temps:          0       0       0       0       0
  1411 ;;      Totals:         0       0       0       0       0
  1412 ;;Total ram usage:        0 bytes
  1413 ;; Hardware stack levels used:    1
  1414 ;; This function calls:
  1415 ;;		Nothing
  1416 ;; This function is called by:
  1417 ;;		_main
  1418 ;; This function uses a non-reentrant model
  1419 ;;
  1420                           
  1421                           
  1422                           ;psect for function _setup
  1423  0D4F                     _setup:
  1424  0D4F                     l1523:	
  1425                           ;incstack = 0
  1426                           ; Regs used in _setup: [wreg+status,2+status,0]
  1427                           
  1428                           
  1429                           ;S1.c: 116:     ANSEL = 0b00001001;
  1430  0D4F  3009               	movlw	9
  1431  0D50  1683               	bsf	3,5	;RP0=1, select bank3
  1432  0D51  1703               	bsf	3,6	;RP1=1, select bank3
  1433  0D52  0088               	movwf	8	;volatile
  1434  0D53                     l1525:
  1435                           
  1436                           ;S1.c: 117:     ANSELH= 0b00000000;
  1437  0D53  0189               	clrf	9	;volatile
  1438  0D54                     l1527:
  1439                           
  1440                           ;S1.c: 118:     TRISA = 0b00001001;
  1441  0D54  3009               	movlw	9
  1442  0D55  1683               	bsf	3,5	;RP0=1, select bank1
  1443  0D56  1303               	bcf	3,6	;RP1=0, select bank1
  1444  0D57  0085               	movwf	5	;volatile
  1445                           
  1446                           ;S1.c: 119:     TRISB = 0b00000000;
  1447  0D58  0186               	clrf	6	;volatile
  1448                           
  1449                           ;S1.c: 120:     TRISD = 0b00000000;
  1450  0D59  0188               	clrf	8	;volatile
  1451                           
  1452                           ;S1.c: 121:     TRISE = 0;
  1453  0D5A  0189               	clrf	9	;volatile
  1454                           
  1455                           ;S1.c: 123:     PORTA = 0;
  1456  0D5B  1283               	bcf	3,5	;RP0=0, select bank0
  1457  0D5C  1303               	bcf	3,6	;RP1=0, select bank0
  1458  0D5D  0185               	clrf	5	;volatile
  1459                           
  1460                           ;S1.c: 124:     PORTB = 0;
  1461  0D5E  0186               	clrf	6	;volatile
  1462                           
  1463                           ;S1.c: 125:     PORTC = 0;
  1464  0D5F  0187               	clrf	7	;volatile
  1465                           
  1466                           ;S1.c: 126:     PORTD = 0;
  1467  0D60  0188               	clrf	8	;volatile
  1468                           
  1469                           ;S1.c: 127:     PORTE = 0;
  1470  0D61  0189               	clrf	9	;volatile
  1471  0D62                     l1529:
  1472                           
  1473                           ;S1.c: 129:     OSCCONbits.IRCF = 0b110;
  1474  0D62  1683               	bsf	3,5	;RP0=1, select bank1
  1475  0D63  1303               	bcf	3,6	;RP1=0, select bank1
  1476  0D64  080F               	movf	15,w	;volatile
  1477  0D65  398F               	andlw	-113
  1478  0D66  3860               	iorlw	96
  1479  0D67  008F               	movwf	15	;volatile
  1480  0D68                     l1531:
  1481                           
  1482                           ;S1.c: 130:     OSCCONbits.OSTS= 0;
  1483  0D68  118F               	bcf	15,3	;volatile
  1484  0D69                     l1533:
  1485                           
  1486                           ;S1.c: 131:     OSCCONbits.HTS = 0;
  1487  0D69  110F               	bcf	15,2	;volatile
  1488  0D6A                     l1535:
  1489                           
  1490                           ;S1.c: 132:     OSCCONbits.LTS = 0;
  1491  0D6A  108F               	bcf	15,1	;volatile
  1492  0D6B                     l1537:
  1493                           
  1494                           ;S1.c: 133:     OSCCONbits.SCS = 1;
  1495  0D6B  140F               	bsf	15,0	;volatile
  1496  0D6C                     l77:
  1497  0D6C  0008               	return
  1498  0D6D                     __end_of_setup:
  1499                           
  1500                           	psect	text4
  1501  0D8E                     __ptext4:	
  1502 ;; *************** function _itoa *****************
  1503 ;; Defined at:
  1504 ;;		line 4 in file "C:\Program Files\Microchip\xc8\v2.31\pic\sources\c90\common\itoa.c"
  1505 ;; Parameters:    Size  Location     Type
  1506 ;;  buf             1    wreg     PTR unsigned char 
  1507 ;;		 -> POT1SC(5), POT1SB(5), POT1SA(5), 
  1508 ;;  val             2    4[BANK0 ] int 
  1509 ;;  base            2    6[BANK0 ] int 
  1510 ;; Auto vars:     Size  Location     Type
  1511 ;;  buf             1    9[BANK0 ] PTR unsigned char 
  1512 ;;		 -> POT1SC(5), POT1SB(5), POT1SA(5), 
  1513 ;;  cp              1    0        PTR unsigned char 
  1514 ;;		 -> POT1SC(5), POT1SB(5), POT1SA(5), 
  1515 ;; Return value:  Size  Location     Type
  1516 ;;                  1    wreg      PTR unsigned char 
  1517 ;; Registers used:
  1518 ;;		wreg, fsr0l, fsr0h, status,2, status,0, pclath, cstack
  1519 ;; Tracked objects:
  1520 ;;		On entry : 0/0
  1521 ;;		On exit  : 0/0
  1522 ;;		Unchanged: 0/0
  1523 ;; Data sizes:     COMMON   BANK0   BANK1   BANK3   BANK2
  1524 ;;      Params:         0       4       0       0       0
  1525 ;;      Locals:         0       2       0       0       0
  1526 ;;      Temps:          1       0       0       0       0
  1527 ;;      Totals:         1       6       0       0       0
  1528 ;;Total ram usage:        7 bytes
  1529 ;; Hardware stack levels used:    1
  1530 ;; Hardware stack levels required when called:    2
  1531 ;; This function calls:
  1532 ;;		_utoa
  1533 ;; This function is called by:
  1534 ;;		_main
  1535 ;; This function uses a non-reentrant model
  1536 ;;
  1537                           
  1538                           
  1539                           ;psect for function _itoa
  1540  0D8E                     _itoa:
  1541                           
  1542                           ;incstack = 0
  1543                           ; Regs used in _itoa: [wreg-fsr0h+status,2+status,0+pclath+cstack]
  1544                           ;itoa@buf stored from wreg
  1545  0D8E  1283               	bcf	3,5	;RP0=0, select bank0
  1546  0D8F  1303               	bcf	3,6	;RP1=0, select bank0
  1547  0D90  00A9               	movwf	itoa@buf
  1548  0D91                     l1573:
  1549  0D91                     l1575:
  1550  0D91  1FA5               	btfss	itoa@val+1,7
  1551  0D92  2D94               	goto	u1541
  1552  0D93  2D95               	goto	u1540
  1553  0D94                     u1541:
  1554  0D94  2DA5               	goto	l1583
  1555  0D95                     u1540:
  1556  0D95                     l1577:
  1557  0D95  302D               	movlw	45
  1558  0D96  00FD               	movwf	??_itoa
  1559  0D97  0829               	movf	itoa@buf,w
  1560  0D98  0084               	movwf	4
  1561  0D99  087D               	movf	??_itoa,w
  1562  0D9A  1383               	bcf	3,7	;select IRP bank0
  1563  0D9B  0080               	movwf	0
  1564  0D9C                     l1579:
  1565  0D9C  3001               	movlw	1
  1566  0D9D  00FD               	movwf	??_itoa
  1567  0D9E  087D               	movf	??_itoa,w
  1568  0D9F  07A9               	addwf	itoa@buf,f
  1569  0DA0                     l1581:
  1570  0DA0  09A4               	comf	itoa@val,f
  1571  0DA1  09A5               	comf	itoa@val+1,f
  1572  0DA2  0AA4               	incf	itoa@val,f
  1573  0DA3  1903               	skipnz
  1574  0DA4  0AA5               	incf	itoa@val+1,f
  1575  0DA5                     l1583:
  1576  0DA5  0825               	movf	itoa@val+1,w
  1577  0DA6  00F9               	movwf	utoa@val+1
  1578  0DA7  0824               	movf	itoa@val,w
  1579  0DA8  00F8               	movwf	utoa@val
  1580  0DA9  0827               	movf	itoa@base+1,w
  1581  0DAA  00FB               	movwf	utoa@base+1
  1582  0DAB  0826               	movf	itoa@base,w
  1583  0DAC  00FA               	movwf	utoa@base
  1584  0DAD  0829               	movf	itoa@buf,w
  1585  0DAE  120A  158A  278E  120A  158A  	fcall	_utoa
  1586  0DB3                     l662:
  1587  0DB3  0008               	return
  1588  0DB4                     __end_of_itoa:
  1589                           
  1590                           	psect	text5
  1591  0F8E                     __ptext5:	
  1592 ;; *************** function _utoa *****************
  1593 ;; Defined at:
  1594 ;;		line 17 in file "C:\Program Files\Microchip\xc8\v2.31\pic\sources\c90\common\itoa.c"
  1595 ;; Parameters:    Size  Location     Type
  1596 ;;  buf             1    wreg     PTR unsigned char 
  1597 ;;		 -> POT1SC(5), POT1SB(5), POT1SA(5), 
  1598 ;;  val             2    8[COMMON] unsigned int 
  1599 ;;  base            2   10[COMMON] int 
  1600 ;; Auto vars:     Size  Location     Type
  1601 ;;  buf             1    3[BANK0 ] PTR unsigned char 
  1602 ;;		 -> POT1SC(5), POT1SB(5), POT1SA(5), 
  1603 ;;  v               2    0[BANK0 ] unsigned int 
  1604 ;;  c               1    2[BANK0 ] unsigned char 
  1605 ;; Return value:  Size  Location     Type
  1606 ;;                  1    wreg      PTR unsigned char 
  1607 ;; Registers used:
  1608 ;;		wreg, fsr0l, fsr0h, status,2, status,0, pclath, cstack
  1609 ;; Tracked objects:
  1610 ;;		On entry : 0/0
  1611 ;;		On exit  : 0/0
  1612 ;;		Unchanged: 0/0
  1613 ;; Data sizes:     COMMON   BANK0   BANK1   BANK3   BANK2
  1614 ;;      Params:         4       0       0       0       0
  1615 ;;      Locals:         0       4       0       0       0
  1616 ;;      Temps:          1       0       0       0       0
  1617 ;;      Totals:         5       4       0       0       0
  1618 ;;Total ram usage:        9 bytes
  1619 ;; Hardware stack levels used:    1
  1620 ;; Hardware stack levels required when called:    1
  1621 ;; This function calls:
  1622 ;;		___lwdiv
  1623 ;;		___lwmod
  1624 ;; This function is called by:
  1625 ;;		_itoa
  1626 ;; This function uses a non-reentrant model
  1627 ;;
  1628                           
  1629                           
  1630                           ;psect for function _utoa
  1631  0F8E                     _utoa:
  1632                           
  1633                           ;incstack = 0
  1634                           ; Regs used in _utoa: [wreg-fsr0h+status,2+status,0+pclath+cstack]
  1635                           ;utoa@buf stored from wreg
  1636  0F8E  1283               	bcf	3,5	;RP0=0, select bank0
  1637  0F8F  1303               	bcf	3,6	;RP1=0, select bank0
  1638  0F90  00A3               	movwf	utoa@buf
  1639  0F91                     l1493:
  1640  0F91  0879               	movf	utoa@val+1,w
  1641  0F92  00A1               	movwf	utoa@v+1
  1642  0F93  0878               	movf	utoa@val,w
  1643  0F94  00A0               	movwf	utoa@v
  1644  0F95                     l1495:
  1645  0F95  087B               	movf	utoa@base+1,w
  1646  0F96  00F1               	movwf	___lwdiv@divisor+1
  1647  0F97  087A               	movf	utoa@base,w
  1648  0F98  00F0               	movwf	___lwdiv@divisor
  1649  0F99  0821               	movf	utoa@v+1,w
  1650  0F9A  00F3               	movwf	___lwdiv@dividend+1
  1651  0F9B  0820               	movf	utoa@v,w
  1652  0F9C  00F2               	movwf	___lwdiv@dividend
  1653  0F9D  120A  158A  263E  120A  158A  	fcall	___lwdiv
  1654  0FA2  0871               	movf	?___lwdiv+1,w
  1655  0FA3  1283               	bcf	3,5	;RP0=0, select bank0
  1656  0FA4  1303               	bcf	3,6	;RP1=0, select bank0
  1657  0FA5  00A1               	movwf	utoa@v+1
  1658  0FA6  0870               	movf	?___lwdiv,w
  1659  0FA7  00A0               	movwf	utoa@v
  1660  0FA8                     l1497:
  1661  0FA8  3001               	movlw	1
  1662  0FA9  00FC               	movwf	??_utoa
  1663  0FAA  087C               	movf	??_utoa,w
  1664  0FAB  07A3               	addwf	utoa@buf,f
  1665  0FAC                     l1499:
  1666  0FAC  0820               	movf	utoa@v,w
  1667  0FAD  0421               	iorwf	utoa@v+1,w
  1668  0FAE  1D03               	btfss	3,2
  1669  0FAF  2FB1               	goto	u1511
  1670  0FB0  2FB2               	goto	u1510
  1671  0FB1                     u1511:
  1672  0FB1  2F95               	goto	l1495
  1673  0FB2                     u1510:
  1674  0FB2                     l1501:
  1675  0FB2  0823               	movf	utoa@buf,w
  1676  0FB3  0084               	movwf	4
  1677  0FB4  1383               	bcf	3,7	;select IRP bank0
  1678  0FB5  0180               	clrf	0
  1679  0FB6                     l1503:
  1680  0FB6  3001               	movlw	1
  1681  0FB7  02A3               	subwf	utoa@buf,f
  1682  0FB8                     l1505:
  1683  0FB8  087B               	movf	utoa@base+1,w
  1684  0FB9  00F1               	movwf	___lwmod@divisor+1
  1685  0FBA  087A               	movf	utoa@base,w
  1686  0FBB  00F0               	movwf	___lwmod@divisor
  1687  0FBC  0879               	movf	utoa@val+1,w
  1688  0FBD  00F3               	movwf	___lwmod@dividend+1
  1689  0FBE  0878               	movf	utoa@val,w
  1690  0FBF  00F2               	movwf	___lwmod@dividend
  1691  0FC0  120A  158A  2604  120A  158A  	fcall	___lwmod
  1692  0FC5  0870               	movf	?___lwmod,w
  1693  0FC6  00FC               	movwf	??_utoa
  1694  0FC7  087C               	movf	??_utoa,w
  1695  0FC8  1283               	bcf	3,5	;RP0=0, select bank0
  1696  0FC9  1303               	bcf	3,6	;RP1=0, select bank0
  1697  0FCA  00A2               	movwf	utoa@c
  1698  0FCB                     l1507:
  1699  0FCB  087B               	movf	utoa@base+1,w
  1700  0FCC  00F1               	movwf	___lwdiv@divisor+1
  1701  0FCD  087A               	movf	utoa@base,w
  1702  0FCE  00F0               	movwf	___lwdiv@divisor
  1703  0FCF  0879               	movf	utoa@val+1,w
  1704  0FD0  00F3               	movwf	___lwdiv@dividend+1
  1705  0FD1  0878               	movf	utoa@val,w
  1706  0FD2  00F2               	movwf	___lwdiv@dividend
  1707  0FD3  120A  158A  263E  120A  158A  	fcall	___lwdiv
  1708  0FD8  0871               	movf	?___lwdiv+1,w
  1709  0FD9  00F9               	movwf	utoa@val+1
  1710  0FDA  0870               	movf	?___lwdiv,w
  1711  0FDB  00F8               	movwf	utoa@val
  1712  0FDC                     l1509:
  1713  0FDC  300A               	movlw	10
  1714  0FDD  1283               	bcf	3,5	;RP0=0, select bank0
  1715  0FDE  1303               	bcf	3,6	;RP1=0, select bank0
  1716  0FDF  0222               	subwf	utoa@c,w
  1717  0FE0  1C03               	skipc
  1718  0FE1  2FE3               	goto	u1521
  1719  0FE2  2FE4               	goto	u1520
  1720  0FE3                     u1521:
  1721  0FE3  2FE8               	goto	l668
  1722  0FE4                     u1520:
  1723  0FE4                     l1511:
  1724  0FE4  3007               	movlw	7
  1725  0FE5  00FC               	movwf	??_utoa
  1726  0FE6  087C               	movf	??_utoa,w
  1727  0FE7  07A2               	addwf	utoa@c,f
  1728  0FE8                     l668:
  1729  0FE8  3030               	movlw	48
  1730  0FE9  00FC               	movwf	??_utoa
  1731  0FEA  087C               	movf	??_utoa,w
  1732  0FEB  07A2               	addwf	utoa@c,f
  1733  0FEC                     l1513:
  1734  0FEC  0822               	movf	utoa@c,w
  1735  0FED  00FC               	movwf	??_utoa
  1736  0FEE  0823               	movf	utoa@buf,w
  1737  0FEF  0084               	movwf	4
  1738  0FF0  087C               	movf	??_utoa,w
  1739  0FF1  1383               	bcf	3,7	;select IRP bank0
  1740  0FF2  0080               	movwf	0
  1741  0FF3                     l1515:
  1742  0FF3  3001               	movlw	1
  1743  0FF4  02A3               	subwf	utoa@buf,f
  1744  0FF5                     l1517:
  1745  0FF5  0878               	movf	utoa@val,w
  1746  0FF6  0479               	iorwf	utoa@val+1,w
  1747  0FF7  1D03               	btfss	3,2
  1748  0FF8  2FFA               	goto	u1531
  1749  0FF9  2FFB               	goto	u1530
  1750  0FFA                     u1531:
  1751  0FFA  2FB8               	goto	l1505
  1752  0FFB                     u1530:
  1753  0FFB                     l1519:
  1754                           
  1755                           ;	Return value of _utoa is never used
  1756  0FFB  3001               	movlw	1
  1757  0FFC  00FC               	movwf	??_utoa
  1758  0FFD  087C               	movf	??_utoa,w
  1759  0FFE  07A3               	addwf	utoa@buf,f
  1760  0FFF                     l670:
  1761  0FFF  0008               	return
  1762  1000                     __end_of_utoa:
  1763                           
  1764                           	psect	text6
  1765  0E04                     __ptext6:	
  1766 ;; *************** function ___lwmod *****************
  1767 ;; Defined at:
  1768 ;;		line 5 in file "C:\Program Files\Microchip\xc8\v2.31\pic\sources\c90\common\lwmod.c"
  1769 ;; Parameters:    Size  Location     Type
  1770 ;;  divisor         2    0[COMMON] unsigned int 
  1771 ;;  dividend        2    2[COMMON] unsigned int 
  1772 ;; Auto vars:     Size  Location     Type
  1773 ;;  counter         1    5[COMMON] unsigned char 
  1774 ;; Return value:  Size  Location     Type
  1775 ;;                  2    0[COMMON] unsigned int 
  1776 ;; Registers used:
  1777 ;;		wreg, status,2, status,0
  1778 ;; Tracked objects:
  1779 ;;		On entry : 0/0
  1780 ;;		On exit  : 0/0
  1781 ;;		Unchanged: 0/0
  1782 ;; Data sizes:     COMMON   BANK0   BANK1   BANK3   BANK2
  1783 ;;      Params:         4       0       0       0       0
  1784 ;;      Locals:         1       0       0       0       0
  1785 ;;      Temps:          1       0       0       0       0
  1786 ;;      Totals:         6       0       0       0       0
  1787 ;;Total ram usage:        6 bytes
  1788 ;; Hardware stack levels used:    1
  1789 ;; This function calls:
  1790 ;;		Nothing
  1791 ;; This function is called by:
  1792 ;;		_utoa
  1793 ;; This function uses a non-reentrant model
  1794 ;;
  1795                           
  1796                           
  1797                           ;psect for function ___lwmod
  1798  0E04                     ___lwmod:
  1799  0E04                     l1457:	
  1800                           ;incstack = 0
  1801                           ; Regs used in ___lwmod: [wreg+status,2+status,0]
  1802                           
  1803  0E04  0870               	movf	___lwmod@divisor,w
  1804  0E05  0471               	iorwf	___lwmod@divisor+1,w
  1805  0E06  1903               	btfsc	3,2
  1806  0E07  2E09               	goto	u1421
  1807  0E08  2E0A               	goto	u1420
  1808  0E09                     u1421:
  1809  0E09  2E39               	goto	l1475
  1810  0E0A                     u1420:
  1811  0E0A                     l1459:
  1812  0E0A  01F5               	clrf	___lwmod@counter
  1813  0E0B  0AF5               	incf	___lwmod@counter,f
  1814  0E0C  2E18               	goto	l1465
  1815  0E0D                     l1461:
  1816  0E0D  3001               	movlw	1
  1817  0E0E                     u1435:
  1818  0E0E  1003               	clrc
  1819  0E0F  0DF0               	rlf	___lwmod@divisor,f
  1820  0E10  0DF1               	rlf	___lwmod@divisor+1,f
  1821  0E11  3EFF               	addlw	-1
  1822  0E12  1D03               	skipz
  1823  0E13  2E0E               	goto	u1435
  1824  0E14                     l1463:
  1825  0E14  3001               	movlw	1
  1826  0E15  00F4               	movwf	??___lwmod
  1827  0E16  0874               	movf	??___lwmod,w
  1828  0E17  07F5               	addwf	___lwmod@counter,f
  1829  0E18                     l1465:
  1830  0E18  1FF1               	btfss	___lwmod@divisor+1,7
  1831  0E19  2E1B               	goto	u1441
  1832  0E1A  2E1C               	goto	u1440
  1833  0E1B                     u1441:
  1834  0E1B  2E0D               	goto	l1461
  1835  0E1C                     u1440:
  1836  0E1C                     l1467:
  1837  0E1C  0871               	movf	___lwmod@divisor+1,w
  1838  0E1D  0273               	subwf	___lwmod@dividend+1,w
  1839  0E1E  1D03               	skipz
  1840  0E1F  2E22               	goto	u1455
  1841  0E20  0870               	movf	___lwmod@divisor,w
  1842  0E21  0272               	subwf	___lwmod@dividend,w
  1843  0E22                     u1455:
  1844  0E22  1C03               	skipc
  1845  0E23  2E25               	goto	u1451
  1846  0E24  2E26               	goto	u1450
  1847  0E25                     u1451:
  1848  0E25  2E2C               	goto	l1471
  1849  0E26                     u1450:
  1850  0E26                     l1469:
  1851  0E26  0870               	movf	___lwmod@divisor,w
  1852  0E27  02F2               	subwf	___lwmod@dividend,f
  1853  0E28  0871               	movf	___lwmod@divisor+1,w
  1854  0E29  1C03               	skipc
  1855  0E2A  03F3               	decf	___lwmod@dividend+1,f
  1856  0E2B  02F3               	subwf	___lwmod@dividend+1,f
  1857  0E2C                     l1471:
  1858  0E2C  3001               	movlw	1
  1859  0E2D                     u1465:
  1860  0E2D  1003               	clrc
  1861  0E2E  0CF1               	rrf	___lwmod@divisor+1,f
  1862  0E2F  0CF0               	rrf	___lwmod@divisor,f
  1863  0E30  3EFF               	addlw	-1
  1864  0E31  1D03               	skipz
  1865  0E32  2E2D               	goto	u1465
  1866  0E33                     l1473:
  1867  0E33  3001               	movlw	1
  1868  0E34  02F5               	subwf	___lwmod@counter,f
  1869  0E35  1D03               	btfss	3,2
  1870  0E36  2E38               	goto	u1471
  1871  0E37  2E39               	goto	u1470
  1872  0E38                     u1471:
  1873  0E38  2E1C               	goto	l1467
  1874  0E39                     u1470:
  1875  0E39                     l1475:
  1876  0E39  0873               	movf	___lwmod@dividend+1,w
  1877  0E3A  00F1               	movwf	?___lwmod+1
  1878  0E3B  0872               	movf	___lwmod@dividend,w
  1879  0E3C  00F0               	movwf	?___lwmod
  1880  0E3D                     l490:
  1881  0E3D  0008               	return
  1882  0E3E                     __end_of___lwmod:
  1883                           
  1884                           	psect	text7
  1885  0E3E                     __ptext7:	
  1886 ;; *************** function ___lwdiv *****************
  1887 ;; Defined at:
  1888 ;;		line 5 in file "C:\Program Files\Microchip\xc8\v2.31\pic\sources\c90\common\lwdiv.c"
  1889 ;; Parameters:    Size  Location     Type
  1890 ;;  divisor         2    0[COMMON] unsigned int 
  1891 ;;  dividend        2    2[COMMON] unsigned int 
  1892 ;; Auto vars:     Size  Location     Type
  1893 ;;  quotient        2    5[COMMON] unsigned int 
  1894 ;;  counter         1    7[COMMON] unsigned char 
  1895 ;; Return value:  Size  Location     Type
  1896 ;;                  2    0[COMMON] unsigned int 
  1897 ;; Registers used:
  1898 ;;		wreg, status,2, status,0
  1899 ;; Tracked objects:
  1900 ;;		On entry : 0/0
  1901 ;;		On exit  : 0/0
  1902 ;;		Unchanged: 0/0
  1903 ;; Data sizes:     COMMON   BANK0   BANK1   BANK3   BANK2
  1904 ;;      Params:         4       0       0       0       0
  1905 ;;      Locals:         3       0       0       0       0
  1906 ;;      Temps:          1       0       0       0       0
  1907 ;;      Totals:         8       0       0       0       0
  1908 ;;Total ram usage:        8 bytes
  1909 ;; Hardware stack levels used:    1
  1910 ;; This function calls:
  1911 ;;		Nothing
  1912 ;; This function is called by:
  1913 ;;		_utoa
  1914 ;; This function uses a non-reentrant model
  1915 ;;
  1916                           
  1917                           
  1918                           ;psect for function ___lwdiv
  1919  0E3E                     ___lwdiv:
  1920  0E3E                     l1431:	
  1921                           ;incstack = 0
  1922                           ; Regs used in ___lwdiv: [wreg+status,2+status,0]
  1923                           
  1924  0E3E  01F5               	clrf	___lwdiv@quotient
  1925  0E3F  01F6               	clrf	___lwdiv@quotient+1
  1926  0E40                     l1433:
  1927  0E40  0870               	movf	___lwdiv@divisor,w
  1928  0E41  0471               	iorwf	___lwdiv@divisor+1,w
  1929  0E42  1903               	btfsc	3,2
  1930  0E43  2E45               	goto	u1351
  1931  0E44  2E46               	goto	u1350
  1932  0E45                     u1351:
  1933  0E45  2E7D               	goto	l1453
  1934  0E46                     u1350:
  1935  0E46                     l1435:
  1936  0E46  01F7               	clrf	___lwdiv@counter
  1937  0E47  0AF7               	incf	___lwdiv@counter,f
  1938  0E48  2E54               	goto	l1441
  1939  0E49                     l1437:
  1940  0E49  3001               	movlw	1
  1941  0E4A                     u1365:
  1942  0E4A  1003               	clrc
  1943  0E4B  0DF0               	rlf	___lwdiv@divisor,f
  1944  0E4C  0DF1               	rlf	___lwdiv@divisor+1,f
  1945  0E4D  3EFF               	addlw	-1
  1946  0E4E  1D03               	skipz
  1947  0E4F  2E4A               	goto	u1365
  1948  0E50                     l1439:
  1949  0E50  3001               	movlw	1
  1950  0E51  00F4               	movwf	??___lwdiv
  1951  0E52  0874               	movf	??___lwdiv,w
  1952  0E53  07F7               	addwf	___lwdiv@counter,f
  1953  0E54                     l1441:
  1954  0E54  1FF1               	btfss	___lwdiv@divisor+1,7
  1955  0E55  2E57               	goto	u1371
  1956  0E56  2E58               	goto	u1370
  1957  0E57                     u1371:
  1958  0E57  2E49               	goto	l1437
  1959  0E58                     u1370:
  1960  0E58                     l1443:
  1961  0E58  3001               	movlw	1
  1962  0E59                     u1385:
  1963  0E59  1003               	clrc
  1964  0E5A  0DF5               	rlf	___lwdiv@quotient,f
  1965  0E5B  0DF6               	rlf	___lwdiv@quotient+1,f
  1966  0E5C  3EFF               	addlw	-1
  1967  0E5D  1D03               	skipz
  1968  0E5E  2E59               	goto	u1385
  1969  0E5F  0871               	movf	___lwdiv@divisor+1,w
  1970  0E60  0273               	subwf	___lwdiv@dividend+1,w
  1971  0E61  1D03               	skipz
  1972  0E62  2E65               	goto	u1395
  1973  0E63  0870               	movf	___lwdiv@divisor,w
  1974  0E64  0272               	subwf	___lwdiv@dividend,w
  1975  0E65                     u1395:
  1976  0E65  1C03               	skipc
  1977  0E66  2E68               	goto	u1391
  1978  0E67  2E69               	goto	u1390
  1979  0E68                     u1391:
  1980  0E68  2E70               	goto	l1449
  1981  0E69                     u1390:
  1982  0E69                     l1445:
  1983  0E69  0870               	movf	___lwdiv@divisor,w
  1984  0E6A  02F2               	subwf	___lwdiv@dividend,f
  1985  0E6B  0871               	movf	___lwdiv@divisor+1,w
  1986  0E6C  1C03               	skipc
  1987  0E6D  03F3               	decf	___lwdiv@dividend+1,f
  1988  0E6E  02F3               	subwf	___lwdiv@dividend+1,f
  1989  0E6F                     l1447:
  1990  0E6F  1475               	bsf	___lwdiv@quotient,0
  1991  0E70                     l1449:
  1992  0E70  3001               	movlw	1
  1993  0E71                     u1405:
  1994  0E71  1003               	clrc
  1995  0E72  0CF1               	rrf	___lwdiv@divisor+1,f
  1996  0E73  0CF0               	rrf	___lwdiv@divisor,f
  1997  0E74  3EFF               	addlw	-1
  1998  0E75  1D03               	skipz
  1999  0E76  2E71               	goto	u1405
  2000  0E77                     l1451:
  2001  0E77  3001               	movlw	1
  2002  0E78  02F7               	subwf	___lwdiv@counter,f
  2003  0E79  1D03               	btfss	3,2
  2004  0E7A  2E7C               	goto	u1411
  2005  0E7B  2E7D               	goto	u1410
  2006  0E7C                     u1411:
  2007  0E7C  2E58               	goto	l1443
  2008  0E7D                     u1410:
  2009  0E7D                     l1453:
  2010  0E7D  0876               	movf	___lwdiv@quotient+1,w
  2011  0E7E  00F1               	movwf	?___lwdiv+1
  2012  0E7F  0875               	movf	___lwdiv@quotient,w
  2013  0E80  00F0               	movwf	?___lwdiv
  2014  0E81                     l480:
  2015  0E81  0008               	return
  2016  0E82                     __end_of___lwdiv:
  2017                           
  2018                           	psect	text8
  2019  0095                     __ptext8:	
  2020 ;; *************** function ___xxtofl *****************
  2021 ;; Defined at:
  2022 ;;		line 10 in file "C:\Program Files\Microchip\xc8\v2.31\pic\sources\c90\common\xxtofl.c"
  2023 ;; Parameters:    Size  Location     Type
  2024 ;;  sign            1    wreg     unsigned char 
  2025 ;;  val             4    0[COMMON] long 
  2026 ;; Auto vars:     Size  Location     Type
  2027 ;;  sign            1    8[COMMON] unsigned char 
  2028 ;;  arg             4   10[COMMON] unsigned long 
  2029 ;;  exp             1    9[COMMON] unsigned char 
  2030 ;; Return value:  Size  Location     Type
  2031 ;;                  4    0[COMMON] unsigned char 
  2032 ;; Registers used:
  2033 ;;		wreg, status,2, status,0
  2034 ;; Tracked objects:
  2035 ;;		On entry : 0/0
  2036 ;;		On exit  : 0/0
  2037 ;;		Unchanged: 0/0
  2038 ;; Data sizes:     COMMON   BANK0   BANK1   BANK3   BANK2
  2039 ;;      Params:         4       0       0       0       0
  2040 ;;      Locals:         6       0       0       0       0
  2041 ;;      Temps:          4       0       0       0       0
  2042 ;;      Totals:        14       0       0       0       0
  2043 ;;Total ram usage:       14 bytes
  2044 ;; Hardware stack levels used:    1
  2045 ;; This function calls:
  2046 ;;		Nothing
  2047 ;; This function is called by:
  2048 ;;		_main
  2049 ;; This function uses a non-reentrant model
  2050 ;;
  2051                           
  2052                           
  2053                           ;psect for function ___xxtofl
  2054  0095                     ___xxtofl:
  2055                           
  2056                           ;incstack = 0
  2057                           ; Regs used in ___xxtofl: [wreg+status,2+status,0]
  2058                           ;___xxtofl@sign stored from wreg
  2059  0095  00F8               	movwf	___xxtofl@sign
  2060  0096                     l2013:
  2061  0096  0878               	movf	___xxtofl@sign,w
  2062  0097  1903               	btfsc	3,2
  2063  0098  289A               	goto	u2551
  2064  0099  289B               	goto	u2550
  2065  009A                     u2551:
  2066  009A  28AF               	goto	l2019
  2067  009B                     u2550:
  2068  009B                     l2015:
  2069  009B  1FF3               	btfss	___xxtofl@val+3,7
  2070  009C  289E               	goto	u2561
  2071  009D  289F               	goto	u2560
  2072  009E                     u2561:
  2073  009E  28AF               	goto	l2019
  2074  009F                     u2560:
  2075  009F                     l2017:
  2076  009F  0970               	comf	___xxtofl@val,w
  2077  00A0  00FA               	movwf	___xxtofl@arg
  2078  00A1  0971               	comf	___xxtofl@val+1,w
  2079  00A2  00FB               	movwf	___xxtofl@arg+1
  2080  00A3  0972               	comf	___xxtofl@val+2,w
  2081  00A4  00FC               	movwf	___xxtofl@arg+2
  2082  00A5  0973               	comf	___xxtofl@val+3,w
  2083  00A6  00FD               	movwf	___xxtofl@arg+3
  2084  00A7  0AFA               	incf	___xxtofl@arg,f
  2085  00A8  1903               	skipnz
  2086  00A9  0AFB               	incf	___xxtofl@arg+1,f
  2087  00AA  1903               	skipnz
  2088  00AB  0AFC               	incf	___xxtofl@arg+2,f
  2089  00AC  1903               	skipnz
  2090  00AD  0AFD               	incf	___xxtofl@arg+3,f
  2091  00AE  28B7               	goto	l641
  2092  00AF                     l2019:
  2093  00AF  0873               	movf	___xxtofl@val+3,w
  2094  00B0  00FD               	movwf	___xxtofl@arg+3
  2095  00B1  0872               	movf	___xxtofl@val+2,w
  2096  00B2  00FC               	movwf	___xxtofl@arg+2
  2097  00B3  0871               	movf	___xxtofl@val+1,w
  2098  00B4  00FB               	movwf	___xxtofl@arg+1
  2099  00B5  0870               	movf	___xxtofl@val,w
  2100  00B6  00FA               	movwf	___xxtofl@arg
  2101  00B7                     l641:
  2102  00B7  0873               	movf	___xxtofl@val+3,w
  2103  00B8  0472               	iorwf	___xxtofl@val+2,w
  2104  00B9  0471               	iorwf	___xxtofl@val+1,w
  2105  00BA  0470               	iorwf	___xxtofl@val,w
  2106  00BB  1D03               	skipz
  2107  00BC  28BE               	goto	u2571
  2108  00BD  28BF               	goto	u2570
  2109  00BE                     u2571:
  2110  00BE  28C8               	goto	l2025
  2111  00BF                     u2570:
  2112  00BF                     l2021:
  2113  00BF  3000               	movlw	0
  2114  00C0  00F3               	movwf	?___xxtofl+3
  2115  00C1  3000               	movlw	0
  2116  00C2  00F2               	movwf	?___xxtofl+2
  2117  00C3  3000               	movlw	0
  2118  00C4  00F1               	movwf	?___xxtofl+1
  2119  00C5  3000               	movlw	0
  2120  00C6  00F0               	movwf	?___xxtofl
  2121  00C7  294E               	goto	l643
  2122  00C8                     l2025:
  2123  00C8  3096               	movlw	150
  2124  00C9  00F4               	movwf	??___xxtofl
  2125  00CA  0874               	movf	??___xxtofl,w
  2126  00CB  00F9               	movwf	___xxtofl@exp
  2127  00CC  28DA               	goto	l2029
  2128  00CD                     l2027:
  2129  00CD  3001               	movlw	1
  2130  00CE  00F4               	movwf	??___xxtofl
  2131  00CF  0874               	movf	??___xxtofl,w
  2132  00D0  07F9               	addwf	___xxtofl@exp,f
  2133  00D1  3001               	movlw	1
  2134  00D2                     u2585:
  2135  00D2  1003               	clrc
  2136  00D3  0CFD               	rrf	___xxtofl@arg+3,f
  2137  00D4  0CFC               	rrf	___xxtofl@arg+2,f
  2138  00D5  0CFB               	rrf	___xxtofl@arg+1,f
  2139  00D6  0CFA               	rrf	___xxtofl@arg,f
  2140  00D7  3EFF               	addlw	-1
  2141  00D8  1D03               	skipz
  2142  00D9  28D2               	goto	u2585
  2143  00DA                     l2029:
  2144  00DA  30FE               	movlw	254
  2145  00DB  057D               	andwf	___xxtofl@arg+3,w
  2146  00DC  1D03               	btfss	3,2
  2147  00DD  28DF               	goto	u2591
  2148  00DE  28E0               	goto	u2590
  2149  00DF                     u2591:
  2150  00DF  28CD               	goto	l2027
  2151  00E0                     u2590:
  2152  00E0  28FC               	goto	l647
  2153  00E1                     l2031:
  2154  00E1  3001               	movlw	1
  2155  00E2  00F4               	movwf	??___xxtofl
  2156  00E3  0874               	movf	??___xxtofl,w
  2157  00E4  07F9               	addwf	___xxtofl@exp,f
  2158  00E5                     l2033:
  2159  00E5  3001               	movlw	1
  2160  00E6  07FA               	addwf	___xxtofl@arg,f
  2161  00E7  3000               	movlw	0
  2162  00E8  1803               	skipnc
  2163  00E9  3001               	movlw	1
  2164  00EA  07FB               	addwf	___xxtofl@arg+1,f
  2165  00EB  3000               	movlw	0
  2166  00EC  1803               	skipnc
  2167  00ED  3001               	movlw	1
  2168  00EE  07FC               	addwf	___xxtofl@arg+2,f
  2169  00EF  3000               	movlw	0
  2170  00F0  1803               	skipnc
  2171  00F1  3001               	movlw	1
  2172  00F2  07FD               	addwf	___xxtofl@arg+3,f
  2173  00F3                     l2035:
  2174  00F3  3001               	movlw	1
  2175  00F4                     u2605:
  2176  00F4  1003               	clrc
  2177  00F5  0CFD               	rrf	___xxtofl@arg+3,f
  2178  00F6  0CFC               	rrf	___xxtofl@arg+2,f
  2179  00F7  0CFB               	rrf	___xxtofl@arg+1,f
  2180  00F8  0CFA               	rrf	___xxtofl@arg,f
  2181  00F9  3EFF               	addlw	-1
  2182  00FA  1D03               	skipz
  2183  00FB  28F4               	goto	u2605
  2184  00FC                     l647:
  2185  00FC  30FF               	movlw	255
  2186  00FD  057D               	andwf	___xxtofl@arg+3,w
  2187  00FE  1D03               	btfss	3,2
  2188  00FF  2901               	goto	u2611
  2189  0100  2902               	goto	u2610
  2190  0101                     u2611:
  2191  0101  28E1               	goto	l2031
  2192  0102                     u2610:
  2193  0102  290E               	goto	l2039
  2194  0103                     l2037:
  2195  0103  3001               	movlw	1
  2196  0104  02F9               	subwf	___xxtofl@exp,f
  2197  0105  3001               	movlw	1
  2198  0106  00F4               	movwf	??___xxtofl
  2199  0107                     u2625:
  2200  0107  1003               	clrc
  2201  0108  0DFA               	rlf	___xxtofl@arg,f
  2202  0109  0DFB               	rlf	___xxtofl@arg+1,f
  2203  010A  0DFC               	rlf	___xxtofl@arg+2,f
  2204  010B  0DFD               	rlf	___xxtofl@arg+3,f
  2205  010C  0BF4               	decfsz	??___xxtofl,f
  2206  010D  2907               	goto	u2625
  2207  010E                     l2039:
  2208  010E  1BFC               	btfsc	___xxtofl@arg+2,7
  2209  010F  2911               	goto	u2631
  2210  0110  2912               	goto	u2630
  2211  0111                     u2631:
  2212  0111  2918               	goto	l654
  2213  0112                     u2630:
  2214  0112                     l2041:
  2215  0112  3002               	movlw	2
  2216  0113  0279               	subwf	___xxtofl@exp,w
  2217  0114  1803               	skipnc
  2218  0115  2917               	goto	u2641
  2219  0116  2918               	goto	u2640
  2220  0117                     u2641:
  2221  0117  2903               	goto	l2037
  2222  0118                     u2640:
  2223  0118                     l654:
  2224  0118  1879               	btfsc	___xxtofl@exp,0
  2225  0119  291B               	goto	u2651
  2226  011A  291C               	goto	u2650
  2227  011B                     u2651:
  2228  011B  2924               	goto	l655
  2229  011C                     u2650:
  2230  011C                     l2043:
  2231  011C  30FF               	movlw	255
  2232  011D  05FA               	andwf	___xxtofl@arg,f
  2233  011E  30FF               	movlw	255
  2234  011F  05FB               	andwf	___xxtofl@arg+1,f
  2235  0120  307F               	movlw	127
  2236  0121  05FC               	andwf	___xxtofl@arg+2,f
  2237  0122  30FF               	movlw	255
  2238  0123  05FD               	andwf	___xxtofl@arg+3,f
  2239  0124                     l655:
  2240  0124  1003               	clrc
  2241  0125  0CF9               	rrf	___xxtofl@exp,f
  2242  0126                     l2045:
  2243  0126  0879               	movf	___xxtofl@exp,w
  2244  0127  00F4               	movwf	??___xxtofl
  2245  0128  01F5               	clrf	??___xxtofl+1
  2246  0129  01F6               	clrf	??___xxtofl+2
  2247  012A  01F7               	clrf	??___xxtofl+3
  2248  012B  3018               	movlw	24
  2249  012C                     u2665:
  2250  012C  1003               	clrc
  2251  012D  0DF4               	rlf	??___xxtofl,f
  2252  012E  0DF5               	rlf	??___xxtofl+1,f
  2253  012F  0DF6               	rlf	??___xxtofl+2,f
  2254  0130  0DF7               	rlf	??___xxtofl+3,f
  2255  0131                     u2660:
  2256  0131  3EFF               	addlw	-1
  2257  0132  1D03               	skipz
  2258  0133  292C               	goto	u2665
  2259  0134  0874               	movf	??___xxtofl,w
  2260  0135  04FA               	iorwf	___xxtofl@arg,f
  2261  0136  0875               	movf	??___xxtofl+1,w
  2262  0137  04FB               	iorwf	___xxtofl@arg+1,f
  2263  0138  0876               	movf	??___xxtofl+2,w
  2264  0139  04FC               	iorwf	___xxtofl@arg+2,f
  2265  013A  0877               	movf	??___xxtofl+3,w
  2266  013B  04FD               	iorwf	___xxtofl@arg+3,f
  2267  013C                     l2047:
  2268  013C  0878               	movf	___xxtofl@sign,w
  2269  013D  1903               	btfsc	3,2
  2270  013E  2940               	goto	u2671
  2271  013F  2941               	goto	u2670
  2272  0140                     u2671:
  2273  0140  2946               	goto	l2053
  2274  0141                     u2670:
  2275  0141                     l2049:
  2276  0141  1FF3               	btfss	___xxtofl@val+3,7
  2277  0142  2944               	goto	u2681
  2278  0143  2945               	goto	u2680
  2279  0144                     u2681:
  2280  0144  2946               	goto	l2053
  2281  0145                     u2680:
  2282  0145                     l2051:
  2283  0145  17FD               	bsf	___xxtofl@arg+3,7
  2284  0146                     l2053:
  2285  0146  087D               	movf	___xxtofl@arg+3,w
  2286  0147  00F3               	movwf	?___xxtofl+3
  2287  0148  087C               	movf	___xxtofl@arg+2,w
  2288  0149  00F2               	movwf	?___xxtofl+2
  2289  014A  087B               	movf	___xxtofl@arg+1,w
  2290  014B  00F1               	movwf	?___xxtofl+1
  2291  014C  087A               	movf	___xxtofl@arg,w
  2292  014D  00F0               	movwf	?___xxtofl
  2293  014E                     l643:
  2294  014E  0008               	return
  2295  014F                     __end_of___xxtofl:
  2296                           
  2297                           	psect	text9
  2298  0019                     __ptext9:	
  2299 ;; *************** function ___fltol *****************
  2300 ;; Defined at:
  2301 ;;		line 43 in file "C:\Program Files\Microchip\xc8\v2.31\pic\sources\c90\common\fltol.c"
  2302 ;; Parameters:    Size  Location     Type
  2303 ;;  f1              4   26[BANK0 ] unsigned char 
  2304 ;; Auto vars:     Size  Location     Type
  2305 ;;  exp1            1   36[BANK0 ] unsigned char 
  2306 ;;  sign1           1   35[BANK0 ] unsigned char 
  2307 ;; Return value:  Size  Location     Type
  2308 ;;                  4   26[BANK0 ] long 
  2309 ;; Registers used:
  2310 ;;		wreg, status,2, status,0
  2311 ;; Tracked objects:
  2312 ;;		On entry : 0/0
  2313 ;;		On exit  : 0/0
  2314 ;;		Unchanged: 0/0
  2315 ;; Data sizes:     COMMON   BANK0   BANK1   BANK3   BANK2
  2316 ;;      Params:         0       4       0       0       0
  2317 ;;      Locals:         0       2       0       0       0
  2318 ;;      Temps:          0       5       0       0       0
  2319 ;;      Totals:         0      11       0       0       0
  2320 ;;Total ram usage:       11 bytes
  2321 ;; Hardware stack levels used:    1
  2322 ;; This function calls:
  2323 ;;		Nothing
  2324 ;; This function is called by:
  2325 ;;		_main
  2326 ;; This function uses a non-reentrant model
  2327 ;;
  2328                           
  2329                           
  2330                           ;psect for function ___fltol
  2331  0019                     ___fltol:
  2332  0019                     l1695:	
  2333                           ;incstack = 0
  2334                           ; Regs used in ___fltol: [wreg+status,2+status,0]
  2335                           
  2336  0019  1003               	clrc
  2337  001A  1283               	bcf	3,5	;RP0=0, select bank0
  2338  001B  1303               	bcf	3,6	;RP1=0, select bank0
  2339  001C  0D3C               	rlf	___fltol@f1+2,w
  2340  001D  0D3D               	rlf	___fltol@f1+3,w
  2341  001E  00BE               	movwf	??___fltol
  2342  001F  083E               	movf	??___fltol,w
  2343  0020  00C4               	movwf	___fltol@exp1
  2344  0021  0844               	movf	___fltol@exp1,w
  2345  0022  1D03               	btfss	3,2
  2346  0023  2825               	goto	u1791
  2347  0024  2826               	goto	u1790
  2348  0025                     u1791:
  2349  0025  282F               	goto	l1701
  2350  0026                     u1790:
  2351  0026                     l1697:
  2352  0026  3000               	movlw	0
  2353  0027  00BD               	movwf	?___fltol+3
  2354  0028  3000               	movlw	0
  2355  0029  00BC               	movwf	?___fltol+2
  2356  002A  3000               	movlw	0
  2357  002B  00BB               	movwf	?___fltol+1
  2358  002C  3000               	movlw	0
  2359  002D  00BA               	movwf	?___fltol
  2360  002E  2894               	goto	l394
  2361  002F                     l1701:
  2362  002F  083A               	movf	___fltol@f1,w
  2363  0030  00BE               	movwf	??___fltol
  2364  0031  083B               	movf	___fltol@f1+1,w
  2365  0032  00BF               	movwf	??___fltol+1
  2366  0033  083C               	movf	___fltol@f1+2,w
  2367  0034  00C0               	movwf	??___fltol+2
  2368  0035  083D               	movf	___fltol@f1+3,w
  2369  0036  00C1               	movwf	??___fltol+3
  2370  0037  301F               	movlw	31
  2371  0038                     u1805:
  2372  0038  1003               	clrc
  2373  0039  0CC1               	rrf	??___fltol+3,f
  2374  003A  0CC0               	rrf	??___fltol+2,f
  2375  003B  0CBF               	rrf	??___fltol+1,f
  2376  003C  0CBE               	rrf	??___fltol,f
  2377  003D                     u1800:
  2378  003D  3EFF               	addlw	-1
  2379  003E  1D03               	skipz
  2380  003F  2838               	goto	u1805
  2381  0040  083E               	movf	??___fltol,w
  2382  0041  00C2               	movwf	??___fltol+4
  2383  0042  0842               	movf	??___fltol+4,w
  2384  0043  00C3               	movwf	___fltol@sign1
  2385  0044                     l1703:
  2386  0044  17BC               	bsf	___fltol@f1+2,7
  2387  0045                     l1705:
  2388  0045  30FF               	movlw	255
  2389  0046  05BA               	andwf	___fltol@f1,f
  2390  0047  30FF               	movlw	255
  2391  0048  05BB               	andwf	___fltol@f1+1,f
  2392  0049  30FF               	movlw	255
  2393  004A  05BC               	andwf	___fltol@f1+2,f
  2394  004B  3000               	movlw	0
  2395  004C  05BD               	andwf	___fltol@f1+3,f
  2396  004D                     l1707:
  2397  004D  3096               	movlw	150
  2398  004E  02C4               	subwf	___fltol@exp1,f
  2399  004F                     l1709:
  2400  004F  1FC4               	btfss	___fltol@exp1,7
  2401  0050  2852               	goto	u1811
  2402  0051  2853               	goto	u1810
  2403  0052                     u1811:
  2404  0052  286D               	goto	l1719
  2405  0053                     u1810:
  2406  0053                     l1711:
  2407  0053  0844               	movf	___fltol@exp1,w
  2408  0054  3A80               	xorlw	128
  2409  0055  3E97               	addlw	151
  2410  0056  1803               	skipnc
  2411  0057  2859               	goto	u1821
  2412  0058  285A               	goto	u1820
  2413  0059                     u1821:
  2414  0059  285B               	goto	l1717
  2415  005A                     u1820:
  2416  005A  2826               	goto	l1697
  2417  005B                     l1717:
  2418  005B  3001               	movlw	1
  2419  005C                     u1835:
  2420  005C  1003               	clrc
  2421  005D  0CBD               	rrf	___fltol@f1+3,f
  2422  005E  0CBC               	rrf	___fltol@f1+2,f
  2423  005F  0CBB               	rrf	___fltol@f1+1,f
  2424  0060  0CBA               	rrf	___fltol@f1,f
  2425  0061  3EFF               	addlw	-1
  2426  0062  1D03               	skipz
  2427  0063  285C               	goto	u1835
  2428  0064  3001               	movlw	1
  2429  0065  00BE               	movwf	??___fltol
  2430  0066  083E               	movf	??___fltol,w
  2431  0067  07C4               	addwf	___fltol@exp1,f
  2432  0068  1D03               	btfss	3,2
  2433  0069  286B               	goto	u1841
  2434  006A  286C               	goto	u1840
  2435  006B                     u1841:
  2436  006B  285B               	goto	l1717
  2437  006C                     u1840:
  2438  006C  2884               	goto	l1727
  2439  006D                     l1719:
  2440  006D  3020               	movlw	32
  2441  006E  0244               	subwf	___fltol@exp1,w
  2442  006F  1C03               	skipc
  2443  0070  2872               	goto	u1851
  2444  0071  2873               	goto	u1850
  2445  0072                     u1851:
  2446  0072  287F               	goto	l401
  2447  0073                     u1850:
  2448  0073  2826               	goto	l1697
  2449  0074                     l1725:
  2450  0074  3001               	movlw	1
  2451  0075  00BE               	movwf	??___fltol
  2452  0076                     u1865:
  2453  0076  1003               	clrc
  2454  0077  0DBA               	rlf	___fltol@f1,f
  2455  0078  0DBB               	rlf	___fltol@f1+1,f
  2456  0079  0DBC               	rlf	___fltol@f1+2,f
  2457  007A  0DBD               	rlf	___fltol@f1+3,f
  2458  007B  0BBE               	decfsz	??___fltol,f
  2459  007C  2876               	goto	u1865
  2460  007D  3001               	movlw	1
  2461  007E  02C4               	subwf	___fltol@exp1,f
  2462  007F                     l401:
  2463  007F  0844               	movf	___fltol@exp1,w
  2464  0080  1D03               	btfss	3,2
  2465  0081  2883               	goto	u1871
  2466  0082  2884               	goto	u1870
  2467  0083                     u1871:
  2468  0083  2874               	goto	l1725
  2469  0084                     u1870:
  2470  0084                     l1727:
  2471  0084  0843               	movf	___fltol@sign1,w
  2472  0085  1903               	btfsc	3,2
  2473  0086  2888               	goto	u1881
  2474  0087  2889               	goto	u1880
  2475  0088                     u1881:
  2476  0088  2894               	goto	l404
  2477  0089                     u1880:
  2478  0089                     l1729:
  2479  0089  09BA               	comf	___fltol@f1,f
  2480  008A  09BB               	comf	___fltol@f1+1,f
  2481  008B  09BC               	comf	___fltol@f1+2,f
  2482  008C  09BD               	comf	___fltol@f1+3,f
  2483  008D  0ABA               	incf	___fltol@f1,f
  2484  008E  1903               	skipnz
  2485  008F  0ABB               	incf	___fltol@f1+1,f
  2486  0090  1903               	skipnz
  2487  0091  0ABC               	incf	___fltol@f1+2,f
  2488  0092  1903               	skipnz
  2489  0093  0ABD               	incf	___fltol@f1+3,f
  2490  0094                     l404:
  2491  0094                     l394:
  2492  0094  0008               	return
  2493  0095                     __end_of___fltol:
  2494                           
  2495                           	psect	text10
  2496  048A                     __ptext10:	
  2497 ;; *************** function ___flmul *****************
  2498 ;; Defined at:
  2499 ;;		line 8 in file "C:\Program Files\Microchip\xc8\v2.31\pic\sources\c90\common\sprcmul.c"
  2500 ;; Parameters:    Size  Location     Type
  2501 ;;  b               4    0[BANK0 ] long 
  2502 ;;  a               4    4[BANK0 ] long 
  2503 ;; Auto vars:     Size  Location     Type
  2504 ;;  prod            4   20[BANK0 ] struct .
  2505 ;;  grs             4   14[BANK0 ] unsigned long 
  2506 ;;  temp            2   24[BANK0 ] struct .
  2507 ;;  bexp            1   19[BANK0 ] unsigned char 
  2508 ;;  aexp            1   18[BANK0 ] unsigned char 
  2509 ;;  sign            1   13[BANK0 ] unsigned char 
  2510 ;; Return value:  Size  Location     Type
  2511 ;;                  4    0[BANK0 ] unsigned char 
  2512 ;; Registers used:
  2513 ;;		wreg, status,2, status,0, btemp+1, pclath, cstack
  2514 ;; Tracked objects:
  2515 ;;		On entry : 0/0
  2516 ;;		On exit  : 0/0
  2517 ;;		Unchanged: 0/0
  2518 ;; Data sizes:     COMMON   BANK0   BANK1   BANK3   BANK2
  2519 ;;      Params:         0       8       0       0       0
  2520 ;;      Locals:         0      13       0       0       0
  2521 ;;      Temps:          0       5       0       0       0
  2522 ;;      Totals:         0      26       0       0       0
  2523 ;;Total ram usage:       26 bytes
  2524 ;; Hardware stack levels used:    1
  2525 ;; Hardware stack levels required when called:    1
  2526 ;; This function calls:
  2527 ;;		__Umul8_16
  2528 ;; This function is called by:
  2529 ;;		_main
  2530 ;; This function uses a non-reentrant model
  2531 ;;
  2532                           
  2533                           
  2534                           ;psect for function ___flmul
  2535  048A                     ___flmul:
  2536  048A                     l1873:	
  2537                           ;incstack = 0
  2538                           ; Regs used in ___flmul: [wreg+status,2+status,0+btemp+1+pclath+cstack]
  2539                           
  2540  048A  1283               	bcf	3,5	;RP0=0, select bank0
  2541  048B  1303               	bcf	3,6	;RP1=0, select bank0
  2542  048C  0823               	movf	___flmul@b+3,w
  2543  048D  3980               	andlw	128
  2544  048E  00A8               	movwf	??___flmul
  2545  048F  0828               	movf	??___flmul,w
  2546  0490  00AD               	movwf	___flmul@sign
  2547  0491                     l1875:
  2548  0491  0823               	movf	___flmul@b+3,w
  2549  0492  00A8               	movwf	??___flmul
  2550  0493  0728               	addwf	??___flmul,w
  2551  0494  00A9               	movwf	??___flmul+1
  2552  0495  0829               	movf	??___flmul+1,w
  2553  0496  00B3               	movwf	___flmul@bexp
  2554  0497                     l1877:
  2555  0497  1FA2               	btfss	___flmul@b+2,7
  2556  0498  2C9A               	goto	u2181
  2557  0499  2C9B               	goto	u2180
  2558  049A                     u2181:
  2559  049A  2C9C               	goto	l1881
  2560  049B                     u2180:
  2561  049B                     l1879:
  2562  049B  1433               	bsf	___flmul@bexp,0
  2563  049C                     l1881:
  2564  049C  0833               	movf	___flmul@bexp,w
  2565  049D  1903               	btfsc	3,2
  2566  049E  2CA0               	goto	u2191
  2567  049F  2CA1               	goto	u2190
  2568  04A0                     u2191:
  2569  04A0  2CB0               	goto	l1889
  2570  04A1                     u2190:
  2571  04A1                     l1883:
  2572  04A1  0A33               	incf	___flmul@bexp,w
  2573  04A2  1D03               	btfss	3,2
  2574  04A3  2CA5               	goto	u2201
  2575  04A4  2CA6               	goto	u2200
  2576  04A5                     u2201:
  2577  04A5  2CAE               	goto	l1887
  2578  04A6                     u2200:
  2579  04A6                     l1885:
  2580  04A6  3000               	movlw	0
  2581  04A7  00A3               	movwf	___flmul@b+3
  2582  04A8  3000               	movlw	0
  2583  04A9  00A2               	movwf	___flmul@b+2
  2584  04AA  3000               	movlw	0
  2585  04AB  00A1               	movwf	___flmul@b+1
  2586  04AC  3000               	movlw	0
  2587  04AD  00A0               	movwf	___flmul@b
  2588  04AE                     l1887:
  2589  04AE  17A2               	bsf	___flmul@b+2,7
  2590  04AF  2CB8               	goto	l1891
  2591  04B0                     l1889:
  2592  04B0  3000               	movlw	0
  2593  04B1  00A3               	movwf	___flmul@b+3
  2594  04B2  3000               	movlw	0
  2595  04B3  00A2               	movwf	___flmul@b+2
  2596  04B4  3000               	movlw	0
  2597  04B5  00A1               	movwf	___flmul@b+1
  2598  04B6  3000               	movlw	0
  2599  04B7  00A0               	movwf	___flmul@b
  2600  04B8                     l1891:
  2601  04B8  0827               	movf	___flmul@a+3,w
  2602  04B9  3980               	andlw	128
  2603  04BA  00A8               	movwf	??___flmul
  2604  04BB  0828               	movf	??___flmul,w
  2605  04BC  06AD               	xorwf	___flmul@sign,f
  2606  04BD                     l1893:
  2607  04BD  0827               	movf	___flmul@a+3,w
  2608  04BE  00A8               	movwf	??___flmul
  2609  04BF  0728               	addwf	??___flmul,w
  2610  04C0  00A9               	movwf	??___flmul+1
  2611  04C1  0829               	movf	??___flmul+1,w
  2612  04C2  00B2               	movwf	___flmul@aexp
  2613  04C3                     l1895:
  2614  04C3  1FA6               	btfss	___flmul@a+2,7
  2615  04C4  2CC6               	goto	u2211
  2616  04C5  2CC7               	goto	u2210
  2617  04C6                     u2211:
  2618  04C6  2CC8               	goto	l1899
  2619  04C7                     u2210:
  2620  04C7                     l1897:
  2621  04C7  1432               	bsf	___flmul@aexp,0
  2622  04C8                     l1899:
  2623  04C8  0832               	movf	___flmul@aexp,w
  2624  04C9  1903               	btfsc	3,2
  2625  04CA  2CCC               	goto	u2221
  2626  04CB  2CCD               	goto	u2220
  2627  04CC                     u2221:
  2628  04CC  2CDC               	goto	l1907
  2629  04CD                     u2220:
  2630  04CD                     l1901:
  2631  04CD  0A32               	incf	___flmul@aexp,w
  2632  04CE  1D03               	btfss	3,2
  2633  04CF  2CD1               	goto	u2231
  2634  04D0  2CD2               	goto	u2230
  2635  04D1                     u2231:
  2636  04D1  2CDA               	goto	l1905
  2637  04D2                     u2230:
  2638  04D2                     l1903:
  2639  04D2  3000               	movlw	0
  2640  04D3  00A7               	movwf	___flmul@a+3
  2641  04D4  3000               	movlw	0
  2642  04D5  00A6               	movwf	___flmul@a+2
  2643  04D6  3000               	movlw	0
  2644  04D7  00A5               	movwf	___flmul@a+1
  2645  04D8  3000               	movlw	0
  2646  04D9  00A4               	movwf	___flmul@a
  2647  04DA                     l1905:
  2648  04DA  17A6               	bsf	___flmul@a+2,7
  2649  04DB  2CE4               	goto	l1909
  2650  04DC                     l1907:
  2651  04DC  3000               	movlw	0
  2652  04DD  00A7               	movwf	___flmul@a+3
  2653  04DE  3000               	movlw	0
  2654  04DF  00A6               	movwf	___flmul@a+2
  2655  04E0  3000               	movlw	0
  2656  04E1  00A5               	movwf	___flmul@a+1
  2657  04E2  3000               	movlw	0
  2658  04E3  00A4               	movwf	___flmul@a
  2659  04E4                     l1909:
  2660  04E4  0832               	movf	___flmul@aexp,w
  2661  04E5  1903               	btfsc	3,2
  2662  04E6  2CE8               	goto	u2241
  2663  04E7  2CE9               	goto	u2240
  2664  04E8                     u2241:
  2665  04E8  2CEE               	goto	l1913
  2666  04E9                     u2240:
  2667  04E9                     l1911:
  2668  04E9  0833               	movf	___flmul@bexp,w
  2669  04EA  1D03               	btfss	3,2
  2670  04EB  2CED               	goto	u2251
  2671  04EC  2CEE               	goto	u2250
  2672  04ED                     u2251:
  2673  04ED  2CF7               	goto	l1917
  2674  04EE                     u2250:
  2675  04EE                     l1913:
  2676  04EE  3000               	movlw	0
  2677  04EF  00A3               	movwf	?___flmul+3
  2678  04F0  3000               	movlw	0
  2679  04F1  00A2               	movwf	?___flmul+2
  2680  04F2  3000               	movlw	0
  2681  04F3  00A1               	movwf	?___flmul+1
  2682  04F4  3000               	movlw	0
  2683  04F5  00A0               	movwf	?___flmul
  2684  04F6  2FEA               	goto	l597
  2685  04F7                     l1917:
  2686  04F7  0820               	movf	___flmul@b,w
  2687  04F8  00A8               	movwf	??___flmul
  2688  04F9  0828               	movf	??___flmul,w
  2689  04FA  00F0               	movwf	__Umul8_16@multiplicand
  2690  04FB  0826               	movf	___flmul@a+2,w
  2691  04FC  120A  158A  25B4  120A  118A  	fcall	__Umul8_16
  2692  0501  0871               	movf	?__Umul8_16+1,w
  2693  0502  1283               	bcf	3,5	;RP0=0, select bank0
  2694  0503  1303               	bcf	3,6	;RP1=0, select bank0
  2695  0504  00B9               	movwf	___flmul@temp+1
  2696  0505  0870               	movf	?__Umul8_16,w
  2697  0506  00B8               	movwf	___flmul@temp
  2698  0507                     l1919:
  2699  0507  0838               	movf	___flmul@temp,w
  2700  0508  00A8               	movwf	??___flmul
  2701  0509  01A9               	clrf	??___flmul+1
  2702  050A  01AA               	clrf	??___flmul+2
  2703  050B  01AB               	clrf	??___flmul+3
  2704  050C  082B               	movf	??___flmul+3,w
  2705  050D  00B1               	movwf	___flmul@grs+3
  2706  050E  082A               	movf	??___flmul+2,w
  2707  050F  00B0               	movwf	___flmul@grs+2
  2708  0510  0829               	movf	??___flmul+1,w
  2709  0511  00AF               	movwf	___flmul@grs+1
  2710  0512  0828               	movf	??___flmul,w
  2711  0513  00AE               	movwf	___flmul@grs
  2712  0514                     l1921:
  2713  0514  0839               	movf	___flmul@temp+1,w
  2714  0515  00A8               	movwf	??___flmul
  2715  0516  01A9               	clrf	??___flmul+1
  2716  0517  01AA               	clrf	??___flmul+2
  2717  0518  01AB               	clrf	??___flmul+3
  2718  0519  082B               	movf	??___flmul+3,w
  2719  051A  00B7               	movwf	___flmul@prod+3
  2720  051B  082A               	movf	??___flmul+2,w
  2721  051C  00B6               	movwf	___flmul@prod+2
  2722  051D  0829               	movf	??___flmul+1,w
  2723  051E  00B5               	movwf	___flmul@prod+1
  2724  051F  0828               	movf	??___flmul,w
  2725  0520  00B4               	movwf	___flmul@prod
  2726  0521  0821               	movf	___flmul@b+1,w
  2727  0522  00A8               	movwf	??___flmul
  2728  0523  0828               	movf	??___flmul,w
  2729  0524  00F0               	movwf	__Umul8_16@multiplicand
  2730  0525  0825               	movf	___flmul@a+1,w
  2731  0526  120A  158A  25B4  120A  118A  	fcall	__Umul8_16
  2732  052B  0871               	movf	?__Umul8_16+1,w
  2733  052C  1283               	bcf	3,5	;RP0=0, select bank0
  2734  052D  1303               	bcf	3,6	;RP1=0, select bank0
  2735  052E  00B9               	movwf	___flmul@temp+1
  2736  052F  0870               	movf	?__Umul8_16,w
  2737  0530  00B8               	movwf	___flmul@temp
  2738  0531                     l1923:
  2739  0531  0838               	movf	___flmul@temp,w
  2740  0532  00A8               	movwf	??___flmul
  2741  0533  01A9               	clrf	??___flmul+1
  2742  0534  01AA               	clrf	??___flmul+2
  2743  0535  01AB               	clrf	??___flmul+3
  2744  0536  0828               	movf	??___flmul,w
  2745  0537  07AE               	addwf	___flmul@grs,f
  2746  0538  0829               	movf	??___flmul+1,w
  2747  0539  1103               	clrz
  2748  053A  1803               	skipnc
  2749  053B  3E01               	addlw	1
  2750  053C  1903               	skipnz
  2751  053D  2D3F               	goto	u2261
  2752  053E  07AF               	addwf	___flmul@grs+1,f
  2753  053F                     u2261:
  2754  053F  082A               	movf	??___flmul+2,w
  2755  0540  1103               	clrz
  2756  0541  1803               	skipnc
  2757  0542  3E01               	addlw	1
  2758  0543  1903               	skipnz
  2759  0544  2D46               	goto	u2262
  2760  0545  07B0               	addwf	___flmul@grs+2,f
  2761  0546                     u2262:
  2762  0546  082B               	movf	??___flmul+3,w
  2763  0547  1103               	clrz
  2764  0548  1803               	skipnc
  2765  0549  3E01               	addlw	1
  2766  054A  1903               	skipnz
  2767  054B  2D4D               	goto	u2263
  2768  054C  07B1               	addwf	___flmul@grs+3,f
  2769  054D                     u2263:
  2770  054D                     l1925:
  2771  054D  0839               	movf	___flmul@temp+1,w
  2772  054E  00A8               	movwf	??___flmul
  2773  054F  01A9               	clrf	??___flmul+1
  2774  0550  01AA               	clrf	??___flmul+2
  2775  0551  01AB               	clrf	??___flmul+3
  2776  0552  0828               	movf	??___flmul,w
  2777  0553  07B4               	addwf	___flmul@prod,f
  2778  0554  0829               	movf	??___flmul+1,w
  2779  0555  1103               	clrz
  2780  0556  1803               	skipnc
  2781  0557  3E01               	addlw	1
  2782  0558  1903               	skipnz
  2783  0559  2D5B               	goto	u2271
  2784  055A  07B5               	addwf	___flmul@prod+1,f
  2785  055B                     u2271:
  2786  055B  082A               	movf	??___flmul+2,w
  2787  055C  1103               	clrz
  2788  055D  1803               	skipnc
  2789  055E  3E01               	addlw	1
  2790  055F  1903               	skipnz
  2791  0560  2D62               	goto	u2272
  2792  0561  07B6               	addwf	___flmul@prod+2,f
  2793  0562                     u2272:
  2794  0562  082B               	movf	??___flmul+3,w
  2795  0563  1103               	clrz
  2796  0564  1803               	skipnc
  2797  0565  3E01               	addlw	1
  2798  0566  1903               	skipnz
  2799  0567  2D69               	goto	u2273
  2800  0568  07B7               	addwf	___flmul@prod+3,f
  2801  0569                     u2273:
  2802  0569  0822               	movf	___flmul@b+2,w
  2803  056A  00A8               	movwf	??___flmul
  2804  056B  0828               	movf	??___flmul,w
  2805  056C  00F0               	movwf	__Umul8_16@multiplicand
  2806  056D  0824               	movf	___flmul@a,w
  2807  056E  120A  158A  25B4  120A  118A  	fcall	__Umul8_16
  2808  0573  0871               	movf	?__Umul8_16+1,w
  2809  0574  1283               	bcf	3,5	;RP0=0, select bank0
  2810  0575  1303               	bcf	3,6	;RP1=0, select bank0
  2811  0576  00B9               	movwf	___flmul@temp+1
  2812  0577  0870               	movf	?__Umul8_16,w
  2813  0578  00B8               	movwf	___flmul@temp
  2814  0579                     l1927:
  2815  0579  0838               	movf	___flmul@temp,w
  2816  057A  00A8               	movwf	??___flmul
  2817  057B  01A9               	clrf	??___flmul+1
  2818  057C  01AA               	clrf	??___flmul+2
  2819  057D  01AB               	clrf	??___flmul+3
  2820  057E  0828               	movf	??___flmul,w
  2821  057F  07AE               	addwf	___flmul@grs,f
  2822  0580  0829               	movf	??___flmul+1,w
  2823  0581  1103               	clrz
  2824  0582  1803               	skipnc
  2825  0583  3E01               	addlw	1
  2826  0584  1903               	skipnz
  2827  0585  2D87               	goto	u2281
  2828  0586  07AF               	addwf	___flmul@grs+1,f
  2829  0587                     u2281:
  2830  0587  082A               	movf	??___flmul+2,w
  2831  0588  1103               	clrz
  2832  0589  1803               	skipnc
  2833  058A  3E01               	addlw	1
  2834  058B  1903               	skipnz
  2835  058C  2D8E               	goto	u2282
  2836  058D  07B0               	addwf	___flmul@grs+2,f
  2837  058E                     u2282:
  2838  058E  082B               	movf	??___flmul+3,w
  2839  058F  1103               	clrz
  2840  0590  1803               	skipnc
  2841  0591  3E01               	addlw	1
  2842  0592  1903               	skipnz
  2843  0593  2D95               	goto	u2283
  2844  0594  07B1               	addwf	___flmul@grs+3,f
  2845  0595                     u2283:
  2846  0595                     l1929:
  2847  0595  0839               	movf	___flmul@temp+1,w
  2848  0596  00A8               	movwf	??___flmul
  2849  0597  01A9               	clrf	??___flmul+1
  2850  0598  01AA               	clrf	??___flmul+2
  2851  0599  01AB               	clrf	??___flmul+3
  2852  059A  0828               	movf	??___flmul,w
  2853  059B  07B4               	addwf	___flmul@prod,f
  2854  059C  0829               	movf	??___flmul+1,w
  2855  059D  1103               	clrz
  2856  059E  1803               	skipnc
  2857  059F  3E01               	addlw	1
  2858  05A0  1903               	skipnz
  2859  05A1  2DA3               	goto	u2291
  2860  05A2  07B5               	addwf	___flmul@prod+1,f
  2861  05A3                     u2291:
  2862  05A3  082A               	movf	??___flmul+2,w
  2863  05A4  1103               	clrz
  2864  05A5  1803               	skipnc
  2865  05A6  3E01               	addlw	1
  2866  05A7  1903               	skipnz
  2867  05A8  2DAA               	goto	u2292
  2868  05A9  07B6               	addwf	___flmul@prod+2,f
  2869  05AA                     u2292:
  2870  05AA  082B               	movf	??___flmul+3,w
  2871  05AB  1103               	clrz
  2872  05AC  1803               	skipnc
  2873  05AD  3E01               	addlw	1
  2874  05AE  1903               	skipnz
  2875  05AF  2DB1               	goto	u2293
  2876  05B0  07B7               	addwf	___flmul@prod+3,f
  2877  05B1                     u2293:
  2878  05B1                     l1931:
  2879  05B1  3008               	movlw	8
  2880  05B2  00A8               	movwf	??___flmul
  2881  05B3                     u2305:
  2882  05B3  1003               	clrc
  2883  05B4  0DAE               	rlf	___flmul@grs,f
  2884  05B5  0DAF               	rlf	___flmul@grs+1,f
  2885  05B6  0DB0               	rlf	___flmul@grs+2,f
  2886  05B7  0DB1               	rlf	___flmul@grs+3,f
  2887  05B8  0BA8               	decfsz	??___flmul,f
  2888  05B9  2DB3               	goto	u2305
  2889  05BA                     l1933:
  2890  05BA  0821               	movf	___flmul@b+1,w
  2891  05BB  00A8               	movwf	??___flmul
  2892  05BC  0828               	movf	??___flmul,w
  2893  05BD  00F0               	movwf	__Umul8_16@multiplicand
  2894  05BE  0824               	movf	___flmul@a,w
  2895  05BF  120A  158A  25B4  120A  118A  	fcall	__Umul8_16
  2896  05C4  0871               	movf	?__Umul8_16+1,w
  2897  05C5  1283               	bcf	3,5	;RP0=0, select bank0
  2898  05C6  1303               	bcf	3,6	;RP1=0, select bank0
  2899  05C7  00B9               	movwf	___flmul@temp+1
  2900  05C8  0870               	movf	?__Umul8_16,w
  2901  05C9  00B8               	movwf	___flmul@temp
  2902  05CA                     l1935:
  2903  05CA  0838               	movf	___flmul@temp,w
  2904  05CB  00A8               	movwf	??___flmul
  2905  05CC  0839               	movf	___flmul@temp+1,w
  2906  05CD  00A9               	movwf	??___flmul+1
  2907  05CE  01AA               	clrf	??___flmul+2
  2908  05CF  01AB               	clrf	??___flmul+3
  2909  05D0  0828               	movf	??___flmul,w
  2910  05D1  07AE               	addwf	___flmul@grs,f
  2911  05D2  0829               	movf	??___flmul+1,w
  2912  05D3  1103               	clrz
  2913  05D4  1803               	skipnc
  2914  05D5  3E01               	addlw	1
  2915  05D6  1903               	skipnz
  2916  05D7  2DD9               	goto	u2311
  2917  05D8  07AF               	addwf	___flmul@grs+1,f
  2918  05D9                     u2311:
  2919  05D9  082A               	movf	??___flmul+2,w
  2920  05DA  1103               	clrz
  2921  05DB  1803               	skipnc
  2922  05DC  3E01               	addlw	1
  2923  05DD  1903               	skipnz
  2924  05DE  2DE0               	goto	u2312
  2925  05DF  07B0               	addwf	___flmul@grs+2,f
  2926  05E0                     u2312:
  2927  05E0  082B               	movf	??___flmul+3,w
  2928  05E1  1103               	clrz
  2929  05E2  1803               	skipnc
  2930  05E3  3E01               	addlw	1
  2931  05E4  1903               	skipnz
  2932  05E5  2DE7               	goto	u2313
  2933  05E6  07B1               	addwf	___flmul@grs+3,f
  2934  05E7                     u2313:
  2935  05E7                     l1937:
  2936  05E7  0820               	movf	___flmul@b,w
  2937  05E8  00A8               	movwf	??___flmul
  2938  05E9  0828               	movf	??___flmul,w
  2939  05EA  00F0               	movwf	__Umul8_16@multiplicand
  2940  05EB  0825               	movf	___flmul@a+1,w
  2941  05EC  120A  158A  25B4  120A  118A  	fcall	__Umul8_16
  2942  05F1  0871               	movf	?__Umul8_16+1,w
  2943  05F2  1283               	bcf	3,5	;RP0=0, select bank0
  2944  05F3  1303               	bcf	3,6	;RP1=0, select bank0
  2945  05F4  00B9               	movwf	___flmul@temp+1
  2946  05F5  0870               	movf	?__Umul8_16,w
  2947  05F6  00B8               	movwf	___flmul@temp
  2948  05F7                     l1939:
  2949  05F7  0838               	movf	___flmul@temp,w
  2950  05F8  00A8               	movwf	??___flmul
  2951  05F9  0839               	movf	___flmul@temp+1,w
  2952  05FA  00A9               	movwf	??___flmul+1
  2953  05FB  01AA               	clrf	??___flmul+2
  2954  05FC  01AB               	clrf	??___flmul+3
  2955  05FD  0828               	movf	??___flmul,w
  2956  05FE  07AE               	addwf	___flmul@grs,f
  2957  05FF  0829               	movf	??___flmul+1,w
  2958  0600  1103               	clrz
  2959  0601  1803               	skipnc
  2960  0602  3E01               	addlw	1
  2961  0603  1903               	skipnz
  2962  0604  2E06               	goto	u2321
  2963  0605  07AF               	addwf	___flmul@grs+1,f
  2964  0606                     u2321:
  2965  0606  082A               	movf	??___flmul+2,w
  2966  0607  1103               	clrz
  2967  0608  1803               	skipnc
  2968  0609  3E01               	addlw	1
  2969  060A  1903               	skipnz
  2970  060B  2E0D               	goto	u2322
  2971  060C  07B0               	addwf	___flmul@grs+2,f
  2972  060D                     u2322:
  2973  060D  082B               	movf	??___flmul+3,w
  2974  060E  1103               	clrz
  2975  060F  1803               	skipnc
  2976  0610  3E01               	addlw	1
  2977  0611  1903               	skipnz
  2978  0612  2E14               	goto	u2323
  2979  0613  07B1               	addwf	___flmul@grs+3,f
  2980  0614                     u2323:
  2981  0614                     l1941:
  2982  0614  3008               	movlw	8
  2983  0615  00A8               	movwf	??___flmul
  2984  0616                     u2335:
  2985  0616  1003               	clrc
  2986  0617  0DAE               	rlf	___flmul@grs,f
  2987  0618  0DAF               	rlf	___flmul@grs+1,f
  2988  0619  0DB0               	rlf	___flmul@grs+2,f
  2989  061A  0DB1               	rlf	___flmul@grs+3,f
  2990  061B  0BA8               	decfsz	??___flmul,f
  2991  061C  2E16               	goto	u2335
  2992  061D  0820               	movf	___flmul@b,w
  2993  061E  00A8               	movwf	??___flmul
  2994  061F  0828               	movf	??___flmul,w
  2995  0620  00F0               	movwf	__Umul8_16@multiplicand
  2996  0621  0824               	movf	___flmul@a,w
  2997  0622  120A  158A  25B4  120A  118A  	fcall	__Umul8_16
  2998  0627  0871               	movf	?__Umul8_16+1,w
  2999  0628  1283               	bcf	3,5	;RP0=0, select bank0
  3000  0629  1303               	bcf	3,6	;RP1=0, select bank0
  3001  062A  00B9               	movwf	___flmul@temp+1
  3002  062B  0870               	movf	?__Umul8_16,w
  3003  062C  00B8               	movwf	___flmul@temp
  3004  062D                     l1943:
  3005  062D  0838               	movf	___flmul@temp,w
  3006  062E  00A8               	movwf	??___flmul
  3007  062F  0839               	movf	___flmul@temp+1,w
  3008  0630  00A9               	movwf	??___flmul+1
  3009  0631  01AA               	clrf	??___flmul+2
  3010  0632  01AB               	clrf	??___flmul+3
  3011  0633  0828               	movf	??___flmul,w
  3012  0634  07AE               	addwf	___flmul@grs,f
  3013  0635  0829               	movf	??___flmul+1,w
  3014  0636  1103               	clrz
  3015  0637  1803               	skipnc
  3016  0638  3E01               	addlw	1
  3017  0639  1903               	skipnz
  3018  063A  2E3C               	goto	u2341
  3019  063B  07AF               	addwf	___flmul@grs+1,f
  3020  063C                     u2341:
  3021  063C  082A               	movf	??___flmul+2,w
  3022  063D  1103               	clrz
  3023  063E  1803               	skipnc
  3024  063F  3E01               	addlw	1
  3025  0640  1903               	skipnz
  3026  0641  2E43               	goto	u2342
  3027  0642  07B0               	addwf	___flmul@grs+2,f
  3028  0643                     u2342:
  3029  0643  082B               	movf	??___flmul+3,w
  3030  0644  1103               	clrz
  3031  0645  1803               	skipnc
  3032  0646  3E01               	addlw	1
  3033  0647  1903               	skipnz
  3034  0648  2E4A               	goto	u2343
  3035  0649  07B1               	addwf	___flmul@grs+3,f
  3036  064A                     u2343:
  3037  064A                     l1945:
  3038  064A  0821               	movf	___flmul@b+1,w
  3039  064B  00A8               	movwf	??___flmul
  3040  064C  0828               	movf	??___flmul,w
  3041  064D  00F0               	movwf	__Umul8_16@multiplicand
  3042  064E  0826               	movf	___flmul@a+2,w
  3043  064F  120A  158A  25B4  120A  118A  	fcall	__Umul8_16
  3044  0654  0871               	movf	?__Umul8_16+1,w
  3045  0655  1283               	bcf	3,5	;RP0=0, select bank0
  3046  0656  1303               	bcf	3,6	;RP1=0, select bank0
  3047  0657  00B9               	movwf	___flmul@temp+1
  3048  0658  0870               	movf	?__Umul8_16,w
  3049  0659  00B8               	movwf	___flmul@temp
  3050  065A  0838               	movf	___flmul@temp,w
  3051  065B  00A8               	movwf	??___flmul
  3052  065C  0839               	movf	___flmul@temp+1,w
  3053  065D  00A9               	movwf	??___flmul+1
  3054  065E  01AA               	clrf	??___flmul+2
  3055  065F  01AB               	clrf	??___flmul+3
  3056  0660  0828               	movf	??___flmul,w
  3057  0661  07B4               	addwf	___flmul@prod,f
  3058  0662  0829               	movf	??___flmul+1,w
  3059  0663  1103               	clrz
  3060  0664  1803               	skipnc
  3061  0665  3E01               	addlw	1
  3062  0666  1903               	skipnz
  3063  0667  2E69               	goto	u2351
  3064  0668  07B5               	addwf	___flmul@prod+1,f
  3065  0669                     u2351:
  3066  0669  082A               	movf	??___flmul+2,w
  3067  066A  1103               	clrz
  3068  066B  1803               	skipnc
  3069  066C  3E01               	addlw	1
  3070  066D  1903               	skipnz
  3071  066E  2E70               	goto	u2352
  3072  066F  07B6               	addwf	___flmul@prod+2,f
  3073  0670                     u2352:
  3074  0670  082B               	movf	??___flmul+3,w
  3075  0671  1103               	clrz
  3076  0672  1803               	skipnc
  3077  0673  3E01               	addlw	1
  3078  0674  1903               	skipnz
  3079  0675  2E77               	goto	u2353
  3080  0676  07B7               	addwf	___flmul@prod+3,f
  3081  0677                     u2353:
  3082  0677                     l1947:
  3083  0677  0822               	movf	___flmul@b+2,w
  3084  0678  00A8               	movwf	??___flmul
  3085  0679  0828               	movf	??___flmul,w
  3086  067A  00F0               	movwf	__Umul8_16@multiplicand
  3087  067B  0825               	movf	___flmul@a+1,w
  3088  067C  120A  158A  25B4  120A  118A  	fcall	__Umul8_16
  3089  0681  0871               	movf	?__Umul8_16+1,w
  3090  0682  1283               	bcf	3,5	;RP0=0, select bank0
  3091  0683  1303               	bcf	3,6	;RP1=0, select bank0
  3092  0684  00B9               	movwf	___flmul@temp+1
  3093  0685  0870               	movf	?__Umul8_16,w
  3094  0686  00B8               	movwf	___flmul@temp
  3095  0687                     l1949:
  3096  0687  0838               	movf	___flmul@temp,w
  3097  0688  00A8               	movwf	??___flmul
  3098  0689  0839               	movf	___flmul@temp+1,w
  3099  068A  00A9               	movwf	??___flmul+1
  3100  068B  01AA               	clrf	??___flmul+2
  3101  068C  01AB               	clrf	??___flmul+3
  3102  068D  0828               	movf	??___flmul,w
  3103  068E  07B4               	addwf	___flmul@prod,f
  3104  068F  0829               	movf	??___flmul+1,w
  3105  0690  1103               	clrz
  3106  0691  1803               	skipnc
  3107  0692  3E01               	addlw	1
  3108  0693  1903               	skipnz
  3109  0694  2E96               	goto	u2361
  3110  0695  07B5               	addwf	___flmul@prod+1,f
  3111  0696                     u2361:
  3112  0696  082A               	movf	??___flmul+2,w
  3113  0697  1103               	clrz
  3114  0698  1803               	skipnc
  3115  0699  3E01               	addlw	1
  3116  069A  1903               	skipnz
  3117  069B  2E9D               	goto	u2362
  3118  069C  07B6               	addwf	___flmul@prod+2,f
  3119  069D                     u2362:
  3120  069D  082B               	movf	??___flmul+3,w
  3121  069E  1103               	clrz
  3122  069F  1803               	skipnc
  3123  06A0  3E01               	addlw	1
  3124  06A1  1903               	skipnz
  3125  06A2  2EA4               	goto	u2363
  3126  06A3  07B7               	addwf	___flmul@prod+3,f
  3127  06A4                     u2363:
  3128  06A4  0822               	movf	___flmul@b+2,w
  3129  06A5  00A8               	movwf	??___flmul
  3130  06A6  0828               	movf	??___flmul,w
  3131  06A7  00F0               	movwf	__Umul8_16@multiplicand
  3132  06A8  0826               	movf	___flmul@a+2,w
  3133  06A9  120A  158A  25B4  120A  118A  	fcall	__Umul8_16
  3134  06AE  0871               	movf	?__Umul8_16+1,w
  3135  06AF  1283               	bcf	3,5	;RP0=0, select bank0
  3136  06B0  1303               	bcf	3,6	;RP1=0, select bank0
  3137  06B1  00B9               	movwf	___flmul@temp+1
  3138  06B2  0870               	movf	?__Umul8_16,w
  3139  06B3  00B8               	movwf	___flmul@temp
  3140  06B4                     l1951:
  3141  06B4  0838               	movf	___flmul@temp,w
  3142  06B5  00A8               	movwf	??___flmul
  3143  06B6  0839               	movf	___flmul@temp+1,w
  3144  06B7  00A9               	movwf	??___flmul+1
  3145  06B8  01AA               	clrf	??___flmul+2
  3146  06B9  01AB               	clrf	??___flmul+3
  3147  06BA  3008               	movlw	8
  3148  06BB                     u2375:
  3149  06BB  1003               	clrc
  3150  06BC  0DA8               	rlf	??___flmul,f
  3151  06BD  0DA9               	rlf	??___flmul+1,f
  3152  06BE  0DAA               	rlf	??___flmul+2,f
  3153  06BF  0DAB               	rlf	??___flmul+3,f
  3154  06C0                     u2370:
  3155  06C0  3EFF               	addlw	-1
  3156  06C1  1D03               	skipz
  3157  06C2  2EBB               	goto	u2375
  3158  06C3  0828               	movf	??___flmul,w
  3159  06C4  07B4               	addwf	___flmul@prod,f
  3160  06C5  0829               	movf	??___flmul+1,w
  3161  06C6  1103               	clrz
  3162  06C7  1803               	skipnc
  3163  06C8  3E01               	addlw	1
  3164  06C9  1903               	skipnz
  3165  06CA  2ECC               	goto	u2381
  3166  06CB  07B5               	addwf	___flmul@prod+1,f
  3167  06CC                     u2381:
  3168  06CC  082A               	movf	??___flmul+2,w
  3169  06CD  1103               	clrz
  3170  06CE  1803               	skipnc
  3171  06CF  3E01               	addlw	1
  3172  06D0  1903               	skipnz
  3173  06D1  2ED3               	goto	u2382
  3174  06D2  07B6               	addwf	___flmul@prod+2,f
  3175  06D3                     u2382:
  3176  06D3  082B               	movf	??___flmul+3,w
  3177  06D4  1103               	clrz
  3178  06D5  1803               	skipnc
  3179  06D6  3E01               	addlw	1
  3180  06D7  1903               	skipnz
  3181  06D8  2EDA               	goto	u2383
  3182  06D9  07B7               	addwf	___flmul@prod+3,f
  3183  06DA                     u2383:
  3184  06DA                     l1953:
  3185  06DA  082E               	movf	___flmul@grs,w
  3186  06DB  00A8               	movwf	??___flmul
  3187  06DC  082F               	movf	___flmul@grs+1,w
  3188  06DD  00A9               	movwf	??___flmul+1
  3189  06DE  0830               	movf	___flmul@grs+2,w
  3190  06DF  00AA               	movwf	??___flmul+2
  3191  06E0  0831               	movf	___flmul@grs+3,w
  3192  06E1  00AB               	movwf	??___flmul+3
  3193  06E2  3018               	movlw	24
  3194  06E3                     u2395:
  3195  06E3  1003               	clrc
  3196  06E4  0CAB               	rrf	??___flmul+3,f
  3197  06E5  0CAA               	rrf	??___flmul+2,f
  3198  06E6  0CA9               	rrf	??___flmul+1,f
  3199  06E7  0CA8               	rrf	??___flmul,f
  3200  06E8                     u2390:
  3201  06E8  3EFF               	addlw	-1
  3202  06E9  1D03               	skipz
  3203  06EA  2EE3               	goto	u2395
  3204  06EB  0828               	movf	??___flmul,w
  3205  06EC  07B4               	addwf	___flmul@prod,f
  3206  06ED  0829               	movf	??___flmul+1,w
  3207  06EE  1103               	clrz
  3208  06EF  1803               	skipnc
  3209  06F0  3E01               	addlw	1
  3210  06F1  1903               	skipnz
  3211  06F2  2EF4               	goto	u2401
  3212  06F3  07B5               	addwf	___flmul@prod+1,f
  3213  06F4                     u2401:
  3214  06F4  082A               	movf	??___flmul+2,w
  3215  06F5  1103               	clrz
  3216  06F6  1803               	skipnc
  3217  06F7  3E01               	addlw	1
  3218  06F8  1903               	skipnz
  3219  06F9  2EFB               	goto	u2402
  3220  06FA  07B6               	addwf	___flmul@prod+2,f
  3221  06FB                     u2402:
  3222  06FB  082B               	movf	??___flmul+3,w
  3223  06FC  1103               	clrz
  3224  06FD  1803               	skipnc
  3225  06FE  3E01               	addlw	1
  3226  06FF  1903               	skipnz
  3227  0700  2F02               	goto	u2403
  3228  0701  07B7               	addwf	___flmul@prod+3,f
  3229  0702                     u2403:
  3230  0702                     l1955:
  3231  0702  3008               	movlw	8
  3232  0703  00A8               	movwf	??___flmul
  3233  0704                     u2415:
  3234  0704  1003               	clrc
  3235  0705  0DAE               	rlf	___flmul@grs,f
  3236  0706  0DAF               	rlf	___flmul@grs+1,f
  3237  0707  0DB0               	rlf	___flmul@grs+2,f
  3238  0708  0DB1               	rlf	___flmul@grs+3,f
  3239  0709  0BA8               	decfsz	??___flmul,f
  3240  070A  2F04               	goto	u2415
  3241  070B                     l1957:
  3242  070B  0833               	movf	___flmul@bexp,w
  3243  070C  0732               	addwf	___flmul@aexp,w
  3244  070D  00A8               	movwf	??___flmul
  3245  070E  01A9               	clrf	??___flmul+1
  3246  070F  0DA9               	rlf	??___flmul+1,f
  3247  0710  0828               	movf	??___flmul,w
  3248  0711  3E82               	addlw	130
  3249  0712  00B8               	movwf	___flmul@temp
  3250  0713  0829               	movf	??___flmul+1,w
  3251  0714  1803               	skipnc
  3252  0715  3E01               	addlw	1
  3253  0716  3EFF               	addlw	255
  3254  0717  00B9               	movwf	___flmul@temp+1
  3255  0718  2F36               	goto	l1969
  3256  0719                     l1959:
  3257  0719  3001               	movlw	1
  3258  071A  00A8               	movwf	??___flmul
  3259  071B                     u2425:
  3260  071B  1003               	clrc
  3261  071C  0DB4               	rlf	___flmul@prod,f
  3262  071D  0DB5               	rlf	___flmul@prod+1,f
  3263  071E  0DB6               	rlf	___flmul@prod+2,f
  3264  071F  0DB7               	rlf	___flmul@prod+3,f
  3265  0720  0BA8               	decfsz	??___flmul,f
  3266  0721  2F1B               	goto	u2425
  3267  0722                     l1961:
  3268  0722  1FB1               	btfss	___flmul@grs+3,7
  3269  0723  2F25               	goto	u2431
  3270  0724  2F26               	goto	u2430
  3271  0725                     u2431:
  3272  0725  2F27               	goto	l1965
  3273  0726                     u2430:
  3274  0726                     l1963:
  3275  0726  1434               	bsf	___flmul@prod,0
  3276  0727                     l1965:
  3277  0727  3001               	movlw	1
  3278  0728  00A8               	movwf	??___flmul
  3279  0729                     u2445:
  3280  0729  1003               	clrc
  3281  072A  0DAE               	rlf	___flmul@grs,f
  3282  072B  0DAF               	rlf	___flmul@grs+1,f
  3283  072C  0DB0               	rlf	___flmul@grs+2,f
  3284  072D  0DB1               	rlf	___flmul@grs+3,f
  3285  072E  0BA8               	decfsz	??___flmul,f
  3286  072F  2F29               	goto	u2445
  3287  0730                     l1967:
  3288  0730  30FF               	movlw	255
  3289  0731  07B8               	addwf	___flmul@temp,f
  3290  0732  1803               	skipnc
  3291  0733  0AB9               	incf	___flmul@temp+1,f
  3292  0734  30FF               	movlw	255
  3293  0735  07B9               	addwf	___flmul@temp+1,f
  3294  0736                     l1969:
  3295  0736  1FB6               	btfss	___flmul@prod+2,7
  3296  0737  2F39               	goto	u2451
  3297  0738  2F3A               	goto	u2450
  3298  0739                     u2451:
  3299  0739  2F19               	goto	l1959
  3300  073A                     u2450:
  3301  073A                     l1971:
  3302  073A  01B2               	clrf	___flmul@aexp
  3303  073B                     l1973:
  3304  073B  1FB1               	btfss	___flmul@grs+3,7
  3305  073C  2F3E               	goto	u2461
  3306  073D  2F3F               	goto	u2460
  3307  073E                     u2461:
  3308  073E  2F5B               	goto	l1981
  3309  073F                     u2460:
  3310  073F                     l1975:
  3311  073F  30FF               	movlw	255
  3312  0740  052E               	andwf	___flmul@grs,w
  3313  0741  00A8               	movwf	??___flmul
  3314  0742  30FF               	movlw	255
  3315  0743  052F               	andwf	___flmul@grs+1,w
  3316  0744  00A9               	movwf	??___flmul+1
  3317  0745  30FF               	movlw	255
  3318  0746  0530               	andwf	___flmul@grs+2,w
  3319  0747  00AA               	movwf	??___flmul+2
  3320  0748  307F               	movlw	127
  3321  0749  0531               	andwf	___flmul@grs+3,w
  3322  074A  00AB               	movwf	??___flmul+3
  3323  074B  082B               	movf	??___flmul+3,w
  3324  074C  042A               	iorwf	??___flmul+2,w
  3325  074D  0429               	iorwf	??___flmul+1,w
  3326  074E  0428               	iorwf	??___flmul,w
  3327  074F  1903               	skipnz
  3328  0750  2F52               	goto	u2471
  3329  0751  2F53               	goto	u2470
  3330  0752                     u2471:
  3331  0752  2F56               	goto	l603
  3332  0753                     u2470:
  3333  0753                     l1977:
  3334  0753  01B2               	clrf	___flmul@aexp
  3335  0754  0AB2               	incf	___flmul@aexp,f
  3336  0755  2F5B               	goto	l1981
  3337  0756                     l603:
  3338  0756  1C34               	btfss	___flmul@prod,0
  3339  0757  2F59               	goto	u2481
  3340  0758  2F5A               	goto	u2480
  3341  0759                     u2481:
  3342  0759  2F5B               	goto	l1981
  3343  075A                     u2480:
  3344  075A  2F53               	goto	l1977
  3345  075B                     l1981:
  3346  075B  0832               	movf	___flmul@aexp,w
  3347  075C  1903               	btfsc	3,2
  3348  075D  2F5F               	goto	u2491
  3349  075E  2F60               	goto	u2490
  3350  075F                     u2491:
  3351  075F  2F91               	goto	l1991
  3352  0760                     u2490:
  3353  0760                     l1983:
  3354  0760  3001               	movlw	1
  3355  0761  07B4               	addwf	___flmul@prod,f
  3356  0762  3000               	movlw	0
  3357  0763  1803               	skipnc
  3358  0764  3001               	movlw	1
  3359  0765  07B5               	addwf	___flmul@prod+1,f
  3360  0766  3000               	movlw	0
  3361  0767  1803               	skipnc
  3362  0768  3001               	movlw	1
  3363  0769  07B6               	addwf	___flmul@prod+2,f
  3364  076A  3000               	movlw	0
  3365  076B  1803               	skipnc
  3366  076C  3001               	movlw	1
  3367  076D  07B7               	addwf	___flmul@prod+3,f
  3368  076E                     l1985:
  3369  076E  1C37               	btfss	___flmul@prod+3,0
  3370  076F  2F71               	goto	u2501
  3371  0770  2F72               	goto	u2500
  3372  0771                     u2501:
  3373  0771  2F91               	goto	l1991
  3374  0772                     u2500:
  3375  0772                     l1987:
  3376  0772  0834               	movf	___flmul@prod,w
  3377  0773  00A8               	movwf	??___flmul
  3378  0774  0835               	movf	___flmul@prod+1,w
  3379  0775  00A9               	movwf	??___flmul+1
  3380  0776  0836               	movf	___flmul@prod+2,w
  3381  0777  00AA               	movwf	??___flmul+2
  3382  0778  0837               	movf	___flmul@prod+3,w
  3383  0779  00AB               	movwf	??___flmul+3
  3384  077A  3001               	movlw	1
  3385  077B  00AC               	movwf	??___flmul+4
  3386  077C                     u2515:
  3387  077C  0D2B               	rlf	??___flmul+3,w
  3388  077D  0CAB               	rrf	??___flmul+3,f
  3389  077E  0CAA               	rrf	??___flmul+2,f
  3390  077F  0CA9               	rrf	??___flmul+1,f
  3391  0780  0CA8               	rrf	??___flmul,f
  3392  0781                     u2510:
  3393  0781  0BAC               	decfsz	??___flmul+4,f
  3394  0782  2F7C               	goto	u2515
  3395  0783  082B               	movf	??___flmul+3,w
  3396  0784  00B7               	movwf	___flmul@prod+3
  3397  0785  082A               	movf	??___flmul+2,w
  3398  0786  00B6               	movwf	___flmul@prod+2
  3399  0787  0829               	movf	??___flmul+1,w
  3400  0788  00B5               	movwf	___flmul@prod+1
  3401  0789  0828               	movf	??___flmul,w
  3402  078A  00B4               	movwf	___flmul@prod
  3403  078B                     l1989:
  3404  078B  3001               	movlw	1
  3405  078C  07B8               	addwf	___flmul@temp,f
  3406  078D  1803               	skipnc
  3407  078E  0AB9               	incf	___flmul@temp+1,f
  3408  078F  3000               	movlw	0
  3409  0790  07B9               	addwf	___flmul@temp+1,f
  3410  0791                     l1991:
  3411  0791  0839               	movf	___flmul@temp+1,w
  3412  0792  3A80               	xorlw	128
  3413  0793  00FF               	movwf	btemp+1
  3414  0794  3080               	movlw	128
  3415  0795  027F               	subwf	btemp+1,w
  3416  0796  1D03               	skipz
  3417  0797  2F9A               	goto	u2525
  3418  0798  30FF               	movlw	255
  3419  0799  0238               	subwf	___flmul@temp,w
  3420  079A                     u2525:
  3421  079A  1C03               	skipc
  3422  079B  2F9D               	goto	u2521
  3423  079C  2F9E               	goto	u2520
  3424  079D                     u2521:
  3425  079D  2FA9               	goto	l1995
  3426  079E                     u2520:
  3427  079E                     l1993:
  3428  079E  307F               	movlw	127
  3429  079F  1283               	bcf	3,5	;RP0=0, select bank0
  3430  07A0  1303               	bcf	3,6	;RP1=0, select bank0
  3431  07A1  00B7               	movwf	___flmul@prod+3
  3432  07A2  3080               	movlw	128
  3433  07A3  00B6               	movwf	___flmul@prod+2
  3434  07A4  3000               	movlw	0
  3435  07A5  00B5               	movwf	___flmul@prod+1
  3436  07A6  3000               	movlw	0
  3437  07A7  00B4               	movwf	___flmul@prod
  3438  07A8  2FDE               	goto	l609
  3439  07A9                     l1995:
  3440  07A9  1283               	bcf	3,5	;RP0=0, select bank0
  3441  07AA  1303               	bcf	3,6	;RP1=0, select bank0
  3442  07AB  0839               	movf	___flmul@temp+1,w
  3443  07AC  3A80               	xorlw	128
  3444  07AD  00FF               	movwf	btemp+1
  3445  07AE  3080               	movlw	128
  3446  07AF  027F               	subwf	btemp+1,w
  3447  07B0  1D03               	skipz
  3448  07B1  2FB4               	goto	u2535
  3449  07B2  3001               	movlw	1
  3450  07B3  0238               	subwf	___flmul@temp,w
  3451  07B4                     u2535:
  3452  07B4  1803               	skipnc
  3453  07B5  2FB7               	goto	u2531
  3454  07B6  2FB8               	goto	u2530
  3455  07B7                     u2531:
  3456  07B7  2FC4               	goto	l2001
  3457  07B8                     u2530:
  3458  07B8                     l1997:
  3459  07B8  3000               	movlw	0
  3460  07B9  1283               	bcf	3,5	;RP0=0, select bank0
  3461  07BA  1303               	bcf	3,6	;RP1=0, select bank0
  3462  07BB  00B7               	movwf	___flmul@prod+3
  3463  07BC  3000               	movlw	0
  3464  07BD  00B6               	movwf	___flmul@prod+2
  3465  07BE  3000               	movlw	0
  3466  07BF  00B5               	movwf	___flmul@prod+1
  3467  07C0  3000               	movlw	0
  3468  07C1  00B4               	movwf	___flmul@prod
  3469  07C2                     l1999:
  3470  07C2  01AD               	clrf	___flmul@sign
  3471  07C3  2FDE               	goto	l609
  3472  07C4                     l2001:
  3473  07C4  1283               	bcf	3,5	;RP0=0, select bank0
  3474  07C5  1303               	bcf	3,6	;RP1=0, select bank0
  3475  07C6  0838               	movf	___flmul@temp,w
  3476  07C7  00A8               	movwf	??___flmul
  3477  07C8  0828               	movf	??___flmul,w
  3478  07C9  00B3               	movwf	___flmul@bexp
  3479  07CA  30FF               	movlw	255
  3480  07CB  05B4               	andwf	___flmul@prod,f
  3481  07CC  30FF               	movlw	255
  3482  07CD  05B5               	andwf	___flmul@prod+1,f
  3483  07CE  307F               	movlw	127
  3484  07CF  05B6               	andwf	___flmul@prod+2,f
  3485  07D0  3000               	movlw	0
  3486  07D1  05B7               	andwf	___flmul@prod+3,f
  3487  07D2                     l2003:
  3488  07D2  1C33               	btfss	___flmul@bexp,0
  3489  07D3  2FD5               	goto	u2541
  3490  07D4  2FD6               	goto	u2540
  3491  07D5                     u2541:
  3492  07D5  2FD7               	goto	l2007
  3493  07D6                     u2540:
  3494  07D6                     l2005:
  3495  07D6  17B6               	bsf	___flmul@prod+2,7
  3496  07D7                     l2007:
  3497  07D7  0833               	movf	___flmul@bexp,w
  3498  07D8  00A8               	movwf	??___flmul
  3499  07D9  1003               	clrc
  3500  07DA  0C28               	rrf	??___flmul,w
  3501  07DB  00A9               	movwf	??___flmul+1
  3502  07DC  0829               	movf	??___flmul+1,w
  3503  07DD  00B7               	movwf	___flmul@prod+3
  3504  07DE                     l609:
  3505  07DE  082D               	movf	___flmul@sign,w
  3506  07DF  00A8               	movwf	??___flmul
  3507  07E0  0828               	movf	??___flmul,w
  3508  07E1  04B7               	iorwf	___flmul@prod+3,f
  3509  07E2                     l2009:
  3510  07E2  0837               	movf	___flmul@prod+3,w
  3511  07E3  00A3               	movwf	?___flmul+3
  3512  07E4  0836               	movf	___flmul@prod+2,w
  3513  07E5  00A2               	movwf	?___flmul+2
  3514  07E6  0835               	movf	___flmul@prod+1,w
  3515  07E7  00A1               	movwf	?___flmul+1
  3516  07E8  0834               	movf	___flmul@prod,w
  3517  07E9  00A0               	movwf	?___flmul
  3518  07EA                     l597:
  3519  07EA  0008               	return
  3520  07EB                     __end_of___flmul:
  3521                           
  3522                           	psect	text11
  3523  0DB4                     __ptext11:	
  3524 ;; *************** function __Umul8_16 *****************
  3525 ;; Defined at:
  3526 ;;		line 4 in file "C:\Program Files\Microchip\xc8\v2.31\pic\sources\c90\common\Umul8_16.c"
  3527 ;; Parameters:    Size  Location     Type
  3528 ;;  multiplier      1    wreg     unsigned char 
  3529 ;;  multiplicand    1    0[COMMON] unsigned char 
  3530 ;; Auto vars:     Size  Location     Type
  3531 ;;  multiplier      1    8[COMMON] unsigned char 
  3532 ;;  word_mpld       2    6[COMMON] unsigned int 
  3533 ;;  product         2    4[COMMON] unsigned int 
  3534 ;; Return value:  Size  Location     Type
  3535 ;;                  2    0[COMMON] unsigned int 
  3536 ;; Registers used:
  3537 ;;		wreg, status,2, status,0
  3538 ;; Tracked objects:
  3539 ;;		On entry : 0/0
  3540 ;;		On exit  : 0/0
  3541 ;;		Unchanged: 0/0
  3542 ;; Data sizes:     COMMON   BANK0   BANK1   BANK3   BANK2
  3543 ;;      Params:         2       0       0       0       0
  3544 ;;      Locals:         5       0       0       0       0
  3545 ;;      Temps:          2       0       0       0       0
  3546 ;;      Totals:         9       0       0       0       0
  3547 ;;Total ram usage:        9 bytes
  3548 ;; Hardware stack levels used:    1
  3549 ;; This function calls:
  3550 ;;		Nothing
  3551 ;; This function is called by:
  3552 ;;		___flmul
  3553 ;; This function uses a non-reentrant model
  3554 ;;
  3555                           
  3556                           
  3557                           ;psect for function __Umul8_16
  3558  0DB4                     __Umul8_16:
  3559                           
  3560                           ;incstack = 0
  3561                           ; Regs used in __Umul8_16: [wreg+status,2+status,0]
  3562                           ;__Umul8_16@multiplier stored from wreg
  3563  0DB4  00F8               	movwf	__Umul8_16@multiplier
  3564  0DB5                     l1479:
  3565  0DB5  01F4               	clrf	__Umul8_16@product
  3566  0DB6  01F5               	clrf	__Umul8_16@product+1
  3567  0DB7                     l1481:
  3568  0DB7  0870               	movf	__Umul8_16@multiplicand,w
  3569  0DB8  00F2               	movwf	??__Umul8_16
  3570  0DB9  01F3               	clrf	??__Umul8_16+1
  3571  0DBA  0872               	movf	??__Umul8_16,w
  3572  0DBB  00F6               	movwf	__Umul8_16@word_mpld
  3573  0DBC  0873               	movf	??__Umul8_16+1,w
  3574  0DBD  00F7               	movwf	__Umul8_16@word_mpld+1
  3575  0DBE                     l1483:
  3576  0DBE  1C78               	btfss	__Umul8_16@multiplier,0
  3577  0DBF  2DC1               	goto	u1481
  3578  0DC0  2DC2               	goto	u1480
  3579  0DC1                     u1481:
  3580  0DC1  2DC8               	goto	l616
  3581  0DC2                     u1480:
  3582  0DC2                     l1485:
  3583  0DC2  0876               	movf	__Umul8_16@word_mpld,w
  3584  0DC3  07F4               	addwf	__Umul8_16@product,f
  3585  0DC4  1803               	skipnc
  3586  0DC5  0AF5               	incf	__Umul8_16@product+1,f
  3587  0DC6  0877               	movf	__Umul8_16@word_mpld+1,w
  3588  0DC7  07F5               	addwf	__Umul8_16@product+1,f
  3589  0DC8                     l616:
  3590  0DC8  3001               	movlw	1
  3591  0DC9                     u1495:
  3592  0DC9  1003               	clrc
  3593  0DCA  0DF6               	rlf	__Umul8_16@word_mpld,f
  3594  0DCB  0DF7               	rlf	__Umul8_16@word_mpld+1,f
  3595  0DCC  3EFF               	addlw	-1
  3596  0DCD  1D03               	skipz
  3597  0DCE  2DC9               	goto	u1495
  3598  0DCF  1003               	clrc
  3599  0DD0  0CF8               	rrf	__Umul8_16@multiplier,f
  3600  0DD1                     l1487:
  3601  0DD1  0878               	movf	__Umul8_16@multiplier,w
  3602  0DD2  1D03               	btfss	3,2
  3603  0DD3  2DD5               	goto	u1501
  3604  0DD4  2DD6               	goto	u1500
  3605  0DD5                     u1501:
  3606  0DD5  2DBE               	goto	l1483
  3607  0DD6                     u1500:
  3608  0DD6                     l1489:
  3609  0DD6  0875               	movf	__Umul8_16@product+1,w
  3610  0DD7  00F1               	movwf	?__Umul8_16+1
  3611  0DD8  0874               	movf	__Umul8_16@product,w
  3612  0DD9  00F0               	movwf	?__Umul8_16
  3613  0DDA                     l618:
  3614  0DDA  0008               	return
  3615  0DDB                     __end_of__Umul8_16:
  3616                           
  3617                           	psect	text12
  3618  02AD                     __ptext12:	
  3619 ;; *************** function ___fldiv *****************
  3620 ;; Defined at:
  3621 ;;		line 8 in file "C:\Program Files\Microchip\xc8\v2.31\pic\sources\c90\common\sprcdiv.c"
  3622 ;; Parameters:    Size  Location     Type
  3623 ;;  a               4   26[BANK0 ] unsigned int 
  3624 ;;  b               4   30[BANK0 ] unsigned int 
  3625 ;; Auto vars:     Size  Location     Type
  3626 ;;  grs             4   46[BANK0 ] unsigned long 
  3627 ;;  rem             4   39[BANK0 ] unsigned long 
  3628 ;;  new_exp         2   44[BANK0 ] int 
  3629 ;;  aexp            1   51[BANK0 ] unsigned char 
  3630 ;;  bexp            1   50[BANK0 ] unsigned char 
  3631 ;;  sign            1   43[BANK0 ] unsigned char 
  3632 ;; Return value:  Size  Location     Type
  3633 ;;                  4   26[BANK0 ] unsigned char 
  3634 ;; Registers used:
  3635 ;;		wreg, status,2, status,0, btemp+1
  3636 ;; Tracked objects:
  3637 ;;		On entry : 0/0
  3638 ;;		On exit  : 0/0
  3639 ;;		Unchanged: 0/0
  3640 ;; Data sizes:     COMMON   BANK0   BANK1   BANK3   BANK2
  3641 ;;      Params:         0       8       0       0       0
  3642 ;;      Locals:         0      13       0       0       0
  3643 ;;      Temps:          0       5       0       0       0
  3644 ;;      Totals:         0      26       0       0       0
  3645 ;;Total ram usage:       26 bytes
  3646 ;; Hardware stack levels used:    1
  3647 ;; This function calls:
  3648 ;;		Nothing
  3649 ;; This function is called by:
  3650 ;;		_main
  3651 ;; This function uses a non-reentrant model
  3652 ;;
  3653                           
  3654                           
  3655                           ;psect for function ___fldiv
  3656  02AD                     ___fldiv:
  3657  02AD                     l1731:	
  3658                           ;incstack = 0
  3659                           ; Regs used in ___fldiv: [wreg+status,2+status,0+btemp+1]
  3660                           
  3661  02AD  1283               	bcf	3,5	;RP0=0, select bank0
  3662  02AE  1303               	bcf	3,6	;RP1=0, select bank0
  3663  02AF  0841               	movf	___fldiv@b+3,w
  3664  02B0  3980               	andlw	128
  3665  02B1  00C2               	movwf	??___fldiv
  3666  02B2  0842               	movf	??___fldiv,w
  3667  02B3  00CB               	movwf	___fldiv@sign
  3668  02B4                     l1733:
  3669  02B4  0841               	movf	___fldiv@b+3,w
  3670  02B5  00C2               	movwf	??___fldiv
  3671  02B6  0742               	addwf	??___fldiv,w
  3672  02B7  00C3               	movwf	??___fldiv+1
  3673  02B8  0843               	movf	??___fldiv+1,w
  3674  02B9  00D2               	movwf	___fldiv@bexp
  3675  02BA                     l1735:
  3676  02BA  1FC0               	btfss	___fldiv@b+2,7
  3677  02BB  2ABD               	goto	u1891
  3678  02BC  2ABE               	goto	u1890
  3679  02BD                     u1891:
  3680  02BD  2ABF               	goto	l1739
  3681  02BE                     u1890:
  3682  02BE                     l1737:
  3683  02BE  1452               	bsf	___fldiv@bexp,0
  3684  02BF                     l1739:
  3685  02BF  0852               	movf	___fldiv@bexp,w
  3686  02C0  1903               	btfsc	3,2
  3687  02C1  2AC3               	goto	u1901
  3688  02C2  2AC4               	goto	u1900
  3689  02C3                     u1901:
  3690  02C3  2AD4               	goto	l1749
  3691  02C4                     u1900:
  3692  02C4                     l1741:
  3693  02C4  0A52               	incf	___fldiv@bexp,w
  3694  02C5  1D03               	btfss	3,2
  3695  02C6  2AC8               	goto	u1911
  3696  02C7  2AC9               	goto	u1910
  3697  02C8                     u1911:
  3698  02C8  2AD1               	goto	l1745
  3699  02C9                     u1910:
  3700  02C9                     l1743:
  3701  02C9  3000               	movlw	0
  3702  02CA  00C1               	movwf	___fldiv@b+3
  3703  02CB  3000               	movlw	0
  3704  02CC  00C0               	movwf	___fldiv@b+2
  3705  02CD  3000               	movlw	0
  3706  02CE  00BF               	movwf	___fldiv@b+1
  3707  02CF  3000               	movlw	0
  3708  02D0  00BE               	movwf	___fldiv@b
  3709  02D1                     l1745:
  3710  02D1  17C0               	bsf	___fldiv@b+2,7
  3711  02D2                     l1747:
  3712  02D2  01C1               	clrf	___fldiv@b+3
  3713  02D3  2ADC               	goto	l1751
  3714  02D4                     l1749:
  3715  02D4  3000               	movlw	0
  3716  02D5  00C1               	movwf	___fldiv@b+3
  3717  02D6  3000               	movlw	0
  3718  02D7  00C0               	movwf	___fldiv@b+2
  3719  02D8  3000               	movlw	0
  3720  02D9  00BF               	movwf	___fldiv@b+1
  3721  02DA  3000               	movlw	0
  3722  02DB  00BE               	movwf	___fldiv@b
  3723  02DC                     l1751:
  3724  02DC  083D               	movf	___fldiv@a+3,w
  3725  02DD  3980               	andlw	128
  3726  02DE  00C2               	movwf	??___fldiv
  3727  02DF  0842               	movf	??___fldiv,w
  3728  02E0  06CB               	xorwf	___fldiv@sign,f
  3729  02E1                     l1753:
  3730  02E1  083D               	movf	___fldiv@a+3,w
  3731  02E2  00C2               	movwf	??___fldiv
  3732  02E3  0742               	addwf	??___fldiv,w
  3733  02E4  00C3               	movwf	??___fldiv+1
  3734  02E5  0843               	movf	??___fldiv+1,w
  3735  02E6  00D3               	movwf	___fldiv@aexp
  3736  02E7                     l1755:
  3737  02E7  1FBC               	btfss	___fldiv@a+2,7
  3738  02E8  2AEA               	goto	u1921
  3739  02E9  2AEB               	goto	u1920
  3740  02EA                     u1921:
  3741  02EA  2AEC               	goto	l1759
  3742  02EB                     u1920:
  3743  02EB                     l1757:
  3744  02EB  1453               	bsf	___fldiv@aexp,0
  3745  02EC                     l1759:
  3746  02EC  0853               	movf	___fldiv@aexp,w
  3747  02ED  1903               	btfsc	3,2
  3748  02EE  2AF0               	goto	u1931
  3749  02EF  2AF1               	goto	u1930
  3750  02F0                     u1931:
  3751  02F0  2B01               	goto	l1769
  3752  02F1                     u1930:
  3753  02F1                     l1761:
  3754  02F1  0A53               	incf	___fldiv@aexp,w
  3755  02F2  1D03               	btfss	3,2
  3756  02F3  2AF5               	goto	u1941
  3757  02F4  2AF6               	goto	u1940
  3758  02F5                     u1941:
  3759  02F5  2AFE               	goto	l1765
  3760  02F6                     u1940:
  3761  02F6                     l1763:
  3762  02F6  3000               	movlw	0
  3763  02F7  00BD               	movwf	___fldiv@a+3
  3764  02F8  3000               	movlw	0
  3765  02F9  00BC               	movwf	___fldiv@a+2
  3766  02FA  3000               	movlw	0
  3767  02FB  00BB               	movwf	___fldiv@a+1
  3768  02FC  3000               	movlw	0
  3769  02FD  00BA               	movwf	___fldiv@a
  3770  02FE                     l1765:
  3771  02FE  17BC               	bsf	___fldiv@a+2,7
  3772  02FF                     l1767:
  3773  02FF  01BD               	clrf	___fldiv@a+3
  3774  0300  2B09               	goto	l557
  3775  0301                     l1769:
  3776  0301  3000               	movlw	0
  3777  0302  00BD               	movwf	___fldiv@a+3
  3778  0303  3000               	movlw	0
  3779  0304  00BC               	movwf	___fldiv@a+2
  3780  0305  3000               	movlw	0
  3781  0306  00BB               	movwf	___fldiv@a+1
  3782  0307  3000               	movlw	0
  3783  0308  00BA               	movwf	___fldiv@a
  3784  0309                     l557:
  3785  0309  083D               	movf	___fldiv@a+3,w
  3786  030A  043C               	iorwf	___fldiv@a+2,w
  3787  030B  043B               	iorwf	___fldiv@a+1,w
  3788  030C  043A               	iorwf	___fldiv@a,w
  3789  030D  1D03               	skipz
  3790  030E  2B10               	goto	u1951
  3791  030F  2B11               	goto	u1950
  3792  0310                     u1951:
  3793  0310  2B2A               	goto	l1779
  3794  0311                     u1950:
  3795  0311                     l1771:
  3796  0311  3000               	movlw	0
  3797  0312  00C1               	movwf	___fldiv@b+3
  3798  0313  3000               	movlw	0
  3799  0314  00C0               	movwf	___fldiv@b+2
  3800  0315  3000               	movlw	0
  3801  0316  00BF               	movwf	___fldiv@b+1
  3802  0317  3000               	movlw	0
  3803  0318  00BE               	movwf	___fldiv@b
  3804  0319  3080               	movlw	128
  3805  031A  04C0               	iorwf	___fldiv@b+2,f
  3806  031B  307F               	movlw	127
  3807  031C  04C1               	iorwf	___fldiv@b+3,f
  3808  031D                     l1773:
  3809  031D  084B               	movf	___fldiv@sign,w
  3810  031E  00C2               	movwf	??___fldiv
  3811  031F  0842               	movf	??___fldiv,w
  3812  0320  04C1               	iorwf	___fldiv@b+3,f
  3813  0321                     l1775:
  3814  0321  0841               	movf	___fldiv@b+3,w
  3815  0322  00BD               	movwf	?___fldiv+3
  3816  0323  0840               	movf	___fldiv@b+2,w
  3817  0324  00BC               	movwf	?___fldiv+2
  3818  0325  083F               	movf	___fldiv@b+1,w
  3819  0326  00BB               	movwf	?___fldiv+1
  3820  0327  083E               	movf	___fldiv@b,w
  3821  0328  00BA               	movwf	?___fldiv
  3822  0329  2C89               	goto	l559
  3823  032A                     l1779:
  3824  032A  0852               	movf	___fldiv@bexp,w
  3825  032B  1D03               	btfss	3,2
  3826  032C  2B2E               	goto	u1961
  3827  032D  2B2F               	goto	u1960
  3828  032E                     u1961:
  3829  032E  2B38               	goto	l1785
  3830  032F                     u1960:
  3831  032F                     l1781:
  3832  032F  3000               	movlw	0
  3833  0330  00BD               	movwf	?___fldiv+3
  3834  0331  3000               	movlw	0
  3835  0332  00BC               	movwf	?___fldiv+2
  3836  0333  3000               	movlw	0
  3837  0334  00BB               	movwf	?___fldiv+1
  3838  0335  3000               	movlw	0
  3839  0336  00BA               	movwf	?___fldiv
  3840  0337  2C89               	goto	l559
  3841  0338                     l1785:
  3842  0338  0852               	movf	___fldiv@bexp,w
  3843  0339  00C2               	movwf	??___fldiv
  3844  033A  01C3               	clrf	??___fldiv+1
  3845  033B  0843               	movf	??___fldiv+1,w
  3846  033C  00C5               	movwf	??___fldiv+3
  3847  033D  0853               	movf	___fldiv@aexp,w
  3848  033E  0242               	subwf	??___fldiv,w
  3849  033F  00C4               	movwf	??___fldiv+2
  3850  0340  1C03               	skipc
  3851  0341  03C5               	decf	??___fldiv+3,f
  3852  0342  0844               	movf	??___fldiv+2,w
  3853  0343  3E7F               	addlw	127
  3854  0344  00CC               	movwf	___fldiv@new_exp
  3855  0345  0845               	movf	??___fldiv+3,w
  3856  0346  1803               	skipnc
  3857  0347  3E01               	addlw	1
  3858  0348  3E00               	addlw	0
  3859  0349  00CD               	movwf	___fldiv@new_exp+1
  3860  034A                     l1787:
  3861  034A  0841               	movf	___fldiv@b+3,w
  3862  034B  00CA               	movwf	___fldiv@rem+3
  3863  034C  0840               	movf	___fldiv@b+2,w
  3864  034D  00C9               	movwf	___fldiv@rem+2
  3865  034E  083F               	movf	___fldiv@b+1,w
  3866  034F  00C8               	movwf	___fldiv@rem+1
  3867  0350  083E               	movf	___fldiv@b,w
  3868  0351  00C7               	movwf	___fldiv@rem
  3869  0352                     l1789:
  3870  0352  3000               	movlw	0
  3871  0353  00C1               	movwf	___fldiv@b+3
  3872  0354  3000               	movlw	0
  3873  0355  00C0               	movwf	___fldiv@b+2
  3874  0356  3000               	movlw	0
  3875  0357  00BF               	movwf	___fldiv@b+1
  3876  0358  3000               	movlw	0
  3877  0359  00BE               	movwf	___fldiv@b
  3878  035A                     l1791:
  3879  035A  3000               	movlw	0
  3880  035B  00D1               	movwf	___fldiv@grs+3
  3881  035C  3000               	movlw	0
  3882  035D  00D0               	movwf	___fldiv@grs+2
  3883  035E  3000               	movlw	0
  3884  035F  00CF               	movwf	___fldiv@grs+1
  3885  0360  3000               	movlw	0
  3886  0361  00CE               	movwf	___fldiv@grs
  3887  0362                     l1793:
  3888  0362  01D3               	clrf	___fldiv@aexp
  3889  0363  2BAE               	goto	l1813
  3890  0364                     l1795:
  3891  0364  0853               	movf	___fldiv@aexp,w
  3892  0365  1903               	btfsc	3,2
  3893  0366  2B68               	goto	u1971
  3894  0367  2B69               	goto	u1970
  3895  0368                     u1971:
  3896  0368  2B89               	goto	l1805
  3897  0369                     u1970:
  3898  0369                     l1797:
  3899  0369  3001               	movlw	1
  3900  036A  00C2               	movwf	??___fldiv
  3901  036B                     u1985:
  3902  036B  1003               	clrc
  3903  036C  0DC7               	rlf	___fldiv@rem,f
  3904  036D  0DC8               	rlf	___fldiv@rem+1,f
  3905  036E  0DC9               	rlf	___fldiv@rem+2,f
  3906  036F  0DCA               	rlf	___fldiv@rem+3,f
  3907  0370  0BC2               	decfsz	??___fldiv,f
  3908  0371  2B6B               	goto	u1985
  3909  0372  3001               	movlw	1
  3910  0373  00C2               	movwf	??___fldiv
  3911  0374                     u1995:
  3912  0374  1003               	clrc
  3913  0375  0DBE               	rlf	___fldiv@b,f
  3914  0376  0DBF               	rlf	___fldiv@b+1,f
  3915  0377  0DC0               	rlf	___fldiv@b+2,f
  3916  0378  0DC1               	rlf	___fldiv@b+3,f
  3917  0379  0BC2               	decfsz	??___fldiv,f
  3918  037A  2B74               	goto	u1995
  3919  037B                     l1799:
  3920  037B  1FD1               	btfss	___fldiv@grs+3,7
  3921  037C  2B7E               	goto	u2001
  3922  037D  2B7F               	goto	u2000
  3923  037E                     u2001:
  3924  037E  2B80               	goto	l1803
  3925  037F                     u2000:
  3926  037F                     l1801:
  3927  037F  143E               	bsf	___fldiv@b,0
  3928  0380                     l1803:
  3929  0380  3001               	movlw	1
  3930  0381  00C2               	movwf	??___fldiv
  3931  0382                     u2015:
  3932  0382  1003               	clrc
  3933  0383  0DCE               	rlf	___fldiv@grs,f
  3934  0384  0DCF               	rlf	___fldiv@grs+1,f
  3935  0385  0DD0               	rlf	___fldiv@grs+2,f
  3936  0386  0DD1               	rlf	___fldiv@grs+3,f
  3937  0387  0BC2               	decfsz	??___fldiv,f
  3938  0388  2B82               	goto	u2015
  3939  0389                     l1805:
  3940  0389  083D               	movf	___fldiv@a+3,w
  3941  038A  024A               	subwf	___fldiv@rem+3,w
  3942  038B  1D03               	skipz
  3943  038C  2B97               	goto	u2025
  3944  038D  083C               	movf	___fldiv@a+2,w
  3945  038E  0249               	subwf	___fldiv@rem+2,w
  3946  038F  1D03               	skipz
  3947  0390  2B97               	goto	u2025
  3948  0391  083B               	movf	___fldiv@a+1,w
  3949  0392  0248               	subwf	___fldiv@rem+1,w
  3950  0393  1D03               	skipz
  3951  0394  2B97               	goto	u2025
  3952  0395  083A               	movf	___fldiv@a,w
  3953  0396  0247               	subwf	___fldiv@rem,w
  3954  0397                     u2025:
  3955  0397  1C03               	skipc
  3956  0398  2B9A               	goto	u2021
  3957  0399  2B9B               	goto	u2020
  3958  039A                     u2021:
  3959  039A  2BAA               	goto	l1811
  3960  039B                     u2020:
  3961  039B                     l1807:
  3962  039B  1751               	bsf	___fldiv@grs+3,6
  3963  039C                     l1809:
  3964  039C  083A               	movf	___fldiv@a,w
  3965  039D  02C7               	subwf	___fldiv@rem,f
  3966  039E  083B               	movf	___fldiv@a+1,w
  3967  039F  1C03               	skipc
  3968  03A0  0F3B               	incfsz	___fldiv@a+1,w
  3969  03A1  02C8               	subwf	___fldiv@rem+1,f
  3970  03A2  083C               	movf	___fldiv@a+2,w
  3971  03A3  1C03               	skipc
  3972  03A4  0F3C               	incfsz	___fldiv@a+2,w
  3973  03A5  02C9               	subwf	___fldiv@rem+2,f
  3974  03A6  083D               	movf	___fldiv@a+3,w
  3975  03A7  1C03               	skipc
  3976  03A8  0F3D               	incfsz	___fldiv@a+3,w
  3977  03A9  02CA               	subwf	___fldiv@rem+3,f
  3978  03AA                     l1811:
  3979  03AA  3001               	movlw	1
  3980  03AB  00C2               	movwf	??___fldiv
  3981  03AC  0842               	movf	??___fldiv,w
  3982  03AD  07D3               	addwf	___fldiv@aexp,f
  3983  03AE                     l1813:
  3984  03AE  301A               	movlw	26
  3985  03AF  0253               	subwf	___fldiv@aexp,w
  3986  03B0  1C03               	skipc
  3987  03B1  2BB3               	goto	u2031
  3988  03B2  2BB4               	goto	u2030
  3989  03B3                     u2031:
  3990  03B3  2B64               	goto	l1795
  3991  03B4                     u2030:
  3992  03B4                     l1815:
  3993  03B4  084A               	movf	___fldiv@rem+3,w
  3994  03B5  0449               	iorwf	___fldiv@rem+2,w
  3995  03B6  0448               	iorwf	___fldiv@rem+1,w
  3996  03B7  0447               	iorwf	___fldiv@rem,w
  3997  03B8  1903               	skipnz
  3998  03B9  2BBB               	goto	u2041
  3999  03BA  2BBC               	goto	u2040
  4000  03BB                     u2041:
  4001  03BB  2BDB               	goto	l1829
  4002  03BC                     u2040:
  4003  03BC                     l1817:
  4004  03BC  144E               	bsf	___fldiv@grs,0
  4005  03BD  2BDB               	goto	l1829
  4006  03BE                     l1819:
  4007  03BE  3001               	movlw	1
  4008  03BF  00C2               	movwf	??___fldiv
  4009  03C0                     u2055:
  4010  03C0  1003               	clrc
  4011  03C1  0DBE               	rlf	___fldiv@b,f
  4012  03C2  0DBF               	rlf	___fldiv@b+1,f
  4013  03C3  0DC0               	rlf	___fldiv@b+2,f
  4014  03C4  0DC1               	rlf	___fldiv@b+3,f
  4015  03C5  0BC2               	decfsz	??___fldiv,f
  4016  03C6  2BC0               	goto	u2055
  4017  03C7                     l1821:
  4018  03C7  1FD1               	btfss	___fldiv@grs+3,7
  4019  03C8  2BCA               	goto	u2061
  4020  03C9  2BCB               	goto	u2060
  4021  03CA                     u2061:
  4022  03CA  2BCC               	goto	l1825
  4023  03CB                     u2060:
  4024  03CB                     l1823:
  4025  03CB  143E               	bsf	___fldiv@b,0
  4026  03CC                     l1825:
  4027  03CC  3001               	movlw	1
  4028  03CD  00C2               	movwf	??___fldiv
  4029  03CE                     u2075:
  4030  03CE  1003               	clrc
  4031  03CF  0DCE               	rlf	___fldiv@grs,f
  4032  03D0  0DCF               	rlf	___fldiv@grs+1,f
  4033  03D1  0DD0               	rlf	___fldiv@grs+2,f
  4034  03D2  0DD1               	rlf	___fldiv@grs+3,f
  4035  03D3  0BC2               	decfsz	??___fldiv,f
  4036  03D4  2BCE               	goto	u2075
  4037  03D5                     l1827:
  4038  03D5  30FF               	movlw	255
  4039  03D6  07CC               	addwf	___fldiv@new_exp,f
  4040  03D7  1803               	skipnc
  4041  03D8  0ACD               	incf	___fldiv@new_exp+1,f
  4042  03D9  30FF               	movlw	255
  4043  03DA  07CD               	addwf	___fldiv@new_exp+1,f
  4044  03DB                     l1829:
  4045  03DB  1FC0               	btfss	___fldiv@b+2,7
  4046  03DC  2BDE               	goto	u2081
  4047  03DD  2BDF               	goto	u2080
  4048  03DE                     u2081:
  4049  03DE  2BBE               	goto	l1819
  4050  03DF                     u2080:
  4051  03DF                     l1831:
  4052  03DF  01D3               	clrf	___fldiv@aexp
  4053  03E0                     l1833:
  4054  03E0  1FD1               	btfss	___fldiv@grs+3,7
  4055  03E1  2BE3               	goto	u2091
  4056  03E2  2BE4               	goto	u2090
  4057  03E3                     u2091:
  4058  03E3  2C00               	goto	l1841
  4059  03E4                     u2090:
  4060  03E4                     l1835:
  4061  03E4  30FF               	movlw	255
  4062  03E5  054E               	andwf	___fldiv@grs,w
  4063  03E6  00C2               	movwf	??___fldiv
  4064  03E7  30FF               	movlw	255
  4065  03E8  054F               	andwf	___fldiv@grs+1,w
  4066  03E9  00C3               	movwf	??___fldiv+1
  4067  03EA  30FF               	movlw	255
  4068  03EB  0550               	andwf	___fldiv@grs+2,w
  4069  03EC  00C4               	movwf	??___fldiv+2
  4070  03ED  307F               	movlw	127
  4071  03EE  0551               	andwf	___fldiv@grs+3,w
  4072  03EF  00C5               	movwf	??___fldiv+3
  4073  03F0  0845               	movf	??___fldiv+3,w
  4074  03F1  0444               	iorwf	??___fldiv+2,w
  4075  03F2  0443               	iorwf	??___fldiv+1,w
  4076  03F3  0442               	iorwf	??___fldiv,w
  4077  03F4  1903               	skipnz
  4078  03F5  2BF7               	goto	u2101
  4079  03F6  2BF8               	goto	u2100
  4080  03F7                     u2101:
  4081  03F7  2BFB               	goto	l573
  4082  03F8                     u2100:
  4083  03F8                     l1837:
  4084  03F8  01D3               	clrf	___fldiv@aexp
  4085  03F9  0AD3               	incf	___fldiv@aexp,f
  4086  03FA  2C00               	goto	l1841
  4087  03FB                     l573:
  4088  03FB  1C3E               	btfss	___fldiv@b,0
  4089  03FC  2BFE               	goto	u2111
  4090  03FD  2BFF               	goto	u2110
  4091  03FE                     u2111:
  4092  03FE  2C00               	goto	l1841
  4093  03FF                     u2110:
  4094  03FF  2BF8               	goto	l1837
  4095  0400                     l1841:
  4096  0400  0853               	movf	___fldiv@aexp,w
  4097  0401  1903               	btfsc	3,2
  4098  0402  2C04               	goto	u2121
  4099  0403  2C05               	goto	u2120
  4100  0404                     u2121:
  4101  0404  2C36               	goto	l1851
  4102  0405                     u2120:
  4103  0405                     l1843:
  4104  0405  3001               	movlw	1
  4105  0406  07BE               	addwf	___fldiv@b,f
  4106  0407  3000               	movlw	0
  4107  0408  1803               	skipnc
  4108  0409  3001               	movlw	1
  4109  040A  07BF               	addwf	___fldiv@b+1,f
  4110  040B  3000               	movlw	0
  4111  040C  1803               	skipnc
  4112  040D  3001               	movlw	1
  4113  040E  07C0               	addwf	___fldiv@b+2,f
  4114  040F  3000               	movlw	0
  4115  0410  1803               	skipnc
  4116  0411  3001               	movlw	1
  4117  0412  07C1               	addwf	___fldiv@b+3,f
  4118  0413                     l1845:
  4119  0413  1C41               	btfss	___fldiv@b+3,0
  4120  0414  2C16               	goto	u2131
  4121  0415  2C17               	goto	u2130
  4122  0416                     u2131:
  4123  0416  2C36               	goto	l1851
  4124  0417                     u2130:
  4125  0417                     l1847:
  4126  0417  083E               	movf	___fldiv@b,w
  4127  0418  00C2               	movwf	??___fldiv
  4128  0419  083F               	movf	___fldiv@b+1,w
  4129  041A  00C3               	movwf	??___fldiv+1
  4130  041B  0840               	movf	___fldiv@b+2,w
  4131  041C  00C4               	movwf	??___fldiv+2
  4132  041D  0841               	movf	___fldiv@b+3,w
  4133  041E  00C5               	movwf	??___fldiv+3
  4134  041F  3001               	movlw	1
  4135  0420  00C6               	movwf	??___fldiv+4
  4136  0421                     u2145:
  4137  0421  0D45               	rlf	??___fldiv+3,w
  4138  0422  0CC5               	rrf	??___fldiv+3,f
  4139  0423  0CC4               	rrf	??___fldiv+2,f
  4140  0424  0CC3               	rrf	??___fldiv+1,f
  4141  0425  0CC2               	rrf	??___fldiv,f
  4142  0426                     u2140:
  4143  0426  0BC6               	decfsz	??___fldiv+4,f
  4144  0427  2C21               	goto	u2145
  4145  0428  0845               	movf	??___fldiv+3,w
  4146  0429  00C1               	movwf	___fldiv@b+3
  4147  042A  0844               	movf	??___fldiv+2,w
  4148  042B  00C0               	movwf	___fldiv@b+2
  4149  042C  0843               	movf	??___fldiv+1,w
  4150  042D  00BF               	movwf	___fldiv@b+1
  4151  042E  0842               	movf	??___fldiv,w
  4152  042F  00BE               	movwf	___fldiv@b
  4153  0430                     l1849:
  4154  0430  3001               	movlw	1
  4155  0431  07CC               	addwf	___fldiv@new_exp,f
  4156  0432  1803               	skipnc
  4157  0433  0ACD               	incf	___fldiv@new_exp+1,f
  4158  0434  3000               	movlw	0
  4159  0435  07CD               	addwf	___fldiv@new_exp+1,f
  4160  0436                     l1851:
  4161  0436  084D               	movf	___fldiv@new_exp+1,w
  4162  0437  3A80               	xorlw	128
  4163  0438  00FF               	movwf	btemp+1
  4164  0439  3080               	movlw	128
  4165  043A  027F               	subwf	btemp+1,w
  4166  043B  1D03               	skipz
  4167  043C  2C3F               	goto	u2155
  4168  043D  30FF               	movlw	255
  4169  043E  024C               	subwf	___fldiv@new_exp,w
  4170  043F                     u2155:
  4171  043F  1C03               	skipc
  4172  0440  2C42               	goto	u2151
  4173  0441  2C43               	goto	u2150
  4174  0442                     u2151:
  4175  0442  2C51               	goto	l1855
  4176  0443                     u2150:
  4177  0443                     l1853:
  4178  0443  30FF               	movlw	255
  4179  0444  1283               	bcf	3,5	;RP0=0, select bank0
  4180  0445  1303               	bcf	3,6	;RP1=0, select bank0
  4181  0446  00CC               	movwf	___fldiv@new_exp
  4182  0447  3000               	movlw	0
  4183  0448  00CD               	movwf	___fldiv@new_exp+1
  4184  0449  3000               	movlw	0
  4185  044A  00C1               	movwf	___fldiv@b+3
  4186  044B  3000               	movlw	0
  4187  044C  00C0               	movwf	___fldiv@b+2
  4188  044D  3000               	movlw	0
  4189  044E  00BF               	movwf	___fldiv@b+1
  4190  044F  3000               	movlw	0
  4191  0450  00BE               	movwf	___fldiv@b
  4192  0451                     l1855:
  4193  0451  1283               	bcf	3,5	;RP0=0, select bank0
  4194  0452  1303               	bcf	3,6	;RP1=0, select bank0
  4195  0453  084D               	movf	___fldiv@new_exp+1,w
  4196  0454  3A80               	xorlw	128
  4197  0455  00FF               	movwf	btemp+1
  4198  0456  3080               	movlw	128
  4199  0457  027F               	subwf	btemp+1,w
  4200  0458  1D03               	skipz
  4201  0459  2C5C               	goto	u2165
  4202  045A  3001               	movlw	1
  4203  045B  024C               	subwf	___fldiv@new_exp,w
  4204  045C                     u2165:
  4205  045C  1803               	skipnc
  4206  045D  2C5F               	goto	u2161
  4207  045E  2C60               	goto	u2160
  4208  045F                     u2161:
  4209  045F  2C6D               	goto	l579
  4210  0460                     u2160:
  4211  0460                     l1857:
  4212  0460  1283               	bcf	3,5	;RP0=0, select bank0
  4213  0461  1303               	bcf	3,6	;RP1=0, select bank0
  4214  0462  01CC               	clrf	___fldiv@new_exp
  4215  0463  01CD               	clrf	___fldiv@new_exp+1
  4216  0464                     l1859:
  4217  0464  3000               	movlw	0
  4218  0465  00C1               	movwf	___fldiv@b+3
  4219  0466  3000               	movlw	0
  4220  0467  00C0               	movwf	___fldiv@b+2
  4221  0468  3000               	movlw	0
  4222  0469  00BF               	movwf	___fldiv@b+1
  4223  046A  3000               	movlw	0
  4224  046B  00BE               	movwf	___fldiv@b
  4225  046C                     l1861:
  4226  046C  01CB               	clrf	___fldiv@sign
  4227  046D                     l579:
  4228  046D  1283               	bcf	3,5	;RP0=0, select bank0
  4229  046E  1303               	bcf	3,6	;RP1=0, select bank0
  4230  046F  084C               	movf	___fldiv@new_exp,w
  4231  0470  00C2               	movwf	??___fldiv
  4232  0471  0842               	movf	??___fldiv,w
  4233  0472  00D2               	movwf	___fldiv@bexp
  4234  0473                     l1863:
  4235  0473  1C52               	btfss	___fldiv@bexp,0
  4236  0474  2C76               	goto	u2171
  4237  0475  2C77               	goto	u2170
  4238  0476                     u2171:
  4239  0476  2C79               	goto	l1867
  4240  0477                     u2170:
  4241  0477                     l1865:
  4242  0477  17C0               	bsf	___fldiv@b+2,7
  4243  0478  2C7D               	goto	l581
  4244  0479                     l1867:
  4245  0479  307F               	movlw	127
  4246  047A  00C2               	movwf	??___fldiv
  4247  047B  0842               	movf	??___fldiv,w
  4248  047C  05C0               	andwf	___fldiv@b+2,f
  4249  047D                     l581:
  4250  047D  0852               	movf	___fldiv@bexp,w
  4251  047E  00C2               	movwf	??___fldiv
  4252  047F  1003               	clrc
  4253  0480  0C42               	rrf	??___fldiv,w
  4254  0481  00C3               	movwf	??___fldiv+1
  4255  0482  0843               	movf	??___fldiv+1,w
  4256  0483  00C1               	movwf	___fldiv@b+3
  4257  0484  084B               	movf	___fldiv@sign,w
  4258  0485  00C2               	movwf	??___fldiv
  4259  0486  0842               	movf	??___fldiv,w
  4260  0487  04C1               	iorwf	___fldiv@b+3,f
  4261  0488  2B21               	goto	l1775
  4262  0489                     l559:
  4263  0489  0008               	return
  4264  048A                     __end_of___fldiv:
  4265                           
  4266                           	psect	text13
  4267  0ECC                     __ptext13:	
  4268 ;; *************** function ___awmod *****************
  4269 ;; Defined at:
  4270 ;;		line 5 in file "C:\Program Files\Microchip\xc8\v2.31\pic\sources\c90\common\awmod.c"
  4271 ;; Parameters:    Size  Location     Type
  4272 ;;  divisor         2    9[COMMON] int 
  4273 ;;  dividend        2   11[COMMON] int 
  4274 ;; Auto vars:     Size  Location     Type
  4275 ;;  sign            1    1[BANK0 ] unsigned char 
  4276 ;;  counter         1    0[BANK0 ] unsigned char 
  4277 ;; Return value:  Size  Location     Type
  4278 ;;                  2    9[COMMON] int 
  4279 ;; Registers used:
  4280 ;;		wreg, status,2, status,0
  4281 ;; Tracked objects:
  4282 ;;		On entry : 0/0
  4283 ;;		On exit  : 0/0
  4284 ;;		Unchanged: 0/0
  4285 ;; Data sizes:     COMMON   BANK0   BANK1   BANK3   BANK2
  4286 ;;      Params:         4       0       0       0       0
  4287 ;;      Locals:         0       2       0       0       0
  4288 ;;      Temps:          1       0       0       0       0
  4289 ;;      Totals:         5       2       0       0       0
  4290 ;;Total ram usage:        7 bytes
  4291 ;; Hardware stack levels used:    1
  4292 ;; This function calls:
  4293 ;;		Nothing
  4294 ;; This function is called by:
  4295 ;;		_main
  4296 ;; This function uses a non-reentrant model
  4297 ;;
  4298                           
  4299                           
  4300                           ;psect for function ___awmod
  4301  0ECC                     ___awmod:
  4302  0ECC                     l1657:	
  4303                           ;incstack = 0
  4304                           ; Regs used in ___awmod: [wreg+status,2+status,0]
  4305                           
  4306  0ECC  1283               	bcf	3,5	;RP0=0, select bank0
  4307  0ECD  1303               	bcf	3,6	;RP1=0, select bank0
  4308  0ECE  01A1               	clrf	___awmod@sign
  4309  0ECF                     l1659:
  4310  0ECF  1FFC               	btfss	___awmod@dividend+1,7
  4311  0ED0  2ED2               	goto	u1701
  4312  0ED1  2ED3               	goto	u1700
  4313  0ED2                     u1701:
  4314  0ED2  2EDA               	goto	l1665
  4315  0ED3                     u1700:
  4316  0ED3                     l1661:
  4317  0ED3  09FB               	comf	___awmod@dividend,f
  4318  0ED4  09FC               	comf	___awmod@dividend+1,f
  4319  0ED5  0AFB               	incf	___awmod@dividend,f
  4320  0ED6  1903               	skipnz
  4321  0ED7  0AFC               	incf	___awmod@dividend+1,f
  4322  0ED8                     l1663:
  4323  0ED8  01A1               	clrf	___awmod@sign
  4324  0ED9  0AA1               	incf	___awmod@sign,f
  4325  0EDA                     l1665:
  4326  0EDA  1FFA               	btfss	___awmod@divisor+1,7
  4327  0EDB  2EDD               	goto	u1711
  4328  0EDC  2EDE               	goto	u1710
  4329  0EDD                     u1711:
  4330  0EDD  2EE3               	goto	l1669
  4331  0EDE                     u1710:
  4332  0EDE                     l1667:
  4333  0EDE  09F9               	comf	___awmod@divisor,f
  4334  0EDF  09FA               	comf	___awmod@divisor+1,f
  4335  0EE0  0AF9               	incf	___awmod@divisor,f
  4336  0EE1  1903               	skipnz
  4337  0EE2  0AFA               	incf	___awmod@divisor+1,f
  4338  0EE3                     l1669:
  4339  0EE3  0879               	movf	___awmod@divisor,w
  4340  0EE4  047A               	iorwf	___awmod@divisor+1,w
  4341  0EE5  1903               	btfsc	3,2
  4342  0EE6  2EE8               	goto	u1721
  4343  0EE7  2EE9               	goto	u1720
  4344  0EE8                     u1721:
  4345  0EE8  2F18               	goto	l1687
  4346  0EE9                     u1720:
  4347  0EE9                     l1671:
  4348  0EE9  01A0               	clrf	___awmod@counter
  4349  0EEA  0AA0               	incf	___awmod@counter,f
  4350  0EEB  2EF7               	goto	l1677
  4351  0EEC                     l1673:
  4352  0EEC  3001               	movlw	1
  4353  0EED                     u1735:
  4354  0EED  1003               	clrc
  4355  0EEE  0DF9               	rlf	___awmod@divisor,f
  4356  0EEF  0DFA               	rlf	___awmod@divisor+1,f
  4357  0EF0  3EFF               	addlw	-1
  4358  0EF1  1D03               	skipz
  4359  0EF2  2EED               	goto	u1735
  4360  0EF3                     l1675:
  4361  0EF3  3001               	movlw	1
  4362  0EF4  00FD               	movwf	??___awmod
  4363  0EF5  087D               	movf	??___awmod,w
  4364  0EF6  07A0               	addwf	___awmod@counter,f
  4365  0EF7                     l1677:
  4366  0EF7  1FFA               	btfss	___awmod@divisor+1,7
  4367  0EF8  2EFA               	goto	u1741
  4368  0EF9  2EFB               	goto	u1740
  4369  0EFA                     u1741:
  4370  0EFA  2EEC               	goto	l1673
  4371  0EFB                     u1740:
  4372  0EFB                     l1679:
  4373  0EFB  087A               	movf	___awmod@divisor+1,w
  4374  0EFC  027C               	subwf	___awmod@dividend+1,w
  4375  0EFD  1D03               	skipz
  4376  0EFE  2F01               	goto	u1755
  4377  0EFF  0879               	movf	___awmod@divisor,w
  4378  0F00  027B               	subwf	___awmod@dividend,w
  4379  0F01                     u1755:
  4380  0F01  1C03               	skipc
  4381  0F02  2F04               	goto	u1751
  4382  0F03  2F05               	goto	u1750
  4383  0F04                     u1751:
  4384  0F04  2F0B               	goto	l1683
  4385  0F05                     u1750:
  4386  0F05                     l1681:
  4387  0F05  0879               	movf	___awmod@divisor,w
  4388  0F06  02FB               	subwf	___awmod@dividend,f
  4389  0F07  087A               	movf	___awmod@divisor+1,w
  4390  0F08  1C03               	skipc
  4391  0F09  03FC               	decf	___awmod@dividend+1,f
  4392  0F0A  02FC               	subwf	___awmod@dividend+1,f
  4393  0F0B                     l1683:
  4394  0F0B  3001               	movlw	1
  4395  0F0C                     u1765:
  4396  0F0C  1003               	clrc
  4397  0F0D  0CFA               	rrf	___awmod@divisor+1,f
  4398  0F0E  0CF9               	rrf	___awmod@divisor,f
  4399  0F0F  3EFF               	addlw	-1
  4400  0F10  1D03               	skipz
  4401  0F11  2F0C               	goto	u1765
  4402  0F12                     l1685:
  4403  0F12  3001               	movlw	1
  4404  0F13  02A0               	subwf	___awmod@counter,f
  4405  0F14  1D03               	btfss	3,2
  4406  0F15  2F17               	goto	u1771
  4407  0F16  2F18               	goto	u1770
  4408  0F17                     u1771:
  4409  0F17  2EFB               	goto	l1679
  4410  0F18                     u1770:
  4411  0F18                     l1687:
  4412  0F18  0821               	movf	___awmod@sign,w
  4413  0F19  1903               	btfsc	3,2
  4414  0F1A  2F1C               	goto	u1781
  4415  0F1B  2F1D               	goto	u1780
  4416  0F1C                     u1781:
  4417  0F1C  2F22               	goto	l1691
  4418  0F1D                     u1780:
  4419  0F1D                     l1689:
  4420  0F1D  09FB               	comf	___awmod@dividend,f
  4421  0F1E  09FC               	comf	___awmod@dividend+1,f
  4422  0F1F  0AFB               	incf	___awmod@dividend,f
  4423  0F20  1903               	skipnz
  4424  0F21  0AFC               	incf	___awmod@dividend+1,f
  4425  0F22                     l1691:
  4426  0F22  087C               	movf	___awmod@dividend+1,w
  4427  0F23  00FA               	movwf	?___awmod+1
  4428  0F24  087B               	movf	___awmod@dividend,w
  4429  0F25  00F9               	movwf	?___awmod
  4430  0F26                     l374:
  4431  0F26  0008               	return
  4432  0F27                     __end_of___awmod:
  4433                           
  4434                           	psect	text14
  4435  0F27                     __ptext14:	
  4436 ;; *************** function ___awdiv *****************
  4437 ;; Defined at:
  4438 ;;		line 5 in file "C:\Program Files\Microchip\xc8\v2.31\pic\sources\c90\common\awdiv.c"
  4439 ;; Parameters:    Size  Location     Type
  4440 ;;  divisor         2    0[COMMON] int 
  4441 ;;  dividend        2    2[COMMON] int 
  4442 ;; Auto vars:     Size  Location     Type
  4443 ;;  quotient        2    7[COMMON] int 
  4444 ;;  sign            1    6[COMMON] unsigned char 
  4445 ;;  counter         1    5[COMMON] unsigned char 
  4446 ;; Return value:  Size  Location     Type
  4447 ;;                  2    0[COMMON] int 
  4448 ;; Registers used:
  4449 ;;		wreg, status,2, status,0
  4450 ;; Tracked objects:
  4451 ;;		On entry : 0/0
  4452 ;;		On exit  : 0/0
  4453 ;;		Unchanged: 0/0
  4454 ;; Data sizes:     COMMON   BANK0   BANK1   BANK3   BANK2
  4455 ;;      Params:         4       0       0       0       0
  4456 ;;      Locals:         4       0       0       0       0
  4457 ;;      Temps:          1       0       0       0       0
  4458 ;;      Totals:         9       0       0       0       0
  4459 ;;Total ram usage:        9 bytes
  4460 ;; Hardware stack levels used:    1
  4461 ;; This function calls:
  4462 ;;		Nothing
  4463 ;; This function is called by:
  4464 ;;		_main
  4465 ;; This function uses a non-reentrant model
  4466 ;;
  4467                           
  4468                           
  4469                           ;psect for function ___awdiv
  4470  0F27                     ___awdiv:
  4471  0F27                     l1613:	
  4472                           ;incstack = 0
  4473                           ; Regs used in ___awdiv: [wreg+status,2+status,0]
  4474                           
  4475  0F27  01F6               	clrf	___awdiv@sign
  4476  0F28                     l1615:
  4477  0F28  1FF1               	btfss	___awdiv@divisor+1,7
  4478  0F29  2F2B               	goto	u1601
  4479  0F2A  2F2C               	goto	u1600
  4480  0F2B                     u1601:
  4481  0F2B  2F33               	goto	l1621
  4482  0F2C                     u1600:
  4483  0F2C                     l1617:
  4484  0F2C  09F0               	comf	___awdiv@divisor,f
  4485  0F2D  09F1               	comf	___awdiv@divisor+1,f
  4486  0F2E  0AF0               	incf	___awdiv@divisor,f
  4487  0F2F  1903               	skipnz
  4488  0F30  0AF1               	incf	___awdiv@divisor+1,f
  4489  0F31                     l1619:
  4490  0F31  01F6               	clrf	___awdiv@sign
  4491  0F32  0AF6               	incf	___awdiv@sign,f
  4492  0F33                     l1621:
  4493  0F33  1FF3               	btfss	___awdiv@dividend+1,7
  4494  0F34  2F36               	goto	u1611
  4495  0F35  2F37               	goto	u1610
  4496  0F36                     u1611:
  4497  0F36  2F40               	goto	l1627
  4498  0F37                     u1610:
  4499  0F37                     l1623:
  4500  0F37  09F2               	comf	___awdiv@dividend,f
  4501  0F38  09F3               	comf	___awdiv@dividend+1,f
  4502  0F39  0AF2               	incf	___awdiv@dividend,f
  4503  0F3A  1903               	skipnz
  4504  0F3B  0AF3               	incf	___awdiv@dividend+1,f
  4505  0F3C                     l1625:
  4506  0F3C  3001               	movlw	1
  4507  0F3D  00F4               	movwf	??___awdiv
  4508  0F3E  0874               	movf	??___awdiv,w
  4509  0F3F  06F6               	xorwf	___awdiv@sign,f
  4510  0F40                     l1627:
  4511  0F40  01F7               	clrf	___awdiv@quotient
  4512  0F41  01F8               	clrf	___awdiv@quotient+1
  4513  0F42                     l1629:
  4514  0F42  0870               	movf	___awdiv@divisor,w
  4515  0F43  0471               	iorwf	___awdiv@divisor+1,w
  4516  0F44  1903               	btfsc	3,2
  4517  0F45  2F47               	goto	u1621
  4518  0F46  2F48               	goto	u1620
  4519  0F47                     u1621:
  4520  0F47  2F7F               	goto	l1649
  4521  0F48                     u1620:
  4522  0F48                     l1631:
  4523  0F48  01F5               	clrf	___awdiv@counter
  4524  0F49  0AF5               	incf	___awdiv@counter,f
  4525  0F4A  2F56               	goto	l1637
  4526  0F4B                     l1633:
  4527  0F4B  3001               	movlw	1
  4528  0F4C                     u1635:
  4529  0F4C  1003               	clrc
  4530  0F4D  0DF0               	rlf	___awdiv@divisor,f
  4531  0F4E  0DF1               	rlf	___awdiv@divisor+1,f
  4532  0F4F  3EFF               	addlw	-1
  4533  0F50  1D03               	skipz
  4534  0F51  2F4C               	goto	u1635
  4535  0F52                     l1635:
  4536  0F52  3001               	movlw	1
  4537  0F53  00F4               	movwf	??___awdiv
  4538  0F54  0874               	movf	??___awdiv,w
  4539  0F55  07F5               	addwf	___awdiv@counter,f
  4540  0F56                     l1637:
  4541  0F56  1FF1               	btfss	___awdiv@divisor+1,7
  4542  0F57  2F59               	goto	u1641
  4543  0F58  2F5A               	goto	u1640
  4544  0F59                     u1641:
  4545  0F59  2F4B               	goto	l1633
  4546  0F5A                     u1640:
  4547  0F5A                     l1639:
  4548  0F5A  3001               	movlw	1
  4549  0F5B                     u1655:
  4550  0F5B  1003               	clrc
  4551  0F5C  0DF7               	rlf	___awdiv@quotient,f
  4552  0F5D  0DF8               	rlf	___awdiv@quotient+1,f
  4553  0F5E  3EFF               	addlw	-1
  4554  0F5F  1D03               	skipz
  4555  0F60  2F5B               	goto	u1655
  4556  0F61  0871               	movf	___awdiv@divisor+1,w
  4557  0F62  0273               	subwf	___awdiv@dividend+1,w
  4558  0F63  1D03               	skipz
  4559  0F64  2F67               	goto	u1665
  4560  0F65  0870               	movf	___awdiv@divisor,w
  4561  0F66  0272               	subwf	___awdiv@dividend,w
  4562  0F67                     u1665:
  4563  0F67  1C03               	skipc
  4564  0F68  2F6A               	goto	u1661
  4565  0F69  2F6B               	goto	u1660
  4566  0F6A                     u1661:
  4567  0F6A  2F72               	goto	l1645
  4568  0F6B                     u1660:
  4569  0F6B                     l1641:
  4570  0F6B  0870               	movf	___awdiv@divisor,w
  4571  0F6C  02F2               	subwf	___awdiv@dividend,f
  4572  0F6D  0871               	movf	___awdiv@divisor+1,w
  4573  0F6E  1C03               	skipc
  4574  0F6F  03F3               	decf	___awdiv@dividend+1,f
  4575  0F70  02F3               	subwf	___awdiv@dividend+1,f
  4576  0F71                     l1643:
  4577  0F71  1477               	bsf	___awdiv@quotient,0
  4578  0F72                     l1645:
  4579  0F72  3001               	movlw	1
  4580  0F73                     u1675:
  4581  0F73  1003               	clrc
  4582  0F74  0CF1               	rrf	___awdiv@divisor+1,f
  4583  0F75  0CF0               	rrf	___awdiv@divisor,f
  4584  0F76  3EFF               	addlw	-1
  4585  0F77  1D03               	skipz
  4586  0F78  2F73               	goto	u1675
  4587  0F79                     l1647:
  4588  0F79  3001               	movlw	1
  4589  0F7A  02F5               	subwf	___awdiv@counter,f
  4590  0F7B  1D03               	btfss	3,2
  4591  0F7C  2F7E               	goto	u1681
  4592  0F7D  2F7F               	goto	u1680
  4593  0F7E                     u1681:
  4594  0F7E  2F5A               	goto	l1639
  4595  0F7F                     u1680:
  4596  0F7F                     l1649:
  4597  0F7F  0876               	movf	___awdiv@sign,w
  4598  0F80  1903               	btfsc	3,2
  4599  0F81  2F83               	goto	u1691
  4600  0F82  2F84               	goto	u1690
  4601  0F83                     u1691:
  4602  0F83  2F89               	goto	l1653
  4603  0F84                     u1690:
  4604  0F84                     l1651:
  4605  0F84  09F7               	comf	___awdiv@quotient,f
  4606  0F85  09F8               	comf	___awdiv@quotient+1,f
  4607  0F86  0AF7               	incf	___awdiv@quotient,f
  4608  0F87  1903               	skipnz
  4609  0F88  0AF8               	incf	___awdiv@quotient+1,f
  4610  0F89                     l1653:
  4611  0F89  0878               	movf	___awdiv@quotient+1,w
  4612  0F8A  00F1               	movwf	?___awdiv+1
  4613  0F8B  0877               	movf	___awdiv@quotient,w
  4614  0F8C  00F0               	movwf	?___awdiv
  4615  0F8D                     l361:
  4616  0F8D  0008               	return
  4617  0F8E                     __end_of___awdiv:
  4618                           
  4619                           	psect	text15
  4620  0D29                     __ptext15:	
  4621 ;; *************** function _SPI_Write *****************
  4622 ;; Defined at:
  4623 ;;		line 51 in file "SPI.c"
  4624 ;; Parameters:    Size  Location     Type
  4625 ;;  a               1    wreg     unsigned char 
  4626 ;; Auto vars:     Size  Location     Type
  4627 ;;  a               1    0[COMMON] unsigned char 
  4628 ;; Return value:  Size  Location     Type
  4629 ;;                  1    wreg      void 
  4630 ;; Registers used:
  4631 ;;		wreg
  4632 ;; Tracked objects:
  4633 ;;		On entry : 0/0
  4634 ;;		On exit  : 0/0
  4635 ;;		Unchanged: 0/0
  4636 ;; Data sizes:     COMMON   BANK0   BANK1   BANK3   BANK2
  4637 ;;      Params:         0       0       0       0       0
  4638 ;;      Locals:         1       0       0       0       0
  4639 ;;      Temps:          0       0       0       0       0
  4640 ;;      Totals:         1       0       0       0       0
  4641 ;;Total ram usage:        1 bytes
  4642 ;; Hardware stack levels used:    1
  4643 ;; This function calls:
  4644 ;;		Nothing
  4645 ;; This function is called by:
  4646 ;;		_main
  4647 ;; This function uses a non-reentrant model
  4648 ;;
  4649                           
  4650                           
  4651                           ;psect for function _SPI_Write
  4652  0D29                     _SPI_Write:
  4653                           
  4654                           ;incstack = 0
  4655                           ; Regs used in _SPI_Write: [wreg]
  4656                           ;SPI_Write@a stored from wreg
  4657  0D29  00F0               	movwf	SPI_Write@a
  4658  0D2A                     l1609:
  4659                           
  4660                           ;SPI.c: 52:     SSPBUF = a;
  4661  0D2A  0870               	movf	SPI_Write@a,w
  4662  0D2B  1283               	bcf	3,5	;RP0=0, select bank0
  4663  0D2C  1303               	bcf	3,6	;RP1=0, select bank0
  4664  0D2D  0093               	movwf	19	;volatile
  4665  0D2E                     l1611:
  4666                           
  4667                           ;SPI.c: 53:     SSPIF = 0;
  4668  0D2E  118C               	bcf	12,3	;volatile
  4669  0D2F                     l113:
  4670  0D2F  0008               	return
  4671  0D30                     __end_of_SPI_Write:
  4672                           
  4673                           	psect	text16
  4674  0D43                     __ptext16:	
  4675 ;; *************** function _SPI_Ready *****************
  4676 ;; Defined at:
  4677 ;;		line 56 in file "SPI.c"
  4678 ;; Parameters:    Size  Location     Type
  4679 ;;  a               1    wreg     unsigned char 
  4680 ;; Auto vars:     Size  Location     Type
  4681 ;;  a               1    0[COMMON] unsigned char 
  4682 ;; Return value:  Size  Location     Type
  4683 ;;                  1    wreg      void 
  4684 ;; Registers used:
  4685 ;;		wreg
  4686 ;; Tracked objects:
  4687 ;;		On entry : 0/0
  4688 ;;		On exit  : 0/0
  4689 ;;		Unchanged: 0/0
  4690 ;; Data sizes:     COMMON   BANK0   BANK1   BANK3   BANK2
  4691 ;;      Params:         0       0       0       0       0
  4692 ;;      Locals:         1       0       0       0       0
  4693 ;;      Temps:          0       0       0       0       0
  4694 ;;      Totals:         1       0       0       0       0
  4695 ;;Total ram usage:        1 bytes
  4696 ;; Hardware stack levels used:    1
  4697 ;; This function calls:
  4698 ;;		Nothing
  4699 ;; This function is called by:
  4700 ;;		_main
  4701 ;; This function uses a non-reentrant model
  4702 ;;
  4703                           
  4704                           
  4705                           ;psect for function _SPI_Ready
  4706  0D43                     _SPI_Ready:
  4707  0D43                     l1603:	
  4708                           ;incstack = 0
  4709                           ; Regs used in _SPI_Ready: [wreg]
  4710                           
  4711                           
  4712                           ;SPI.c: 57:     if (SSPSTATbits.BF == 1){
  4713  0D43  1683               	bsf	3,5	;RP0=1, select bank1
  4714  0D44  1303               	bcf	3,6	;RP1=0, select bank1
  4715  0D45  1C14               	btfss	20,0	;volatile
  4716  0D46  2D48               	goto	u1581
  4717  0D47  2D49               	goto	u1580
  4718  0D48                     u1581:
  4719  0D48  2D4A               	goto	l116
  4720  0D49                     u1580:
  4721  0D49                     l1605:
  4722                           
  4723                           ;SPI.c: 59:     }
  4724  0D49  2D4E               	goto	l119
  4725  0D4A                     l116:	
  4726                           ;SPI.c: 60:     else if (SSPSTATbits.BF == 0){
  4727                           
  4728  0D4A  1814               	btfsc	20,0	;volatile
  4729  0D4B  2D4D               	goto	u1591
  4730  0D4C  2D4E               	goto	u1590
  4731  0D4D                     u1591:
  4732  0D4D  2D4E               	goto	l119
  4733  0D4E                     u1590:
  4734  0D4E                     l1607:
  4735  0D4E                     l119:
  4736  0D4E  0008               	return
  4737  0D4F                     __end_of_SPI_Ready:
  4738                           
  4739                           	psect	text17
  4740  0E82                     __ptext17:	
  4741 ;; *************** function _SPI_Init *****************
  4742 ;; Defined at:
  4743 ;;		line 8 in file "SPI.c"
  4744 ;; Parameters:    Size  Location     Type
  4745 ;;  a               1    wreg     unsigned char 
  4746 ;; Auto vars:     Size  Location     Type
  4747 ;;  a               1    2[COMMON] unsigned char 
  4748 ;; Return value:  Size  Location     Type
  4749 ;;                  1    wreg      void 
  4750 ;; Registers used:
  4751 ;;		wreg, fsr0l, fsr0h, status,2, status,0
  4752 ;; Tracked objects:
  4753 ;;		On entry : 0/0
  4754 ;;		On exit  : 0/0
  4755 ;;		Unchanged: 0/0
  4756 ;; Data sizes:     COMMON   BANK0   BANK1   BANK3   BANK2
  4757 ;;      Params:         0       0       0       0       0
  4758 ;;      Locals:         1       0       0       0       0
  4759 ;;      Temps:          2       0       0       0       0
  4760 ;;      Totals:         3       0       0       0       0
  4761 ;;Total ram usage:        3 bytes
  4762 ;; Hardware stack levels used:    1
  4763 ;; This function calls:
  4764 ;;		Nothing
  4765 ;; This function is called by:
  4766 ;;		_main
  4767 ;; This function uses a non-reentrant model
  4768 ;;
  4769                           
  4770                           
  4771                           ;psect for function _SPI_Init
  4772  0E82                     _SPI_Init:
  4773                           
  4774                           ;incstack = 0
  4775                           ; Regs used in _SPI_Init: [wreg-fsr0h+status,2+status,0]
  4776                           ;SPI_Init@a stored from wreg
  4777  0E82  00F2               	movwf	SPI_Init@a
  4778  0E83                     l1541:
  4779                           
  4780                           ;SPI.c: 9:     switch(a){
  4781  0E83  2EB5               	goto	l1551
  4782  0E84                     l105:	
  4783                           ;SPI.c: 10:         case 0:
  4784                           
  4785                           
  4786                           ;SPI.c: 11:             TRISCbits.TRISC5 = 0;
  4787  0E84  1683               	bsf	3,5	;RP0=1, select bank1
  4788  0E85  1303               	bcf	3,6	;RP1=0, select bank1
  4789  0E86  1287               	bcf	7,5	;volatile
  4790                           
  4791                           ;SPI.c: 12:             TRISCbits.TRISC3 = 0;
  4792  0E87  1187               	bcf	7,3	;volatile
  4793                           
  4794                           ;SPI.c: 13:             SSPSTATbits.SMP = 0;
  4795  0E88  1394               	bcf	20,7	;volatile
  4796                           
  4797                           ;SPI.c: 14:             SSPSTATbits.CKE = 0;
  4798  0E89  1314               	bcf	20,6	;volatile
  4799                           
  4800                           ;SPI.c: 15:             SSPSTATbits.BF = 0;
  4801  0E8A  1014               	bcf	20,0	;volatile
  4802  0E8B                     l1543:
  4803                           
  4804                           ;SPI.c: 16:             SSPCON = 0b00100000;
  4805  0E8B  3020               	movlw	32
  4806  0E8C  1283               	bcf	3,5	;RP0=0, select bank0
  4807  0E8D  1303               	bcf	3,6	;RP1=0, select bank0
  4808  0E8E  0094               	movwf	20	;volatile
  4809                           
  4810                           ;SPI.c: 19:             break;
  4811  0E8F  2ECB               	goto	l110
  4812  0E90                     l107:	
  4813                           ;SPI.c: 20:         case 1:
  4814                           
  4815                           
  4816                           ;SPI.c: 21:             TRISCbits.TRISC5 = 0;
  4817  0E90  1683               	bsf	3,5	;RP0=1, select bank1
  4818  0E91  1303               	bcf	3,6	;RP1=0, select bank1
  4819  0E92  1287               	bcf	7,5	;volatile
  4820                           
  4821                           ;SPI.c: 22:             TRISCbits.TRISC3 = 0;
  4822  0E93  1187               	bcf	7,3	;volatile
  4823                           
  4824                           ;SPI.c: 23:             SSPSTATbits.SMP = 0;
  4825  0E94  1394               	bcf	20,7	;volatile
  4826                           
  4827                           ;SPI.c: 24:             SSPSTATbits.CKE = 0;
  4828  0E95  1314               	bcf	20,6	;volatile
  4829                           
  4830                           ;SPI.c: 25:             SSPSTATbits.BF = 0;
  4831  0E96  1014               	bcf	20,0	;volatile
  4832  0E97                     l1545:
  4833                           
  4834                           ;SPI.c: 26:             SSPCON = 0b00100001;
  4835  0E97  3021               	movlw	33
  4836  0E98  1283               	bcf	3,5	;RP0=0, select bank0
  4837  0E99  1303               	bcf	3,6	;RP1=0, select bank0
  4838  0E9A  0094               	movwf	20	;volatile
  4839                           
  4840                           ;SPI.c: 29:             break;
  4841  0E9B  2ECB               	goto	l110
  4842  0E9C                     l108:	
  4843                           ;SPI.c: 30:         case 2:
  4844                           
  4845                           
  4846                           ;SPI.c: 31:             TRISCbits.TRISC5 = 0;
  4847  0E9C  1683               	bsf	3,5	;RP0=1, select bank1
  4848  0E9D  1303               	bcf	3,6	;RP1=0, select bank1
  4849  0E9E  1287               	bcf	7,5	;volatile
  4850                           
  4851                           ;SPI.c: 32:             TRISCbits.TRISC3 = 0;
  4852  0E9F  1187               	bcf	7,3	;volatile
  4853                           
  4854                           ;SPI.c: 33:             SSPSTATbits.SMP = 0;
  4855  0EA0  1394               	bcf	20,7	;volatile
  4856                           
  4857                           ;SPI.c: 34:             SSPSTATbits.CKE = 0;
  4858  0EA1  1314               	bcf	20,6	;volatile
  4859                           
  4860                           ;SPI.c: 35:             SSPSTATbits.BF = 0;
  4861  0EA2  1014               	bcf	20,0	;volatile
  4862  0EA3                     l1547:
  4863                           
  4864                           ;SPI.c: 36:             SSPCON = 0b00100010;
  4865  0EA3  3022               	movlw	34
  4866  0EA4  1283               	bcf	3,5	;RP0=0, select bank0
  4867  0EA5  1303               	bcf	3,6	;RP1=0, select bank0
  4868  0EA6  0094               	movwf	20	;volatile
  4869                           
  4870                           ;SPI.c: 39:             break;
  4871  0EA7  2ECB               	goto	l110
  4872  0EA8                     l109:	
  4873                           ;SPI.c: 40:         case 3:
  4874                           
  4875                           
  4876                           ;SPI.c: 41:             TRISCbits.TRISC5 = 0;
  4877  0EA8  1683               	bsf	3,5	;RP0=1, select bank1
  4878  0EA9  1303               	bcf	3,6	;RP1=0, select bank1
  4879  0EAA  1287               	bcf	7,5	;volatile
  4880                           
  4881                           ;SPI.c: 42:             TRISCbits.TRISC3 = 1;
  4882  0EAB  1587               	bsf	7,3	;volatile
  4883                           
  4884                           ;SPI.c: 43:             TRISCbits.TRISC4 = 1;
  4885  0EAC  1607               	bsf	7,4	;volatile
  4886                           
  4887                           ;SPI.c: 44:             SSPSTATbits.SMP = 0;
  4888  0EAD  1394               	bcf	20,7	;volatile
  4889                           
  4890                           ;SPI.c: 45:             SSPSTATbits.CKE = 0;
  4891  0EAE  1314               	bcf	20,6	;volatile
  4892                           
  4893                           ;SPI.c: 46:             SSPSTATbits.BF = 0;
  4894  0EAF  1014               	bcf	20,0	;volatile
  4895  0EB0                     l1549:
  4896                           
  4897                           ;SPI.c: 47:             SSPCON = 0b00100100;
  4898  0EB0  3024               	movlw	36
  4899  0EB1  1283               	bcf	3,5	;RP0=0, select bank0
  4900  0EB2  1303               	bcf	3,6	;RP1=0, select bank0
  4901  0EB3  0094               	movwf	20	;volatile
  4902                           
  4903                           ;SPI.c: 48:     }
  4904  0EB4  2ECB               	goto	l110
  4905  0EB5                     l1551:
  4906  0EB5  0872               	movf	SPI_Init@a,w
  4907  0EB6  00F0               	movwf	??_SPI_Init
  4908  0EB7  01F1               	clrf	??_SPI_Init+1
  4909                           
  4910                           ; Switch on 2 bytes has been partitioned into a top level switch of size 1, and 1 sub-sw
      +                          itches
  4911                           ; Switch size 1, requested type "simple"
  4912                           ; Number of cases is 1, Range of values is 0 to 0
  4913                           ; switch strategies available:
  4914                           ; Name         Instructions Cycles
  4915                           ; simple_byte            4     3 (average)
  4916                           ; direct_byte           11     8 (fixed)
  4917                           ; jumptable            260     6 (fixed)
  4918                           ;	Chosen strategy is simple_byte
  4919  0EB8  0871               	movf	??_SPI_Init+1,w
  4920  0EB9  3A00               	xorlw	0	; case 0
  4921  0EBA  1903               	skipnz
  4922  0EBB  2EBD               	goto	l2115
  4923  0EBC  2ECB               	goto	l110
  4924  0EBD                     l2115:
  4925                           
  4926                           ; Switch size 1, requested type "simple"
  4927                           ; Number of cases is 4, Range of values is 0 to 3
  4928                           ; switch strategies available:
  4929                           ; Name         Instructions Cycles
  4930                           ; simple_byte           13     7 (average)
  4931                           ; direct_byte           20     8 (fixed)
  4932                           ; jumptable            260     6 (fixed)
  4933                           ;	Chosen strategy is simple_byte
  4934  0EBD  0870               	movf	??_SPI_Init,w
  4935  0EBE  3A00               	xorlw	0	; case 0
  4936  0EBF  1903               	skipnz
  4937  0EC0  2E84               	goto	l105
  4938  0EC1  3A01               	xorlw	1	; case 1
  4939  0EC2  1903               	skipnz
  4940  0EC3  2E90               	goto	l107
  4941  0EC4  3A03               	xorlw	3	; case 2
  4942  0EC5  1903               	skipnz
  4943  0EC6  2E9C               	goto	l108
  4944  0EC7  3A01               	xorlw	1	; case 3
  4945  0EC8  1903               	skipnz
  4946  0EC9  2EA8               	goto	l109
  4947  0ECA  2ECB               	goto	l110
  4948  0ECB                     l110:
  4949  0ECB  0008               	return
  4950  0ECC                     __end_of_SPI_Init:
  4951                           
  4952                           	psect	text18
  4953  0006                     __ptext18:	
  4954 ;; *************** function _ADC_Read *****************
  4955 ;; Defined at:
  4956 ;;		line 17 in file "ADC.c"
  4957 ;; Parameters:    Size  Location     Type
  4958 ;;  a               2    0[COMMON] int 
  4959 ;;  b               2    2[COMMON] int 
  4960 ;; Auto vars:     Size  Location     Type
  4961 ;;		None
  4962 ;; Return value:  Size  Location     Type
  4963 ;;                  1    wreg      unsigned char 
  4964 ;; Registers used:
  4965 ;;		wreg, status,0
  4966 ;; Tracked objects:
  4967 ;;		On entry : 0/0
  4968 ;;		On exit  : 0/0
  4969 ;;		Unchanged: 0/0
  4970 ;; Data sizes:     COMMON   BANK0   BANK1   BANK3   BANK2
  4971 ;;      Params:         4       0       0       0       0
  4972 ;;      Locals:         0       0       0       0       0
  4973 ;;      Temps:          0       0       0       0       0
  4974 ;;      Totals:         4       0       0       0       0
  4975 ;;Total ram usage:        4 bytes
  4976 ;; Hardware stack levels used:    1
  4977 ;; This function calls:
  4978 ;;		Nothing
  4979 ;; This function is called by:
  4980 ;;		_main
  4981 ;; This function uses a non-reentrant model
  4982 ;;
  4983                           
  4984                           
  4985                           ;psect for function _ADC_Read
  4986  0006                     _ADC_Read:
  4987  0006                     l1557:	
  4988                           ;incstack = 0
  4989                           ; Regs used in _ADC_Read: [wreg+status,0]
  4990                           
  4991                           
  4992                           ;ADC.c: 18:     ADCON0bits.CHS0 = a;
  4993  0006  0C70               	rrf	ADC_Read@a,w
  4994  0007  1283               	bcf	3,5	;RP0=0, select bank0
  4995  0008  1303               	bcf	3,6	;RP1=0, select bank0
  4996  0009  1C03               	skipc
  4997  000A  111F               	bcf	31,2	;volatile
  4998  000B  1803               	skipnc
  4999  000C  151F               	bsf	31,2	;volatile
  5000                           
  5001                           ;ADC.c: 19:     ADCON0bits.CHS1 = b;
  5002  000D  0C72               	rrf	ADC_Read@b,w
  5003  000E  1C03               	skipc
  5004  000F  119F               	bcf	31,3	;volatile
  5005  0010  1803               	skipnc
  5006  0011  159F               	bsf	31,3	;volatile
  5007  0012                     l1559:
  5008                           
  5009                           ;ADC.c: 20:     ADCON0bits.CHS2 = 0;
  5010  0012  121F               	bcf	31,4	;volatile
  5011  0013                     l1561:
  5012                           
  5013                           ;ADC.c: 21:     ADCON0bits.CHS3 = 0;
  5014  0013  129F               	bcf	31,5	;volatile
  5015  0014                     l1563:
  5016                           
  5017                           ;ADC.c: 22:     ADCON0bits.ADON = 1;
  5018  0014  141F               	bsf	31,0	;volatile
  5019  0015                     l1565:
  5020                           
  5021                           ;ADC.c: 23:     ADCON0bits.GO = 1;
  5022  0015  149F               	bsf	31,1	;volatile
  5023  0016                     l1567:
  5024                           
  5025                           ;ADC.c: 24:     PIR1bits.ADIF = 0;
  5026  0016  130C               	bcf	12,6	;volatile
  5027  0017                     l1569:
  5028                           
  5029                           ;ADC.c: 25:     return(ADRESH);
  5030  0017  081E               	movf	30,w	;volatile
  5031  0018                     l91:
  5032  0018  0008               	return
  5033  0019                     __end_of_ADC_Read:
  5034                           
  5035                           	psect	text19
  5036  0D38                     __ptext19:	
  5037 ;; *************** function _ADC_Init *****************
  5038 ;; Defined at:
  5039 ;;		line 8 in file "ADC.c"
  5040 ;; Parameters:    Size  Location     Type
  5041 ;;		None
  5042 ;; Auto vars:     Size  Location     Type
  5043 ;;		None
  5044 ;; Return value:  Size  Location     Type
  5045 ;;                  1    wreg      void 
  5046 ;; Registers used:
  5047 ;;		None
  5048 ;; Tracked objects:
  5049 ;;		On entry : 0/0
  5050 ;;		On exit  : 0/0
  5051 ;;		Unchanged: 0/0
  5052 ;; Data sizes:     COMMON   BANK0   BANK1   BANK3   BANK2
  5053 ;;      Params:         0       0       0       0       0
  5054 ;;      Locals:         0       0       0       0       0
  5055 ;;      Temps:          0       0       0       0       0
  5056 ;;      Totals:         0       0       0       0       0
  5057 ;;Total ram usage:        0 bytes
  5058 ;; Hardware stack levels used:    1
  5059 ;; This function calls:
  5060 ;;		Nothing
  5061 ;; This function is called by:
  5062 ;;		_main
  5063 ;; This function uses a non-reentrant model
  5064 ;;
  5065                           
  5066                           
  5067                           ;psect for function _ADC_Init
  5068  0D38                     _ADC_Init:
  5069  0D38                     l1539:	
  5070                           ;incstack = 0
  5071                           ; Regs used in _ADC_Init: []
  5072                           
  5073                           
  5074                           ;ADC.c: 9:     ADCON0bits.ADCS0 = 1;
  5075  0D38  1283               	bcf	3,5	;RP0=0, select bank0
  5076  0D39  1303               	bcf	3,6	;RP1=0, select bank0
  5077  0D3A  171F               	bsf	31,6	;volatile
  5078                           
  5079                           ;ADC.c: 10:     ADCON0bits.ADCS1 = 0;
  5080  0D3B  139F               	bcf	31,7	;volatile
  5081                           
  5082                           ;ADC.c: 11:     ADCON0bits.ADON = 1;
  5083  0D3C  141F               	bsf	31,0	;volatile
  5084                           
  5085                           ;ADC.c: 12:     ADCON1bits.ADFM = 0;
  5086  0D3D  1683               	bsf	3,5	;RP0=1, select bank1
  5087  0D3E  1303               	bcf	3,6	;RP1=0, select bank1
  5088  0D3F  139F               	bcf	31,7	;volatile
  5089                           
  5090                           ;ADC.c: 13:     ADCON1bits.VCFG0 = 0;
  5091  0D40  121F               	bcf	31,4	;volatile
  5092                           
  5093                           ;ADC.c: 14:     ADCON1bits.VCFG1 = 0;
  5094  0D41  129F               	bcf	31,5	;volatile
  5095  0D42                     l88:
  5096  0D42  0008               	return
  5097  0D43                     __end_of_ADC_Init:
  5098  007E                     btemp	set	126	;btemp
  5099  007E                     wtemp0	set	126
  5100                           
  5101                           	psect	config
  5102                           
  5103                           ;Config register CONFIG1 @ 0x2007
  5104                           ;	Oscillator Selection bits
  5105                           ;	FOSC = INTRC_NOCLKOUT, INTOSCIO oscillator: I/O function on RA6/OSC2/CLKOUT pin, I/O f
      +                          unction on RA7/OSC1/CLKIN
  5106                           ;	Watchdog Timer Enable bit
  5107                           ;	WDTE = OFF, WDT disabled and can be enabled by SWDTEN bit of the WDTCON register
  5108                           ;	Power-up Timer Enable bit
  5109                           ;	PWRTE = OFF, PWRT disabled
  5110                           ;	RE3/MCLR pin function select bit
  5111                           ;	MCLRE = OFF, RE3/MCLR pin function is digital input, MCLR internally tied to VDD
  5112                           ;	Code Protection bit
  5113                           ;	CP = OFF, Program memory code protection is disabled
  5114                           ;	Data Code Protection bit
  5115                           ;	CPD = OFF, Data memory code protection is disabled
  5116                           ;	Brown Out Reset Selection bits
  5117                           ;	BOREN = OFF, BOR disabled
  5118                           ;	Internal External Switchover bit
  5119                           ;	IESO = OFF, Internal/External Switchover mode is disabled
  5120                           ;	Fail-Safe Clock Monitor Enabled bit
  5121                           ;	FCMEN = OFF, Fail-Safe Clock Monitor is disabled
  5122                           ;	Low Voltage Programming Enable bit
  5123                           ;	LVP = OFF, RB3 pin has digital I/O, HV on MCLR must be used for programming
  5124                           ;	In-Circuit Debugger Mode bit
  5125                           ;	DEBUG = 0x1, unprogrammed default
  5126  2007                     	org	8199
  5127  2007  20D4               	dw	8404
  5128                           
  5129                           ;Config register CONFIG2 @ 0x2008
  5130                           ;	Brown-out Reset Selection bit
  5131                           ;	BOR4V = BOR40V, Brown-out Reset set to 4.0V
  5132                           ;	Flash Program Memory Self Write Enable bits
  5133                           ;	WRT = OFF, Write protection off
  5134  2008                     	org	8200
  5135  2008  3FFF               	dw	16383

Data Sizes:
    Strings     2
    Constant    0
    Data        0
    BSS         34
    Persistent  0
    Stack       0

Auto Spaces:
    Space          Size  Autos    Used
    COMMON           14     14      14
    BANK0            80     56      80
    BANK1            80      0      10
    BANK3            96      0       0
    BANK2            96      0       0

Pointer List with Targets:

    strcpy@from	PTR const unsigned char  size(1) Largest target is 2
		 -> STR_1(CODE[2]), 

    strcpy@to	PTR unsigned char  size(1) Largest target is 5
		 -> PUNTO1(BANK1[5]), 

    strcpy@cp	PTR unsigned char  size(1) Largest target is 5
		 -> PUNTO1(BANK1[5]), 

    strcat@from	PTR const unsigned char  size(1) Largest target is 5
		 -> PUNTO1(BANK1[5]), POT1SB(BANK0[5]), POT1SA(BANK1[5]), 

    strcat@to	PTR unsigned char  size(1) Largest target is 5
		 -> PUNTO1(BANK1[5]), POT1SC(BANK0[5]), POT1SB(BANK0[5]), 

    strcat@cp	PTR unsigned char  size(1) Largest target is 5
		 -> PUNTO1(BANK1[5]), POT1SC(BANK0[5]), POT1SB(BANK0[5]), 

    utoa@buf	PTR unsigned char  size(1) Largest target is 5
		 -> POT1SC(BANK0[5]), POT1SB(BANK0[5]), POT1SA(BANK1[5]), 

    sp__utoa	PTR unsigned char  size(1) Largest target is 5
		 -> POT1SC(BANK0[5]), POT1SB(BANK0[5]), POT1SA(BANK1[5]), 

    itoa@buf	PTR unsigned char  size(1) Largest target is 5
		 -> POT1SC(BANK0[5]), POT1SB(BANK0[5]), POT1SA(BANK1[5]), 

    itoa@cp	PTR unsigned char  size(1) Largest target is 5
		 -> POT1SC(BANK0[5]), POT1SB(BANK0[5]), POT1SA(BANK1[5]), 

    sp__strcat	PTR unsigned char  size(1) Largest target is 5
		 -> PUNTO1(BANK1[5]), POT1SC(BANK0[5]), POT1SB(BANK0[5]), 

    sp__strcpy	PTR unsigned char  size(1) Largest target is 5
		 -> PUNTO1(BANK1[5]), 

    sp__itoa	PTR unsigned char  size(1) Largest target is 5
		 -> POT1SC(BANK0[5]), POT1SB(BANK0[5]), POT1SA(BANK1[5]), 


Critical Paths under _main in COMMON

    _main->___awmod
    _main->___xxtofl
    _main->_itoa
    _itoa->_utoa
    _utoa->___lwdiv
    ___flmul->___xxtofl
    ___fldiv->___xxtofl
    ___awmod->___awdiv

Critical Paths under _main in BANK0

    _main->___fldiv
    _itoa->_utoa
    ___fltol->___flmul
    ___fldiv->___flmul

Critical Paths under _main in BANK1

    None.

Critical Paths under _main in BANK3

    None.

Critical Paths under _main in BANK2

    None.

Call Graph Tables:

 ---------------------------------------------------------------------------------
 (Depth) Function   	        Calls       Base Space   Used Autos Params    Refs
 ---------------------------------------------------------------------------------
 (0) _main                                                 4     4      0    8734
                                             52 BANK0      4     4      0
                           _ADC_Init
                           _ADC_Read
                           _SPI_Init
                          _SPI_Ready
                          _SPI_Write
                            ___awdiv
                            ___awmod
                            ___fldiv
                            ___flmul
                            ___fltol
                           ___xxtofl
                               _itoa
                              _setup
                             _strcat
                             _strcpy
 ---------------------------------------------------------------------------------
 (2) _strcpy                                               4     3      1     184
                                              0 COMMON     4     3      1
 ---------------------------------------------------------------------------------
 (1) _strcat                                               4     3      1     425
                                              0 COMMON     4     3      1
 ---------------------------------------------------------------------------------
 (1) _setup                                                0     0      0       0
 ---------------------------------------------------------------------------------
 (1) _itoa                                                 7     3      4    1982
                                             13 COMMON     1     1      0
                                              4 BANK0      6     2      4
                               _utoa
 ---------------------------------------------------------------------------------
 (2) _utoa                                                 9     5      4    1264
                                              8 COMMON     5     1      4
                                              0 BANK0      4     4      0
                            ___lwdiv
                            ___lwmod
 ---------------------------------------------------------------------------------
 (3) ___lwmod                                              6     2      4     311
                                              0 COMMON     6     2      4
 ---------------------------------------------------------------------------------
 (3) ___lwdiv                                              8     4      4     466
                                              0 COMMON     8     4      4
 ---------------------------------------------------------------------------------
 (1) ___xxtofl                                            14    10      4     398
                                              0 COMMON    14    10      4
 ---------------------------------------------------------------------------------
 (1) ___fltol                                             11     7      4     305
                                             26 BANK0     11     7      4
                            ___flmul (ARG)
 ---------------------------------------------------------------------------------
 (1) ___flmul                                             26    18      8    2569
                                              0 BANK0     26    18      8
                          __Umul8_16
                           ___xxtofl (ARG)
 ---------------------------------------------------------------------------------
 (2) __Umul8_16                                            9     7      2     799
                                              0 COMMON     9     7      2
 ---------------------------------------------------------------------------------
 (1) ___fldiv                                             26    18      8    1273
                                             26 BANK0     26    18      8
                            ___flmul (ARG)
                           ___xxtofl (ARG)
 ---------------------------------------------------------------------------------
 (1) ___awmod                                              7     3      4     752
                                              9 COMMON     5     1      4
                                              0 BANK0      2     2      0
                            ___awdiv (ARG)
 ---------------------------------------------------------------------------------
 (1) ___awdiv                                              9     5      4     604
                                              0 COMMON     9     5      4
 ---------------------------------------------------------------------------------
 (1) _SPI_Write                                            1     1      0      22
                                              0 COMMON     1     1      0
 ---------------------------------------------------------------------------------
 (1) _SPI_Ready                                            1     1      0       2
                                              0 COMMON     1     1      0
 ---------------------------------------------------------------------------------
 (1) _SPI_Init                                             3     3      0      22
                                              0 COMMON     3     3      0
 ---------------------------------------------------------------------------------
 (1) _ADC_Read                                             4     0      4     196
                                              0 COMMON     4     0      4
 ---------------------------------------------------------------------------------
 (1) _ADC_Init                                             0     0      0       0
 ---------------------------------------------------------------------------------
 Estimated maximum stack depth 3
 ---------------------------------------------------------------------------------

 Call Graph Graphs:

 _main (ROOT)
   _ADC_Init
   _ADC_Read
   _SPI_Init
   _SPI_Ready
   _SPI_Write
   ___awdiv
   ___awmod
     ___awdiv (ARG)
   ___fldiv
     ___flmul (ARG)
       __Umul8_16
       ___xxtofl (ARG)
     ___xxtofl (ARG)
   ___flmul
     __Umul8_16
     ___xxtofl (ARG)
   ___fltol
     ___flmul (ARG)
       __Umul8_16
       ___xxtofl (ARG)
   ___xxtofl
   _itoa
     _utoa
       ___lwdiv
       ___lwmod
   _setup
   _strcat
   _strcpy

 Address spaces:
Name               Size   Autos  Total    Cost      Usage
BITCOMMON            E      0       0       0        0.0%
EEDATA             100      0       0       0        0.0%
NULL                 0      0       0       0        0.0%
CODE                 0      0       0       0        0.0%
COMMON               E      E       E       1      100.0%
BITSFR0              0      0       0       1        0.0%
SFR0                 0      0       0       1        0.0%
BITSFR1              0      0       0       2        0.0%
SFR1                 0      0       0       2        0.0%
STACK                0      0       0       2        0.0%
ABS                  0      0      68       3        0.0%
BITBANK0            50      0       0       4        0.0%
BITSFR3              0      0       0       4        0.0%
SFR3                 0      0       0       4        0.0%
BANK0               50     38      50       5      100.0%
BITSFR2              0      0       0       5        0.0%
SFR2                 0      0       0       5        0.0%
BITBANK1            50      0       0       6        0.0%
BANK1               50      0       A       7       12.5%
BITBANK3            60      0       0       8        0.0%
BANK3               60      0       0       9        0.0%
BITBANK2            60      0       0      10        0.0%
BANK2               60      0       0      11        0.0%
DATA                 0      0      68      12        0.0%


Microchip Technology PIC Macro Assembler V2.31 build 20201012212115 
Symbol Table                                                                                   Mon Feb 22 20:10:58 2021

           ___fldiv@aexp 0053             ___fldiv@bexp 0052                        pc 0002  
           ___fldiv@sign 004B              _SSPSTATbits 0094                       l91 0018  
                     l77 0D6C                       l88 0D42                       _V1 0062  
           ___awdiv@sign 0076                       fsr 0004      __Umul8_16@word_mpld 0076  
                    l110 0ECB                      l105 0E84                      l113 0D2F  
                    l107 0E90                      l108 0E9C                      l116 0D4A  
                    l109 0EA8                      l119 0D4E                      l401 007F  
                    l404 0094                      l361 0F8D                      l603 0756  
                    l374 0F26                      l616 0DC8                      l480 0E81  
                    l609 07DE                      l641 00B7                      l618 0DDA  
                    l394 0094                      l490 0E3D                      l643 014E  
                    l581 047D                      l573 03FB                      l557 0309  
                    l654 0118                      l670 0FFF                      l662 0DB3  
                    l559 0489                      l655 0124                      l647 00FC  
                    l579 046D                      l668 0FE8                      l597 07EA  
                    l685 0D8D                      l679 0E03                      _adc 0065  
                    fsr0 0004                      indf 0000             ___awmod@sign 0021  
           ___flmul@aexp 0032             ___flmul@bexp 0033             ___flmul@sign 002D  
           ___flmul@temp 0038             ___flmul@prod 0034             ___fltol@exp1 0044  
                   l2001 07C4                     l2003 07D2                     l2005 07D6  
                   l2021 00BF                     l2013 0096                     l2007 07D7  
                   l2031 00E1                     l2015 009B                     l2009 07E2  
                   l2041 0112                     l2033 00E5                     l2025 00C8  
                   l2017 009F                     l2115 0EBD                     l2051 0145  
                   l2043 011C                     l2035 00F3                     l2027 00CD  
                   l2019 00AF                     l2053 0146                     l2045 0126  
                   l2037 0103                     l2029 00DA                     l1501 0FB2  
                   l2061 0159                     l2047 013C                     l2039 010E  
                   l1431 0E3E                     l1511 0FE4                     l1503 0FB6  
                   l2071 01EC                     l2063 015F                     l2049 0141  
                   l1441 0E54                     l1433 0E40                     l1513 0FEC  
                   l1505 0FB8                     l1601 0DF6                     l2081 025F  
                   l2073 01FF                     l2065 0167                     l2057 014F  
                   l1603 0D43                     l1611 0D2E                     l1451 0E77  
                   l1443 0E58                     l1435 0E46                     l1515 0FF3  
                   l1507 0FCB                     l1531 0D68                     l1523 0D4F  
                   l2091 029D                     l2083 026D                     l2075 020D  
                   l2067 0177                     l2059 0154                     l1541 0E83  
                   l1605 0D49                     l1621 0F33                     l1613 0F27  
                   l1701 002F                     l1445 0E69                     l1437 0E49  
                   l1453 0E7D                     l1461 0E0D                     l1517 0FF5  
                   l1509 0FDC                     l1533 0D69                     l1525 0D53  
                   l2093 02A3                     l2085 0279                     l2077 022F  
                   l2069 01C2                     l1543 0E8B                     l1551 0EB5  
                   l1607 0D4E                     l1631 0F48                     l1623 0F37  
                   l1615 0F28                     l1711 0053                     l1703 0044  
                   l1447 0E6F                     l1439 0E50                     l1471 0E2C  
                   l1463 0E14                     l1519 0FFB                     l1535 0D6A  
                   l1527 0D54                     l2087 0285                     l2079 023D  
                   l1561 0013                     l1545 0E97                     l1609 0D2A  
                   l1641 0F6B                     l1633 0F4B                     l1625 0F3C  
                   l1617 0F2C                     l1801 037F                     l1481 0DB7  
                   l1705 0045                     l1449 0E70                     l1473 0E33  
                   l1465 0E18                     l1457 0E04                     l1537 0D6B  
                   l1529 0D62                     l2089 0291                     l1539 0D38  
                   l1563 0014                     l1547 0EA3                     l1651 0F84  
                   l1643 0F71                     l1635 0F52                     l1627 0F40  
                   l1619 0F31                     l1811 03AA                     l1803 0380  
                   l1731 02AD                     l1483 0DBE                     l1707 004D  
                   l1467 0E1C                     l1459 0E0A                     l1475 0E39  
                   l1565 0015                     l1557 0006                     l1549 0EB0  
                   l1653 0F89                     l1645 0F72                     l1637 0F56  
                   l1629 0F42                     l1661 0ED3                     l1821 03C7  
                   l1805 0389                     l1813 03AE                     l1741 02C4  
                   l1733 02B4                     l1485 0DC2                     l1901 04CD  
                   l1725 0074                     l1717 005B                     l1709 004F  
                   l1469 0E26                     l1493 0F91                     l1581 0DA0  
                   l1573 0D91                     l1567 0016                     l1559 0012  
                   l1647 0F79                     l1639 0F5A                     l1671 0EE9  
                   l1663 0ED8                     l1831 03DF                     l1823 03CB  
                   l1815 03B4                     l1807 039B                     l1751 02DC  
                   l1743 02C9                     l1735 02BA                     l1487 0DD1  
                   l1479 0DB5                     l1911 04E9                     l1903 04D2  
                   l1727 0084                     l1719 006D                     l1495 0F95  
                   l1583 0DA5                     l1575 0D91                     l1591 0D7B  
                   l1569 0017                     l1649 0F7F                     l1681 0F05  
                   l1673 0EEC                     l1665 0EDA                     l1657 0ECC  
                   l1841 0400                     l1833 03E0                     l1825 03CC  
                   l1817 03BC                     l1809 039C                     l1761 02F1  
                   l1753 02E1                     l1745 02D1                     l1737 02BE  
                   l1489 0DD6                     l1921 0514                     l1913 04EE  
                   l1905 04DA                     l1729 0089                     l1497 0FA8  
                   l1577 0D95                     l1593 0DDC                     l1691 0F22  
                   l1683 0F0B                     l1675 0EF3                     l1667 0EDE  
                   l1659 0ECF                     l1843 0405                     l1851 0436  
                   l1835 03E4                     l1827 03D5                     l1819 03BE  
                   l1771 0311                     l1763 02F6                     l1755 02E7  
                   l1747 02D2                     l1739 02BF                     l1931 05B1  
                   l1923 0531                     l1907 04DC                     l1499 0FAC  
                   l1579 0D9C                     l1595 0DE1                     l1587 0D6E  
                   l1685 0F12                     l1677 0EF7                     l1669 0EE3  
                   l1861 046C                     l1853 0443                     l1845 0413  
                   l1837 03F8                     l1829 03DB                     l1781 032F  
                   l1773 031D                     l1765 02FE                     l1757 02EB  
                   l1749 02D4                     l1941 0614                     l1933 05BA  
                   l1925 054D                     l1917 04F7                     l1909 04E4  
                   l1597 0DE5                     l1589 0D73                     l1679 0EFB  
                   l1687 0F18                     l1863 0473                     l1855 0451  
                   l1847 0417                     l1791 035A                     l1775 0321  
                   l1767 02FF                     l1759 02EC                     l1951 06B4  
                   l1943 062D                     l1935 05CA                     l1927 0579  
                   l1919 0507                     l1695 0019                     l1599 0DEE  
                   l1689 0F1D                     l1865 0477                     l1857 0460  
                   l1849 0430                     l1793 0362                     l1785 0338  
                   l1769 0301                     l1961 0722                     l1953 06DA  
                   l1945 064A                     l1937 05E7                     l1929 0595  
                   l1881 049C                     l1873 048A                     l1697 0026  
                   l1867 0479                     l1859 0464                     l1795 0364  
                   l1787 034A                     l1779 032A                     l1971 073A  
                   l1963 0726                     l1955 0702                     l1947 0677  
                   l1939 05F7                     l1891 04B8                     l1883 04A1  
                   l1875 0491                     l1797 0369                     l1789 0352  
                   l1981 075B                     l1973 073B                     l1965 0727  
                   l1957 070B                     l1949 0687                     l1893 04BD  
                   l1885 04A6                     l1877 0497                     l1799 037B  
                   l1983 0760                     l1991 0791                     l1975 073F  
                   l1967 0730                     l1959 0719                     l1895 04C3  
                   l1887 04AE                     l1879 049B                     l1993 079E  
                   l1985 076E                     l1977 0753                     l1969 0736  
                   l1897 04C7                     l1889 04B0                     l1995 07A9  
                   l1987 0772                     l1899 04C8                     l1997 07B8  
                   l1989 078B                     l1999 07C2                     STR_1 0806  
                   u2000 037F                     u2001 037E                     u2100 03F8  
                   u2020 039B                     u2101 03F7                     u2021 039A  
                   u2110 03FF                     u2030 03B4                     u2111 03FE  
                   u2031 03B3                     u2015 0382                     u2120 0405  
                   u2040 03BC                     u2200 04A6                     u2121 0404  
                   u2041 03BB                     u2025 0397                     u2201 04A5  
                   u2130 0417                     u2210 04C7                     u1410 0E7D  
                   u2131 0416                     u2211 04C6                     u1411 0E7C  
                   u2140 0426                     u2060 03CB                     u1500 0DD6  
                   u2220 04CD                     u1420 0E0A                     u2061 03CA  
                   u1501 0DD5                     u2221 04CC                     u1405 0E71  
                   u1421 0E09                     u2150 0443                     u2230 04D2  
                   u1350 0E46                     u1510 0FB2                     u2151 0442  
                   u2055 03C0                     u2311 05D9                     u2231 04D1  
                   u1351 0E45                     u1511 0FB1                     u1600 0F2C  
                   u2160 0460                     u2080 03DF                     u2312 05E0  
                   u2240 04E9                     u1440 0E1C                     u1520 0FE4  
                   u1601 0F2B                     u2161 045F                     u2145 0421  
                   u2081 03DE                     u2401 06F4                     u2321 0606  
                   u2313 05E7                     u2305 05B3                     u2241 04E8  
                   u1441 0E1B                     u1521 0FE3                     u1610 0F37  
                   u2170 0477                     u2090 03E4                     u2402 06FB  
                   u2322 060D                     u2250 04EE                     u1370 0E58  
                   u1450 0E26                     u1530 0FFB                     u1611 0F36  
                   u2171 0476                     u2155 043F                     u2091 03E3  
                   u2075 03CE                     u2403 0702                     u2323 0614  
                   u2251 04ED                     u1371 0E57                     u1451 0E25  
                   u1435 0E0E                     u1531 0FFA                     u1620 0F48  
                   u1700 0ED3                     u2500 0772                     u2180 049B  
                   u1540 0D95                     u1621 0F47                     u1701 0ED2  
                   u2165 045C                     u2501 0771                     u2341 063C  
                   u2261 053F                     u2181 049A                     u1365 0E4A  
                   u1541 0D94                     u1710 0EDE                     u2510 0781  
                   u2430 0726                     u2342 0643                     u2262 0546  
                   u2190 04A1                     u1390 0E69                     u1470 0E39  
                   u1550 0D8D                     u1711 0EDD                     u2431 0725  
                   u2415 0704                     u2351 0669                     u2343 064A  
                   u2335 0616                     u2271 055B                     u2263 054D  
                   u2191 04A0                     u1391 0E68                     u1471 0E38  
                   u1455 0E22                     u1551 0D8C                     u1640 0F5A  
                   u1720 0EE9                     u1480 0DC2                     u2520 079E  
                   u2352 0670                     u2272 0562                     u1800 003D  
                   u1560 0DED                     u1641 0F59                     u1721 0EE8  
                   u1481 0DC1                     u2521 079D                     u2425 071B  
                   u2361 0696                     u2353 0677                     u2281 0587  
                   u2273 0569                     u1385 0E59                     u1465 0E2D  
                   u1561 0DEC                     u2530 07B8                     u2450 073A  
                   u2370 06C0                     u2362 069D                     u2282 058E  
                   u1810 0053                     u2610 0102                     u1570 0E03  
                   u1635 0F4C                     u2531 07B7                     u2515 077C  
                   u2451 0739                     u2363 06A4                     u2291 05A3  
                   u2283 0595                     u1811 0052                     u2611 0101  
                   u1395 0E65                     u1571 0E02                     u1580 0D49  
                   u1660 0F6B                     u1740 0EFB                     u1900 02C4  
                   u2540 07D6                     u2460 073F                     u2292 05AA  
                   u1820 005A                     u1581 0D48                     u1661 0F6A  
                   u1741 0EFA                     u1901 02C3                     u2541 07D5  
                   u2525 079A                     u2461 073E                     u2445 0729  
                   u2381 06CC                     u2293 05B1                     u1821 0059  
                   u1805 0038                     u2605 00F4                     u1590 0D4E  
                   u1750 0F05                     u1910 02C9                     u2470 0753  
                   u2390 06E8                     u2382 06D3                     u2630 0112  
                   u2550 009B                     u1591 0D4D                     u1655 0F5B  
                   u1751 0F04                     u1735 0EED                     u1911 02C8  
                   u1495 0DC9                     u2535 07B4                     u2471 0752  
                   u2383 06DA                     u2375 06BB                     u2631 0111  
                   u2551 009A                     u1680 0F7F                     u1920 02EB  
                   u2480 075A                     u1840 006C                     u2640 0118  
                   u2560 009F                     u1681 0F7E                     u1665 0F67  
                   u1921 02EA                     u2481 0759                     u1841 006B  
                   u2641 0117                     u2625 0107                     u2561 009E  
                   u1690 0F84                     u1770 0F18                     u1930 02F1  
                   u2490 0760                     u1850 0073                     u2650 011C  
                   u2570 00BF                     u1691 0F83                     u1675 0F73  
                   u1771 0F17                     u1755 0F01                     u1931 02F0  
                   u2491 075F                     u2395 06E3                     u1851 0072  
                   u1835 005C                     u2651 011B                     u2571 00BE  
                   u1780 0F1D                     u1940 02F6                     u2660 0131  
                   u1781 0F1C                     u1765 0F0C                     u1941 02F5  
                   u1950 0311                     u1870 0084                     u1790 0026  
                   u2670 0141                     u2590 00E0                     u1951 0310  
                   u1871 0083                     u1791 0025                     u2671 0140  
                   u2591 00DF                     u1960 032F                     u1880 0089  
                   u2680 0145                     u1961 032E                     u1881 0088  
                   u1865 0076                     u2681 0144                     u2665 012C  
                   u2585 00D2                     u1970 0369                     u1890 02BE  
                   u1971 0368                     u1891 02BD                     u1985 036B  
                   u2697 0163                     u1995 0374                     _main 014F  
                   _itoa 0D8E                     btemp 007E                     _utoa 0F8E  
       __end_of_ADC_Init 0D43         __end_of_ADC_Read 0019                     start 0000  
        ___fldiv@new_exp 004C            ___fltol@sign1 0043                    ?_main 0070  
        __end_of___fldiv 048A                    ?_itoa 0024          __end_of___awdiv 0F8E  
        __end_of___awmod 0F27          __end_of___flmul 07EB          __end_of___fltol 0095  
                  _ANSEL 0188                    ?_utoa 0078          ___awdiv@divisor 0070  
        __end_of___lwdiv 0E82          __end_of___lwmod 0E3E          ___awdiv@counter 0075  
                  _POT1A 0060                    _POT1B 005E                    _POT1C 005C  
                  _PORTA 0005                    _PORTB 0006                    _PORTC 0007  
                  _PORTD 0008                    _PORTE 0009                    _TRISA 0085  
                  _TRISB 0086                    _TRISD 0088                    _TRISE 0089  
                  _SSPIF 0063                    _Ready 0064                    _setup 0D4F  
       __end_of_SPI_Init 0ECC                    pclath 000A                    utoa@c 0022  
     __size_of_SPI_Ready 000C                    utoa@v 0020                    status 0003  
                  wtemp0 007E       __size_of_SPI_Write 0007          __initialization 07EB  
           __end_of_main 02AD             __end_of_itoa 0DB4             __end_of_utoa 1000  
                 ??_main 0054                   ??_itoa 007D                   ??_utoa 007C  
                 _ADRESH 001E         ___awdiv@dividend 0072                ADC_Read@a 0070  
              ADC_Read@b 0072                   ?_setup 0070                   _ANSELH 0189  
                 _POT1SA 00A5                   _POT1SB 006B                   _POT1SC 0066  
                 _PUNTO1 00A0                   _SSPCON 0014                   _SSPBUF 0013  
       __end_of___xxtofl 014F                ??___fldiv 0042                ??___awdiv 0074  
              ??___awmod 007D                ??___flmul 0028                ??___fltol 003E  
              ??___lwdiv 0074                ??___lwmod 0074         ___awdiv@quotient 0077  
        ___awmod@divisor 0079          ___awmod@counter 0020                   _strcat 0DDB  
                 _strcpy 0D6D        __end_of_SPI_Ready 0D4F        __end_of_SPI_Write 0D30  
     __size_of__Umul8_16 0027                ?_ADC_Init 0070                ?_ADC_Read 0070  
           ___xxtofl@arg 007A             ___xxtofl@exp 0079             ___xxtofl@val 0070  
__end_of__initialization 07FC               ___fltol@f1 003A           __pcstackCOMMON 0070  
          __end_of_setup 0D6D                ?_SPI_Init 0070               ??_ADC_Init 0070  
             ??_ADC_Read 0074                  ??_setup 0070               __pbssBANK0 0058  
             __pbssBANK1 00A0        __end_of__Umul8_16 0DDB               __pmaintext 014F  
             ??_SPI_Init 0070                  ?_strcat 0070                  ?_strcpy 0070  
              ?___xxtofl 0070               __stringtab 0800                SPI_Init@a 0072  
                ___fldiv 02AD                  ___awdiv 0F27                  ___awmod 0ECC  
                ___flmul 048A                  ___fltol 0019                  ___lwdiv 0E3E  
                ___lwmod 0E04                  __ptext1 0D6D                  __ptext2 0DDB  
                __ptext3 0D4F                  __ptext4 0D8E                  __ptext5 0F8E  
                __ptext6 0E04                  __ptext7 0E3E                  __ptext8 0095  
                __ptext9 0019          __size_of_strcat 0029          __size_of_strcpy 0021  
             ??___xxtofl 0074         ___awmod@dividend 007B                  clrloop0 0D31  
                _voltaje 0058     end_of_initialization 07FC                  itoa@buf 0029  
                itoa@val 0024                  utoa@buf 0023                  utoa@val 0078  
          ___xxtofl@sign 0078                _TRISCbits 0087                _SPI_Ready 0D43  
            ___fldiv@grs 004E              ___fldiv@rem 0047                _SPI_Write 0D29  
      __size_of_ADC_Init 000B        __size_of_ADC_Read 0013              ___flmul@grs 002E  
      __size_of_SPI_Init 004A           __end_of_strcat 0E04           __end_of_strcpy 0D8E  
    start_initialization 07EB               ?_SPI_Ready 0070               ?_SPI_Write 0070  
              __Umul8_16 0DB4                 ??_strcat 0071                 ??_strcpy 0071  
              ___fldiv@a 003A                ___fldiv@b 003E                ___flmul@a 0024  
              ___flmul@b 0020                ___latbits 0002            __pcstackBANK0 0020  
      __size_of___xxtofl 00BA         ___lwdiv@dividend 0072                 ?___fldiv 003A  
               ?___awdiv 0070                 ?___awmod 0079                 ?___flmul 0020  
               ?___fltol 003A               ?__Umul8_16 0070                 ?___lwdiv 0070  
               ?___lwmod 0070                __pstrings 0800                 _ADC_Init 0D38  
               _ADC_Read 0006              ??_SPI_Ready 0070              ??_SPI_Write 0070  
       ___lwdiv@quotient 0075           __size_of_setup 001E                clear_ram0 0D30  
               _PIR1bits 000C                 _SPI_Init 0E82               _ADCON0bits 001F  
            __stringbase 0805               _ADCON1bits 009F               SPI_Ready@a 0070  
             SPI_Write@a 0070              ??__Umul8_16 0072         __size_of___fldiv 01DD  
       __size_of___awdiv 0067         __size_of___awmod 005B         __size_of___flmul 0361  
       __size_of___fltol 007C         __size_of___lwdiv 0044         __size_of___lwmod 003A  
     __end_of__stringtab 0806                 ___xxtofl 0095               strcat@from 0070  
        ___lwdiv@divisor 0070          ___lwdiv@counter 0077                 __ptext10 048A  
               __ptext11 0DB4                 __ptext12 02AD                 __ptext13 0ECC  
               __ptext14 0F27                 __ptext15 0D29                 __ptext16 0D43  
               __ptext17 0E82                 __ptext18 0006                 __ptext19 0D38  
             strcpy@from 0070            __size_of_main 015E            __size_of_itoa 0026  
          __size_of_utoa 0072                 itoa@base 0026         ___lwmod@dividend 0072  
              stringcode 0800               _OSCCONbits 008F                 utoa@base 007A  
 __Umul8_16@multiplicand 0070                 strcat@cp 0073                 strcat@to 0072  
        ___lwmod@divisor 0070                 strcpy@cp 0073                 strcpy@to 0072  
        ___lwmod@counter 0075                 stringdir 0800                 stringtab 0800  
   __Umul8_16@multiplier 0078        __Umul8_16@product 0074  
