

Microchip MPLAB XC8 Assembler V2.31 build 20201012212115 
                                                                                               Tue Feb 23 01:46:16 2021

Microchip MPLAB XC8 C Compiler v2.31 (Free license) build 20201012212115 Og1 
     1                           	processor	16F887
     2                           	pagewidth 120
     3                           	opt	flic
     4                           	psect	strings,global,class=STRING,delta=2,noexec
     5                           	psect	cinit,global,class=CODE,merge=1,delta=2
     6                           	psect	bssCOMMON,global,class=COMMON,space=1,delta=1,noexec
     7                           	psect	bssBANK0,global,class=BANK0,space=1,delta=1,noexec
     8                           	psect	bssBANK1,global,class=BANK1,space=1,delta=1,noexec
     9                           	psect	clrtext,global,class=CODE,delta=2
    10                           	psect	cstackBANK1,global,class=BANK1,space=1,delta=1,noexec
    11                           	psect	cstackCOMMON,global,class=COMMON,space=1,delta=1,noexec
    12                           	psect	cstackBANK0,global,class=BANK0,space=1,delta=1,noexec
    13                           	psect	maintext,global,class=CODE,split=1,delta=2
    14                           	psect	text1,local,class=CODE,merge=1,delta=2,group=2
    15                           	psect	text2,local,class=CODE,merge=1,delta=2,group=2
    16                           	psect	text3,local,class=CODE,merge=1,delta=2
    17                           	psect	text4,local,class=CODE,merge=1,delta=2,group=2
    18                           	psect	text5,local,class=CODE,merge=1,delta=2,group=2
    19                           	psect	text6,local,class=CODE,merge=1,delta=2,group=1
    20                           	psect	text7,local,class=CODE,merge=1,delta=2,group=1
    21                           	psect	text8,local,class=CODE,merge=1,delta=2,group=1
    22                           	psect	text9,local,class=CODE,merge=1,delta=2,group=1
    23                           	psect	text10,local,class=CODE,merge=1,delta=2,group=1
    24                           	psect	text11,local,class=CODE,merge=1,delta=2,group=1
    25                           	psect	text12,local,class=CODE,merge=1,delta=2,group=1
    26                           	psect	text13,local,class=CODE,merge=1,delta=2,group=1
    27                           	psect	text14,local,class=CODE,merge=1,delta=2,group=1
    28                           	psect	text15,local,class=CODE,merge=1,delta=2
    29                           	psect	text16,local,class=CODE,merge=1,delta=2
    30                           	psect	text17,local,class=CODE,merge=1,delta=2
    31                           	psect	text18,local,class=CODE,merge=1,delta=2
    32                           	psect	intentry,global,class=CODE,delta=2
    33                           	psect	text19,local,class=CODE,merge=1,delta=2
    34                           	psect	text20,local,class=CODE,merge=1,delta=2
    35                           	psect	text21,local,class=CODE,merge=1,delta=2
    36                           	psect	config,global,abs,ovrld,class=CONFIG,space=4,delta=2,noexec
    37                           	dabs	1,0x7E,2
    38  0000                     
    39                           ; Version 2.20
    40                           ; Generated 12/02/2020 GMT
    41                           ; 
    42                           ; Copyright © 2020, Microchip Technology Inc. and its subsidiaries ("Microchip")
    43                           ; All rights reserved.
    44                           ; 
    45                           ; This software is developed by Microchip Technology Inc. and its subsidiaries ("Microch
      +                          ip").
    46                           ; 
    47                           ; Redistribution and use in source and binary forms, with or without modification, are
    48                           ; permitted provided that the following conditions are met:
    49                           ; 
    50                           ;     1. Redistributions of source code must retain the above copyright notice, this lis
      +                          t of
    51                           ;        conditions and the following disclaimer.
    52                           ; 
    53                           ;     2. Redistributions in binary form must reproduce the above copyright notice, this 
      +                          list
    54                           ;        of conditions and the following disclaimer in the documentation and/or other
    55                           ;        materials provided with the distribution.
    56                           ; 
    57                           ;     3. Microchip's name may not be used to endorse or promote products derived from th
      +                          is
    58                           ;        software without specific prior written permission.
    59                           ; 
    60                           ; THIS SOFTWARE IS PROVIDED BY MICROCHIP "AS IS" AND ANY EXPRESS OR IMPLIED WARRANTIES,
    61                           ; INCLUDING, BUT NOT LIMITED TO, THE IMPLIED WARRANTIES OF MERCHANTABILITY AND FITNESS F
      +                          OR
    62                           ; PURPOSE ARE DISCLAIMED.  IN NO EVENT SHALL MICROCHIP BE LIABLE FOR ANY DIRECT, INDIREC
      +                          T,
    63                           ; INCIDENTAL, SPECIAL, EXEMPLARY, OR CONSEQUENTIAL DAMAGES (INCLUDING BUT NOT LIMITED TO
    64                           ; PROCUREMENT OF SUBSTITUTE GOODS OR SERVICES; LOSS OF USE, DATA OR PROFITS; OR BUSINESS
    65                           ; INTERRUPTION) HOWSOEVER CAUSED AND ON ANY THEORY OF LIABILITY, WHETHER IN CONTRACT, ST
      +                          RICT
    66                           ; LIABILITY, OR TORT (INCLUDING NEGLIGENCE OR OTHERWISE) ARISING IN ANY WAY OUT OF THE U
      +                          SE OF
    67                           ; THIS SOFTWARE, EVEN IF ADVISED OF THE POSSIBILITY OF SUCH DAMAGE.
    68                           ; 
    69                           ; 
    70                           ; Code-generator required, PIC16F887 Definitions
    71                           ; 
    72                           ; SFR Addresses
    73  0000                     	;# 
    74  0001                     	;# 
    75  0002                     	;# 
    76  0003                     	;# 
    77  0004                     	;# 
    78  0005                     	;# 
    79  0006                     	;# 
    80  0007                     	;# 
    81  0008                     	;# 
    82  0009                     	;# 
    83  000A                     	;# 
    84  000B                     	;# 
    85  000C                     	;# 
    86  000D                     	;# 
    87  000E                     	;# 
    88  000E                     	;# 
    89  000F                     	;# 
    90  0010                     	;# 
    91  0011                     	;# 
    92  0012                     	;# 
    93  0013                     	;# 
    94  0014                     	;# 
    95  0015                     	;# 
    96  0015                     	;# 
    97  0016                     	;# 
    98  0017                     	;# 
    99  0018                     	;# 
   100  0019                     	;# 
   101  001A                     	;# 
   102  001B                     	;# 
   103  001B                     	;# 
   104  001C                     	;# 
   105  001D                     	;# 
   106  001E                     	;# 
   107  001F                     	;# 
   108  0081                     	;# 
   109  0085                     	;# 
   110  0086                     	;# 
   111  0087                     	;# 
   112  0088                     	;# 
   113  0089                     	;# 
   114  008C                     	;# 
   115  008D                     	;# 
   116  008E                     	;# 
   117  008F                     	;# 
   118  0090                     	;# 
   119  0091                     	;# 
   120  0092                     	;# 
   121  0093                     	;# 
   122  0093                     	;# 
   123  0093                     	;# 
   124  0094                     	;# 
   125  0095                     	;# 
   126  0096                     	;# 
   127  0097                     	;# 
   128  0098                     	;# 
   129  0099                     	;# 
   130  009A                     	;# 
   131  009B                     	;# 
   132  009C                     	;# 
   133  009D                     	;# 
   134  009E                     	;# 
   135  009F                     	;# 
   136  0105                     	;# 
   137  0107                     	;# 
   138  0108                     	;# 
   139  0109                     	;# 
   140  010C                     	;# 
   141  010C                     	;# 
   142  010D                     	;# 
   143  010E                     	;# 
   144  010F                     	;# 
   145  0185                     	;# 
   146  0187                     	;# 
   147  0188                     	;# 
   148  0189                     	;# 
   149  018C                     	;# 
   150  018D                     	;# 
   151  0000                     	;# 
   152  0001                     	;# 
   153  0002                     	;# 
   154  0003                     	;# 
   155  0004                     	;# 
   156  0005                     	;# 
   157  0006                     	;# 
   158  0007                     	;# 
   159  0008                     	;# 
   160  0009                     	;# 
   161  000A                     	;# 
   162  000B                     	;# 
   163  000C                     	;# 
   164  000D                     	;# 
   165  000E                     	;# 
   166  000E                     	;# 
   167  000F                     	;# 
   168  0010                     	;# 
   169  0011                     	;# 
   170  0012                     	;# 
   171  0013                     	;# 
   172  0014                     	;# 
   173  0015                     	;# 
   174  0015                     	;# 
   175  0016                     	;# 
   176  0017                     	;# 
   177  0018                     	;# 
   178  0019                     	;# 
   179  001A                     	;# 
   180  001B                     	;# 
   181  001B                     	;# 
   182  001C                     	;# 
   183  001D                     	;# 
   184  001E                     	;# 
   185  001F                     	;# 
   186  0081                     	;# 
   187  0085                     	;# 
   188  0086                     	;# 
   189  0087                     	;# 
   190  0088                     	;# 
   191  0089                     	;# 
   192  008C                     	;# 
   193  008D                     	;# 
   194  008E                     	;# 
   195  008F                     	;# 
   196  0090                     	;# 
   197  0091                     	;# 
   198  0092                     	;# 
   199  0093                     	;# 
   200  0093                     	;# 
   201  0093                     	;# 
   202  0094                     	;# 
   203  0095                     	;# 
   204  0096                     	;# 
   205  0097                     	;# 
   206  0098                     	;# 
   207  0099                     	;# 
   208  009A                     	;# 
   209  009B                     	;# 
   210  009C                     	;# 
   211  009D                     	;# 
   212  009E                     	;# 
   213  009F                     	;# 
   214  0105                     	;# 
   215  0107                     	;# 
   216  0108                     	;# 
   217  0109                     	;# 
   218  010C                     	;# 
   219  010C                     	;# 
   220  010D                     	;# 
   221  010E                     	;# 
   222  010F                     	;# 
   223  0185                     	;# 
   224  0187                     	;# 
   225  0188                     	;# 
   226  0189                     	;# 
   227  018C                     	;# 
   228  018D                     	;# 
   229  0000                     	;# 
   230  0001                     	;# 
   231  0002                     	;# 
   232  0003                     	;# 
   233  0004                     	;# 
   234  0005                     	;# 
   235  0006                     	;# 
   236  0007                     	;# 
   237  0008                     	;# 
   238  0009                     	;# 
   239  000A                     	;# 
   240  000B                     	;# 
   241  000C                     	;# 
   242  000D                     	;# 
   243  000E                     	;# 
   244  000E                     	;# 
   245  000F                     	;# 
   246  0010                     	;# 
   247  0011                     	;# 
   248  0012                     	;# 
   249  0013                     	;# 
   250  0014                     	;# 
   251  0015                     	;# 
   252  0015                     	;# 
   253  0016                     	;# 
   254  0017                     	;# 
   255  0018                     	;# 
   256  0019                     	;# 
   257  001A                     	;# 
   258  001B                     	;# 
   259  001B                     	;# 
   260  001C                     	;# 
   261  001D                     	;# 
   262  001E                     	;# 
   263  001F                     	;# 
   264  0081                     	;# 
   265  0085                     	;# 
   266  0086                     	;# 
   267  0087                     	;# 
   268  0088                     	;# 
   269  0089                     	;# 
   270  008C                     	;# 
   271  008D                     	;# 
   272  008E                     	;# 
   273  008F                     	;# 
   274  0090                     	;# 
   275  0091                     	;# 
   276  0092                     	;# 
   277  0093                     	;# 
   278  0093                     	;# 
   279  0093                     	;# 
   280  0094                     	;# 
   281  0095                     	;# 
   282  0096                     	;# 
   283  0097                     	;# 
   284  0098                     	;# 
   285  0099                     	;# 
   286  009A                     	;# 
   287  009B                     	;# 
   288  009C                     	;# 
   289  009D                     	;# 
   290  009E                     	;# 
   291  009F                     	;# 
   292  0105                     	;# 
   293  0107                     	;# 
   294  0108                     	;# 
   295  0109                     	;# 
   296  010C                     	;# 
   297  010C                     	;# 
   298  010D                     	;# 
   299  010E                     	;# 
   300  010F                     	;# 
   301  0185                     	;# 
   302  0187                     	;# 
   303  0188                     	;# 
   304  0189                     	;# 
   305  018C                     	;# 
   306  018D                     	;# 
   307  0000                     	;# 
   308  0001                     	;# 
   309  0002                     	;# 
   310  0003                     	;# 
   311  0004                     	;# 
   312  0005                     	;# 
   313  0006                     	;# 
   314  0007                     	;# 
   315  0008                     	;# 
   316  0009                     	;# 
   317  000A                     	;# 
   318  000B                     	;# 
   319  000C                     	;# 
   320  000D                     	;# 
   321  000E                     	;# 
   322  000E                     	;# 
   323  000F                     	;# 
   324  0010                     	;# 
   325  0011                     	;# 
   326  0012                     	;# 
   327  0013                     	;# 
   328  0014                     	;# 
   329  0015                     	;# 
   330  0015                     	;# 
   331  0016                     	;# 
   332  0017                     	;# 
   333  0018                     	;# 
   334  0019                     	;# 
   335  001A                     	;# 
   336  001B                     	;# 
   337  001B                     	;# 
   338  001C                     	;# 
   339  001D                     	;# 
   340  001E                     	;# 
   341  001F                     	;# 
   342  0081                     	;# 
   343  0085                     	;# 
   344  0086                     	;# 
   345  0087                     	;# 
   346  0088                     	;# 
   347  0089                     	;# 
   348  008C                     	;# 
   349  008D                     	;# 
   350  008E                     	;# 
   351  008F                     	;# 
   352  0090                     	;# 
   353  0091                     	;# 
   354  0092                     	;# 
   355  0093                     	;# 
   356  0093                     	;# 
   357  0093                     	;# 
   358  0094                     	;# 
   359  0095                     	;# 
   360  0096                     	;# 
   361  0097                     	;# 
   362  0098                     	;# 
   363  0099                     	;# 
   364  009A                     	;# 
   365  009B                     	;# 
   366  009C                     	;# 
   367  009D                     	;# 
   368  009E                     	;# 
   369  009F                     	;# 
   370  0105                     	;# 
   371  0107                     	;# 
   372  0108                     	;# 
   373  0109                     	;# 
   374  010C                     	;# 
   375  010C                     	;# 
   376  010D                     	;# 
   377  010E                     	;# 
   378  010F                     	;# 
   379  0185                     	;# 
   380  0187                     	;# 
   381  0188                     	;# 
   382  0189                     	;# 
   383  018C                     	;# 
   384  018D                     	;# 
   385  0013                     _SSPBUF	set	19
   386  0014                     _SSPCON	set	20
   387  001E                     _ADRESH	set	30
   388  000C                     _PIR1bits	set	12
   389  001F                     _ADCON0bits	set	31
   390  0009                     _PORTE	set	9
   391  0008                     _PORTD	set	8
   392  0007                     _PORTC	set	7
   393  0006                     _PORTB	set	6
   394  0005                     _PORTA	set	5
   395  0063                     _SSPIF	set	99
   396  0094                     _SSPSTATbits	set	148
   397  0094                     _SSPSTAT	set	148
   398  009F                     _ADCON1bits	set	159
   399  008F                     _OSCCONbits	set	143
   400  0085                     _TRISAbits	set	133
   401  0088                     _TRISD	set	136
   402  0087                     _TRISC	set	135
   403  0086                     _TRISB	set	134
   404  0085                     _TRISA	set	133
   405  043B                     _TRISC3	set	1083
   406  043C                     _TRISC4	set	1084
   407  043D                     _TRISC5	set	1085
   408  0189                     _ANSELH	set	393
   409  0188                     _ANSEL	set	392
   410                           
   411                           	psect	strings
   412  0800                     __pstrings:
   413  0800                     stringtab:
   414  0800                     __stringtab:
   415  0800                     stringcode:	
   416                           ;	String table - string pointers are 1 byte each
   417                           
   418  0800                     stringdir:
   419  0800  3008               	movlw	high stringdir
   420  0801  008A               	movwf	10
   421  0802  0804               	movf	4,w
   422  0803  0A84               	incf	4,f
   423  0804  0782               	addwf	2,f
   424  0805                     __stringbase:
   425  0805  3400               	retlw	0
   426  0806                     __end_of__stringtab:
   427  0806                     STR_1:
   428  0806  342E               	retlw	46	;'.'
   429  0807  3400               	retlw	0
   430                           
   431                           	psect	cinit
   432  000F                     start_initialization:	
   433                           ; #config settings
   434                           
   435  000F                     __initialization:
   436                           
   437                           ; Clear objects allocated to COMMON
   438  000F  01F6               	clrf	__pbssCOMMON& (0+127)
   439  0010  01F7               	clrf	(__pbssCOMMON+1)& (0+127)
   440  0011  01F8               	clrf	(__pbssCOMMON+2)& (0+127)
   441  0012  01F9               	clrf	(__pbssCOMMON+3)& (0+127)
   442                           
   443                           ; Clear objects allocated to BANK0
   444  0013  1383               	bcf	3,7	;select IRP bank0
   445  0014  3062               	movlw	low __pbssBANK0
   446  0015  0084               	movwf	4
   447  0016  306D               	movlw	low (__pbssBANK0+11)
   448  0017  120A  158A  250A  120A  118A  	fcall	clear_ram0
   449                           
   450                           ; Clear objects allocated to BANK1
   451  001C  30A0               	movlw	low __pbssBANK1
   452  001D  0084               	movwf	4
   453  001E  30B4               	movlw	low (__pbssBANK1+20)
   454  001F  120A  158A  250A  120A  118A  	fcall	clear_ram0
   455  0024                     end_of_initialization:	
   456                           ;End of C runtime variable initialization code
   457                           
   458  0024                     __end_of__initialization:
   459  0024  0183               	clrf	3
   460  0025  120A  118A  2D66   	ljmp	_main	;jump to C main() function
   461                           
   462                           	psect	bssCOMMON
   463  0076                     __pbssCOMMON:
   464  0076                     _V1:
   465  0076                     	ds	2
   466  0078                     _Ready:
   467  0078                     	ds	1
   468  0079                     _adc:
   469  0079                     	ds	1
   470                           
   471                           	psect	bssBANK0
   472  0062                     __pbssBANK0:
   473  0062                     _voltaje:
   474  0062                     	ds	4
   475  0066                     _POT1C:
   476  0066                     	ds	2
   477  0068                     _POT1B:
   478  0068                     	ds	2
   479  006A                     _POT1A:
   480  006A                     	ds	2
   481  006C                     _slave:
   482  006C                     	ds	1
   483                           
   484                           	psect	bssBANK1
   485  00A0                     __pbssBANK1:
   486  00A0                     _PUNTO1:
   487  00A0                     	ds	5
   488  00A5                     _POT1SC:
   489  00A5                     	ds	5
   490  00AA                     _POT1SB:
   491  00AA                     	ds	5
   492  00AF                     _POT1SA:
   493  00AF                     	ds	5
   494                           
   495                           	psect	clrtext
   496  0D0A                     clear_ram0:	
   497                           ;	Called with FSR containing the base address, and
   498                           ;	W with the last address+1
   499                           
   500  0D0A  0064               	clrwdt	;clear the watchdog before getting into this loop
   501  0D0B                     clrloop0:
   502  0D0B  0180               	clrf	0	;clear RAM location pointed to by FSR
   503  0D0C  0A84               	incf	4,f	;increment pointer
   504  0D0D  0604               	xorwf	4,w	;XOR with final address
   505  0D0E  1903               	btfsc	3,2	;have we reached the end yet?
   506  0D0F  3400               	retlw	0	;all done for this memory range, return
   507  0D10  0604               	xorwf	4,w	;XOR again to restore value
   508  0D11  2D0B               	goto	clrloop0	;do the next byte
   509                           
   510                           	psect	cstackBANK1
   511  00B4                     __pcstackBANK1:
   512  00B4                     ??_main:
   513                           
   514                           ; 1 bytes @ 0x0
   515  00B4                     	ds	4
   516                           
   517                           	psect	cstackCOMMON
   518  0070                     __pcstackCOMMON:
   519  0070                     ?_SPI_Read:
   520  0070                     ??_SPI_Read:	
   521                           ; 1 bytes @ 0x0
   522                           
   523  0070                     ?_SPI_Write:	
   524                           ; 1 bytes @ 0x0
   525                           
   526  0070                     ??_SPI_Write:	
   527                           ; 1 bytes @ 0x0
   528                           
   529  0070                     ?_setup:	
   530                           ; 1 bytes @ 0x0
   531                           
   532  0070                     ?_ADC_Init:	
   533                           ; 1 bytes @ 0x0
   534                           
   535  0070                     ?_ISR:	
   536                           ; 1 bytes @ 0x0
   537                           
   538  0070                     ?_main:	
   539                           ; 1 bytes @ 0x0
   540                           
   541  0070                     ?_spiReceiveWait:	
   542                           ; 1 bytes @ 0x0
   543                           
   544  0070                     ??_spiReceiveWait:	
   545                           ; 1 bytes @ 0x0
   546                           
   547  0070                     SPI_Write@a:	
   548                           ; 1 bytes @ 0x0
   549                           
   550                           
   551                           ; 1 bytes @ 0x0
   552  0070                     	ds	1
   553  0071                     ??_ISR:
   554                           
   555                           ; 1 bytes @ 0x1
   556  0071                     	ds	3
   557  0074                     ??_setup:
   558  0074                     ??_ADC_Init:	
   559                           ; 1 bytes @ 0x4
   560                           
   561  0074                     ??_SPI_Init:	
   562                           ; 1 bytes @ 0x4
   563                           
   564  0074                     ??_ADC_Read:	
   565                           ; 1 bytes @ 0x4
   566                           
   567  0074                     ?_strcpy:	
   568                           ; 1 bytes @ 0x4
   569                           
   570  0074                     ?_strcat:	
   571                           ; 1 bytes @ 0x4
   572                           
   573  0074                     ??___awdiv:	
   574                           ; 1 bytes @ 0x4
   575                           
   576  0074                     ??___lwdiv:	
   577                           ; 1 bytes @ 0x4
   578                           
   579  0074                     ??___lwmod:	
   580                           ; 1 bytes @ 0x4
   581                           
   582  0074                     ?__Umul8_16:	
   583                           ; 1 bytes @ 0x4
   584                           
   585  0074                     SPI_Init@sType:	
   586                           ; 2 bytes @ 0x4
   587                           
   588  0074                     __Umul8_16@multiplicand:	
   589                           ; 1 bytes @ 0x4
   590                           
   591  0074                     strcat@from:	
   592                           ; 1 bytes @ 0x4
   593                           
   594  0074                     strcpy@from:	
   595                           ; 1 bytes @ 0x4
   596                           
   597                           
   598                           ; 1 bytes @ 0x4
   599  0074                     	ds	1
   600  0075                     ??_strcpy:
   601  0075                     ??_strcat:	
   602                           ; 1 bytes @ 0x5
   603                           
   604  0075                     ??___awmod:	
   605                           ; 1 bytes @ 0x5
   606                           
   607  0075                     ___lwmod@counter:	
   608                           ; 1 bytes @ 0x5
   609                           
   610                           
   611                           ; 1 bytes @ 0x5
   612  0075                     	ds	1
   613                           
   614                           	psect	cstackBANK0
   615  0020                     __pcstackBANK0:
   616  0020                     ?_SPI_Init:
   617  0020                     ?_ADC_Read:	
   618                           ; 1 bytes @ 0x0
   619                           
   620  0020                     ??__Umul8_16:	
   621                           ; 1 bytes @ 0x0
   622                           
   623  0020                     ?___awdiv:	
   624                           ; 1 bytes @ 0x0
   625                           
   626  0020                     ?___lwdiv:	
   627                           ; 2 bytes @ 0x0
   628                           
   629  0020                     ?___lwmod:	
   630                           ; 2 bytes @ 0x0
   631                           
   632  0020                     ?___xxtofl:	
   633                           ; 2 bytes @ 0x0
   634                           
   635  0020                     SPI_Init@sDataSample:	
   636                           ; 4 bytes @ 0x0
   637                           
   638  0020                     strcat@to:	
   639                           ; 1 bytes @ 0x0
   640                           
   641  0020                     strcpy@to:	
   642                           ; 1 bytes @ 0x0
   643                           
   644  0020                     ADC_Read@a:	
   645                           ; 1 bytes @ 0x0
   646                           
   647  0020                     ___awdiv@divisor:	
   648                           ; 2 bytes @ 0x0
   649                           
   650  0020                     ___lwdiv@divisor:	
   651                           ; 2 bytes @ 0x0
   652                           
   653  0020                     ___lwmod@divisor:	
   654                           ; 2 bytes @ 0x0
   655                           
   656  0020                     ___xxtofl@val:	
   657                           ; 2 bytes @ 0x0
   658                           
   659                           
   660                           ; 4 bytes @ 0x0
   661  0020                     	ds	1
   662  0021                     SPI_Init@sClockIdle:
   663  0021                     strcat@cp:	
   664                           ; 1 bytes @ 0x1
   665                           
   666  0021                     strcpy@cp:	
   667                           ; 1 bytes @ 0x1
   668                           
   669                           
   670                           ; 1 bytes @ 0x1
   671  0021                     	ds	1
   672  0022                     SPI_Init@sTransmitEdge:
   673  0022                     ADC_Read@b:	
   674                           ; 1 bytes @ 0x2
   675                           
   676  0022                     ___awdiv@dividend:	
   677                           ; 2 bytes @ 0x2
   678                           
   679  0022                     ___lwdiv@dividend:	
   680                           ; 2 bytes @ 0x2
   681                           
   682  0022                     ___lwmod@dividend:	
   683                           ; 2 bytes @ 0x2
   684                           
   685  0022                     __Umul8_16@product:	
   686                           ; 2 bytes @ 0x2
   687                           
   688                           
   689                           ; 2 bytes @ 0x2
   690  0022                     	ds	2
   691  0024                     ??___xxtofl:
   692  0024                     ___awdiv@counter:	
   693                           ; 1 bytes @ 0x4
   694                           
   695  0024                     ___lwdiv@counter:	
   696                           ; 1 bytes @ 0x4
   697                           
   698  0024                     __Umul8_16@word_mpld:	
   699                           ; 1 bytes @ 0x4
   700                           
   701                           
   702                           ; 2 bytes @ 0x4
   703  0024                     	ds	1
   704  0025                     ___awdiv@sign:
   705  0025                     ___lwdiv@quotient:	
   706                           ; 1 bytes @ 0x5
   707                           
   708                           
   709                           ; 2 bytes @ 0x5
   710  0025                     	ds	1
   711  0026                     __Umul8_16@multiplier:
   712  0026                     ___awdiv@quotient:	
   713                           ; 1 bytes @ 0x6
   714                           
   715                           
   716                           ; 2 bytes @ 0x6
   717  0026                     	ds	1
   718  0027                     ?_utoa:
   719  0027                     utoa@val:	
   720                           ; 1 bytes @ 0x7
   721                           
   722                           
   723                           ; 2 bytes @ 0x7
   724  0027                     	ds	1
   725  0028                     ?___awmod:
   726  0028                     ___xxtofl@sign:	
   727                           ; 2 bytes @ 0x8
   728                           
   729  0028                     ___awmod@divisor:	
   730                           ; 1 bytes @ 0x8
   731                           
   732                           
   733                           ; 2 bytes @ 0x8
   734  0028                     	ds	1
   735  0029                     ___xxtofl@exp:
   736  0029                     utoa@base:	
   737                           ; 1 bytes @ 0x9
   738                           
   739                           
   740                           ; 2 bytes @ 0x9
   741  0029                     	ds	1
   742  002A                     ___awmod@dividend:
   743  002A                     ___xxtofl@arg:	
   744                           ; 2 bytes @ 0xA
   745                           
   746                           
   747                           ; 4 bytes @ 0xA
   748  002A                     	ds	1
   749  002B                     ??_utoa:
   750                           
   751                           ; 1 bytes @ 0xB
   752  002B                     	ds	1
   753  002C                     ___awmod@counter:
   754  002C                     utoa@v:	
   755                           ; 1 bytes @ 0xC
   756                           
   757                           
   758                           ; 2 bytes @ 0xC
   759  002C                     	ds	1
   760  002D                     ___awmod@sign:
   761                           
   762                           ; 1 bytes @ 0xD
   763  002D                     	ds	1
   764  002E                     ?___flmul:
   765  002E                     utoa@c:	
   766                           ; 4 bytes @ 0xE
   767                           
   768  002E                     ___flmul@b:	
   769                           ; 1 bytes @ 0xE
   770                           
   771                           
   772                           ; 4 bytes @ 0xE
   773  002E                     	ds	1
   774  002F                     utoa@buf:
   775                           
   776                           ; 1 bytes @ 0xF
   777  002F                     	ds	1
   778  0030                     ?_itoa:
   779  0030                     itoa@val:	
   780                           ; 1 bytes @ 0x10
   781                           
   782                           
   783                           ; 2 bytes @ 0x10
   784  0030                     	ds	2
   785  0032                     itoa@base:
   786  0032                     ___flmul@a:	
   787                           ; 2 bytes @ 0x12
   788                           
   789                           
   790                           ; 4 bytes @ 0x12
   791  0032                     	ds	2
   792  0034                     ??_itoa:
   793                           
   794                           ; 1 bytes @ 0x14
   795  0034                     	ds	2
   796  0036                     ??___flmul:
   797  0036                     itoa@buf:	
   798                           ; 1 bytes @ 0x16
   799                           
   800                           
   801                           ; 1 bytes @ 0x16
   802  0036                     	ds	5
   803  003B                     ___flmul@sign:
   804                           
   805                           ; 1 bytes @ 0x1B
   806  003B                     	ds	1
   807  003C                     ___flmul@aexp:
   808                           
   809                           ; 1 bytes @ 0x1C
   810  003C                     	ds	1
   811  003D                     ___flmul@grs:
   812                           
   813                           ; 4 bytes @ 0x1D
   814  003D                     	ds	4
   815  0041                     ___flmul@bexp:
   816                           
   817                           ; 1 bytes @ 0x21
   818  0041                     	ds	1
   819  0042                     ___flmul@prod:
   820                           
   821                           ; 4 bytes @ 0x22
   822  0042                     	ds	4
   823  0046                     ___flmul@temp:
   824                           
   825                           ; 2 bytes @ 0x26
   826  0046                     	ds	2
   827  0048                     ?___fltol:
   828  0048                     ?___fldiv:	
   829                           ; 4 bytes @ 0x28
   830                           
   831  0048                     ___fltol@f1:	
   832                           ; 4 bytes @ 0x28
   833                           
   834  0048                     ___fldiv@a:	
   835                           ; 4 bytes @ 0x28
   836                           
   837                           
   838                           ; 4 bytes @ 0x28
   839  0048                     	ds	4
   840  004C                     ??___fltol:
   841  004C                     ___fldiv@b:	
   842                           ; 1 bytes @ 0x2C
   843                           
   844                           
   845                           ; 4 bytes @ 0x2C
   846  004C                     	ds	4
   847  0050                     ??___fldiv:
   848                           
   849                           ; 1 bytes @ 0x30
   850  0050                     	ds	1
   851  0051                     ___fltol@sign1:
   852                           
   853                           ; 1 bytes @ 0x31
   854  0051                     	ds	1
   855  0052                     ___fltol@exp1:
   856                           
   857                           ; 1 bytes @ 0x32
   858  0052                     	ds	3
   859  0055                     ___fldiv@rem:
   860                           
   861                           ; 4 bytes @ 0x35
   862  0055                     	ds	4
   863  0059                     ___fldiv@sign:
   864                           
   865                           ; 1 bytes @ 0x39
   866  0059                     	ds	1
   867  005A                     ___fldiv@new_exp:
   868                           
   869                           ; 2 bytes @ 0x3A
   870  005A                     	ds	2
   871  005C                     ___fldiv@grs:
   872                           
   873                           ; 4 bytes @ 0x3C
   874  005C                     	ds	4
   875  0060                     ___fldiv@bexp:
   876                           
   877                           ; 1 bytes @ 0x40
   878  0060                     	ds	1
   879  0061                     ___fldiv@aexp:
   880                           
   881                           ; 1 bytes @ 0x41
   882  0061                     	ds	1
   883                           
   884                           	psect	maintext
   885  0566                     __pmaintext:	
   886 ;;
   887 ;;Main: autosize = 0, tempsize = 4, incstack = 0, save=0
   888 ;;
   889 ;; *************** function _main *****************
   890 ;; Defined at:
   891 ;;		line 85 in file "S1.c"
   892 ;; Parameters:    Size  Location     Type
   893 ;;		None
   894 ;; Auto vars:     Size  Location     Type
   895 ;;		None
   896 ;; Return value:  Size  Location     Type
   897 ;;                  1    wreg      void 
   898 ;; Registers used:
   899 ;;		wreg, fsr0l, fsr0h, status,2, status,0, btemp+1, pclath, cstack
   900 ;; Tracked objects:
   901 ;;		On entry : B00/0
   902 ;;		On exit  : 0/0
   903 ;;		Unchanged: 0/0
   904 ;; Data sizes:     COMMON   BANK0   BANK1   BANK3   BANK2
   905 ;;      Params:         0       0       0       0       0
   906 ;;      Locals:         0       0       0       0       0
   907 ;;      Temps:          0       0       4       0       0
   908 ;;      Totals:         0       0       4       0       0
   909 ;;Total ram usage:        4 bytes
   910 ;; Hardware stack levels required when called:    6
   911 ;; This function calls:
   912 ;;		_ADC_Init
   913 ;;		_ADC_Read
   914 ;;		_SPI_Init
   915 ;;		___awdiv
   916 ;;		___awmod
   917 ;;		___fldiv
   918 ;;		___flmul
   919 ;;		___fltol
   920 ;;		___xxtofl
   921 ;;		_itoa
   922 ;;		_setup
   923 ;;		_strcat
   924 ;;		_strcpy
   925 ;; This function is called by:
   926 ;;		Startup code after reset
   927 ;; This function uses a non-reentrant model
   928 ;;
   929                           
   930                           
   931                           ;psect for function _main
   932  0566                     _main:
   933  0566                     l2530:	
   934                           ;incstack = 0
   935                           ; Regs used in _main: [wreg-fsr0h+status,2+status,0+btemp+1+pclath+cstack]
   936                           
   937                           
   938                           ;S1.c: 87:     setup();
   939  0566  120A  158A  2578  120A  118A  	fcall	_setup
   940  056B                     l2532:
   941                           
   942                           ;S1.c: 94:         ADC_Init();
   943  056B  120A  158A  251B  120A  118A  	fcall	_ADC_Init
   944  0570                     l2534:
   945                           
   946                           ;S1.c: 95:         SPI_Init(SPI_SLAVE_SS_EN, SPI_DATA_SAMPLE_MIDDLE, SPI_CLOCK_IDLE_LOW,
      +                           SPI_IDLE_2_ACTIVE);
   947  0570  1283               	bcf	3,5	;RP0=0, select bank0
   948  0571  1303               	bcf	3,6	;RP1=0, select bank0
   949  0572  01A0               	clrf	SPI_Init@sDataSample
   950  0573  01A1               	clrf	SPI_Init@sClockIdle
   951  0574  01A2               	clrf	SPI_Init@sTransmitEdge
   952  0575  3024               	movlw	36
   953  0576  120A  158A  2539  120A  118A  	fcall	_SPI_Init
   954  057B                     l2536:
   955                           
   956                           ;S1.c: 98:         _delay((unsigned long)((1)*(8000000/4000.0)));
   957  057B  3003               	movlw	3
   958  057C  1683               	bsf	3,5	;RP0=1, select bank1
   959  057D  1303               	bcf	3,6	;RP1=0, select bank1
   960  057E  00B5               	movwf	(??_main^(0+128)+1)
   961  057F  3097               	movlw	151
   962  0580  00B4               	movwf	??_main^(0+128)
   963  0581                     u3667:
   964  0581  0BB4               	decfsz	??_main^(0+128),f
   965  0582  2D81               	goto	u3667
   966  0583  0BB5               	decfsz	(??_main^(0+128)+1),f
   967  0584  2D81               	goto	u3667
   968  0585                     l2538:
   969                           
   970                           ;S1.c: 99:         adc=ADC_Read(0,0);
   971  0585  3000               	movlw	0
   972  0586  1283               	bcf	3,5	;RP0=0, select bank0
   973  0587  1303               	bcf	3,6	;RP1=0, select bank0
   974  0588  00A0               	movwf	ADC_Read@a
   975  0589  00A1               	movwf	ADC_Read@a+1
   976  058A  3000               	movlw	0
   977  058B  00A2               	movwf	ADC_Read@b
   978  058C  00A3               	movwf	ADC_Read@b+1
   979  058D  120A  158A  2526  120A  118A  	fcall	_ADC_Read
   980  0592  1683               	bsf	3,5	;RP0=1, select bank1
   981  0593  1303               	bcf	3,6	;RP1=0, select bank1
   982  0594  00B4               	movwf	??_main^(0+128)
   983  0595  0834               	movf	??_main^(0+128),w
   984  0596  00F9               	movwf	_adc
   985  0597                     l2540:
   986                           
   987                           ;S1.c: 101:         voltaje = (adc*5.0)/255.0;
   988  0597  3043               	movlw	67
   989  0598  1283               	bcf	3,5	;RP0=0, select bank0
   990  0599  1303               	bcf	3,6	;RP1=0, select bank0
   991  059A  00CB               	movwf	___fldiv@a+3
   992  059B  307F               	movlw	127
   993  059C  00CA               	movwf	___fldiv@a+2
   994  059D  3000               	movlw	0
   995  059E  00C9               	movwf	___fldiv@a+1
   996  059F  3000               	movlw	0
   997  05A0  00C8               	movwf	___fldiv@a
   998  05A1  3040               	movlw	64
   999  05A2  00B1               	movwf	___flmul@b+3
  1000  05A3  30A0               	movlw	160
  1001  05A4  00B0               	movwf	___flmul@b+2
  1002  05A5  3000               	movlw	0
  1003  05A6  00AF               	movwf	___flmul@b+1
  1004  05A7  3000               	movlw	0
  1005  05A8  00AE               	movwf	___flmul@b
  1006  05A9  0879               	movf	_adc,w
  1007  05AA  1683               	bsf	3,5	;RP0=1, select bank1
  1008  05AB  1303               	bcf	3,6	;RP1=0, select bank1
  1009  05AC  00B4               	movwf	??_main^(0+128)
  1010  05AD  01B5               	clrf	(??_main^(0+128)+1)
  1011  05AE  01B6               	clrf	(??_main^(0+128)+2)
  1012  05AF  01B7               	clrf	(??_main^(0+128)+3)
  1013  05B0  0837               	movf	(??_main+3)^(0+128),w
  1014  05B1  1283               	bcf	3,5	;RP0=0, select bank0
  1015  05B2  1303               	bcf	3,6	;RP1=0, select bank0
  1016  05B3  00A3               	movwf	___xxtofl@val+3
  1017  05B4  1683               	bsf	3,5	;RP0=1, select bank1
  1018  05B5  1303               	bcf	3,6	;RP1=0, select bank1
  1019  05B6  0836               	movf	(??_main+2)^(0+128),w
  1020  05B7  1283               	bcf	3,5	;RP0=0, select bank0
  1021  05B8  1303               	bcf	3,6	;RP1=0, select bank0
  1022  05B9  00A2               	movwf	___xxtofl@val+2
  1023  05BA  1683               	bsf	3,5	;RP0=1, select bank1
  1024  05BB  1303               	bcf	3,6	;RP1=0, select bank1
  1025  05BC  0835               	movf	(??_main+1)^(0+128),w
  1026  05BD  1283               	bcf	3,5	;RP0=0, select bank0
  1027  05BE  1303               	bcf	3,6	;RP1=0, select bank0
  1028  05BF  00A1               	movwf	___xxtofl@val+1
  1029  05C0  1683               	bsf	3,5	;RP0=1, select bank1
  1030  05C1  1303               	bcf	3,6	;RP1=0, select bank1
  1031  05C2  0834               	movf	??_main^(0+128),w
  1032  05C3  1283               	bcf	3,5	;RP0=0, select bank0
  1033  05C4  1303               	bcf	3,6	;RP1=0, select bank0
  1034  05C5  00A0               	movwf	___xxtofl@val
  1035  05C6  3001               	movlw	1
  1036  05C7  120A  118A  26D7  120A  118A  	fcall	___xxtofl
  1037  05CC  1283               	bcf	3,5	;RP0=0, select bank0
  1038  05CD  1303               	bcf	3,6	;RP1=0, select bank0
  1039  05CE  0823               	movf	?___xxtofl+3,w
  1040  05CF  00B5               	movwf	___flmul@a+3
  1041  05D0  0822               	movf	?___xxtofl+2,w
  1042  05D1  00B4               	movwf	___flmul@a+2
  1043  05D2  0821               	movf	?___xxtofl+1,w
  1044  05D3  00B3               	movwf	___flmul@a+1
  1045  05D4  0820               	movf	?___xxtofl,w
  1046  05D5  00B2               	movwf	___flmul@a
  1047  05D6  120A  118A  2028  120A  118A  	fcall	___flmul
  1048  05DB  1283               	bcf	3,5	;RP0=0, select bank0
  1049  05DC  1303               	bcf	3,6	;RP1=0, select bank0
  1050  05DD  0831               	movf	?___flmul+3,w
  1051  05DE  00CF               	movwf	___fldiv@b+3
  1052  05DF  0830               	movf	?___flmul+2,w
  1053  05E0  00CE               	movwf	___fldiv@b+2
  1054  05E1  082F               	movf	?___flmul+1,w
  1055  05E2  00CD               	movwf	___fldiv@b+1
  1056  05E3  082E               	movf	?___flmul,w
  1057  05E4  00CC               	movwf	___fldiv@b
  1058  05E5  120A  118A  2389  120A  118A  	fcall	___fldiv
  1059  05EA  1283               	bcf	3,5	;RP0=0, select bank0
  1060  05EB  1303               	bcf	3,6	;RP1=0, select bank0
  1061  05EC  084B               	movf	?___fldiv+3,w
  1062  05ED  00E5               	movwf	_voltaje+3
  1063  05EE  084A               	movf	?___fldiv+2,w
  1064  05EF  00E4               	movwf	_voltaje+2
  1065  05F0  0849               	movf	?___fldiv+1,w
  1066  05F1  00E3               	movwf	_voltaje+1
  1067  05F2  0848               	movf	?___fldiv,w
  1068  05F3  00E2               	movwf	_voltaje
  1069  05F4                     l2542:
  1070                           
  1071                           ;S1.c: 102:         V1 = (voltaje)*100;
  1072  05F4  0865               	movf	_voltaje+3,w
  1073  05F5  00B5               	movwf	___flmul@a+3
  1074  05F6  0864               	movf	_voltaje+2,w
  1075  05F7  00B4               	movwf	___flmul@a+2
  1076  05F8  0863               	movf	_voltaje+1,w
  1077  05F9  00B3               	movwf	___flmul@a+1
  1078  05FA  0862               	movf	_voltaje,w
  1079  05FB  00B2               	movwf	___flmul@a
  1080  05FC  3042               	movlw	66
  1081  05FD  00B1               	movwf	___flmul@b+3
  1082  05FE  30C8               	movlw	200
  1083  05FF  00B0               	movwf	___flmul@b+2
  1084  0600  3000               	movlw	0
  1085  0601  00AF               	movwf	___flmul@b+1
  1086  0602  3000               	movlw	0
  1087  0603  00AE               	movwf	___flmul@b
  1088  0604  120A  118A  2028  120A  118A  	fcall	___flmul
  1089  0609  1283               	bcf	3,5	;RP0=0, select bank0
  1090  060A  1303               	bcf	3,6	;RP1=0, select bank0
  1091  060B  0831               	movf	?___flmul+3,w
  1092  060C  00CB               	movwf	___fltol@f1+3
  1093  060D  0830               	movf	?___flmul+2,w
  1094  060E  00CA               	movwf	___fltol@f1+2
  1095  060F  082F               	movf	?___flmul+1,w
  1096  0610  00C9               	movwf	___fltol@f1+1
  1097  0611  082E               	movf	?___flmul,w
  1098  0612  00C8               	movwf	___fltol@f1
  1099  0613  120A  158A  2784  120A  118A  	fcall	___fltol
  1100  0618  1283               	bcf	3,5	;RP0=0, select bank0
  1101  0619  1303               	bcf	3,6	;RP1=0, select bank0
  1102  061A  0849               	movf	?___fltol+1,w
  1103  061B  00F7               	movwf	_V1+1
  1104  061C  0848               	movf	?___fltol,w
  1105  061D  00F6               	movwf	_V1
  1106  061E                     l2544:
  1107                           
  1108                           ;S1.c: 103:         POT1A = V1%10;
  1109  061E  300A               	movlw	10
  1110  061F  00A8               	movwf	___awmod@divisor
  1111  0620  3000               	movlw	0
  1112  0621  00A9               	movwf	___awmod@divisor+1
  1113  0622  0877               	movf	_V1+1,w
  1114  0623  00AB               	movwf	___awmod@dividend+1
  1115  0624  0876               	movf	_V1,w
  1116  0625  00AA               	movwf	___awmod@dividend
  1117  0626  120A  158A  26B7  120A  118A  	fcall	___awmod
  1118  062B  1283               	bcf	3,5	;RP0=0, select bank0
  1119  062C  1303               	bcf	3,6	;RP1=0, select bank0
  1120  062D  0829               	movf	?___awmod+1,w
  1121  062E  00EB               	movwf	_POT1A+1
  1122  062F  0828               	movf	?___awmod,w
  1123  0630  00EA               	movwf	_POT1A
  1124  0631                     l2546:
  1125                           
  1126                           ;S1.c: 104:         itoa(POT1SA,POT1A,10);
  1127  0631  086B               	movf	_POT1A+1,w
  1128  0632  00B1               	movwf	itoa@val+1
  1129  0633  086A               	movf	_POT1A,w
  1130  0634  00B0               	movwf	itoa@val
  1131  0635  300A               	movlw	10
  1132  0636  00B2               	movwf	itoa@base
  1133  0637  3000               	movlw	0
  1134  0638  00B3               	movwf	itoa@base+1
  1135  0639  30AF               	movlw	(low (_POT1SA| 0))& (0+255)
  1136  063A  120A  158A  25BB  120A  118A  	fcall	_itoa
  1137  063F                     l2548:
  1138                           
  1139                           ;S1.c: 105:         POT1B = (V1/10)%10;
  1140  063F  300A               	movlw	10
  1141  0640  1283               	bcf	3,5	;RP0=0, select bank0
  1142  0641  1303               	bcf	3,6	;RP1=0, select bank0
  1143  0642  00A8               	movwf	___awmod@divisor
  1144  0643  3000               	movlw	0
  1145  0644  00A9               	movwf	___awmod@divisor+1
  1146  0645  300A               	movlw	10
  1147  0646  00A0               	movwf	___awdiv@divisor
  1148  0647  3000               	movlw	0
  1149  0648  00A1               	movwf	___awdiv@divisor+1
  1150  0649  0877               	movf	_V1+1,w
  1151  064A  00A3               	movwf	___awdiv@dividend+1
  1152  064B  0876               	movf	_V1,w
  1153  064C  00A2               	movwf	___awdiv@dividend
  1154  064D  120A  118A  2793  120A  118A  	fcall	___awdiv
  1155  0652  1283               	bcf	3,5	;RP0=0, select bank0
  1156  0653  1303               	bcf	3,6	;RP1=0, select bank0
  1157  0654  0821               	movf	?___awdiv+1,w
  1158  0655  00AB               	movwf	___awmod@dividend+1
  1159  0656  0820               	movf	?___awdiv,w
  1160  0657  00AA               	movwf	___awmod@dividend
  1161  0658  120A  158A  26B7  120A  118A  	fcall	___awmod
  1162  065D  1283               	bcf	3,5	;RP0=0, select bank0
  1163  065E  1303               	bcf	3,6	;RP1=0, select bank0
  1164  065F  0829               	movf	?___awmod+1,w
  1165  0660  00E9               	movwf	_POT1B+1
  1166  0661  0828               	movf	?___awmod,w
  1167  0662  00E8               	movwf	_POT1B
  1168  0663                     l2550:
  1169                           
  1170                           ;S1.c: 106:         itoa(POT1SB,POT1B,10);
  1171  0663  0869               	movf	_POT1B+1,w
  1172  0664  00B1               	movwf	itoa@val+1
  1173  0665  0868               	movf	_POT1B,w
  1174  0666  00B0               	movwf	itoa@val
  1175  0667  300A               	movlw	10
  1176  0668  00B2               	movwf	itoa@base
  1177  0669  3000               	movlw	0
  1178  066A  00B3               	movwf	itoa@base+1
  1179  066B  30AA               	movlw	(low (_POT1SB| 0))& (0+255)
  1180  066C  120A  158A  25BB  120A  118A  	fcall	_itoa
  1181  0671                     l2552:
  1182                           
  1183                           ;S1.c: 107:         POT1C = (V1/100)%10;
  1184  0671  300A               	movlw	10
  1185  0672  1283               	bcf	3,5	;RP0=0, select bank0
  1186  0673  1303               	bcf	3,6	;RP1=0, select bank0
  1187  0674  00A8               	movwf	___awmod@divisor
  1188  0675  3000               	movlw	0
  1189  0676  00A9               	movwf	___awmod@divisor+1
  1190  0677  3064               	movlw	100
  1191  0678  00A0               	movwf	___awdiv@divisor
  1192  0679  3000               	movlw	0
  1193  067A  00A1               	movwf	___awdiv@divisor+1
  1194  067B  0877               	movf	_V1+1,w
  1195  067C  00A3               	movwf	___awdiv@dividend+1
  1196  067D  0876               	movf	_V1,w
  1197  067E  00A2               	movwf	___awdiv@dividend
  1198  067F  120A  118A  2793  120A  118A  	fcall	___awdiv
  1199  0684  1283               	bcf	3,5	;RP0=0, select bank0
  1200  0685  1303               	bcf	3,6	;RP1=0, select bank0
  1201  0686  0821               	movf	?___awdiv+1,w
  1202  0687  00AB               	movwf	___awmod@dividend+1
  1203  0688  0820               	movf	?___awdiv,w
  1204  0689  00AA               	movwf	___awmod@dividend
  1205  068A  120A  158A  26B7  120A  118A  	fcall	___awmod
  1206  068F  1283               	bcf	3,5	;RP0=0, select bank0
  1207  0690  1303               	bcf	3,6	;RP1=0, select bank0
  1208  0691  0829               	movf	?___awmod+1,w
  1209  0692  00E7               	movwf	_POT1C+1
  1210  0693  0828               	movf	?___awmod,w
  1211  0694  00E6               	movwf	_POT1C
  1212  0695                     l2554:
  1213                           
  1214                           ;S1.c: 108:         itoa(POT1SC,POT1C,10);
  1215  0695  0867               	movf	_POT1C+1,w
  1216  0696  00B1               	movwf	itoa@val+1
  1217  0697  0866               	movf	_POT1C,w
  1218  0698  00B0               	movwf	itoa@val
  1219  0699  300A               	movlw	10
  1220  069A  00B2               	movwf	itoa@base
  1221  069B  3000               	movlw	0
  1222  069C  00B3               	movwf	itoa@base+1
  1223  069D  30A5               	movlw	(low (_POT1SC| 0))& (0+255)
  1224  069E  120A  158A  25BB  120A  118A  	fcall	_itoa
  1225  06A3                     l2556:
  1226                           
  1227                           ;S1.c: 109:         strcpy(PUNTO1,".");
  1228  06A3  3001               	movlw	(low ((STR_1-__stringbase)| (0+32768)))& (0+255)
  1229  06A4  1683               	bsf	3,5	;RP0=1, select bank1
  1230  06A5  1303               	bcf	3,6	;RP1=0, select bank1
  1231  06A6  00B4               	movwf	??_main^(0+128)
  1232  06A7  0834               	movf	??_main^(0+128),w
  1233  06A8  00F4               	movwf	strcpy@from
  1234  06A9  30A0               	movlw	(low (_PUNTO1| 0))& (0+255)
  1235  06AA  120A  158A  2598  120A  118A  	fcall	_strcpy
  1236  06AF                     l2558:
  1237                           
  1238                           ;S1.c: 110:         strcat(POT1SB,POT1SA);
  1239  06AF  30AF               	movlw	(low (_POT1SA| 0))& (0+255)
  1240  06B0  1683               	bsf	3,5	;RP0=1, select bank1
  1241  06B1  1303               	bcf	3,6	;RP1=0, select bank1
  1242  06B2  00B4               	movwf	??_main^(0+128)
  1243  06B3  0834               	movf	??_main^(0+128),w
  1244  06B4  00F4               	movwf	strcat@from
  1245  06B5  30AA               	movlw	(low (_POT1SB| 0))& (0+255)
  1246  06B6  120A  158A  260A  120A  118A  	fcall	_strcat
  1247  06BB                     l2560:
  1248                           
  1249                           ;S1.c: 111:         strcat(PUNTO1,POT1SB);
  1250  06BB  30AA               	movlw	(low (_POT1SB| 0))& (0+255)
  1251  06BC  1683               	bsf	3,5	;RP0=1, select bank1
  1252  06BD  1303               	bcf	3,6	;RP1=0, select bank1
  1253  06BE  00B4               	movwf	??_main^(0+128)
  1254  06BF  0834               	movf	??_main^(0+128),w
  1255  06C0  00F4               	movwf	strcat@from
  1256  06C1  30A0               	movlw	(low (_PUNTO1| 0))& (0+255)
  1257  06C2  120A  158A  260A  120A  118A  	fcall	_strcat
  1258  06C7                     l2562:
  1259                           
  1260                           ;S1.c: 112:         strcat(POT1SC,PUNTO1);
  1261  06C7  30A0               	movlw	(low (_PUNTO1| 0))& (0+255)
  1262  06C8  1683               	bsf	3,5	;RP0=1, select bank1
  1263  06C9  1303               	bcf	3,6	;RP1=0, select bank1
  1264  06CA  00B4               	movwf	??_main^(0+128)
  1265  06CB  0834               	movf	??_main^(0+128),w
  1266  06CC  00F4               	movwf	strcat@from
  1267  06CD  30A5               	movlw	(low (_POT1SC| 0))& (0+255)
  1268  06CE  120A  158A  260A  120A  118A  	fcall	_strcat
  1269  06D3  2D6B               	goto	l2532
  1270  06D4  120A  118A  280C   	ljmp	start
  1271  06D7                     __end_of_main:
  1272                           
  1273                           	psect	text1
  1274  0D98                     __ptext1:	
  1275 ;; *************** function _strcpy *****************
  1276 ;; Defined at:
  1277 ;;		line 8 in file "C:\Program Files\Microchip\xc8\v2.31\pic\sources\c90\common\strcpy.c"
  1278 ;; Parameters:    Size  Location     Type
  1279 ;;  to              1    wreg     PTR unsigned char 
  1280 ;;		 -> PUNTO1(5), 
  1281 ;;  from            1    4[COMMON] PTR const unsigned char 
  1282 ;;		 -> STR_1(2), 
  1283 ;; Auto vars:     Size  Location     Type
  1284 ;;  to              1    0[BANK0 ] PTR unsigned char 
  1285 ;;		 -> PUNTO1(5), 
  1286 ;;  cp              1    1[BANK0 ] PTR unsigned char 
  1287 ;;		 -> PUNTO1(5), 
  1288 ;; Return value:  Size  Location     Type
  1289 ;;                  1    wreg      PTR unsigned char 
  1290 ;; Registers used:
  1291 ;;		wreg, fsr0l, fsr0h, status,2, status,0, pclath
  1292 ;; Tracked objects:
  1293 ;;		On entry : 0/0
  1294 ;;		On exit  : 0/0
  1295 ;;		Unchanged: 0/0
  1296 ;; Data sizes:     COMMON   BANK0   BANK1   BANK3   BANK2
  1297 ;;      Params:         1       0       0       0       0
  1298 ;;      Locals:         0       2       0       0       0
  1299 ;;      Temps:          1       0       0       0       0
  1300 ;;      Totals:         2       2       0       0       0
  1301 ;;Total ram usage:        4 bytes
  1302 ;; Hardware stack levels used:    1
  1303 ;; Hardware stack levels required when called:    3
  1304 ;; This function calls:
  1305 ;;		Nothing
  1306 ;; This function is called by:
  1307 ;;		_main
  1308 ;; This function uses a non-reentrant model
  1309 ;;
  1310                           
  1311                           
  1312                           ;psect for function _strcpy
  1313  0D98                     _strcpy:
  1314                           
  1315                           ;incstack = 0
  1316                           ; Regs used in _strcpy: [wreg-fsr0h+status,2+status,0+pclath]
  1317                           ;strcpy@to stored from wreg
  1318  0D98  1283               	bcf	3,5	;RP0=0, select bank0
  1319  0D99  1303               	bcf	3,6	;RP1=0, select bank0
  1320  0D9A  00A0               	movwf	strcpy@to
  1321  0D9B                     l2250:
  1322  0D9B  0820               	movf	strcpy@to,w
  1323  0D9C  00F5               	movwf	??_strcpy
  1324  0D9D  0875               	movf	??_strcpy,w
  1325  0D9E  00A1               	movwf	strcpy@cp
  1326  0D9F  2DA8               	goto	l2254
  1327  0DA0                     l2252:
  1328  0DA0  3001               	movlw	1
  1329  0DA1  00F5               	movwf	??_strcpy
  1330  0DA2  0875               	movf	??_strcpy,w
  1331  0DA3  07A1               	addwf	strcpy@cp,f
  1332  0DA4  3001               	movlw	1
  1333  0DA5  00F5               	movwf	??_strcpy
  1334  0DA6  0875               	movf	??_strcpy,w
  1335  0DA7  07F4               	addwf	strcpy@from,f
  1336  0DA8                     l2254:
  1337  0DA8  0874               	movf	strcpy@from,w
  1338  0DA9  0084               	movwf	4
  1339  0DAA  120A  158A  2000  120A  158A  	fcall	stringdir
  1340  0DAF  00F5               	movwf	??_strcpy
  1341  0DB0  0821               	movf	strcpy@cp,w
  1342  0DB1  0084               	movwf	4
  1343  0DB2  0875               	movf	??_strcpy,w
  1344  0DB3  1383               	bcf	3,7	;select IRP bank0
  1345  0DB4  0080               	movwf	0
  1346  0DB5  0800               	movf	0,w
  1347  0DB6  1D03               	btfss	3,2
  1348  0DB7  2DB9               	goto	u2921
  1349  0DB8  2DBA               	goto	u2920
  1350  0DB9                     u2921:
  1351  0DB9  2DA0               	goto	l2252
  1352  0DBA                     u2920:
  1353  0DBA                     l702:
  1354  0DBA  0008               	return
  1355  0DBB                     __end_of_strcpy:
  1356                           
  1357                           	psect	text2
  1358  0E0A                     __ptext2:	
  1359 ;; *************** function _strcat *****************
  1360 ;; Defined at:
  1361 ;;		line 8 in file "C:\Program Files\Microchip\xc8\v2.31\pic\sources\c90\common\strcat.c"
  1362 ;; Parameters:    Size  Location     Type
  1363 ;;  to              1    wreg     PTR unsigned char 
  1364 ;;		 -> PUNTO1(5), POT1SB(5), POT1SC(5), 
  1365 ;;  from            1    4[COMMON] PTR const unsigned char 
  1366 ;;		 -> PUNTO1(5), POT1SB(5), POT1SA(5), 
  1367 ;; Auto vars:     Size  Location     Type
  1368 ;;  to              1    0[BANK0 ] PTR unsigned char 
  1369 ;;		 -> PUNTO1(5), POT1SB(5), POT1SC(5), 
  1370 ;;  cp              1    1[BANK0 ] PTR unsigned char 
  1371 ;;		 -> PUNTO1(5), POT1SB(5), POT1SC(5), 
  1372 ;; Return value:  Size  Location     Type
  1373 ;;                  1    wreg      PTR unsigned char 
  1374 ;; Registers used:
  1375 ;;		wreg, fsr0l, fsr0h, status,2, status,0
  1376 ;; Tracked objects:
  1377 ;;		On entry : 0/0
  1378 ;;		On exit  : 0/0
  1379 ;;		Unchanged: 0/0
  1380 ;; Data sizes:     COMMON   BANK0   BANK1   BANK3   BANK2
  1381 ;;      Params:         1       0       0       0       0
  1382 ;;      Locals:         0       2       0       0       0
  1383 ;;      Temps:          1       0       0       0       0
  1384 ;;      Totals:         2       2       0       0       0
  1385 ;;Total ram usage:        4 bytes
  1386 ;; Hardware stack levels used:    1
  1387 ;; Hardware stack levels required when called:    3
  1388 ;; This function calls:
  1389 ;;		Nothing
  1390 ;; This function is called by:
  1391 ;;		_main
  1392 ;; This function uses a non-reentrant model
  1393 ;;
  1394                           
  1395                           
  1396                           ;psect for function _strcat
  1397  0E0A                     _strcat:
  1398                           
  1399                           ;incstack = 0
  1400                           ; Regs used in _strcat: [wreg-fsr0h+status,2+status,0]
  1401                           ;strcat@to stored from wreg
  1402  0E0A  1283               	bcf	3,5	;RP0=0, select bank0
  1403  0E0B  1303               	bcf	3,6	;RP1=0, select bank0
  1404  0E0C  00A0               	movwf	strcat@to
  1405  0E0D                     l2256:
  1406  0E0D  0820               	movf	strcat@to,w
  1407  0E0E  00F5               	movwf	??_strcat
  1408  0E0F  0875               	movf	??_strcat,w
  1409  0E10  00A1               	movwf	strcat@cp
  1410  0E11  2E16               	goto	l2260
  1411  0E12                     l2258:
  1412  0E12  3001               	movlw	1
  1413  0E13  00F5               	movwf	??_strcat
  1414  0E14  0875               	movf	??_strcat,w
  1415  0E15  07A1               	addwf	strcat@cp,f
  1416  0E16                     l2260:
  1417  0E16  0821               	movf	strcat@cp,w
  1418  0E17  0084               	movwf	4
  1419  0E18  1383               	bcf	3,7	;select IRP bank0
  1420  0E19  0800               	movf	0,w
  1421  0E1A  1D03               	btfss	3,2
  1422  0E1B  2E1D               	goto	u2931
  1423  0E1C  2E1E               	goto	u2930
  1424  0E1D                     u2931:
  1425  0E1D  2E12               	goto	l2258
  1426  0E1E                     u2930:
  1427  0E1E  2E27               	goto	l2264
  1428  0E1F                     l2262:
  1429  0E1F  3001               	movlw	1
  1430  0E20  00F5               	movwf	??_strcat
  1431  0E21  0875               	movf	??_strcat,w
  1432  0E22  07A1               	addwf	strcat@cp,f
  1433  0E23  3001               	movlw	1
  1434  0E24  00F5               	movwf	??_strcat
  1435  0E25  0875               	movf	??_strcat,w
  1436  0E26  07F4               	addwf	strcat@from,f
  1437  0E27                     l2264:
  1438  0E27  0874               	movf	strcat@from,w
  1439  0E28  0084               	movwf	4
  1440  0E29  0800               	movf	0,w
  1441  0E2A  00F5               	movwf	??_strcat
  1442  0E2B  0821               	movf	strcat@cp,w
  1443  0E2C  0084               	movwf	4
  1444  0E2D  0875               	movf	??_strcat,w
  1445  0E2E  0080               	movwf	0
  1446  0E2F  0800               	movf	0,w
  1447  0E30  1D03               	btfss	3,2
  1448  0E31  2E33               	goto	u2941
  1449  0E32  2E34               	goto	u2940
  1450  0E33                     u2941:
  1451  0E33  2E1F               	goto	l2262
  1452  0E34                     u2940:
  1453  0E34                     l696:
  1454  0E34  0008               	return
  1455  0E35                     __end_of_strcat:
  1456                           
  1457                           	psect	text3
  1458  0D78                     __ptext3:	
  1459 ;; *************** function _setup *****************
  1460 ;; Defined at:
  1461 ;;		line 120 in file "S1.c"
  1462 ;; Parameters:    Size  Location     Type
  1463 ;;		None
  1464 ;; Auto vars:     Size  Location     Type
  1465 ;;		None
  1466 ;; Return value:  Size  Location     Type
  1467 ;;                  1    wreg      void 
  1468 ;; Registers used:
  1469 ;;		wreg, status,2, status,0
  1470 ;; Tracked objects:
  1471 ;;		On entry : 0/0
  1472 ;;		On exit  : 0/0
  1473 ;;		Unchanged: 0/0
  1474 ;; Data sizes:     COMMON   BANK0   BANK1   BANK3   BANK2
  1475 ;;      Params:         0       0       0       0       0
  1476 ;;      Locals:         0       0       0       0       0
  1477 ;;      Temps:          0       0       0       0       0
  1478 ;;      Totals:         0       0       0       0       0
  1479 ;;Total ram usage:        0 bytes
  1480 ;; Hardware stack levels used:    1
  1481 ;; Hardware stack levels required when called:    3
  1482 ;; This function calls:
  1483 ;;		Nothing
  1484 ;; This function is called by:
  1485 ;;		_main
  1486 ;; This function uses a non-reentrant model
  1487 ;;
  1488                           
  1489                           
  1490                           ;psect for function _setup
  1491  0D78                     _setup:
  1492  0D78                     l1544:	
  1493                           ;incstack = 0
  1494                           ; Regs used in _setup: [wreg+status,2+status,0]
  1495                           
  1496                           
  1497                           ;S1.c: 121:     ANSEL = 0b00000001;
  1498  0D78  3001               	movlw	1
  1499  0D79  1683               	bsf	3,5	;RP0=1, select bank3
  1500  0D7A  1703               	bsf	3,6	;RP1=1, select bank3
  1501  0D7B  0088               	movwf	8	;volatile
  1502  0D7C                     l1546:
  1503                           
  1504                           ;S1.c: 122:     ANSELH= 0b00000000;
  1505  0D7C  0189               	clrf	9	;volatile
  1506  0D7D                     l1548:
  1507                           
  1508                           ;S1.c: 123:     TRISA = 0b00000001;
  1509  0D7D  3001               	movlw	1
  1510  0D7E  1683               	bsf	3,5	;RP0=1, select bank1
  1511  0D7F  1303               	bcf	3,6	;RP1=0, select bank1
  1512  0D80  0085               	movwf	5	;volatile
  1513                           
  1514                           ;S1.c: 124:     TRISB = 0;
  1515  0D81  0186               	clrf	6	;volatile
  1516  0D82                     l1550:
  1517                           
  1518                           ;S1.c: 125:     TRISC = 0b00010000;
  1519  0D82  3010               	movlw	16
  1520  0D83  0087               	movwf	7	;volatile
  1521  0D84                     l1552:
  1522                           
  1523                           ;S1.c: 126:     TRISD = 0;
  1524  0D84  0188               	clrf	8	;volatile
  1525  0D85                     l1554:
  1526                           
  1527                           ;S1.c: 128:     PORTA = 0;
  1528  0D85  1283               	bcf	3,5	;RP0=0, select bank0
  1529  0D86  1303               	bcf	3,6	;RP1=0, select bank0
  1530  0D87  0185               	clrf	5	;volatile
  1531  0D88                     l1556:
  1532                           
  1533                           ;S1.c: 129:     PORTB = 0;
  1534  0D88  0186               	clrf	6	;volatile
  1535  0D89                     l1558:
  1536                           
  1537                           ;S1.c: 130:     PORTC = 0;
  1538  0D89  0187               	clrf	7	;volatile
  1539  0D8A                     l1560:
  1540                           
  1541                           ;S1.c: 131:     PORTD = 0;
  1542  0D8A  0188               	clrf	8	;volatile
  1543  0D8B                     l1562:
  1544                           
  1545                           ;S1.c: 132:     PORTE = 0;
  1546  0D8B  0189               	clrf	9	;volatile
  1547  0D8C                     l1564:
  1548                           
  1549                           ;S1.c: 134:     TRISAbits.TRISA5 = 1;
  1550  0D8C  1683               	bsf	3,5	;RP0=1, select bank1
  1551  0D8D  1303               	bcf	3,6	;RP1=0, select bank1
  1552  0D8E  1685               	bsf	5,5	;volatile
  1553  0D8F                     l1566:
  1554                           
  1555                           ;S1.c: 136:     OSCCONbits.IRCF = 0b110;
  1556  0D8F  080F               	movf	15,w	;volatile
  1557  0D90  398F               	andlw	-113
  1558  0D91  3860               	iorlw	96
  1559  0D92  008F               	movwf	15	;volatile
  1560  0D93                     l1568:
  1561                           
  1562                           ;S1.c: 137:     OSCCONbits.OSTS= 0;
  1563  0D93  118F               	bcf	15,3	;volatile
  1564  0D94                     l1570:
  1565                           
  1566                           ;S1.c: 138:     OSCCONbits.HTS = 0;
  1567  0D94  110F               	bcf	15,2	;volatile
  1568  0D95                     l1572:
  1569                           
  1570                           ;S1.c: 139:     OSCCONbits.LTS = 0;
  1571  0D95  108F               	bcf	15,1	;volatile
  1572  0D96                     l1574:
  1573                           
  1574                           ;S1.c: 140:     OSCCONbits.SCS = 1;
  1575  0D96  140F               	bsf	15,0	;volatile
  1576  0D97                     l89:
  1577  0D97  0008               	return
  1578  0D98                     __end_of_setup:
  1579                           
  1580                           	psect	text4
  1581  0DBB                     __ptext4:	
  1582 ;; *************** function _itoa *****************
  1583 ;; Defined at:
  1584 ;;		line 4 in file "C:\Program Files\Microchip\xc8\v2.31\pic\sources\c90\common\itoa.c"
  1585 ;; Parameters:    Size  Location     Type
  1586 ;;  buf             1    wreg     PTR unsigned char 
  1587 ;;		 -> POT1SB(5), POT1SA(5), POT1SC(5), 
  1588 ;;  val             2   16[BANK0 ] int 
  1589 ;;  base            2   18[BANK0 ] int 
  1590 ;; Auto vars:     Size  Location     Type
  1591 ;;  buf             1   22[BANK0 ] PTR unsigned char 
  1592 ;;		 -> POT1SB(5), POT1SA(5), POT1SC(5), 
  1593 ;;  cp              1    0        PTR unsigned char 
  1594 ;;		 -> POT1SB(5), POT1SA(5), POT1SC(5), 
  1595 ;; Return value:  Size  Location     Type
  1596 ;;                  1    wreg      PTR unsigned char 
  1597 ;; Registers used:
  1598 ;;		wreg, fsr0l, fsr0h, status,2, status,0, pclath, cstack
  1599 ;; Tracked objects:
  1600 ;;		On entry : 0/0
  1601 ;;		On exit  : 0/0
  1602 ;;		Unchanged: 0/0
  1603 ;; Data sizes:     COMMON   BANK0   BANK1   BANK3   BANK2
  1604 ;;      Params:         0       4       0       0       0
  1605 ;;      Locals:         0       2       0       0       0
  1606 ;;      Temps:          0       1       0       0       0
  1607 ;;      Totals:         0       7       0       0       0
  1608 ;;Total ram usage:        7 bytes
  1609 ;; Hardware stack levels used:    1
  1610 ;; Hardware stack levels required when called:    5
  1611 ;; This function calls:
  1612 ;;		_utoa
  1613 ;; This function is called by:
  1614 ;;		_main
  1615 ;; This function uses a non-reentrant model
  1616 ;;
  1617                           
  1618                           
  1619                           ;psect for function _itoa
  1620  0DBB                     _itoa:
  1621                           
  1622                           ;incstack = 0
  1623                           ; Regs used in _itoa: [wreg-fsr0h+status,2+status,0+pclath+cstack]
  1624                           ;itoa@buf stored from wreg
  1625  0DBB  1283               	bcf	3,5	;RP0=0, select bank0
  1626  0DBC  1303               	bcf	3,6	;RP1=0, select bank0
  1627  0DBD  00B6               	movwf	itoa@buf
  1628  0DBE                     l2236:
  1629  0DBE                     l2238:
  1630  0DBE  1FB1               	btfss	itoa@val+1,7
  1631  0DBF  2DC1               	goto	u2911
  1632  0DC0  2DC2               	goto	u2910
  1633  0DC1                     u2911:
  1634  0DC1  2DD2               	goto	l2246
  1635  0DC2                     u2910:
  1636  0DC2                     l2240:
  1637  0DC2  302D               	movlw	45
  1638  0DC3  00B4               	movwf	??_itoa
  1639  0DC4  0836               	movf	itoa@buf,w
  1640  0DC5  0084               	movwf	4
  1641  0DC6  0834               	movf	??_itoa,w
  1642  0DC7  1383               	bcf	3,7	;select IRP bank0
  1643  0DC8  0080               	movwf	0
  1644  0DC9                     l2242:
  1645  0DC9  3001               	movlw	1
  1646  0DCA  00B4               	movwf	??_itoa
  1647  0DCB  0834               	movf	??_itoa,w
  1648  0DCC  07B6               	addwf	itoa@buf,f
  1649  0DCD                     l2244:
  1650  0DCD  09B0               	comf	itoa@val,f
  1651  0DCE  09B1               	comf	itoa@val+1,f
  1652  0DCF  0AB0               	incf	itoa@val,f
  1653  0DD0  1903               	skipnz
  1654  0DD1  0AB1               	incf	itoa@val+1,f
  1655  0DD2                     l2246:
  1656  0DD2  0831               	movf	itoa@val+1,w
  1657  0DD3  00A8               	movwf	utoa@val+1
  1658  0DD4  0830               	movf	itoa@val,w
  1659  0DD5  00A7               	movwf	utoa@val
  1660  0DD6  0833               	movf	itoa@base+1,w
  1661  0DD7  00AA               	movwf	utoa@base+1
  1662  0DD8  0832               	movf	itoa@base,w
  1663  0DD9  00A9               	movwf	utoa@base
  1664  0DDA  0836               	movf	itoa@buf,w
  1665  0DDB  120A  158A  2712  120A  158A  	fcall	_utoa
  1666  0DE0                     l679:
  1667  0DE0  0008               	return
  1668  0DE1                     __end_of_itoa:
  1669                           
  1670                           	psect	text5
  1671  0F12                     __ptext5:	
  1672 ;; *************** function _utoa *****************
  1673 ;; Defined at:
  1674 ;;		line 17 in file "C:\Program Files\Microchip\xc8\v2.31\pic\sources\c90\common\itoa.c"
  1675 ;; Parameters:    Size  Location     Type
  1676 ;;  buf             1    wreg     PTR unsigned char 
  1677 ;;		 -> POT1SB(5), POT1SA(5), POT1SC(5), 
  1678 ;;  val             2    7[BANK0 ] unsigned int 
  1679 ;;  base            2    9[BANK0 ] int 
  1680 ;; Auto vars:     Size  Location     Type
  1681 ;;  buf             1   15[BANK0 ] PTR unsigned char 
  1682 ;;		 -> POT1SB(5), POT1SA(5), POT1SC(5), 
  1683 ;;  v               2   12[BANK0 ] unsigned int 
  1684 ;;  c               1   14[BANK0 ] unsigned char 
  1685 ;; Return value:  Size  Location     Type
  1686 ;;                  1    wreg      PTR unsigned char 
  1687 ;; Registers used:
  1688 ;;		wreg, fsr0l, fsr0h, status,2, status,0, pclath, cstack
  1689 ;; Tracked objects:
  1690 ;;		On entry : 0/0
  1691 ;;		On exit  : 0/0
  1692 ;;		Unchanged: 0/0
  1693 ;; Data sizes:     COMMON   BANK0   BANK1   BANK3   BANK2
  1694 ;;      Params:         0       4       0       0       0
  1695 ;;      Locals:         0       4       0       0       0
  1696 ;;      Temps:          0       1       0       0       0
  1697 ;;      Totals:         0       9       0       0       0
  1698 ;;Total ram usage:        9 bytes
  1699 ;; Hardware stack levels used:    1
  1700 ;; Hardware stack levels required when called:    4
  1701 ;; This function calls:
  1702 ;;		___lwdiv
  1703 ;;		___lwmod
  1704 ;; This function is called by:
  1705 ;;		_itoa
  1706 ;; This function uses a non-reentrant model
  1707 ;;
  1708                           
  1709                           
  1710                           ;psect for function _utoa
  1711  0F12                     _utoa:
  1712                           
  1713                           ;incstack = 0
  1714                           ; Regs used in _utoa: [wreg-fsr0h+status,2+status,0+pclath+cstack]
  1715                           ;utoa@buf stored from wreg
  1716  0F12  1283               	bcf	3,5	;RP0=0, select bank0
  1717  0F13  1303               	bcf	3,6	;RP1=0, select bank0
  1718  0F14  00AF               	movwf	utoa@buf
  1719  0F15                     l2180:
  1720  0F15  0828               	movf	utoa@val+1,w
  1721  0F16  00AD               	movwf	utoa@v+1
  1722  0F17  0827               	movf	utoa@val,w
  1723  0F18  00AC               	movwf	utoa@v
  1724  0F19                     l2182:
  1725  0F19  082A               	movf	utoa@base+1,w
  1726  0F1A  00A1               	movwf	___lwdiv@divisor+1
  1727  0F1B  0829               	movf	utoa@base,w
  1728  0F1C  00A0               	movwf	___lwdiv@divisor
  1729  0F1D  082D               	movf	utoa@v+1,w
  1730  0F1E  00A3               	movwf	___lwdiv@dividend+1
  1731  0F1F  082C               	movf	utoa@v,w
  1732  0F20  00A2               	movwf	___lwdiv@dividend
  1733  0F21  120A  158A  2671  120A  158A  	fcall	___lwdiv
  1734  0F26  1283               	bcf	3,5	;RP0=0, select bank0
  1735  0F27  1303               	bcf	3,6	;RP1=0, select bank0
  1736  0F28  0821               	movf	?___lwdiv+1,w
  1737  0F29  00AD               	movwf	utoa@v+1
  1738  0F2A  0820               	movf	?___lwdiv,w
  1739  0F2B  00AC               	movwf	utoa@v
  1740  0F2C                     l2184:
  1741  0F2C  3001               	movlw	1
  1742  0F2D  00AB               	movwf	??_utoa
  1743  0F2E  082B               	movf	??_utoa,w
  1744  0F2F  07AF               	addwf	utoa@buf,f
  1745  0F30                     l2186:
  1746  0F30  082C               	movf	utoa@v,w
  1747  0F31  042D               	iorwf	utoa@v+1,w
  1748  0F32  1D03               	btfss	3,2
  1749  0F33  2F35               	goto	u2871
  1750  0F34  2F36               	goto	u2870
  1751  0F35                     u2871:
  1752  0F35  2F19               	goto	l2182
  1753  0F36                     u2870:
  1754  0F36                     l2188:
  1755  0F36  082F               	movf	utoa@buf,w
  1756  0F37  0084               	movwf	4
  1757  0F38  1383               	bcf	3,7	;select IRP bank0
  1758  0F39  0180               	clrf	0
  1759  0F3A                     l2190:
  1760  0F3A  3001               	movlw	1
  1761  0F3B  02AF               	subwf	utoa@buf,f
  1762  0F3C                     l2192:
  1763  0F3C  082A               	movf	utoa@base+1,w
  1764  0F3D  00A1               	movwf	___lwmod@divisor+1
  1765  0F3E  0829               	movf	utoa@base,w
  1766  0F3F  00A0               	movwf	___lwmod@divisor
  1767  0F40  0828               	movf	utoa@val+1,w
  1768  0F41  00A3               	movwf	___lwmod@dividend+1
  1769  0F42  0827               	movf	utoa@val,w
  1770  0F43  00A2               	movwf	___lwmod@dividend
  1771  0F44  120A  158A  2635  120A  158A  	fcall	___lwmod
  1772  0F49  1283               	bcf	3,5	;RP0=0, select bank0
  1773  0F4A  1303               	bcf	3,6	;RP1=0, select bank0
  1774  0F4B  0820               	movf	?___lwmod,w
  1775  0F4C  00AB               	movwf	??_utoa
  1776  0F4D  082B               	movf	??_utoa,w
  1777  0F4E  00AE               	movwf	utoa@c
  1778  0F4F                     l2194:
  1779  0F4F  082A               	movf	utoa@base+1,w
  1780  0F50  00A1               	movwf	___lwdiv@divisor+1
  1781  0F51  0829               	movf	utoa@base,w
  1782  0F52  00A0               	movwf	___lwdiv@divisor
  1783  0F53  0828               	movf	utoa@val+1,w
  1784  0F54  00A3               	movwf	___lwdiv@dividend+1
  1785  0F55  0827               	movf	utoa@val,w
  1786  0F56  00A2               	movwf	___lwdiv@dividend
  1787  0F57  120A  158A  2671  120A  158A  	fcall	___lwdiv
  1788  0F5C  1283               	bcf	3,5	;RP0=0, select bank0
  1789  0F5D  1303               	bcf	3,6	;RP1=0, select bank0
  1790  0F5E  0821               	movf	?___lwdiv+1,w
  1791  0F5F  00A8               	movwf	utoa@val+1
  1792  0F60  0820               	movf	?___lwdiv,w
  1793  0F61  00A7               	movwf	utoa@val
  1794  0F62                     l2196:
  1795  0F62  300A               	movlw	10
  1796  0F63  022E               	subwf	utoa@c,w
  1797  0F64  1C03               	skipc
  1798  0F65  2F67               	goto	u2881
  1799  0F66  2F68               	goto	u2880
  1800  0F67                     u2881:
  1801  0F67  2F6C               	goto	l685
  1802  0F68                     u2880:
  1803  0F68                     l2198:
  1804  0F68  3007               	movlw	7
  1805  0F69  00AB               	movwf	??_utoa
  1806  0F6A  082B               	movf	??_utoa,w
  1807  0F6B  07AE               	addwf	utoa@c,f
  1808  0F6C                     l685:
  1809  0F6C  3030               	movlw	48
  1810  0F6D  00AB               	movwf	??_utoa
  1811  0F6E  082B               	movf	??_utoa,w
  1812  0F6F  07AE               	addwf	utoa@c,f
  1813  0F70                     l2200:
  1814  0F70  082E               	movf	utoa@c,w
  1815  0F71  00AB               	movwf	??_utoa
  1816  0F72  082F               	movf	utoa@buf,w
  1817  0F73  0084               	movwf	4
  1818  0F74  082B               	movf	??_utoa,w
  1819  0F75  1383               	bcf	3,7	;select IRP bank0
  1820  0F76  0080               	movwf	0
  1821  0F77                     l2202:
  1822  0F77  3001               	movlw	1
  1823  0F78  02AF               	subwf	utoa@buf,f
  1824  0F79                     l2204:
  1825  0F79  0827               	movf	utoa@val,w
  1826  0F7A  0428               	iorwf	utoa@val+1,w
  1827  0F7B  1D03               	btfss	3,2
  1828  0F7C  2F7E               	goto	u2891
  1829  0F7D  2F7F               	goto	u2890
  1830  0F7E                     u2891:
  1831  0F7E  2F3C               	goto	l2192
  1832  0F7F                     u2890:
  1833  0F7F                     l2206:
  1834                           
  1835                           ;	Return value of _utoa is never used
  1836  0F7F  3001               	movlw	1
  1837  0F80  00AB               	movwf	??_utoa
  1838  0F81  082B               	movf	??_utoa,w
  1839  0F82  07AF               	addwf	utoa@buf,f
  1840  0F83                     l687:
  1841  0F83  0008               	return
  1842  0F84                     __end_of_utoa:
  1843                           
  1844                           	psect	text6
  1845  0E35                     __ptext6:	
  1846 ;; *************** function ___lwmod *****************
  1847 ;; Defined at:
  1848 ;;		line 5 in file "C:\Program Files\Microchip\xc8\v2.31\pic\sources\c90\common\lwmod.c"
  1849 ;; Parameters:    Size  Location     Type
  1850 ;;  divisor         2    0[BANK0 ] unsigned int 
  1851 ;;  dividend        2    2[BANK0 ] unsigned int 
  1852 ;; Auto vars:     Size  Location     Type
  1853 ;;  counter         1    5[COMMON] unsigned char 
  1854 ;; Return value:  Size  Location     Type
  1855 ;;                  2    0[BANK0 ] unsigned int 
  1856 ;; Registers used:
  1857 ;;		wreg, status,2, status,0
  1858 ;; Tracked objects:
  1859 ;;		On entry : 0/0
  1860 ;;		On exit  : 0/0
  1861 ;;		Unchanged: 0/0
  1862 ;; Data sizes:     COMMON   BANK0   BANK1   BANK3   BANK2
  1863 ;;      Params:         0       4       0       0       0
  1864 ;;      Locals:         1       0       0       0       0
  1865 ;;      Temps:          1       0       0       0       0
  1866 ;;      Totals:         2       4       0       0       0
  1867 ;;Total ram usage:        6 bytes
  1868 ;; Hardware stack levels used:    1
  1869 ;; Hardware stack levels required when called:    3
  1870 ;; This function calls:
  1871 ;;		Nothing
  1872 ;; This function is called by:
  1873 ;;		_utoa
  1874 ;; This function uses a non-reentrant model
  1875 ;;
  1876                           
  1877                           
  1878                           ;psect for function ___lwmod
  1879  0E35                     ___lwmod:
  1880  0E35                     l2144:	
  1881                           ;incstack = 0
  1882                           ; Regs used in ___lwmod: [wreg+status,2+status,0]
  1883                           
  1884  0E35  1283               	bcf	3,5	;RP0=0, select bank0
  1885  0E36  1303               	bcf	3,6	;RP1=0, select bank0
  1886  0E37  0820               	movf	___lwmod@divisor,w
  1887  0E38  0421               	iorwf	___lwmod@divisor+1,w
  1888  0E39  1903               	btfsc	3,2
  1889  0E3A  2E3C               	goto	u2781
  1890  0E3B  2E3D               	goto	u2780
  1891  0E3C                     u2781:
  1892  0E3C  2E6C               	goto	l2162
  1893  0E3D                     u2780:
  1894  0E3D                     l2146:
  1895  0E3D  01F5               	clrf	___lwmod@counter
  1896  0E3E  0AF5               	incf	___lwmod@counter,f
  1897  0E3F  2E4B               	goto	l2152
  1898  0E40                     l2148:
  1899  0E40  3001               	movlw	1
  1900  0E41                     u2795:
  1901  0E41  1003               	clrc
  1902  0E42  0DA0               	rlf	___lwmod@divisor,f
  1903  0E43  0DA1               	rlf	___lwmod@divisor+1,f
  1904  0E44  3EFF               	addlw	-1
  1905  0E45  1D03               	skipz
  1906  0E46  2E41               	goto	u2795
  1907  0E47                     l2150:
  1908  0E47  3001               	movlw	1
  1909  0E48  00F4               	movwf	??___lwmod
  1910  0E49  0874               	movf	??___lwmod,w
  1911  0E4A  07F5               	addwf	___lwmod@counter,f
  1912  0E4B                     l2152:
  1913  0E4B  1FA1               	btfss	___lwmod@divisor+1,7
  1914  0E4C  2E4E               	goto	u2801
  1915  0E4D  2E4F               	goto	u2800
  1916  0E4E                     u2801:
  1917  0E4E  2E40               	goto	l2148
  1918  0E4F                     u2800:
  1919  0E4F                     l2154:
  1920  0E4F  0821               	movf	___lwmod@divisor+1,w
  1921  0E50  0223               	subwf	___lwmod@dividend+1,w
  1922  0E51  1D03               	skipz
  1923  0E52  2E55               	goto	u2815
  1924  0E53  0820               	movf	___lwmod@divisor,w
  1925  0E54  0222               	subwf	___lwmod@dividend,w
  1926  0E55                     u2815:
  1927  0E55  1C03               	skipc
  1928  0E56  2E58               	goto	u2811
  1929  0E57  2E59               	goto	u2810
  1930  0E58                     u2811:
  1931  0E58  2E5F               	goto	l2158
  1932  0E59                     u2810:
  1933  0E59                     l2156:
  1934  0E59  0820               	movf	___lwmod@divisor,w
  1935  0E5A  02A2               	subwf	___lwmod@dividend,f
  1936  0E5B  0821               	movf	___lwmod@divisor+1,w
  1937  0E5C  1C03               	skipc
  1938  0E5D  03A3               	decf	___lwmod@dividend+1,f
  1939  0E5E  02A3               	subwf	___lwmod@dividend+1,f
  1940  0E5F                     l2158:
  1941  0E5F  3001               	movlw	1
  1942  0E60                     u2825:
  1943  0E60  1003               	clrc
  1944  0E61  0CA1               	rrf	___lwmod@divisor+1,f
  1945  0E62  0CA0               	rrf	___lwmod@divisor,f
  1946  0E63  3EFF               	addlw	-1
  1947  0E64  1D03               	skipz
  1948  0E65  2E60               	goto	u2825
  1949  0E66                     l2160:
  1950  0E66  3001               	movlw	1
  1951  0E67  02F5               	subwf	___lwmod@counter,f
  1952  0E68  1D03               	btfss	3,2
  1953  0E69  2E6B               	goto	u2831
  1954  0E6A  2E6C               	goto	u2830
  1955  0E6B                     u2831:
  1956  0E6B  2E4F               	goto	l2154
  1957  0E6C                     u2830:
  1958  0E6C                     l2162:
  1959  0E6C  0823               	movf	___lwmod@dividend+1,w
  1960  0E6D  00A1               	movwf	?___lwmod+1
  1961  0E6E  0822               	movf	___lwmod@dividend,w
  1962  0E6F  00A0               	movwf	?___lwmod
  1963  0E70                     l507:
  1964  0E70  0008               	return
  1965  0E71                     __end_of___lwmod:
  1966                           
  1967                           	psect	text7
  1968  0E71                     __ptext7:	
  1969 ;; *************** function ___lwdiv *****************
  1970 ;; Defined at:
  1971 ;;		line 5 in file "C:\Program Files\Microchip\xc8\v2.31\pic\sources\c90\common\lwdiv.c"
  1972 ;; Parameters:    Size  Location     Type
  1973 ;;  divisor         2    0[BANK0 ] unsigned int 
  1974 ;;  dividend        2    2[BANK0 ] unsigned int 
  1975 ;; Auto vars:     Size  Location     Type
  1976 ;;  quotient        2    5[BANK0 ] unsigned int 
  1977 ;;  counter         1    4[BANK0 ] unsigned char 
  1978 ;; Return value:  Size  Location     Type
  1979 ;;                  2    0[BANK0 ] unsigned int 
  1980 ;; Registers used:
  1981 ;;		wreg, status,2, status,0
  1982 ;; Tracked objects:
  1983 ;;		On entry : 0/0
  1984 ;;		On exit  : 0/0
  1985 ;;		Unchanged: 0/0
  1986 ;; Data sizes:     COMMON   BANK0   BANK1   BANK3   BANK2
  1987 ;;      Params:         0       4       0       0       0
  1988 ;;      Locals:         0       3       0       0       0
  1989 ;;      Temps:          1       0       0       0       0
  1990 ;;      Totals:         1       7       0       0       0
  1991 ;;Total ram usage:        8 bytes
  1992 ;; Hardware stack levels used:    1
  1993 ;; Hardware stack levels required when called:    3
  1994 ;; This function calls:
  1995 ;;		Nothing
  1996 ;; This function is called by:
  1997 ;;		_utoa
  1998 ;; This function uses a non-reentrant model
  1999 ;;
  2000                           
  2001                           
  2002                           ;psect for function ___lwdiv
  2003  0E71                     ___lwdiv:
  2004  0E71                     l2118:	
  2005                           ;incstack = 0
  2006                           ; Regs used in ___lwdiv: [wreg+status,2+status,0]
  2007                           
  2008  0E71  1283               	bcf	3,5	;RP0=0, select bank0
  2009  0E72  1303               	bcf	3,6	;RP1=0, select bank0
  2010  0E73  01A5               	clrf	___lwdiv@quotient
  2011  0E74  01A6               	clrf	___lwdiv@quotient+1
  2012  0E75                     l2120:
  2013  0E75  0820               	movf	___lwdiv@divisor,w
  2014  0E76  0421               	iorwf	___lwdiv@divisor+1,w
  2015  0E77  1903               	btfsc	3,2
  2016  0E78  2E7A               	goto	u2711
  2017  0E79  2E7B               	goto	u2710
  2018  0E7A                     u2711:
  2019  0E7A  2EB2               	goto	l2140
  2020  0E7B                     u2710:
  2021  0E7B                     l2122:
  2022  0E7B  01A4               	clrf	___lwdiv@counter
  2023  0E7C  0AA4               	incf	___lwdiv@counter,f
  2024  0E7D  2E89               	goto	l2128
  2025  0E7E                     l2124:
  2026  0E7E  3001               	movlw	1
  2027  0E7F                     u2725:
  2028  0E7F  1003               	clrc
  2029  0E80  0DA0               	rlf	___lwdiv@divisor,f
  2030  0E81  0DA1               	rlf	___lwdiv@divisor+1,f
  2031  0E82  3EFF               	addlw	-1
  2032  0E83  1D03               	skipz
  2033  0E84  2E7F               	goto	u2725
  2034  0E85                     l2126:
  2035  0E85  3001               	movlw	1
  2036  0E86  00F4               	movwf	??___lwdiv
  2037  0E87  0874               	movf	??___lwdiv,w
  2038  0E88  07A4               	addwf	___lwdiv@counter,f
  2039  0E89                     l2128:
  2040  0E89  1FA1               	btfss	___lwdiv@divisor+1,7
  2041  0E8A  2E8C               	goto	u2731
  2042  0E8B  2E8D               	goto	u2730
  2043  0E8C                     u2731:
  2044  0E8C  2E7E               	goto	l2124
  2045  0E8D                     u2730:
  2046  0E8D                     l2130:
  2047  0E8D  3001               	movlw	1
  2048  0E8E                     u2745:
  2049  0E8E  1003               	clrc
  2050  0E8F  0DA5               	rlf	___lwdiv@quotient,f
  2051  0E90  0DA6               	rlf	___lwdiv@quotient+1,f
  2052  0E91  3EFF               	addlw	-1
  2053  0E92  1D03               	skipz
  2054  0E93  2E8E               	goto	u2745
  2055  0E94  0821               	movf	___lwdiv@divisor+1,w
  2056  0E95  0223               	subwf	___lwdiv@dividend+1,w
  2057  0E96  1D03               	skipz
  2058  0E97  2E9A               	goto	u2755
  2059  0E98  0820               	movf	___lwdiv@divisor,w
  2060  0E99  0222               	subwf	___lwdiv@dividend,w
  2061  0E9A                     u2755:
  2062  0E9A  1C03               	skipc
  2063  0E9B  2E9D               	goto	u2751
  2064  0E9C  2E9E               	goto	u2750
  2065  0E9D                     u2751:
  2066  0E9D  2EA5               	goto	l2136
  2067  0E9E                     u2750:
  2068  0E9E                     l2132:
  2069  0E9E  0820               	movf	___lwdiv@divisor,w
  2070  0E9F  02A2               	subwf	___lwdiv@dividend,f
  2071  0EA0  0821               	movf	___lwdiv@divisor+1,w
  2072  0EA1  1C03               	skipc
  2073  0EA2  03A3               	decf	___lwdiv@dividend+1,f
  2074  0EA3  02A3               	subwf	___lwdiv@dividend+1,f
  2075  0EA4                     l2134:
  2076  0EA4  1425               	bsf	___lwdiv@quotient,0
  2077  0EA5                     l2136:
  2078  0EA5  3001               	movlw	1
  2079  0EA6                     u2765:
  2080  0EA6  1003               	clrc
  2081  0EA7  0CA1               	rrf	___lwdiv@divisor+1,f
  2082  0EA8  0CA0               	rrf	___lwdiv@divisor,f
  2083  0EA9  3EFF               	addlw	-1
  2084  0EAA  1D03               	skipz
  2085  0EAB  2EA6               	goto	u2765
  2086  0EAC                     l2138:
  2087  0EAC  3001               	movlw	1
  2088  0EAD  02A4               	subwf	___lwdiv@counter,f
  2089  0EAE  1D03               	btfss	3,2
  2090  0EAF  2EB1               	goto	u2771
  2091  0EB0  2EB2               	goto	u2770
  2092  0EB1                     u2771:
  2093  0EB1  2E8D               	goto	l2130
  2094  0EB2                     u2770:
  2095  0EB2                     l2140:
  2096  0EB2  0826               	movf	___lwdiv@quotient+1,w
  2097  0EB3  00A1               	movwf	?___lwdiv+1
  2098  0EB4  0825               	movf	___lwdiv@quotient,w
  2099  0EB5  00A0               	movwf	?___lwdiv
  2100  0EB6                     l497:
  2101  0EB6  0008               	return
  2102  0EB7                     __end_of___lwdiv:
  2103                           
  2104                           	psect	text8
  2105  06D7                     __ptext8:	
  2106 ;; *************** function ___xxtofl *****************
  2107 ;; Defined at:
  2108 ;;		line 10 in file "C:\Program Files\Microchip\xc8\v2.31\pic\sources\c90\common\xxtofl.c"
  2109 ;; Parameters:    Size  Location     Type
  2110 ;;  sign            1    wreg     unsigned char 
  2111 ;;  val             4    0[BANK0 ] long 
  2112 ;; Auto vars:     Size  Location     Type
  2113 ;;  sign            1    8[BANK0 ] unsigned char 
  2114 ;;  arg             4   10[BANK0 ] unsigned long 
  2115 ;;  exp             1    9[BANK0 ] unsigned char 
  2116 ;; Return value:  Size  Location     Type
  2117 ;;                  4    0[BANK0 ] unsigned char 
  2118 ;; Registers used:
  2119 ;;		wreg, status,2, status,0
  2120 ;; Tracked objects:
  2121 ;;		On entry : 0/0
  2122 ;;		On exit  : 0/0
  2123 ;;		Unchanged: 0/0
  2124 ;; Data sizes:     COMMON   BANK0   BANK1   BANK3   BANK2
  2125 ;;      Params:         0       4       0       0       0
  2126 ;;      Locals:         0       6       0       0       0
  2127 ;;      Temps:          0       4       0       0       0
  2128 ;;      Totals:         0      14       0       0       0
  2129 ;;Total ram usage:       14 bytes
  2130 ;; Hardware stack levels used:    1
  2131 ;; Hardware stack levels required when called:    3
  2132 ;; This function calls:
  2133 ;;		Nothing
  2134 ;; This function is called by:
  2135 ;;		_main
  2136 ;; This function uses a non-reentrant model
  2137 ;;
  2138                           
  2139                           
  2140                           ;psect for function ___xxtofl
  2141  06D7                     ___xxtofl:
  2142                           
  2143                           ;incstack = 0
  2144                           ; Regs used in ___xxtofl: [wreg+status,2+status,0]
  2145                           ;___xxtofl@sign stored from wreg
  2146  06D7  1283               	bcf	3,5	;RP0=0, select bank0
  2147  06D8  1303               	bcf	3,6	;RP1=0, select bank0
  2148  06D9  00A8               	movwf	___xxtofl@sign
  2149  06DA                     l2486:
  2150  06DA  0828               	movf	___xxtofl@sign,w
  2151  06DB  1903               	btfsc	3,2
  2152  06DC  2EDE               	goto	u3521
  2153  06DD  2EDF               	goto	u3520
  2154  06DE                     u3521:
  2155  06DE  2EF3               	goto	l2492
  2156  06DF                     u3520:
  2157  06DF                     l2488:
  2158  06DF  1FA3               	btfss	___xxtofl@val+3,7
  2159  06E0  2EE2               	goto	u3531
  2160  06E1  2EE3               	goto	u3530
  2161  06E2                     u3531:
  2162  06E2  2EF3               	goto	l2492
  2163  06E3                     u3530:
  2164  06E3                     l2490:
  2165  06E3  0920               	comf	___xxtofl@val,w
  2166  06E4  00AA               	movwf	___xxtofl@arg
  2167  06E5  0921               	comf	___xxtofl@val+1,w
  2168  06E6  00AB               	movwf	___xxtofl@arg+1
  2169  06E7  0922               	comf	___xxtofl@val+2,w
  2170  06E8  00AC               	movwf	___xxtofl@arg+2
  2171  06E9  0923               	comf	___xxtofl@val+3,w
  2172  06EA  00AD               	movwf	___xxtofl@arg+3
  2173  06EB  0AAA               	incf	___xxtofl@arg,f
  2174  06EC  1903               	skipnz
  2175  06ED  0AAB               	incf	___xxtofl@arg+1,f
  2176  06EE  1903               	skipnz
  2177  06EF  0AAC               	incf	___xxtofl@arg+2,f
  2178  06F0  1903               	skipnz
  2179  06F1  0AAD               	incf	___xxtofl@arg+3,f
  2180  06F2  2EFB               	goto	l658
  2181  06F3                     l2492:
  2182  06F3  0823               	movf	___xxtofl@val+3,w
  2183  06F4  00AD               	movwf	___xxtofl@arg+3
  2184  06F5  0822               	movf	___xxtofl@val+2,w
  2185  06F6  00AC               	movwf	___xxtofl@arg+2
  2186  06F7  0821               	movf	___xxtofl@val+1,w
  2187  06F8  00AB               	movwf	___xxtofl@arg+1
  2188  06F9  0820               	movf	___xxtofl@val,w
  2189  06FA  00AA               	movwf	___xxtofl@arg
  2190  06FB                     l658:
  2191  06FB  0823               	movf	___xxtofl@val+3,w
  2192  06FC  0422               	iorwf	___xxtofl@val+2,w
  2193  06FD  0421               	iorwf	___xxtofl@val+1,w
  2194  06FE  0420               	iorwf	___xxtofl@val,w
  2195  06FF  1D03               	skipz
  2196  0700  2F02               	goto	u3541
  2197  0701  2F03               	goto	u3540
  2198  0702                     u3541:
  2199  0702  2F0C               	goto	l2498
  2200  0703                     u3540:
  2201  0703                     l2494:
  2202  0703  3000               	movlw	0
  2203  0704  00A3               	movwf	?___xxtofl+3
  2204  0705  3000               	movlw	0
  2205  0706  00A2               	movwf	?___xxtofl+2
  2206  0707  3000               	movlw	0
  2207  0708  00A1               	movwf	?___xxtofl+1
  2208  0709  3000               	movlw	0
  2209  070A  00A0               	movwf	?___xxtofl
  2210  070B  2F92               	goto	l660
  2211  070C                     l2498:
  2212  070C  3096               	movlw	150
  2213  070D  00A4               	movwf	??___xxtofl
  2214  070E  0824               	movf	??___xxtofl,w
  2215  070F  00A9               	movwf	___xxtofl@exp
  2216  0710  2F1E               	goto	l2502
  2217  0711                     l2500:
  2218  0711  3001               	movlw	1
  2219  0712  00A4               	movwf	??___xxtofl
  2220  0713  0824               	movf	??___xxtofl,w
  2221  0714  07A9               	addwf	___xxtofl@exp,f
  2222  0715  3001               	movlw	1
  2223  0716                     u3555:
  2224  0716  1003               	clrc
  2225  0717  0CAD               	rrf	___xxtofl@arg+3,f
  2226  0718  0CAC               	rrf	___xxtofl@arg+2,f
  2227  0719  0CAB               	rrf	___xxtofl@arg+1,f
  2228  071A  0CAA               	rrf	___xxtofl@arg,f
  2229  071B  3EFF               	addlw	-1
  2230  071C  1D03               	skipz
  2231  071D  2F16               	goto	u3555
  2232  071E                     l2502:
  2233  071E  30FE               	movlw	254
  2234  071F  052D               	andwf	___xxtofl@arg+3,w
  2235  0720  1D03               	btfss	3,2
  2236  0721  2F23               	goto	u3561
  2237  0722  2F24               	goto	u3560
  2238  0723                     u3561:
  2239  0723  2F11               	goto	l2500
  2240  0724                     u3560:
  2241  0724  2F40               	goto	l664
  2242  0725                     l2504:
  2243  0725  3001               	movlw	1
  2244  0726  00A4               	movwf	??___xxtofl
  2245  0727  0824               	movf	??___xxtofl,w
  2246  0728  07A9               	addwf	___xxtofl@exp,f
  2247  0729                     l2506:
  2248  0729  3001               	movlw	1
  2249  072A  07AA               	addwf	___xxtofl@arg,f
  2250  072B  3000               	movlw	0
  2251  072C  1803               	skipnc
  2252  072D  3001               	movlw	1
  2253  072E  07AB               	addwf	___xxtofl@arg+1,f
  2254  072F  3000               	movlw	0
  2255  0730  1803               	skipnc
  2256  0731  3001               	movlw	1
  2257  0732  07AC               	addwf	___xxtofl@arg+2,f
  2258  0733  3000               	movlw	0
  2259  0734  1803               	skipnc
  2260  0735  3001               	movlw	1
  2261  0736  07AD               	addwf	___xxtofl@arg+3,f
  2262  0737                     l2508:
  2263  0737  3001               	movlw	1
  2264  0738                     u3575:
  2265  0738  1003               	clrc
  2266  0739  0CAD               	rrf	___xxtofl@arg+3,f
  2267  073A  0CAC               	rrf	___xxtofl@arg+2,f
  2268  073B  0CAB               	rrf	___xxtofl@arg+1,f
  2269  073C  0CAA               	rrf	___xxtofl@arg,f
  2270  073D  3EFF               	addlw	-1
  2271  073E  1D03               	skipz
  2272  073F  2F38               	goto	u3575
  2273  0740                     l664:
  2274  0740  30FF               	movlw	255
  2275  0741  052D               	andwf	___xxtofl@arg+3,w
  2276  0742  1D03               	btfss	3,2
  2277  0743  2F45               	goto	u3581
  2278  0744  2F46               	goto	u3580
  2279  0745                     u3581:
  2280  0745  2F25               	goto	l2504
  2281  0746                     u3580:
  2282  0746  2F52               	goto	l2512
  2283  0747                     l2510:
  2284  0747  3001               	movlw	1
  2285  0748  02A9               	subwf	___xxtofl@exp,f
  2286  0749  3001               	movlw	1
  2287  074A  00A4               	movwf	??___xxtofl
  2288  074B                     u3595:
  2289  074B  1003               	clrc
  2290  074C  0DAA               	rlf	___xxtofl@arg,f
  2291  074D  0DAB               	rlf	___xxtofl@arg+1,f
  2292  074E  0DAC               	rlf	___xxtofl@arg+2,f
  2293  074F  0DAD               	rlf	___xxtofl@arg+3,f
  2294  0750  0BA4               	decfsz	??___xxtofl,f
  2295  0751  2F4B               	goto	u3595
  2296  0752                     l2512:
  2297  0752  1BAC               	btfsc	___xxtofl@arg+2,7
  2298  0753  2F55               	goto	u3601
  2299  0754  2F56               	goto	u3600
  2300  0755                     u3601:
  2301  0755  2F5C               	goto	l671
  2302  0756                     u3600:
  2303  0756                     l2514:
  2304  0756  3002               	movlw	2
  2305  0757  0229               	subwf	___xxtofl@exp,w
  2306  0758  1803               	skipnc
  2307  0759  2F5B               	goto	u3611
  2308  075A  2F5C               	goto	u3610
  2309  075B                     u3611:
  2310  075B  2F47               	goto	l2510
  2311  075C                     u3610:
  2312  075C                     l671:
  2313  075C  1829               	btfsc	___xxtofl@exp,0
  2314  075D  2F5F               	goto	u3621
  2315  075E  2F60               	goto	u3620
  2316  075F                     u3621:
  2317  075F  2F68               	goto	l672
  2318  0760                     u3620:
  2319  0760                     l2516:
  2320  0760  30FF               	movlw	255
  2321  0761  05AA               	andwf	___xxtofl@arg,f
  2322  0762  30FF               	movlw	255
  2323  0763  05AB               	andwf	___xxtofl@arg+1,f
  2324  0764  307F               	movlw	127
  2325  0765  05AC               	andwf	___xxtofl@arg+2,f
  2326  0766  30FF               	movlw	255
  2327  0767  05AD               	andwf	___xxtofl@arg+3,f
  2328  0768                     l672:
  2329  0768  1003               	clrc
  2330  0769  0CA9               	rrf	___xxtofl@exp,f
  2331  076A                     l2518:
  2332  076A  0829               	movf	___xxtofl@exp,w
  2333  076B  00A4               	movwf	??___xxtofl
  2334  076C  01A5               	clrf	??___xxtofl+1
  2335  076D  01A6               	clrf	??___xxtofl+2
  2336  076E  01A7               	clrf	??___xxtofl+3
  2337  076F  3018               	movlw	24
  2338  0770                     u3635:
  2339  0770  1003               	clrc
  2340  0771  0DA4               	rlf	??___xxtofl,f
  2341  0772  0DA5               	rlf	??___xxtofl+1,f
  2342  0773  0DA6               	rlf	??___xxtofl+2,f
  2343  0774  0DA7               	rlf	??___xxtofl+3,f
  2344  0775                     u3630:
  2345  0775  3EFF               	addlw	-1
  2346  0776  1D03               	skipz
  2347  0777  2F70               	goto	u3635
  2348  0778  0824               	movf	??___xxtofl,w
  2349  0779  04AA               	iorwf	___xxtofl@arg,f
  2350  077A  0825               	movf	??___xxtofl+1,w
  2351  077B  04AB               	iorwf	___xxtofl@arg+1,f
  2352  077C  0826               	movf	??___xxtofl+2,w
  2353  077D  04AC               	iorwf	___xxtofl@arg+2,f
  2354  077E  0827               	movf	??___xxtofl+3,w
  2355  077F  04AD               	iorwf	___xxtofl@arg+3,f
  2356  0780                     l2520:
  2357  0780  0828               	movf	___xxtofl@sign,w
  2358  0781  1903               	btfsc	3,2
  2359  0782  2F84               	goto	u3641
  2360  0783  2F85               	goto	u3640
  2361  0784                     u3641:
  2362  0784  2F8A               	goto	l2526
  2363  0785                     u3640:
  2364  0785                     l2522:
  2365  0785  1FA3               	btfss	___xxtofl@val+3,7
  2366  0786  2F88               	goto	u3651
  2367  0787  2F89               	goto	u3650
  2368  0788                     u3651:
  2369  0788  2F8A               	goto	l2526
  2370  0789                     u3650:
  2371  0789                     l2524:
  2372  0789  17AD               	bsf	___xxtofl@arg+3,7
  2373  078A                     l2526:
  2374  078A  082D               	movf	___xxtofl@arg+3,w
  2375  078B  00A3               	movwf	?___xxtofl+3
  2376  078C  082C               	movf	___xxtofl@arg+2,w
  2377  078D  00A2               	movwf	?___xxtofl+2
  2378  078E  082B               	movf	___xxtofl@arg+1,w
  2379  078F  00A1               	movwf	?___xxtofl+1
  2380  0790  082A               	movf	___xxtofl@arg,w
  2381  0791  00A0               	movwf	?___xxtofl
  2382  0792                     l660:
  2383  0792  0008               	return
  2384  0793                     __end_of___xxtofl:
  2385                           
  2386                           	psect	text9
  2387  0F84                     __ptext9:	
  2388 ;; *************** function ___fltol *****************
  2389 ;; Defined at:
  2390 ;;		line 43 in file "C:\Program Files\Microchip\xc8\v2.31\pic\sources\c90\common\fltol.c"
  2391 ;; Parameters:    Size  Location     Type
  2392 ;;  f1              4   40[BANK0 ] unsigned char 
  2393 ;; Auto vars:     Size  Location     Type
  2394 ;;  exp1            1   50[BANK0 ] unsigned char 
  2395 ;;  sign1           1   49[BANK0 ] unsigned char 
  2396 ;; Return value:  Size  Location     Type
  2397 ;;                  4   40[BANK0 ] long 
  2398 ;; Registers used:
  2399 ;;		wreg, status,2, status,0
  2400 ;; Tracked objects:
  2401 ;;		On entry : 0/0
  2402 ;;		On exit  : 0/0
  2403 ;;		Unchanged: 0/0
  2404 ;; Data sizes:     COMMON   BANK0   BANK1   BANK3   BANK2
  2405 ;;      Params:         0       4       0       0       0
  2406 ;;      Locals:         0       2       0       0       0
  2407 ;;      Temps:          0       5       0       0       0
  2408 ;;      Totals:         0      11       0       0       0
  2409 ;;Total ram usage:       11 bytes
  2410 ;; Hardware stack levels used:    1
  2411 ;; Hardware stack levels required when called:    3
  2412 ;; This function calls:
  2413 ;;		Nothing
  2414 ;; This function is called by:
  2415 ;;		_main
  2416 ;; This function uses a non-reentrant model
  2417 ;;
  2418                           
  2419                           
  2420                           ;psect for function ___fltol
  2421  0F84                     ___fltol:
  2422  0F84                     l2310:	
  2423                           ;incstack = 0
  2424                           ; Regs used in ___fltol: [wreg+status,2+status,0]
  2425                           
  2426  0F84  1003               	clrc
  2427  0F85  1283               	bcf	3,5	;RP0=0, select bank0
  2428  0F86  1303               	bcf	3,6	;RP1=0, select bank0
  2429  0F87  0D4A               	rlf	___fltol@f1+2,w
  2430  0F88  0D4B               	rlf	___fltol@f1+3,w
  2431  0F89  00CC               	movwf	??___fltol
  2432  0F8A  084C               	movf	??___fltol,w
  2433  0F8B  00D2               	movwf	___fltol@exp1
  2434  0F8C  0852               	movf	___fltol@exp1,w
  2435  0F8D  1D03               	btfss	3,2
  2436  0F8E  2F90               	goto	u3051
  2437  0F8F  2F91               	goto	u3050
  2438  0F90                     u3051:
  2439  0F90  2F9A               	goto	l2316
  2440  0F91                     u3050:
  2441  0F91                     l2312:
  2442  0F91  3000               	movlw	0
  2443  0F92  00CB               	movwf	?___fltol+3
  2444  0F93  3000               	movlw	0
  2445  0F94  00CA               	movwf	?___fltol+2
  2446  0F95  3000               	movlw	0
  2447  0F96  00C9               	movwf	?___fltol+1
  2448  0F97  3000               	movlw	0
  2449  0F98  00C8               	movwf	?___fltol
  2450  0F99  2FFF               	goto	l411
  2451  0F9A                     l2316:
  2452  0F9A  0848               	movf	___fltol@f1,w
  2453  0F9B  00CC               	movwf	??___fltol
  2454  0F9C  0849               	movf	___fltol@f1+1,w
  2455  0F9D  00CD               	movwf	??___fltol+1
  2456  0F9E  084A               	movf	___fltol@f1+2,w
  2457  0F9F  00CE               	movwf	??___fltol+2
  2458  0FA0  084B               	movf	___fltol@f1+3,w
  2459  0FA1  00CF               	movwf	??___fltol+3
  2460  0FA2  301F               	movlw	31
  2461  0FA3                     u3065:
  2462  0FA3  1003               	clrc
  2463  0FA4  0CCF               	rrf	??___fltol+3,f
  2464  0FA5  0CCE               	rrf	??___fltol+2,f
  2465  0FA6  0CCD               	rrf	??___fltol+1,f
  2466  0FA7  0CCC               	rrf	??___fltol,f
  2467  0FA8                     u3060:
  2468  0FA8  3EFF               	addlw	-1
  2469  0FA9  1D03               	skipz
  2470  0FAA  2FA3               	goto	u3065
  2471  0FAB  084C               	movf	??___fltol,w
  2472  0FAC  00D0               	movwf	??___fltol+4
  2473  0FAD  0850               	movf	??___fltol+4,w
  2474  0FAE  00D1               	movwf	___fltol@sign1
  2475  0FAF                     l2318:
  2476  0FAF  17CA               	bsf	___fltol@f1+2,7
  2477  0FB0                     l2320:
  2478  0FB0  30FF               	movlw	255
  2479  0FB1  05C8               	andwf	___fltol@f1,f
  2480  0FB2  30FF               	movlw	255
  2481  0FB3  05C9               	andwf	___fltol@f1+1,f
  2482  0FB4  30FF               	movlw	255
  2483  0FB5  05CA               	andwf	___fltol@f1+2,f
  2484  0FB6  3000               	movlw	0
  2485  0FB7  05CB               	andwf	___fltol@f1+3,f
  2486  0FB8                     l2322:
  2487  0FB8  3096               	movlw	150
  2488  0FB9  02D2               	subwf	___fltol@exp1,f
  2489  0FBA                     l2324:
  2490  0FBA  1FD2               	btfss	___fltol@exp1,7
  2491  0FBB  2FBD               	goto	u3071
  2492  0FBC  2FBE               	goto	u3070
  2493  0FBD                     u3071:
  2494  0FBD  2FD8               	goto	l2334
  2495  0FBE                     u3070:
  2496  0FBE                     l2326:
  2497  0FBE  0852               	movf	___fltol@exp1,w
  2498  0FBF  3A80               	xorlw	128
  2499  0FC0  3E97               	addlw	151
  2500  0FC1  1803               	skipnc
  2501  0FC2  2FC4               	goto	u3081
  2502  0FC3  2FC5               	goto	u3080
  2503  0FC4                     u3081:
  2504  0FC4  2FC6               	goto	l2332
  2505  0FC5                     u3080:
  2506  0FC5  2F91               	goto	l2312
  2507  0FC6                     l2332:
  2508  0FC6  3001               	movlw	1
  2509  0FC7                     u3095:
  2510  0FC7  1003               	clrc
  2511  0FC8  0CCB               	rrf	___fltol@f1+3,f
  2512  0FC9  0CCA               	rrf	___fltol@f1+2,f
  2513  0FCA  0CC9               	rrf	___fltol@f1+1,f
  2514  0FCB  0CC8               	rrf	___fltol@f1,f
  2515  0FCC  3EFF               	addlw	-1
  2516  0FCD  1D03               	skipz
  2517  0FCE  2FC7               	goto	u3095
  2518  0FCF  3001               	movlw	1
  2519  0FD0  00CC               	movwf	??___fltol
  2520  0FD1  084C               	movf	??___fltol,w
  2521  0FD2  07D2               	addwf	___fltol@exp1,f
  2522  0FD3  1D03               	btfss	3,2
  2523  0FD4  2FD6               	goto	u3101
  2524  0FD5  2FD7               	goto	u3100
  2525  0FD6                     u3101:
  2526  0FD6  2FC6               	goto	l2332
  2527  0FD7                     u3100:
  2528  0FD7  2FEF               	goto	l2342
  2529  0FD8                     l2334:
  2530  0FD8  3020               	movlw	32
  2531  0FD9  0252               	subwf	___fltol@exp1,w
  2532  0FDA  1C03               	skipc
  2533  0FDB  2FDD               	goto	u3111
  2534  0FDC  2FDE               	goto	u3110
  2535  0FDD                     u3111:
  2536  0FDD  2FEA               	goto	l418
  2537  0FDE                     u3110:
  2538  0FDE  2F91               	goto	l2312
  2539  0FDF                     l2340:
  2540  0FDF  3001               	movlw	1
  2541  0FE0  00CC               	movwf	??___fltol
  2542  0FE1                     u3125:
  2543  0FE1  1003               	clrc
  2544  0FE2  0DC8               	rlf	___fltol@f1,f
  2545  0FE3  0DC9               	rlf	___fltol@f1+1,f
  2546  0FE4  0DCA               	rlf	___fltol@f1+2,f
  2547  0FE5  0DCB               	rlf	___fltol@f1+3,f
  2548  0FE6  0BCC               	decfsz	??___fltol,f
  2549  0FE7  2FE1               	goto	u3125
  2550  0FE8  3001               	movlw	1
  2551  0FE9  02D2               	subwf	___fltol@exp1,f
  2552  0FEA                     l418:
  2553  0FEA  0852               	movf	___fltol@exp1,w
  2554  0FEB  1D03               	btfss	3,2
  2555  0FEC  2FEE               	goto	u3131
  2556  0FED  2FEF               	goto	u3130
  2557  0FEE                     u3131:
  2558  0FEE  2FDF               	goto	l2340
  2559  0FEF                     u3130:
  2560  0FEF                     l2342:
  2561  0FEF  0851               	movf	___fltol@sign1,w
  2562  0FF0  1903               	btfsc	3,2
  2563  0FF1  2FF3               	goto	u3141
  2564  0FF2  2FF4               	goto	u3140
  2565  0FF3                     u3141:
  2566  0FF3  2FFF               	goto	l421
  2567  0FF4                     u3140:
  2568  0FF4                     l2344:
  2569  0FF4  09C8               	comf	___fltol@f1,f
  2570  0FF5  09C9               	comf	___fltol@f1+1,f
  2571  0FF6  09CA               	comf	___fltol@f1+2,f
  2572  0FF7  09CB               	comf	___fltol@f1+3,f
  2573  0FF8  0AC8               	incf	___fltol@f1,f
  2574  0FF9  1903               	skipnz
  2575  0FFA  0AC9               	incf	___fltol@f1+1,f
  2576  0FFB  1903               	skipnz
  2577  0FFC  0ACA               	incf	___fltol@f1+2,f
  2578  0FFD  1903               	skipnz
  2579  0FFE  0ACB               	incf	___fltol@f1+3,f
  2580  0FFF                     l421:
  2581  0FFF                     l411:
  2582  0FFF  0008               	return
  2583  1000                     __end_of___fltol:
  2584                           
  2585                           	psect	text10
  2586  0028                     __ptext10:	
  2587 ;; *************** function ___flmul *****************
  2588 ;; Defined at:
  2589 ;;		line 8 in file "C:\Program Files\Microchip\xc8\v2.31\pic\sources\c90\common\sprcmul.c"
  2590 ;; Parameters:    Size  Location     Type
  2591 ;;  b               4   14[BANK0 ] long 
  2592 ;;  a               4   18[BANK0 ] long 
  2593 ;; Auto vars:     Size  Location     Type
  2594 ;;  prod            4   34[BANK0 ] struct .
  2595 ;;  grs             4   29[BANK0 ] unsigned long 
  2596 ;;  temp            2   38[BANK0 ] struct .
  2597 ;;  bexp            1   33[BANK0 ] unsigned char 
  2598 ;;  aexp            1   28[BANK0 ] unsigned char 
  2599 ;;  sign            1   27[BANK0 ] unsigned char 
  2600 ;; Return value:  Size  Location     Type
  2601 ;;                  4   14[BANK0 ] unsigned char 
  2602 ;; Registers used:
  2603 ;;		wreg, status,2, status,0, btemp+1, pclath, cstack
  2604 ;; Tracked objects:
  2605 ;;		On entry : 0/0
  2606 ;;		On exit  : 0/0
  2607 ;;		Unchanged: 0/0
  2608 ;; Data sizes:     COMMON   BANK0   BANK1   BANK3   BANK2
  2609 ;;      Params:         0       8       0       0       0
  2610 ;;      Locals:         0      13       0       0       0
  2611 ;;      Temps:          0       5       0       0       0
  2612 ;;      Totals:         0      26       0       0       0
  2613 ;;Total ram usage:       26 bytes
  2614 ;; Hardware stack levels used:    1
  2615 ;; Hardware stack levels required when called:    4
  2616 ;; This function calls:
  2617 ;;		__Umul8_16
  2618 ;; This function is called by:
  2619 ;;		_main
  2620 ;; This function uses a non-reentrant model
  2621 ;;
  2622                           
  2623                           
  2624                           ;psect for function ___flmul
  2625  0028                     ___flmul:
  2626  0028                     l2346:	
  2627                           ;incstack = 0
  2628                           ; Regs used in ___flmul: [wreg+status,2+status,0+btemp+1+pclath+cstack]
  2629                           
  2630  0028  1283               	bcf	3,5	;RP0=0, select bank0
  2631  0029  1303               	bcf	3,6	;RP1=0, select bank0
  2632  002A  0831               	movf	___flmul@b+3,w
  2633  002B  3980               	andlw	128
  2634  002C  00B6               	movwf	??___flmul
  2635  002D  0836               	movf	??___flmul,w
  2636  002E  00BB               	movwf	___flmul@sign
  2637  002F                     l2348:
  2638  002F  0831               	movf	___flmul@b+3,w
  2639  0030  00B6               	movwf	??___flmul
  2640  0031  0736               	addwf	??___flmul,w
  2641  0032  00B7               	movwf	??___flmul+1
  2642  0033  0837               	movf	??___flmul+1,w
  2643  0034  00C1               	movwf	___flmul@bexp
  2644  0035                     l2350:
  2645  0035  1FB0               	btfss	___flmul@b+2,7
  2646  0036  2838               	goto	u3151
  2647  0037  2839               	goto	u3150
  2648  0038                     u3151:
  2649  0038  283A               	goto	l2354
  2650  0039                     u3150:
  2651  0039                     l2352:
  2652  0039  1441               	bsf	___flmul@bexp,0
  2653  003A                     l2354:
  2654  003A  0841               	movf	___flmul@bexp,w
  2655  003B  1903               	btfsc	3,2
  2656  003C  283E               	goto	u3161
  2657  003D  283F               	goto	u3160
  2658  003E                     u3161:
  2659  003E  284E               	goto	l2362
  2660  003F                     u3160:
  2661  003F                     l2356:
  2662  003F  0A41               	incf	___flmul@bexp,w
  2663  0040  1D03               	btfss	3,2
  2664  0041  2843               	goto	u3171
  2665  0042  2844               	goto	u3170
  2666  0043                     u3171:
  2667  0043  284C               	goto	l2360
  2668  0044                     u3170:
  2669  0044                     l2358:
  2670  0044  3000               	movlw	0
  2671  0045  00B1               	movwf	___flmul@b+3
  2672  0046  3000               	movlw	0
  2673  0047  00B0               	movwf	___flmul@b+2
  2674  0048  3000               	movlw	0
  2675  0049  00AF               	movwf	___flmul@b+1
  2676  004A  3000               	movlw	0
  2677  004B  00AE               	movwf	___flmul@b
  2678  004C                     l2360:
  2679  004C  17B0               	bsf	___flmul@b+2,7
  2680  004D  2856               	goto	l2364
  2681  004E                     l2362:
  2682  004E  3000               	movlw	0
  2683  004F  00B1               	movwf	___flmul@b+3
  2684  0050  3000               	movlw	0
  2685  0051  00B0               	movwf	___flmul@b+2
  2686  0052  3000               	movlw	0
  2687  0053  00AF               	movwf	___flmul@b+1
  2688  0054  3000               	movlw	0
  2689  0055  00AE               	movwf	___flmul@b
  2690  0056                     l2364:
  2691  0056  0835               	movf	___flmul@a+3,w
  2692  0057  3980               	andlw	128
  2693  0058  00B6               	movwf	??___flmul
  2694  0059  0836               	movf	??___flmul,w
  2695  005A  06BB               	xorwf	___flmul@sign,f
  2696  005B                     l2366:
  2697  005B  0835               	movf	___flmul@a+3,w
  2698  005C  00B6               	movwf	??___flmul
  2699  005D  0736               	addwf	??___flmul,w
  2700  005E  00B7               	movwf	??___flmul+1
  2701  005F  0837               	movf	??___flmul+1,w
  2702  0060  00BC               	movwf	___flmul@aexp
  2703  0061                     l2368:
  2704  0061  1FB4               	btfss	___flmul@a+2,7
  2705  0062  2864               	goto	u3181
  2706  0063  2865               	goto	u3180
  2707  0064                     u3181:
  2708  0064  2866               	goto	l2372
  2709  0065                     u3180:
  2710  0065                     l2370:
  2711  0065  143C               	bsf	___flmul@aexp,0
  2712  0066                     l2372:
  2713  0066  083C               	movf	___flmul@aexp,w
  2714  0067  1903               	btfsc	3,2
  2715  0068  286A               	goto	u3191
  2716  0069  286B               	goto	u3190
  2717  006A                     u3191:
  2718  006A  287A               	goto	l2380
  2719  006B                     u3190:
  2720  006B                     l2374:
  2721  006B  0A3C               	incf	___flmul@aexp,w
  2722  006C  1D03               	btfss	3,2
  2723  006D  286F               	goto	u3201
  2724  006E  2870               	goto	u3200
  2725  006F                     u3201:
  2726  006F  2878               	goto	l2378
  2727  0070                     u3200:
  2728  0070                     l2376:
  2729  0070  3000               	movlw	0
  2730  0071  00B5               	movwf	___flmul@a+3
  2731  0072  3000               	movlw	0
  2732  0073  00B4               	movwf	___flmul@a+2
  2733  0074  3000               	movlw	0
  2734  0075  00B3               	movwf	___flmul@a+1
  2735  0076  3000               	movlw	0
  2736  0077  00B2               	movwf	___flmul@a
  2737  0078                     l2378:
  2738  0078  17B4               	bsf	___flmul@a+2,7
  2739  0079  2882               	goto	l2382
  2740  007A                     l2380:
  2741  007A  3000               	movlw	0
  2742  007B  00B5               	movwf	___flmul@a+3
  2743  007C  3000               	movlw	0
  2744  007D  00B4               	movwf	___flmul@a+2
  2745  007E  3000               	movlw	0
  2746  007F  00B3               	movwf	___flmul@a+1
  2747  0080  3000               	movlw	0
  2748  0081  00B2               	movwf	___flmul@a
  2749  0082                     l2382:
  2750  0082  083C               	movf	___flmul@aexp,w
  2751  0083  1903               	btfsc	3,2
  2752  0084  2886               	goto	u3211
  2753  0085  2887               	goto	u3210
  2754  0086                     u3211:
  2755  0086  288C               	goto	l2386
  2756  0087                     u3210:
  2757  0087                     l2384:
  2758  0087  0841               	movf	___flmul@bexp,w
  2759  0088  1D03               	btfss	3,2
  2760  0089  288B               	goto	u3221
  2761  008A  288C               	goto	u3220
  2762  008B                     u3221:
  2763  008B  2895               	goto	l2390
  2764  008C                     u3220:
  2765  008C                     l2386:
  2766  008C  3000               	movlw	0
  2767  008D  00B1               	movwf	?___flmul+3
  2768  008E  3000               	movlw	0
  2769  008F  00B0               	movwf	?___flmul+2
  2770  0090  3000               	movlw	0
  2771  0091  00AF               	movwf	?___flmul+1
  2772  0092  3000               	movlw	0
  2773  0093  00AE               	movwf	?___flmul
  2774  0094  2B88               	goto	l614
  2775  0095                     l2390:
  2776  0095  082E               	movf	___flmul@b,w
  2777  0096  00B6               	movwf	??___flmul
  2778  0097  0836               	movf	??___flmul,w
  2779  0098  00F4               	movwf	__Umul8_16@multiplicand
  2780  0099  0834               	movf	___flmul@a+2,w
  2781  009A  120A  158A  25E1  120A  118A  	fcall	__Umul8_16
  2782  009F  0875               	movf	?__Umul8_16+1,w
  2783  00A0  1283               	bcf	3,5	;RP0=0, select bank0
  2784  00A1  1303               	bcf	3,6	;RP1=0, select bank0
  2785  00A2  00C7               	movwf	___flmul@temp+1
  2786  00A3  0874               	movf	?__Umul8_16,w
  2787  00A4  00C6               	movwf	___flmul@temp
  2788  00A5                     l2392:
  2789  00A5  0846               	movf	___flmul@temp,w
  2790  00A6  00B6               	movwf	??___flmul
  2791  00A7  01B7               	clrf	??___flmul+1
  2792  00A8  01B8               	clrf	??___flmul+2
  2793  00A9  01B9               	clrf	??___flmul+3
  2794  00AA  0839               	movf	??___flmul+3,w
  2795  00AB  00C0               	movwf	___flmul@grs+3
  2796  00AC  0838               	movf	??___flmul+2,w
  2797  00AD  00BF               	movwf	___flmul@grs+2
  2798  00AE  0837               	movf	??___flmul+1,w
  2799  00AF  00BE               	movwf	___flmul@grs+1
  2800  00B0  0836               	movf	??___flmul,w
  2801  00B1  00BD               	movwf	___flmul@grs
  2802  00B2                     l2394:
  2803  00B2  0847               	movf	___flmul@temp+1,w
  2804  00B3  00B6               	movwf	??___flmul
  2805  00B4  01B7               	clrf	??___flmul+1
  2806  00B5  01B8               	clrf	??___flmul+2
  2807  00B6  01B9               	clrf	??___flmul+3
  2808  00B7  0839               	movf	??___flmul+3,w
  2809  00B8  00C5               	movwf	___flmul@prod+3
  2810  00B9  0838               	movf	??___flmul+2,w
  2811  00BA  00C4               	movwf	___flmul@prod+2
  2812  00BB  0837               	movf	??___flmul+1,w
  2813  00BC  00C3               	movwf	___flmul@prod+1
  2814  00BD  0836               	movf	??___flmul,w
  2815  00BE  00C2               	movwf	___flmul@prod
  2816  00BF  082F               	movf	___flmul@b+1,w
  2817  00C0  00B6               	movwf	??___flmul
  2818  00C1  0836               	movf	??___flmul,w
  2819  00C2  00F4               	movwf	__Umul8_16@multiplicand
  2820  00C3  0833               	movf	___flmul@a+1,w
  2821  00C4  120A  158A  25E1  120A  118A  	fcall	__Umul8_16
  2822  00C9  0875               	movf	?__Umul8_16+1,w
  2823  00CA  1283               	bcf	3,5	;RP0=0, select bank0
  2824  00CB  1303               	bcf	3,6	;RP1=0, select bank0
  2825  00CC  00C7               	movwf	___flmul@temp+1
  2826  00CD  0874               	movf	?__Umul8_16,w
  2827  00CE  00C6               	movwf	___flmul@temp
  2828  00CF                     l2396:
  2829  00CF  0846               	movf	___flmul@temp,w
  2830  00D0  00B6               	movwf	??___flmul
  2831  00D1  01B7               	clrf	??___flmul+1
  2832  00D2  01B8               	clrf	??___flmul+2
  2833  00D3  01B9               	clrf	??___flmul+3
  2834  00D4  0836               	movf	??___flmul,w
  2835  00D5  07BD               	addwf	___flmul@grs,f
  2836  00D6  0837               	movf	??___flmul+1,w
  2837  00D7  1103               	clrz
  2838  00D8  1803               	skipnc
  2839  00D9  3E01               	addlw	1
  2840  00DA  1903               	skipnz
  2841  00DB  28DD               	goto	u3231
  2842  00DC  07BE               	addwf	___flmul@grs+1,f
  2843  00DD                     u3231:
  2844  00DD  0838               	movf	??___flmul+2,w
  2845  00DE  1103               	clrz
  2846  00DF  1803               	skipnc
  2847  00E0  3E01               	addlw	1
  2848  00E1  1903               	skipnz
  2849  00E2  28E4               	goto	u3232
  2850  00E3  07BF               	addwf	___flmul@grs+2,f
  2851  00E4                     u3232:
  2852  00E4  0839               	movf	??___flmul+3,w
  2853  00E5  1103               	clrz
  2854  00E6  1803               	skipnc
  2855  00E7  3E01               	addlw	1
  2856  00E8  1903               	skipnz
  2857  00E9  28EB               	goto	u3233
  2858  00EA  07C0               	addwf	___flmul@grs+3,f
  2859  00EB                     u3233:
  2860  00EB                     l2398:
  2861  00EB  0847               	movf	___flmul@temp+1,w
  2862  00EC  00B6               	movwf	??___flmul
  2863  00ED  01B7               	clrf	??___flmul+1
  2864  00EE  01B8               	clrf	??___flmul+2
  2865  00EF  01B9               	clrf	??___flmul+3
  2866  00F0  0836               	movf	??___flmul,w
  2867  00F1  07C2               	addwf	___flmul@prod,f
  2868  00F2  0837               	movf	??___flmul+1,w
  2869  00F3  1103               	clrz
  2870  00F4  1803               	skipnc
  2871  00F5  3E01               	addlw	1
  2872  00F6  1903               	skipnz
  2873  00F7  28F9               	goto	u3241
  2874  00F8  07C3               	addwf	___flmul@prod+1,f
  2875  00F9                     u3241:
  2876  00F9  0838               	movf	??___flmul+2,w
  2877  00FA  1103               	clrz
  2878  00FB  1803               	skipnc
  2879  00FC  3E01               	addlw	1
  2880  00FD  1903               	skipnz
  2881  00FE  2900               	goto	u3242
  2882  00FF  07C4               	addwf	___flmul@prod+2,f
  2883  0100                     u3242:
  2884  0100  0839               	movf	??___flmul+3,w
  2885  0101  1103               	clrz
  2886  0102  1803               	skipnc
  2887  0103  3E01               	addlw	1
  2888  0104  1903               	skipnz
  2889  0105  2907               	goto	u3243
  2890  0106  07C5               	addwf	___flmul@prod+3,f
  2891  0107                     u3243:
  2892  0107  0830               	movf	___flmul@b+2,w
  2893  0108  00B6               	movwf	??___flmul
  2894  0109  0836               	movf	??___flmul,w
  2895  010A  00F4               	movwf	__Umul8_16@multiplicand
  2896  010B  0832               	movf	___flmul@a,w
  2897  010C  120A  158A  25E1  120A  118A  	fcall	__Umul8_16
  2898  0111  0875               	movf	?__Umul8_16+1,w
  2899  0112  1283               	bcf	3,5	;RP0=0, select bank0
  2900  0113  1303               	bcf	3,6	;RP1=0, select bank0
  2901  0114  00C7               	movwf	___flmul@temp+1
  2902  0115  0874               	movf	?__Umul8_16,w
  2903  0116  00C6               	movwf	___flmul@temp
  2904  0117                     l2400:
  2905  0117  0846               	movf	___flmul@temp,w
  2906  0118  00B6               	movwf	??___flmul
  2907  0119  01B7               	clrf	??___flmul+1
  2908  011A  01B8               	clrf	??___flmul+2
  2909  011B  01B9               	clrf	??___flmul+3
  2910  011C  0836               	movf	??___flmul,w
  2911  011D  07BD               	addwf	___flmul@grs,f
  2912  011E  0837               	movf	??___flmul+1,w
  2913  011F  1103               	clrz
  2914  0120  1803               	skipnc
  2915  0121  3E01               	addlw	1
  2916  0122  1903               	skipnz
  2917  0123  2925               	goto	u3251
  2918  0124  07BE               	addwf	___flmul@grs+1,f
  2919  0125                     u3251:
  2920  0125  0838               	movf	??___flmul+2,w
  2921  0126  1103               	clrz
  2922  0127  1803               	skipnc
  2923  0128  3E01               	addlw	1
  2924  0129  1903               	skipnz
  2925  012A  292C               	goto	u3252
  2926  012B  07BF               	addwf	___flmul@grs+2,f
  2927  012C                     u3252:
  2928  012C  0839               	movf	??___flmul+3,w
  2929  012D  1103               	clrz
  2930  012E  1803               	skipnc
  2931  012F  3E01               	addlw	1
  2932  0130  1903               	skipnz
  2933  0131  2933               	goto	u3253
  2934  0132  07C0               	addwf	___flmul@grs+3,f
  2935  0133                     u3253:
  2936  0133                     l2402:
  2937  0133  0847               	movf	___flmul@temp+1,w
  2938  0134  00B6               	movwf	??___flmul
  2939  0135  01B7               	clrf	??___flmul+1
  2940  0136  01B8               	clrf	??___flmul+2
  2941  0137  01B9               	clrf	??___flmul+3
  2942  0138  0836               	movf	??___flmul,w
  2943  0139  07C2               	addwf	___flmul@prod,f
  2944  013A  0837               	movf	??___flmul+1,w
  2945  013B  1103               	clrz
  2946  013C  1803               	skipnc
  2947  013D  3E01               	addlw	1
  2948  013E  1903               	skipnz
  2949  013F  2941               	goto	u3261
  2950  0140  07C3               	addwf	___flmul@prod+1,f
  2951  0141                     u3261:
  2952  0141  0838               	movf	??___flmul+2,w
  2953  0142  1103               	clrz
  2954  0143  1803               	skipnc
  2955  0144  3E01               	addlw	1
  2956  0145  1903               	skipnz
  2957  0146  2948               	goto	u3262
  2958  0147  07C4               	addwf	___flmul@prod+2,f
  2959  0148                     u3262:
  2960  0148  0839               	movf	??___flmul+3,w
  2961  0149  1103               	clrz
  2962  014A  1803               	skipnc
  2963  014B  3E01               	addlw	1
  2964  014C  1903               	skipnz
  2965  014D  294F               	goto	u3263
  2966  014E  07C5               	addwf	___flmul@prod+3,f
  2967  014F                     u3263:
  2968  014F                     l2404:
  2969  014F  3008               	movlw	8
  2970  0150  00B6               	movwf	??___flmul
  2971  0151                     u3275:
  2972  0151  1003               	clrc
  2973  0152  0DBD               	rlf	___flmul@grs,f
  2974  0153  0DBE               	rlf	___flmul@grs+1,f
  2975  0154  0DBF               	rlf	___flmul@grs+2,f
  2976  0155  0DC0               	rlf	___flmul@grs+3,f
  2977  0156  0BB6               	decfsz	??___flmul,f
  2978  0157  2951               	goto	u3275
  2979  0158                     l2406:
  2980  0158  082F               	movf	___flmul@b+1,w
  2981  0159  00B6               	movwf	??___flmul
  2982  015A  0836               	movf	??___flmul,w
  2983  015B  00F4               	movwf	__Umul8_16@multiplicand
  2984  015C  0832               	movf	___flmul@a,w
  2985  015D  120A  158A  25E1  120A  118A  	fcall	__Umul8_16
  2986  0162  0875               	movf	?__Umul8_16+1,w
  2987  0163  1283               	bcf	3,5	;RP0=0, select bank0
  2988  0164  1303               	bcf	3,6	;RP1=0, select bank0
  2989  0165  00C7               	movwf	___flmul@temp+1
  2990  0166  0874               	movf	?__Umul8_16,w
  2991  0167  00C6               	movwf	___flmul@temp
  2992  0168                     l2408:
  2993  0168  0846               	movf	___flmul@temp,w
  2994  0169  00B6               	movwf	??___flmul
  2995  016A  0847               	movf	___flmul@temp+1,w
  2996  016B  00B7               	movwf	??___flmul+1
  2997  016C  01B8               	clrf	??___flmul+2
  2998  016D  01B9               	clrf	??___flmul+3
  2999  016E  0836               	movf	??___flmul,w
  3000  016F  07BD               	addwf	___flmul@grs,f
  3001  0170  0837               	movf	??___flmul+1,w
  3002  0171  1103               	clrz
  3003  0172  1803               	skipnc
  3004  0173  3E01               	addlw	1
  3005  0174  1903               	skipnz
  3006  0175  2977               	goto	u3281
  3007  0176  07BE               	addwf	___flmul@grs+1,f
  3008  0177                     u3281:
  3009  0177  0838               	movf	??___flmul+2,w
  3010  0178  1103               	clrz
  3011  0179  1803               	skipnc
  3012  017A  3E01               	addlw	1
  3013  017B  1903               	skipnz
  3014  017C  297E               	goto	u3282
  3015  017D  07BF               	addwf	___flmul@grs+2,f
  3016  017E                     u3282:
  3017  017E  0839               	movf	??___flmul+3,w
  3018  017F  1103               	clrz
  3019  0180  1803               	skipnc
  3020  0181  3E01               	addlw	1
  3021  0182  1903               	skipnz
  3022  0183  2985               	goto	u3283
  3023  0184  07C0               	addwf	___flmul@grs+3,f
  3024  0185                     u3283:
  3025  0185                     l2410:
  3026  0185  082E               	movf	___flmul@b,w
  3027  0186  00B6               	movwf	??___flmul
  3028  0187  0836               	movf	??___flmul,w
  3029  0188  00F4               	movwf	__Umul8_16@multiplicand
  3030  0189  0833               	movf	___flmul@a+1,w
  3031  018A  120A  158A  25E1  120A  118A  	fcall	__Umul8_16
  3032  018F  0875               	movf	?__Umul8_16+1,w
  3033  0190  1283               	bcf	3,5	;RP0=0, select bank0
  3034  0191  1303               	bcf	3,6	;RP1=0, select bank0
  3035  0192  00C7               	movwf	___flmul@temp+1
  3036  0193  0874               	movf	?__Umul8_16,w
  3037  0194  00C6               	movwf	___flmul@temp
  3038  0195                     l2412:
  3039  0195  0846               	movf	___flmul@temp,w
  3040  0196  00B6               	movwf	??___flmul
  3041  0197  0847               	movf	___flmul@temp+1,w
  3042  0198  00B7               	movwf	??___flmul+1
  3043  0199  01B8               	clrf	??___flmul+2
  3044  019A  01B9               	clrf	??___flmul+3
  3045  019B  0836               	movf	??___flmul,w
  3046  019C  07BD               	addwf	___flmul@grs,f
  3047  019D  0837               	movf	??___flmul+1,w
  3048  019E  1103               	clrz
  3049  019F  1803               	skipnc
  3050  01A0  3E01               	addlw	1
  3051  01A1  1903               	skipnz
  3052  01A2  29A4               	goto	u3291
  3053  01A3  07BE               	addwf	___flmul@grs+1,f
  3054  01A4                     u3291:
  3055  01A4  0838               	movf	??___flmul+2,w
  3056  01A5  1103               	clrz
  3057  01A6  1803               	skipnc
  3058  01A7  3E01               	addlw	1
  3059  01A8  1903               	skipnz
  3060  01A9  29AB               	goto	u3292
  3061  01AA  07BF               	addwf	___flmul@grs+2,f
  3062  01AB                     u3292:
  3063  01AB  0839               	movf	??___flmul+3,w
  3064  01AC  1103               	clrz
  3065  01AD  1803               	skipnc
  3066  01AE  3E01               	addlw	1
  3067  01AF  1903               	skipnz
  3068  01B0  29B2               	goto	u3293
  3069  01B1  07C0               	addwf	___flmul@grs+3,f
  3070  01B2                     u3293:
  3071  01B2                     l2414:
  3072  01B2  3008               	movlw	8
  3073  01B3  00B6               	movwf	??___flmul
  3074  01B4                     u3305:
  3075  01B4  1003               	clrc
  3076  01B5  0DBD               	rlf	___flmul@grs,f
  3077  01B6  0DBE               	rlf	___flmul@grs+1,f
  3078  01B7  0DBF               	rlf	___flmul@grs+2,f
  3079  01B8  0DC0               	rlf	___flmul@grs+3,f
  3080  01B9  0BB6               	decfsz	??___flmul,f
  3081  01BA  29B4               	goto	u3305
  3082  01BB  082E               	movf	___flmul@b,w
  3083  01BC  00B6               	movwf	??___flmul
  3084  01BD  0836               	movf	??___flmul,w
  3085  01BE  00F4               	movwf	__Umul8_16@multiplicand
  3086  01BF  0832               	movf	___flmul@a,w
  3087  01C0  120A  158A  25E1  120A  118A  	fcall	__Umul8_16
  3088  01C5  0875               	movf	?__Umul8_16+1,w
  3089  01C6  1283               	bcf	3,5	;RP0=0, select bank0
  3090  01C7  1303               	bcf	3,6	;RP1=0, select bank0
  3091  01C8  00C7               	movwf	___flmul@temp+1
  3092  01C9  0874               	movf	?__Umul8_16,w
  3093  01CA  00C6               	movwf	___flmul@temp
  3094  01CB                     l2416:
  3095  01CB  0846               	movf	___flmul@temp,w
  3096  01CC  00B6               	movwf	??___flmul
  3097  01CD  0847               	movf	___flmul@temp+1,w
  3098  01CE  00B7               	movwf	??___flmul+1
  3099  01CF  01B8               	clrf	??___flmul+2
  3100  01D0  01B9               	clrf	??___flmul+3
  3101  01D1  0836               	movf	??___flmul,w
  3102  01D2  07BD               	addwf	___flmul@grs,f
  3103  01D3  0837               	movf	??___flmul+1,w
  3104  01D4  1103               	clrz
  3105  01D5  1803               	skipnc
  3106  01D6  3E01               	addlw	1
  3107  01D7  1903               	skipnz
  3108  01D8  29DA               	goto	u3311
  3109  01D9  07BE               	addwf	___flmul@grs+1,f
  3110  01DA                     u3311:
  3111  01DA  0838               	movf	??___flmul+2,w
  3112  01DB  1103               	clrz
  3113  01DC  1803               	skipnc
  3114  01DD  3E01               	addlw	1
  3115  01DE  1903               	skipnz
  3116  01DF  29E1               	goto	u3312
  3117  01E0  07BF               	addwf	___flmul@grs+2,f
  3118  01E1                     u3312:
  3119  01E1  0839               	movf	??___flmul+3,w
  3120  01E2  1103               	clrz
  3121  01E3  1803               	skipnc
  3122  01E4  3E01               	addlw	1
  3123  01E5  1903               	skipnz
  3124  01E6  29E8               	goto	u3313
  3125  01E7  07C0               	addwf	___flmul@grs+3,f
  3126  01E8                     u3313:
  3127  01E8                     l2418:
  3128  01E8  082F               	movf	___flmul@b+1,w
  3129  01E9  00B6               	movwf	??___flmul
  3130  01EA  0836               	movf	??___flmul,w
  3131  01EB  00F4               	movwf	__Umul8_16@multiplicand
  3132  01EC  0834               	movf	___flmul@a+2,w
  3133  01ED  120A  158A  25E1  120A  118A  	fcall	__Umul8_16
  3134  01F2  0875               	movf	?__Umul8_16+1,w
  3135  01F3  1283               	bcf	3,5	;RP0=0, select bank0
  3136  01F4  1303               	bcf	3,6	;RP1=0, select bank0
  3137  01F5  00C7               	movwf	___flmul@temp+1
  3138  01F6  0874               	movf	?__Umul8_16,w
  3139  01F7  00C6               	movwf	___flmul@temp
  3140  01F8  0846               	movf	___flmul@temp,w
  3141  01F9  00B6               	movwf	??___flmul
  3142  01FA  0847               	movf	___flmul@temp+1,w
  3143  01FB  00B7               	movwf	??___flmul+1
  3144  01FC  01B8               	clrf	??___flmul+2
  3145  01FD  01B9               	clrf	??___flmul+3
  3146  01FE  0836               	movf	??___flmul,w
  3147  01FF  07C2               	addwf	___flmul@prod,f
  3148  0200  0837               	movf	??___flmul+1,w
  3149  0201  1103               	clrz
  3150  0202  1803               	skipnc
  3151  0203  3E01               	addlw	1
  3152  0204  1903               	skipnz
  3153  0205  2A07               	goto	u3321
  3154  0206  07C3               	addwf	___flmul@prod+1,f
  3155  0207                     u3321:
  3156  0207  0838               	movf	??___flmul+2,w
  3157  0208  1103               	clrz
  3158  0209  1803               	skipnc
  3159  020A  3E01               	addlw	1
  3160  020B  1903               	skipnz
  3161  020C  2A0E               	goto	u3322
  3162  020D  07C4               	addwf	___flmul@prod+2,f
  3163  020E                     u3322:
  3164  020E  0839               	movf	??___flmul+3,w
  3165  020F  1103               	clrz
  3166  0210  1803               	skipnc
  3167  0211  3E01               	addlw	1
  3168  0212  1903               	skipnz
  3169  0213  2A15               	goto	u3323
  3170  0214  07C5               	addwf	___flmul@prod+3,f
  3171  0215                     u3323:
  3172  0215                     l2420:
  3173  0215  0830               	movf	___flmul@b+2,w
  3174  0216  00B6               	movwf	??___flmul
  3175  0217  0836               	movf	??___flmul,w
  3176  0218  00F4               	movwf	__Umul8_16@multiplicand
  3177  0219  0833               	movf	___flmul@a+1,w
  3178  021A  120A  158A  25E1  120A  118A  	fcall	__Umul8_16
  3179  021F  0875               	movf	?__Umul8_16+1,w
  3180  0220  1283               	bcf	3,5	;RP0=0, select bank0
  3181  0221  1303               	bcf	3,6	;RP1=0, select bank0
  3182  0222  00C7               	movwf	___flmul@temp+1
  3183  0223  0874               	movf	?__Umul8_16,w
  3184  0224  00C6               	movwf	___flmul@temp
  3185  0225                     l2422:
  3186  0225  0846               	movf	___flmul@temp,w
  3187  0226  00B6               	movwf	??___flmul
  3188  0227  0847               	movf	___flmul@temp+1,w
  3189  0228  00B7               	movwf	??___flmul+1
  3190  0229  01B8               	clrf	??___flmul+2
  3191  022A  01B9               	clrf	??___flmul+3
  3192  022B  0836               	movf	??___flmul,w
  3193  022C  07C2               	addwf	___flmul@prod,f
  3194  022D  0837               	movf	??___flmul+1,w
  3195  022E  1103               	clrz
  3196  022F  1803               	skipnc
  3197  0230  3E01               	addlw	1
  3198  0231  1903               	skipnz
  3199  0232  2A34               	goto	u3331
  3200  0233  07C3               	addwf	___flmul@prod+1,f
  3201  0234                     u3331:
  3202  0234  0838               	movf	??___flmul+2,w
  3203  0235  1103               	clrz
  3204  0236  1803               	skipnc
  3205  0237  3E01               	addlw	1
  3206  0238  1903               	skipnz
  3207  0239  2A3B               	goto	u3332
  3208  023A  07C4               	addwf	___flmul@prod+2,f
  3209  023B                     u3332:
  3210  023B  0839               	movf	??___flmul+3,w
  3211  023C  1103               	clrz
  3212  023D  1803               	skipnc
  3213  023E  3E01               	addlw	1
  3214  023F  1903               	skipnz
  3215  0240  2A42               	goto	u3333
  3216  0241  07C5               	addwf	___flmul@prod+3,f
  3217  0242                     u3333:
  3218  0242  0830               	movf	___flmul@b+2,w
  3219  0243  00B6               	movwf	??___flmul
  3220  0244  0836               	movf	??___flmul,w
  3221  0245  00F4               	movwf	__Umul8_16@multiplicand
  3222  0246  0834               	movf	___flmul@a+2,w
  3223  0247  120A  158A  25E1  120A  118A  	fcall	__Umul8_16
  3224  024C  0875               	movf	?__Umul8_16+1,w
  3225  024D  1283               	bcf	3,5	;RP0=0, select bank0
  3226  024E  1303               	bcf	3,6	;RP1=0, select bank0
  3227  024F  00C7               	movwf	___flmul@temp+1
  3228  0250  0874               	movf	?__Umul8_16,w
  3229  0251  00C6               	movwf	___flmul@temp
  3230  0252                     l2424:
  3231  0252  0846               	movf	___flmul@temp,w
  3232  0253  00B6               	movwf	??___flmul
  3233  0254  0847               	movf	___flmul@temp+1,w
  3234  0255  00B7               	movwf	??___flmul+1
  3235  0256  01B8               	clrf	??___flmul+2
  3236  0257  01B9               	clrf	??___flmul+3
  3237  0258  3008               	movlw	8
  3238  0259                     u3345:
  3239  0259  1003               	clrc
  3240  025A  0DB6               	rlf	??___flmul,f
  3241  025B  0DB7               	rlf	??___flmul+1,f
  3242  025C  0DB8               	rlf	??___flmul+2,f
  3243  025D  0DB9               	rlf	??___flmul+3,f
  3244  025E                     u3340:
  3245  025E  3EFF               	addlw	-1
  3246  025F  1D03               	skipz
  3247  0260  2A59               	goto	u3345
  3248  0261  0836               	movf	??___flmul,w
  3249  0262  07C2               	addwf	___flmul@prod,f
  3250  0263  0837               	movf	??___flmul+1,w
  3251  0264  1103               	clrz
  3252  0265  1803               	skipnc
  3253  0266  3E01               	addlw	1
  3254  0267  1903               	skipnz
  3255  0268  2A6A               	goto	u3351
  3256  0269  07C3               	addwf	___flmul@prod+1,f
  3257  026A                     u3351:
  3258  026A  0838               	movf	??___flmul+2,w
  3259  026B  1103               	clrz
  3260  026C  1803               	skipnc
  3261  026D  3E01               	addlw	1
  3262  026E  1903               	skipnz
  3263  026F  2A71               	goto	u3352
  3264  0270  07C4               	addwf	___flmul@prod+2,f
  3265  0271                     u3352:
  3266  0271  0839               	movf	??___flmul+3,w
  3267  0272  1103               	clrz
  3268  0273  1803               	skipnc
  3269  0274  3E01               	addlw	1
  3270  0275  1903               	skipnz
  3271  0276  2A78               	goto	u3353
  3272  0277  07C5               	addwf	___flmul@prod+3,f
  3273  0278                     u3353:
  3274  0278                     l2426:
  3275  0278  083D               	movf	___flmul@grs,w
  3276  0279  00B6               	movwf	??___flmul
  3277  027A  083E               	movf	___flmul@grs+1,w
  3278  027B  00B7               	movwf	??___flmul+1
  3279  027C  083F               	movf	___flmul@grs+2,w
  3280  027D  00B8               	movwf	??___flmul+2
  3281  027E  0840               	movf	___flmul@grs+3,w
  3282  027F  00B9               	movwf	??___flmul+3
  3283  0280  3018               	movlw	24
  3284  0281                     u3365:
  3285  0281  1003               	clrc
  3286  0282  0CB9               	rrf	??___flmul+3,f
  3287  0283  0CB8               	rrf	??___flmul+2,f
  3288  0284  0CB7               	rrf	??___flmul+1,f
  3289  0285  0CB6               	rrf	??___flmul,f
  3290  0286                     u3360:
  3291  0286  3EFF               	addlw	-1
  3292  0287  1D03               	skipz
  3293  0288  2A81               	goto	u3365
  3294  0289  0836               	movf	??___flmul,w
  3295  028A  07C2               	addwf	___flmul@prod,f
  3296  028B  0837               	movf	??___flmul+1,w
  3297  028C  1103               	clrz
  3298  028D  1803               	skipnc
  3299  028E  3E01               	addlw	1
  3300  028F  1903               	skipnz
  3301  0290  2A92               	goto	u3371
  3302  0291  07C3               	addwf	___flmul@prod+1,f
  3303  0292                     u3371:
  3304  0292  0838               	movf	??___flmul+2,w
  3305  0293  1103               	clrz
  3306  0294  1803               	skipnc
  3307  0295  3E01               	addlw	1
  3308  0296  1903               	skipnz
  3309  0297  2A99               	goto	u3372
  3310  0298  07C4               	addwf	___flmul@prod+2,f
  3311  0299                     u3372:
  3312  0299  0839               	movf	??___flmul+3,w
  3313  029A  1103               	clrz
  3314  029B  1803               	skipnc
  3315  029C  3E01               	addlw	1
  3316  029D  1903               	skipnz
  3317  029E  2AA0               	goto	u3373
  3318  029F  07C5               	addwf	___flmul@prod+3,f
  3319  02A0                     u3373:
  3320  02A0                     l2428:
  3321  02A0  3008               	movlw	8
  3322  02A1  00B6               	movwf	??___flmul
  3323  02A2                     u3385:
  3324  02A2  1003               	clrc
  3325  02A3  0DBD               	rlf	___flmul@grs,f
  3326  02A4  0DBE               	rlf	___flmul@grs+1,f
  3327  02A5  0DBF               	rlf	___flmul@grs+2,f
  3328  02A6  0DC0               	rlf	___flmul@grs+3,f
  3329  02A7  0BB6               	decfsz	??___flmul,f
  3330  02A8  2AA2               	goto	u3385
  3331  02A9                     l2430:
  3332  02A9  0841               	movf	___flmul@bexp,w
  3333  02AA  073C               	addwf	___flmul@aexp,w
  3334  02AB  00B6               	movwf	??___flmul
  3335  02AC  01B7               	clrf	??___flmul+1
  3336  02AD  0DB7               	rlf	??___flmul+1,f
  3337  02AE  0836               	movf	??___flmul,w
  3338  02AF  3E82               	addlw	130
  3339  02B0  00C6               	movwf	___flmul@temp
  3340  02B1  0837               	movf	??___flmul+1,w
  3341  02B2  1803               	skipnc
  3342  02B3  3E01               	addlw	1
  3343  02B4  3EFF               	addlw	255
  3344  02B5  00C7               	movwf	___flmul@temp+1
  3345  02B6  2AD4               	goto	l2442
  3346  02B7                     l2432:
  3347  02B7  3001               	movlw	1
  3348  02B8  00B6               	movwf	??___flmul
  3349  02B9                     u3395:
  3350  02B9  1003               	clrc
  3351  02BA  0DC2               	rlf	___flmul@prod,f
  3352  02BB  0DC3               	rlf	___flmul@prod+1,f
  3353  02BC  0DC4               	rlf	___flmul@prod+2,f
  3354  02BD  0DC5               	rlf	___flmul@prod+3,f
  3355  02BE  0BB6               	decfsz	??___flmul,f
  3356  02BF  2AB9               	goto	u3395
  3357  02C0                     l2434:
  3358  02C0  1FC0               	btfss	___flmul@grs+3,7
  3359  02C1  2AC3               	goto	u3401
  3360  02C2  2AC4               	goto	u3400
  3361  02C3                     u3401:
  3362  02C3  2AC5               	goto	l2438
  3363  02C4                     u3400:
  3364  02C4                     l2436:
  3365  02C4  1442               	bsf	___flmul@prod,0
  3366  02C5                     l2438:
  3367  02C5  3001               	movlw	1
  3368  02C6  00B6               	movwf	??___flmul
  3369  02C7                     u3415:
  3370  02C7  1003               	clrc
  3371  02C8  0DBD               	rlf	___flmul@grs,f
  3372  02C9  0DBE               	rlf	___flmul@grs+1,f
  3373  02CA  0DBF               	rlf	___flmul@grs+2,f
  3374  02CB  0DC0               	rlf	___flmul@grs+3,f
  3375  02CC  0BB6               	decfsz	??___flmul,f
  3376  02CD  2AC7               	goto	u3415
  3377  02CE                     l2440:
  3378  02CE  30FF               	movlw	255
  3379  02CF  07C6               	addwf	___flmul@temp,f
  3380  02D0  1803               	skipnc
  3381  02D1  0AC7               	incf	___flmul@temp+1,f
  3382  02D2  30FF               	movlw	255
  3383  02D3  07C7               	addwf	___flmul@temp+1,f
  3384  02D4                     l2442:
  3385  02D4  1FC4               	btfss	___flmul@prod+2,7
  3386  02D5  2AD7               	goto	u3421
  3387  02D6  2AD8               	goto	u3420
  3388  02D7                     u3421:
  3389  02D7  2AB7               	goto	l2432
  3390  02D8                     u3420:
  3391  02D8                     l2444:
  3392  02D8  01BC               	clrf	___flmul@aexp
  3393  02D9                     l2446:
  3394  02D9  1FC0               	btfss	___flmul@grs+3,7
  3395  02DA  2ADC               	goto	u3431
  3396  02DB  2ADD               	goto	u3430
  3397  02DC                     u3431:
  3398  02DC  2AF9               	goto	l2454
  3399  02DD                     u3430:
  3400  02DD                     l2448:
  3401  02DD  30FF               	movlw	255
  3402  02DE  053D               	andwf	___flmul@grs,w
  3403  02DF  00B6               	movwf	??___flmul
  3404  02E0  30FF               	movlw	255
  3405  02E1  053E               	andwf	___flmul@grs+1,w
  3406  02E2  00B7               	movwf	??___flmul+1
  3407  02E3  30FF               	movlw	255
  3408  02E4  053F               	andwf	___flmul@grs+2,w
  3409  02E5  00B8               	movwf	??___flmul+2
  3410  02E6  307F               	movlw	127
  3411  02E7  0540               	andwf	___flmul@grs+3,w
  3412  02E8  00B9               	movwf	??___flmul+3
  3413  02E9  0839               	movf	??___flmul+3,w
  3414  02EA  0438               	iorwf	??___flmul+2,w
  3415  02EB  0437               	iorwf	??___flmul+1,w
  3416  02EC  0436               	iorwf	??___flmul,w
  3417  02ED  1903               	skipnz
  3418  02EE  2AF0               	goto	u3441
  3419  02EF  2AF1               	goto	u3440
  3420  02F0                     u3441:
  3421  02F0  2AF4               	goto	l620
  3422  02F1                     u3440:
  3423  02F1                     l2450:
  3424  02F1  01BC               	clrf	___flmul@aexp
  3425  02F2  0ABC               	incf	___flmul@aexp,f
  3426  02F3  2AF9               	goto	l2454
  3427  02F4                     l620:
  3428  02F4  1C42               	btfss	___flmul@prod,0
  3429  02F5  2AF7               	goto	u3451
  3430  02F6  2AF8               	goto	u3450
  3431  02F7                     u3451:
  3432  02F7  2AF9               	goto	l2454
  3433  02F8                     u3450:
  3434  02F8  2AF1               	goto	l2450
  3435  02F9                     l2454:
  3436  02F9  083C               	movf	___flmul@aexp,w
  3437  02FA  1903               	btfsc	3,2
  3438  02FB  2AFD               	goto	u3461
  3439  02FC  2AFE               	goto	u3460
  3440  02FD                     u3461:
  3441  02FD  2B2F               	goto	l2464
  3442  02FE                     u3460:
  3443  02FE                     l2456:
  3444  02FE  3001               	movlw	1
  3445  02FF  07C2               	addwf	___flmul@prod,f
  3446  0300  3000               	movlw	0
  3447  0301  1803               	skipnc
  3448  0302  3001               	movlw	1
  3449  0303  07C3               	addwf	___flmul@prod+1,f
  3450  0304  3000               	movlw	0
  3451  0305  1803               	skipnc
  3452  0306  3001               	movlw	1
  3453  0307  07C4               	addwf	___flmul@prod+2,f
  3454  0308  3000               	movlw	0
  3455  0309  1803               	skipnc
  3456  030A  3001               	movlw	1
  3457  030B  07C5               	addwf	___flmul@prod+3,f
  3458  030C                     l2458:
  3459  030C  1C45               	btfss	___flmul@prod+3,0
  3460  030D  2B0F               	goto	u3471
  3461  030E  2B10               	goto	u3470
  3462  030F                     u3471:
  3463  030F  2B2F               	goto	l2464
  3464  0310                     u3470:
  3465  0310                     l2460:
  3466  0310  0842               	movf	___flmul@prod,w
  3467  0311  00B6               	movwf	??___flmul
  3468  0312  0843               	movf	___flmul@prod+1,w
  3469  0313  00B7               	movwf	??___flmul+1
  3470  0314  0844               	movf	___flmul@prod+2,w
  3471  0315  00B8               	movwf	??___flmul+2
  3472  0316  0845               	movf	___flmul@prod+3,w
  3473  0317  00B9               	movwf	??___flmul+3
  3474  0318  3001               	movlw	1
  3475  0319  00BA               	movwf	??___flmul+4
  3476  031A                     u3485:
  3477  031A  0D39               	rlf	??___flmul+3,w
  3478  031B  0CB9               	rrf	??___flmul+3,f
  3479  031C  0CB8               	rrf	??___flmul+2,f
  3480  031D  0CB7               	rrf	??___flmul+1,f
  3481  031E  0CB6               	rrf	??___flmul,f
  3482  031F                     u3480:
  3483  031F  0BBA               	decfsz	??___flmul+4,f
  3484  0320  2B1A               	goto	u3485
  3485  0321  0839               	movf	??___flmul+3,w
  3486  0322  00C5               	movwf	___flmul@prod+3
  3487  0323  0838               	movf	??___flmul+2,w
  3488  0324  00C4               	movwf	___flmul@prod+2
  3489  0325  0837               	movf	??___flmul+1,w
  3490  0326  00C3               	movwf	___flmul@prod+1
  3491  0327  0836               	movf	??___flmul,w
  3492  0328  00C2               	movwf	___flmul@prod
  3493  0329                     l2462:
  3494  0329  3001               	movlw	1
  3495  032A  07C6               	addwf	___flmul@temp,f
  3496  032B  1803               	skipnc
  3497  032C  0AC7               	incf	___flmul@temp+1,f
  3498  032D  3000               	movlw	0
  3499  032E  07C7               	addwf	___flmul@temp+1,f
  3500  032F                     l2464:
  3501  032F  0847               	movf	___flmul@temp+1,w
  3502  0330  3A80               	xorlw	128
  3503  0331  00FF               	movwf	btemp+1
  3504  0332  3080               	movlw	128
  3505  0333  027F               	subwf	btemp+1,w
  3506  0334  1D03               	skipz
  3507  0335  2B38               	goto	u3495
  3508  0336  30FF               	movlw	255
  3509  0337  0246               	subwf	___flmul@temp,w
  3510  0338                     u3495:
  3511  0338  1C03               	skipc
  3512  0339  2B3B               	goto	u3491
  3513  033A  2B3C               	goto	u3490
  3514  033B                     u3491:
  3515  033B  2B47               	goto	l2468
  3516  033C                     u3490:
  3517  033C                     l2466:
  3518  033C  307F               	movlw	127
  3519  033D  1283               	bcf	3,5	;RP0=0, select bank0
  3520  033E  1303               	bcf	3,6	;RP1=0, select bank0
  3521  033F  00C5               	movwf	___flmul@prod+3
  3522  0340  3080               	movlw	128
  3523  0341  00C4               	movwf	___flmul@prod+2
  3524  0342  3000               	movlw	0
  3525  0343  00C3               	movwf	___flmul@prod+1
  3526  0344  3000               	movlw	0
  3527  0345  00C2               	movwf	___flmul@prod
  3528  0346  2B7C               	goto	l626
  3529  0347                     l2468:
  3530  0347  1283               	bcf	3,5	;RP0=0, select bank0
  3531  0348  1303               	bcf	3,6	;RP1=0, select bank0
  3532  0349  0847               	movf	___flmul@temp+1,w
  3533  034A  3A80               	xorlw	128
  3534  034B  00FF               	movwf	btemp+1
  3535  034C  3080               	movlw	128
  3536  034D  027F               	subwf	btemp+1,w
  3537  034E  1D03               	skipz
  3538  034F  2B52               	goto	u3505
  3539  0350  3001               	movlw	1
  3540  0351  0246               	subwf	___flmul@temp,w
  3541  0352                     u3505:
  3542  0352  1803               	skipnc
  3543  0353  2B55               	goto	u3501
  3544  0354  2B56               	goto	u3500
  3545  0355                     u3501:
  3546  0355  2B62               	goto	l2474
  3547  0356                     u3500:
  3548  0356                     l2470:
  3549  0356  3000               	movlw	0
  3550  0357  1283               	bcf	3,5	;RP0=0, select bank0
  3551  0358  1303               	bcf	3,6	;RP1=0, select bank0
  3552  0359  00C5               	movwf	___flmul@prod+3
  3553  035A  3000               	movlw	0
  3554  035B  00C4               	movwf	___flmul@prod+2
  3555  035C  3000               	movlw	0
  3556  035D  00C3               	movwf	___flmul@prod+1
  3557  035E  3000               	movlw	0
  3558  035F  00C2               	movwf	___flmul@prod
  3559  0360                     l2472:
  3560  0360  01BB               	clrf	___flmul@sign
  3561  0361  2B7C               	goto	l626
  3562  0362                     l2474:
  3563  0362  1283               	bcf	3,5	;RP0=0, select bank0
  3564  0363  1303               	bcf	3,6	;RP1=0, select bank0
  3565  0364  0846               	movf	___flmul@temp,w
  3566  0365  00B6               	movwf	??___flmul
  3567  0366  0836               	movf	??___flmul,w
  3568  0367  00C1               	movwf	___flmul@bexp
  3569  0368  30FF               	movlw	255
  3570  0369  05C2               	andwf	___flmul@prod,f
  3571  036A  30FF               	movlw	255
  3572  036B  05C3               	andwf	___flmul@prod+1,f
  3573  036C  307F               	movlw	127
  3574  036D  05C4               	andwf	___flmul@prod+2,f
  3575  036E  3000               	movlw	0
  3576  036F  05C5               	andwf	___flmul@prod+3,f
  3577  0370                     l2476:
  3578  0370  1C41               	btfss	___flmul@bexp,0
  3579  0371  2B73               	goto	u3511
  3580  0372  2B74               	goto	u3510
  3581  0373                     u3511:
  3582  0373  2B75               	goto	l2480
  3583  0374                     u3510:
  3584  0374                     l2478:
  3585  0374  17C4               	bsf	___flmul@prod+2,7
  3586  0375                     l2480:
  3587  0375  0841               	movf	___flmul@bexp,w
  3588  0376  00B6               	movwf	??___flmul
  3589  0377  1003               	clrc
  3590  0378  0C36               	rrf	??___flmul,w
  3591  0379  00B7               	movwf	??___flmul+1
  3592  037A  0837               	movf	??___flmul+1,w
  3593  037B  00C5               	movwf	___flmul@prod+3
  3594  037C                     l626:
  3595  037C  083B               	movf	___flmul@sign,w
  3596  037D  00B6               	movwf	??___flmul
  3597  037E  0836               	movf	??___flmul,w
  3598  037F  04C5               	iorwf	___flmul@prod+3,f
  3599  0380                     l2482:
  3600  0380  0845               	movf	___flmul@prod+3,w
  3601  0381  00B1               	movwf	?___flmul+3
  3602  0382  0844               	movf	___flmul@prod+2,w
  3603  0383  00B0               	movwf	?___flmul+2
  3604  0384  0843               	movf	___flmul@prod+1,w
  3605  0385  00AF               	movwf	?___flmul+1
  3606  0386  0842               	movf	___flmul@prod,w
  3607  0387  00AE               	movwf	?___flmul
  3608  0388                     l614:
  3609  0388  0008               	return
  3610  0389                     __end_of___flmul:
  3611                           
  3612                           	psect	text11
  3613  0DE1                     __ptext11:	
  3614 ;; *************** function __Umul8_16 *****************
  3615 ;; Defined at:
  3616 ;;		line 4 in file "C:\Program Files\Microchip\xc8\v2.31\pic\sources\c90\common\Umul8_16.c"
  3617 ;; Parameters:    Size  Location     Type
  3618 ;;  multiplier      1    wreg     unsigned char 
  3619 ;;  multiplicand    1    4[COMMON] unsigned char 
  3620 ;; Auto vars:     Size  Location     Type
  3621 ;;  multiplier      1    6[BANK0 ] unsigned char 
  3622 ;;  word_mpld       2    4[BANK0 ] unsigned int 
  3623 ;;  product         2    2[BANK0 ] unsigned int 
  3624 ;; Return value:  Size  Location     Type
  3625 ;;                  2    4[COMMON] unsigned int 
  3626 ;; Registers used:
  3627 ;;		wreg, status,2, status,0
  3628 ;; Tracked objects:
  3629 ;;		On entry : 0/0
  3630 ;;		On exit  : 0/0
  3631 ;;		Unchanged: 0/0
  3632 ;; Data sizes:     COMMON   BANK0   BANK1   BANK3   BANK2
  3633 ;;      Params:         2       0       0       0       0
  3634 ;;      Locals:         0       5       0       0       0
  3635 ;;      Temps:          0       2       0       0       0
  3636 ;;      Totals:         2       7       0       0       0
  3637 ;;Total ram usage:        9 bytes
  3638 ;; Hardware stack levels used:    1
  3639 ;; Hardware stack levels required when called:    3
  3640 ;; This function calls:
  3641 ;;		Nothing
  3642 ;; This function is called by:
  3643 ;;		___flmul
  3644 ;; This function uses a non-reentrant model
  3645 ;;
  3646                           
  3647                           
  3648                           ;psect for function __Umul8_16
  3649  0DE1                     __Umul8_16:
  3650                           
  3651                           ;incstack = 0
  3652                           ; Regs used in __Umul8_16: [wreg+status,2+status,0]
  3653                           ;__Umul8_16@multiplier stored from wreg
  3654  0DE1  1283               	bcf	3,5	;RP0=0, select bank0
  3655  0DE2  1303               	bcf	3,6	;RP1=0, select bank0
  3656  0DE3  00A6               	movwf	__Umul8_16@multiplier
  3657  0DE4                     l2166:
  3658  0DE4  01A2               	clrf	__Umul8_16@product
  3659  0DE5  01A3               	clrf	__Umul8_16@product+1
  3660  0DE6                     l2168:
  3661  0DE6  0874               	movf	__Umul8_16@multiplicand,w
  3662  0DE7  00A0               	movwf	??__Umul8_16
  3663  0DE8  01A1               	clrf	??__Umul8_16+1
  3664  0DE9  0820               	movf	??__Umul8_16,w
  3665  0DEA  00A4               	movwf	__Umul8_16@word_mpld
  3666  0DEB  0821               	movf	??__Umul8_16+1,w
  3667  0DEC  00A5               	movwf	__Umul8_16@word_mpld+1
  3668  0DED                     l2170:
  3669  0DED  1C26               	btfss	__Umul8_16@multiplier,0
  3670  0DEE  2DF0               	goto	u2841
  3671  0DEF  2DF1               	goto	u2840
  3672  0DF0                     u2841:
  3673  0DF0  2DF7               	goto	l633
  3674  0DF1                     u2840:
  3675  0DF1                     l2172:
  3676  0DF1  0824               	movf	__Umul8_16@word_mpld,w
  3677  0DF2  07A2               	addwf	__Umul8_16@product,f
  3678  0DF3  1803               	skipnc
  3679  0DF4  0AA3               	incf	__Umul8_16@product+1,f
  3680  0DF5  0825               	movf	__Umul8_16@word_mpld+1,w
  3681  0DF6  07A3               	addwf	__Umul8_16@product+1,f
  3682  0DF7                     l633:
  3683  0DF7  3001               	movlw	1
  3684  0DF8                     u2855:
  3685  0DF8  1003               	clrc
  3686  0DF9  0DA4               	rlf	__Umul8_16@word_mpld,f
  3687  0DFA  0DA5               	rlf	__Umul8_16@word_mpld+1,f
  3688  0DFB  3EFF               	addlw	-1
  3689  0DFC  1D03               	skipz
  3690  0DFD  2DF8               	goto	u2855
  3691  0DFE  1003               	clrc
  3692  0DFF  0CA6               	rrf	__Umul8_16@multiplier,f
  3693  0E00                     l2174:
  3694  0E00  0826               	movf	__Umul8_16@multiplier,w
  3695  0E01  1D03               	btfss	3,2
  3696  0E02  2E04               	goto	u2861
  3697  0E03  2E05               	goto	u2860
  3698  0E04                     u2861:
  3699  0E04  2DED               	goto	l2170
  3700  0E05                     u2860:
  3701  0E05                     l2176:
  3702  0E05  0823               	movf	__Umul8_16@product+1,w
  3703  0E06  00F5               	movwf	?__Umul8_16+1
  3704  0E07  0822               	movf	__Umul8_16@product,w
  3705  0E08  00F4               	movwf	?__Umul8_16
  3706  0E09                     l635:
  3707  0E09  0008               	return
  3708  0E0A                     __end_of__Umul8_16:
  3709                           
  3710                           	psect	text12
  3711  0389                     __ptext12:	
  3712 ;; *************** function ___fldiv *****************
  3713 ;; Defined at:
  3714 ;;		line 8 in file "C:\Program Files\Microchip\xc8\v2.31\pic\sources\c90\common\sprcdiv.c"
  3715 ;; Parameters:    Size  Location     Type
  3716 ;;  a               4   40[BANK0 ] unsigned int 
  3717 ;;  b               4   44[BANK0 ] unsigned int 
  3718 ;; Auto vars:     Size  Location     Type
  3719 ;;  grs             4   60[BANK0 ] unsigned long 
  3720 ;;  rem             4   53[BANK0 ] unsigned long 
  3721 ;;  new_exp         2   58[BANK0 ] int 
  3722 ;;  aexp            1   65[BANK0 ] unsigned char 
  3723 ;;  bexp            1   64[BANK0 ] unsigned char 
  3724 ;;  sign            1   57[BANK0 ] unsigned char 
  3725 ;; Return value:  Size  Location     Type
  3726 ;;                  4   40[BANK0 ] unsigned char 
  3727 ;; Registers used:
  3728 ;;		wreg, status,2, status,0, btemp+1
  3729 ;; Tracked objects:
  3730 ;;		On entry : 0/0
  3731 ;;		On exit  : 0/0
  3732 ;;		Unchanged: 0/0
  3733 ;; Data sizes:     COMMON   BANK0   BANK1   BANK3   BANK2
  3734 ;;      Params:         0       8       0       0       0
  3735 ;;      Locals:         0      13       0       0       0
  3736 ;;      Temps:          0       5       0       0       0
  3737 ;;      Totals:         0      26       0       0       0
  3738 ;;Total ram usage:       26 bytes
  3739 ;; Hardware stack levels used:    1
  3740 ;; Hardware stack levels required when called:    3
  3741 ;; This function calls:
  3742 ;;		Nothing
  3743 ;; This function is called by:
  3744 ;;		_main
  3745 ;; This function uses a non-reentrant model
  3746 ;;
  3747                           
  3748                           
  3749                           ;psect for function ___fldiv
  3750  0389                     ___fldiv:
  3751  0389                     l1752:	
  3752                           ;incstack = 0
  3753                           ; Regs used in ___fldiv: [wreg+status,2+status,0+btemp+1]
  3754                           
  3755  0389  1283               	bcf	3,5	;RP0=0, select bank0
  3756  038A  1303               	bcf	3,6	;RP1=0, select bank0
  3757  038B  084F               	movf	___fldiv@b+3,w
  3758  038C  3980               	andlw	128
  3759  038D  00D0               	movwf	??___fldiv
  3760  038E  0850               	movf	??___fldiv,w
  3761  038F  00D9               	movwf	___fldiv@sign
  3762  0390                     l1754:
  3763  0390  084F               	movf	___fldiv@b+3,w
  3764  0391  00D0               	movwf	??___fldiv
  3765  0392  0750               	addwf	??___fldiv,w
  3766  0393  00D1               	movwf	??___fldiv+1
  3767  0394  0851               	movf	??___fldiv+1,w
  3768  0395  00E0               	movwf	___fldiv@bexp
  3769  0396                     l1756:
  3770  0396  1FCE               	btfss	___fldiv@b+2,7
  3771  0397  2B99               	goto	u1901
  3772  0398  2B9A               	goto	u1900
  3773  0399                     u1901:
  3774  0399  2B9B               	goto	l1760
  3775  039A                     u1900:
  3776  039A                     l1758:
  3777  039A  1460               	bsf	___fldiv@bexp,0
  3778  039B                     l1760:
  3779  039B  0860               	movf	___fldiv@bexp,w
  3780  039C  1903               	btfsc	3,2
  3781  039D  2B9F               	goto	u1911
  3782  039E  2BA0               	goto	u1910
  3783  039F                     u1911:
  3784  039F  2BB0               	goto	l1770
  3785  03A0                     u1910:
  3786  03A0                     l1762:
  3787  03A0  0A60               	incf	___fldiv@bexp,w
  3788  03A1  1D03               	btfss	3,2
  3789  03A2  2BA4               	goto	u1921
  3790  03A3  2BA5               	goto	u1920
  3791  03A4                     u1921:
  3792  03A4  2BAD               	goto	l1766
  3793  03A5                     u1920:
  3794  03A5                     l1764:
  3795  03A5  3000               	movlw	0
  3796  03A6  00CF               	movwf	___fldiv@b+3
  3797  03A7  3000               	movlw	0
  3798  03A8  00CE               	movwf	___fldiv@b+2
  3799  03A9  3000               	movlw	0
  3800  03AA  00CD               	movwf	___fldiv@b+1
  3801  03AB  3000               	movlw	0
  3802  03AC  00CC               	movwf	___fldiv@b
  3803  03AD                     l1766:
  3804  03AD  17CE               	bsf	___fldiv@b+2,7
  3805  03AE                     l1768:
  3806  03AE  01CF               	clrf	___fldiv@b+3
  3807  03AF  2BB8               	goto	l1772
  3808  03B0                     l1770:
  3809  03B0  3000               	movlw	0
  3810  03B1  00CF               	movwf	___fldiv@b+3
  3811  03B2  3000               	movlw	0
  3812  03B3  00CE               	movwf	___fldiv@b+2
  3813  03B4  3000               	movlw	0
  3814  03B5  00CD               	movwf	___fldiv@b+1
  3815  03B6  3000               	movlw	0
  3816  03B7  00CC               	movwf	___fldiv@b
  3817  03B8                     l1772:
  3818  03B8  084B               	movf	___fldiv@a+3,w
  3819  03B9  3980               	andlw	128
  3820  03BA  00D0               	movwf	??___fldiv
  3821  03BB  0850               	movf	??___fldiv,w
  3822  03BC  06D9               	xorwf	___fldiv@sign,f
  3823  03BD                     l1774:
  3824  03BD  084B               	movf	___fldiv@a+3,w
  3825  03BE  00D0               	movwf	??___fldiv
  3826  03BF  0750               	addwf	??___fldiv,w
  3827  03C0  00D1               	movwf	??___fldiv+1
  3828  03C1  0851               	movf	??___fldiv+1,w
  3829  03C2  00E1               	movwf	___fldiv@aexp
  3830  03C3                     l1776:
  3831  03C3  1FCA               	btfss	___fldiv@a+2,7
  3832  03C4  2BC6               	goto	u1931
  3833  03C5  2BC7               	goto	u1930
  3834  03C6                     u1931:
  3835  03C6  2BC8               	goto	l1780
  3836  03C7                     u1930:
  3837  03C7                     l1778:
  3838  03C7  1461               	bsf	___fldiv@aexp,0
  3839  03C8                     l1780:
  3840  03C8  0861               	movf	___fldiv@aexp,w
  3841  03C9  1903               	btfsc	3,2
  3842  03CA  2BCC               	goto	u1941
  3843  03CB  2BCD               	goto	u1940
  3844  03CC                     u1941:
  3845  03CC  2BDD               	goto	l1790
  3846  03CD                     u1940:
  3847  03CD                     l1782:
  3848  03CD  0A61               	incf	___fldiv@aexp,w
  3849  03CE  1D03               	btfss	3,2
  3850  03CF  2BD1               	goto	u1951
  3851  03D0  2BD2               	goto	u1950
  3852  03D1                     u1951:
  3853  03D1  2BDA               	goto	l1786
  3854  03D2                     u1950:
  3855  03D2                     l1784:
  3856  03D2  3000               	movlw	0
  3857  03D3  00CB               	movwf	___fldiv@a+3
  3858  03D4  3000               	movlw	0
  3859  03D5  00CA               	movwf	___fldiv@a+2
  3860  03D6  3000               	movlw	0
  3861  03D7  00C9               	movwf	___fldiv@a+1
  3862  03D8  3000               	movlw	0
  3863  03D9  00C8               	movwf	___fldiv@a
  3864  03DA                     l1786:
  3865  03DA  17CA               	bsf	___fldiv@a+2,7
  3866  03DB                     l1788:
  3867  03DB  01CB               	clrf	___fldiv@a+3
  3868  03DC  2BE5               	goto	l574
  3869  03DD                     l1790:
  3870  03DD  3000               	movlw	0
  3871  03DE  00CB               	movwf	___fldiv@a+3
  3872  03DF  3000               	movlw	0
  3873  03E0  00CA               	movwf	___fldiv@a+2
  3874  03E1  3000               	movlw	0
  3875  03E2  00C9               	movwf	___fldiv@a+1
  3876  03E3  3000               	movlw	0
  3877  03E4  00C8               	movwf	___fldiv@a
  3878  03E5                     l574:
  3879  03E5  084B               	movf	___fldiv@a+3,w
  3880  03E6  044A               	iorwf	___fldiv@a+2,w
  3881  03E7  0449               	iorwf	___fldiv@a+1,w
  3882  03E8  0448               	iorwf	___fldiv@a,w
  3883  03E9  1D03               	skipz
  3884  03EA  2BEC               	goto	u1961
  3885  03EB  2BED               	goto	u1960
  3886  03EC                     u1961:
  3887  03EC  2C06               	goto	l1800
  3888  03ED                     u1960:
  3889  03ED                     l1792:
  3890  03ED  3000               	movlw	0
  3891  03EE  00CF               	movwf	___fldiv@b+3
  3892  03EF  3000               	movlw	0
  3893  03F0  00CE               	movwf	___fldiv@b+2
  3894  03F1  3000               	movlw	0
  3895  03F2  00CD               	movwf	___fldiv@b+1
  3896  03F3  3000               	movlw	0
  3897  03F4  00CC               	movwf	___fldiv@b
  3898  03F5  3080               	movlw	128
  3899  03F6  04CE               	iorwf	___fldiv@b+2,f
  3900  03F7  307F               	movlw	127
  3901  03F8  04CF               	iorwf	___fldiv@b+3,f
  3902  03F9                     l1794:
  3903  03F9  0859               	movf	___fldiv@sign,w
  3904  03FA  00D0               	movwf	??___fldiv
  3905  03FB  0850               	movf	??___fldiv,w
  3906  03FC  04CF               	iorwf	___fldiv@b+3,f
  3907  03FD                     l1796:
  3908  03FD  084F               	movf	___fldiv@b+3,w
  3909  03FE  00CB               	movwf	?___fldiv+3
  3910  03FF  084E               	movf	___fldiv@b+2,w
  3911  0400  00CA               	movwf	?___fldiv+2
  3912  0401  084D               	movf	___fldiv@b+1,w
  3913  0402  00C9               	movwf	?___fldiv+1
  3914  0403  084C               	movf	___fldiv@b,w
  3915  0404  00C8               	movwf	?___fldiv
  3916  0405  2D65               	goto	l576
  3917  0406                     l1800:
  3918  0406  0860               	movf	___fldiv@bexp,w
  3919  0407  1D03               	btfss	3,2
  3920  0408  2C0A               	goto	u1971
  3921  0409  2C0B               	goto	u1970
  3922  040A                     u1971:
  3923  040A  2C14               	goto	l1806
  3924  040B                     u1970:
  3925  040B                     l1802:
  3926  040B  3000               	movlw	0
  3927  040C  00CB               	movwf	?___fldiv+3
  3928  040D  3000               	movlw	0
  3929  040E  00CA               	movwf	?___fldiv+2
  3930  040F  3000               	movlw	0
  3931  0410  00C9               	movwf	?___fldiv+1
  3932  0411  3000               	movlw	0
  3933  0412  00C8               	movwf	?___fldiv
  3934  0413  2D65               	goto	l576
  3935  0414                     l1806:
  3936  0414  0860               	movf	___fldiv@bexp,w
  3937  0415  00D0               	movwf	??___fldiv
  3938  0416  01D1               	clrf	??___fldiv+1
  3939  0417  0851               	movf	??___fldiv+1,w
  3940  0418  00D3               	movwf	??___fldiv+3
  3941  0419  0861               	movf	___fldiv@aexp,w
  3942  041A  0250               	subwf	??___fldiv,w
  3943  041B  00D2               	movwf	??___fldiv+2
  3944  041C  1C03               	skipc
  3945  041D  03D3               	decf	??___fldiv+3,f
  3946  041E  0852               	movf	??___fldiv+2,w
  3947  041F  3E7F               	addlw	127
  3948  0420  00DA               	movwf	___fldiv@new_exp
  3949  0421  0853               	movf	??___fldiv+3,w
  3950  0422  1803               	skipnc
  3951  0423  3E01               	addlw	1
  3952  0424  3E00               	addlw	0
  3953  0425  00DB               	movwf	___fldiv@new_exp+1
  3954  0426                     l1808:
  3955  0426  084F               	movf	___fldiv@b+3,w
  3956  0427  00D8               	movwf	___fldiv@rem+3
  3957  0428  084E               	movf	___fldiv@b+2,w
  3958  0429  00D7               	movwf	___fldiv@rem+2
  3959  042A  084D               	movf	___fldiv@b+1,w
  3960  042B  00D6               	movwf	___fldiv@rem+1
  3961  042C  084C               	movf	___fldiv@b,w
  3962  042D  00D5               	movwf	___fldiv@rem
  3963  042E                     l1810:
  3964  042E  3000               	movlw	0
  3965  042F  00CF               	movwf	___fldiv@b+3
  3966  0430  3000               	movlw	0
  3967  0431  00CE               	movwf	___fldiv@b+2
  3968  0432  3000               	movlw	0
  3969  0433  00CD               	movwf	___fldiv@b+1
  3970  0434  3000               	movlw	0
  3971  0435  00CC               	movwf	___fldiv@b
  3972  0436                     l1812:
  3973  0436  3000               	movlw	0
  3974  0437  00DF               	movwf	___fldiv@grs+3
  3975  0438  3000               	movlw	0
  3976  0439  00DE               	movwf	___fldiv@grs+2
  3977  043A  3000               	movlw	0
  3978  043B  00DD               	movwf	___fldiv@grs+1
  3979  043C  3000               	movlw	0
  3980  043D  00DC               	movwf	___fldiv@grs
  3981  043E                     l1814:
  3982  043E  01E1               	clrf	___fldiv@aexp
  3983  043F  2C8A               	goto	l1834
  3984  0440                     l1816:
  3985  0440  0861               	movf	___fldiv@aexp,w
  3986  0441  1903               	btfsc	3,2
  3987  0442  2C44               	goto	u1981
  3988  0443  2C45               	goto	u1980
  3989  0444                     u1981:
  3990  0444  2C65               	goto	l1826
  3991  0445                     u1980:
  3992  0445                     l1818:
  3993  0445  3001               	movlw	1
  3994  0446  00D0               	movwf	??___fldiv
  3995  0447                     u1995:
  3996  0447  1003               	clrc
  3997  0448  0DD5               	rlf	___fldiv@rem,f
  3998  0449  0DD6               	rlf	___fldiv@rem+1,f
  3999  044A  0DD7               	rlf	___fldiv@rem+2,f
  4000  044B  0DD8               	rlf	___fldiv@rem+3,f
  4001  044C  0BD0               	decfsz	??___fldiv,f
  4002  044D  2C47               	goto	u1995
  4003  044E  3001               	movlw	1
  4004  044F  00D0               	movwf	??___fldiv
  4005  0450                     u2005:
  4006  0450  1003               	clrc
  4007  0451  0DCC               	rlf	___fldiv@b,f
  4008  0452  0DCD               	rlf	___fldiv@b+1,f
  4009  0453  0DCE               	rlf	___fldiv@b+2,f
  4010  0454  0DCF               	rlf	___fldiv@b+3,f
  4011  0455  0BD0               	decfsz	??___fldiv,f
  4012  0456  2C50               	goto	u2005
  4013  0457                     l1820:
  4014  0457  1FDF               	btfss	___fldiv@grs+3,7
  4015  0458  2C5A               	goto	u2011
  4016  0459  2C5B               	goto	u2010
  4017  045A                     u2011:
  4018  045A  2C5C               	goto	l1824
  4019  045B                     u2010:
  4020  045B                     l1822:
  4021  045B  144C               	bsf	___fldiv@b,0
  4022  045C                     l1824:
  4023  045C  3001               	movlw	1
  4024  045D  00D0               	movwf	??___fldiv
  4025  045E                     u2025:
  4026  045E  1003               	clrc
  4027  045F  0DDC               	rlf	___fldiv@grs,f
  4028  0460  0DDD               	rlf	___fldiv@grs+1,f
  4029  0461  0DDE               	rlf	___fldiv@grs+2,f
  4030  0462  0DDF               	rlf	___fldiv@grs+3,f
  4031  0463  0BD0               	decfsz	??___fldiv,f
  4032  0464  2C5E               	goto	u2025
  4033  0465                     l1826:
  4034  0465  084B               	movf	___fldiv@a+3,w
  4035  0466  0258               	subwf	___fldiv@rem+3,w
  4036  0467  1D03               	skipz
  4037  0468  2C73               	goto	u2035
  4038  0469  084A               	movf	___fldiv@a+2,w
  4039  046A  0257               	subwf	___fldiv@rem+2,w
  4040  046B  1D03               	skipz
  4041  046C  2C73               	goto	u2035
  4042  046D  0849               	movf	___fldiv@a+1,w
  4043  046E  0256               	subwf	___fldiv@rem+1,w
  4044  046F  1D03               	skipz
  4045  0470  2C73               	goto	u2035
  4046  0471  0848               	movf	___fldiv@a,w
  4047  0472  0255               	subwf	___fldiv@rem,w
  4048  0473                     u2035:
  4049  0473  1C03               	skipc
  4050  0474  2C76               	goto	u2031
  4051  0475  2C77               	goto	u2030
  4052  0476                     u2031:
  4053  0476  2C86               	goto	l1832
  4054  0477                     u2030:
  4055  0477                     l1828:
  4056  0477  175F               	bsf	___fldiv@grs+3,6
  4057  0478                     l1830:
  4058  0478  0848               	movf	___fldiv@a,w
  4059  0479  02D5               	subwf	___fldiv@rem,f
  4060  047A  0849               	movf	___fldiv@a+1,w
  4061  047B  1C03               	skipc
  4062  047C  0F49               	incfsz	___fldiv@a+1,w
  4063  047D  02D6               	subwf	___fldiv@rem+1,f
  4064  047E  084A               	movf	___fldiv@a+2,w
  4065  047F  1C03               	skipc
  4066  0480  0F4A               	incfsz	___fldiv@a+2,w
  4067  0481  02D7               	subwf	___fldiv@rem+2,f
  4068  0482  084B               	movf	___fldiv@a+3,w
  4069  0483  1C03               	skipc
  4070  0484  0F4B               	incfsz	___fldiv@a+3,w
  4071  0485  02D8               	subwf	___fldiv@rem+3,f
  4072  0486                     l1832:
  4073  0486  3001               	movlw	1
  4074  0487  00D0               	movwf	??___fldiv
  4075  0488  0850               	movf	??___fldiv,w
  4076  0489  07E1               	addwf	___fldiv@aexp,f
  4077  048A                     l1834:
  4078  048A  301A               	movlw	26
  4079  048B  0261               	subwf	___fldiv@aexp,w
  4080  048C  1C03               	skipc
  4081  048D  2C8F               	goto	u2041
  4082  048E  2C90               	goto	u2040
  4083  048F                     u2041:
  4084  048F  2C40               	goto	l1816
  4085  0490                     u2040:
  4086  0490                     l1836:
  4087  0490  0858               	movf	___fldiv@rem+3,w
  4088  0491  0457               	iorwf	___fldiv@rem+2,w
  4089  0492  0456               	iorwf	___fldiv@rem+1,w
  4090  0493  0455               	iorwf	___fldiv@rem,w
  4091  0494  1903               	skipnz
  4092  0495  2C97               	goto	u2051
  4093  0496  2C98               	goto	u2050
  4094  0497                     u2051:
  4095  0497  2CB7               	goto	l1850
  4096  0498                     u2050:
  4097  0498                     l1838:
  4098  0498  145C               	bsf	___fldiv@grs,0
  4099  0499  2CB7               	goto	l1850
  4100  049A                     l1840:
  4101  049A  3001               	movlw	1
  4102  049B  00D0               	movwf	??___fldiv
  4103  049C                     u2065:
  4104  049C  1003               	clrc
  4105  049D  0DCC               	rlf	___fldiv@b,f
  4106  049E  0DCD               	rlf	___fldiv@b+1,f
  4107  049F  0DCE               	rlf	___fldiv@b+2,f
  4108  04A0  0DCF               	rlf	___fldiv@b+3,f
  4109  04A1  0BD0               	decfsz	??___fldiv,f
  4110  04A2  2C9C               	goto	u2065
  4111  04A3                     l1842:
  4112  04A3  1FDF               	btfss	___fldiv@grs+3,7
  4113  04A4  2CA6               	goto	u2071
  4114  04A5  2CA7               	goto	u2070
  4115  04A6                     u2071:
  4116  04A6  2CA8               	goto	l1846
  4117  04A7                     u2070:
  4118  04A7                     l1844:
  4119  04A7  144C               	bsf	___fldiv@b,0
  4120  04A8                     l1846:
  4121  04A8  3001               	movlw	1
  4122  04A9  00D0               	movwf	??___fldiv
  4123  04AA                     u2085:
  4124  04AA  1003               	clrc
  4125  04AB  0DDC               	rlf	___fldiv@grs,f
  4126  04AC  0DDD               	rlf	___fldiv@grs+1,f
  4127  04AD  0DDE               	rlf	___fldiv@grs+2,f
  4128  04AE  0DDF               	rlf	___fldiv@grs+3,f
  4129  04AF  0BD0               	decfsz	??___fldiv,f
  4130  04B0  2CAA               	goto	u2085
  4131  04B1                     l1848:
  4132  04B1  30FF               	movlw	255
  4133  04B2  07DA               	addwf	___fldiv@new_exp,f
  4134  04B3  1803               	skipnc
  4135  04B4  0ADB               	incf	___fldiv@new_exp+1,f
  4136  04B5  30FF               	movlw	255
  4137  04B6  07DB               	addwf	___fldiv@new_exp+1,f
  4138  04B7                     l1850:
  4139  04B7  1FCE               	btfss	___fldiv@b+2,7
  4140  04B8  2CBA               	goto	u2091
  4141  04B9  2CBB               	goto	u2090
  4142  04BA                     u2091:
  4143  04BA  2C9A               	goto	l1840
  4144  04BB                     u2090:
  4145  04BB                     l1852:
  4146  04BB  01E1               	clrf	___fldiv@aexp
  4147  04BC                     l1854:
  4148  04BC  1FDF               	btfss	___fldiv@grs+3,7
  4149  04BD  2CBF               	goto	u2101
  4150  04BE  2CC0               	goto	u2100
  4151  04BF                     u2101:
  4152  04BF  2CDC               	goto	l1862
  4153  04C0                     u2100:
  4154  04C0                     l1856:
  4155  04C0  30FF               	movlw	255
  4156  04C1  055C               	andwf	___fldiv@grs,w
  4157  04C2  00D0               	movwf	??___fldiv
  4158  04C3  30FF               	movlw	255
  4159  04C4  055D               	andwf	___fldiv@grs+1,w
  4160  04C5  00D1               	movwf	??___fldiv+1
  4161  04C6  30FF               	movlw	255
  4162  04C7  055E               	andwf	___fldiv@grs+2,w
  4163  04C8  00D2               	movwf	??___fldiv+2
  4164  04C9  307F               	movlw	127
  4165  04CA  055F               	andwf	___fldiv@grs+3,w
  4166  04CB  00D3               	movwf	??___fldiv+3
  4167  04CC  0853               	movf	??___fldiv+3,w
  4168  04CD  0452               	iorwf	??___fldiv+2,w
  4169  04CE  0451               	iorwf	??___fldiv+1,w
  4170  04CF  0450               	iorwf	??___fldiv,w
  4171  04D0  1903               	skipnz
  4172  04D1  2CD3               	goto	u2111
  4173  04D2  2CD4               	goto	u2110
  4174  04D3                     u2111:
  4175  04D3  2CD7               	goto	l590
  4176  04D4                     u2110:
  4177  04D4                     l1858:
  4178  04D4  01E1               	clrf	___fldiv@aexp
  4179  04D5  0AE1               	incf	___fldiv@aexp,f
  4180  04D6  2CDC               	goto	l1862
  4181  04D7                     l590:
  4182  04D7  1C4C               	btfss	___fldiv@b,0
  4183  04D8  2CDA               	goto	u2121
  4184  04D9  2CDB               	goto	u2120
  4185  04DA                     u2121:
  4186  04DA  2CDC               	goto	l1862
  4187  04DB                     u2120:
  4188  04DB  2CD4               	goto	l1858
  4189  04DC                     l1862:
  4190  04DC  0861               	movf	___fldiv@aexp,w
  4191  04DD  1903               	btfsc	3,2
  4192  04DE  2CE0               	goto	u2131
  4193  04DF  2CE1               	goto	u2130
  4194  04E0                     u2131:
  4195  04E0  2D12               	goto	l1872
  4196  04E1                     u2130:
  4197  04E1                     l1864:
  4198  04E1  3001               	movlw	1
  4199  04E2  07CC               	addwf	___fldiv@b,f
  4200  04E3  3000               	movlw	0
  4201  04E4  1803               	skipnc
  4202  04E5  3001               	movlw	1
  4203  04E6  07CD               	addwf	___fldiv@b+1,f
  4204  04E7  3000               	movlw	0
  4205  04E8  1803               	skipnc
  4206  04E9  3001               	movlw	1
  4207  04EA  07CE               	addwf	___fldiv@b+2,f
  4208  04EB  3000               	movlw	0
  4209  04EC  1803               	skipnc
  4210  04ED  3001               	movlw	1
  4211  04EE  07CF               	addwf	___fldiv@b+3,f
  4212  04EF                     l1866:
  4213  04EF  1C4F               	btfss	___fldiv@b+3,0
  4214  04F0  2CF2               	goto	u2141
  4215  04F1  2CF3               	goto	u2140
  4216  04F2                     u2141:
  4217  04F2  2D12               	goto	l1872
  4218  04F3                     u2140:
  4219  04F3                     l1868:
  4220  04F3  084C               	movf	___fldiv@b,w
  4221  04F4  00D0               	movwf	??___fldiv
  4222  04F5  084D               	movf	___fldiv@b+1,w
  4223  04F6  00D1               	movwf	??___fldiv+1
  4224  04F7  084E               	movf	___fldiv@b+2,w
  4225  04F8  00D2               	movwf	??___fldiv+2
  4226  04F9  084F               	movf	___fldiv@b+3,w
  4227  04FA  00D3               	movwf	??___fldiv+3
  4228  04FB  3001               	movlw	1
  4229  04FC  00D4               	movwf	??___fldiv+4
  4230  04FD                     u2155:
  4231  04FD  0D53               	rlf	??___fldiv+3,w
  4232  04FE  0CD3               	rrf	??___fldiv+3,f
  4233  04FF  0CD2               	rrf	??___fldiv+2,f
  4234  0500  0CD1               	rrf	??___fldiv+1,f
  4235  0501  0CD0               	rrf	??___fldiv,f
  4236  0502                     u2150:
  4237  0502  0BD4               	decfsz	??___fldiv+4,f
  4238  0503  2CFD               	goto	u2155
  4239  0504  0853               	movf	??___fldiv+3,w
  4240  0505  00CF               	movwf	___fldiv@b+3
  4241  0506  0852               	movf	??___fldiv+2,w
  4242  0507  00CE               	movwf	___fldiv@b+2
  4243  0508  0851               	movf	??___fldiv+1,w
  4244  0509  00CD               	movwf	___fldiv@b+1
  4245  050A  0850               	movf	??___fldiv,w
  4246  050B  00CC               	movwf	___fldiv@b
  4247  050C                     l1870:
  4248  050C  3001               	movlw	1
  4249  050D  07DA               	addwf	___fldiv@new_exp,f
  4250  050E  1803               	skipnc
  4251  050F  0ADB               	incf	___fldiv@new_exp+1,f
  4252  0510  3000               	movlw	0
  4253  0511  07DB               	addwf	___fldiv@new_exp+1,f
  4254  0512                     l1872:
  4255  0512  085B               	movf	___fldiv@new_exp+1,w
  4256  0513  3A80               	xorlw	128
  4257  0514  00FF               	movwf	btemp+1
  4258  0515  3080               	movlw	128
  4259  0516  027F               	subwf	btemp+1,w
  4260  0517  1D03               	skipz
  4261  0518  2D1B               	goto	u2165
  4262  0519  30FF               	movlw	255
  4263  051A  025A               	subwf	___fldiv@new_exp,w
  4264  051B                     u2165:
  4265  051B  1C03               	skipc
  4266  051C  2D1E               	goto	u2161
  4267  051D  2D1F               	goto	u2160
  4268  051E                     u2161:
  4269  051E  2D2D               	goto	l1876
  4270  051F                     u2160:
  4271  051F                     l1874:
  4272  051F  30FF               	movlw	255
  4273  0520  1283               	bcf	3,5	;RP0=0, select bank0
  4274  0521  1303               	bcf	3,6	;RP1=0, select bank0
  4275  0522  00DA               	movwf	___fldiv@new_exp
  4276  0523  3000               	movlw	0
  4277  0524  00DB               	movwf	___fldiv@new_exp+1
  4278  0525  3000               	movlw	0
  4279  0526  00CF               	movwf	___fldiv@b+3
  4280  0527  3000               	movlw	0
  4281  0528  00CE               	movwf	___fldiv@b+2
  4282  0529  3000               	movlw	0
  4283  052A  00CD               	movwf	___fldiv@b+1
  4284  052B  3000               	movlw	0
  4285  052C  00CC               	movwf	___fldiv@b
  4286  052D                     l1876:
  4287  052D  1283               	bcf	3,5	;RP0=0, select bank0
  4288  052E  1303               	bcf	3,6	;RP1=0, select bank0
  4289  052F  085B               	movf	___fldiv@new_exp+1,w
  4290  0530  3A80               	xorlw	128
  4291  0531  00FF               	movwf	btemp+1
  4292  0532  3080               	movlw	128
  4293  0533  027F               	subwf	btemp+1,w
  4294  0534  1D03               	skipz
  4295  0535  2D38               	goto	u2175
  4296  0536  3001               	movlw	1
  4297  0537  025A               	subwf	___fldiv@new_exp,w
  4298  0538                     u2175:
  4299  0538  1803               	skipnc
  4300  0539  2D3B               	goto	u2171
  4301  053A  2D3C               	goto	u2170
  4302  053B                     u2171:
  4303  053B  2D49               	goto	l596
  4304  053C                     u2170:
  4305  053C                     l1878:
  4306  053C  1283               	bcf	3,5	;RP0=0, select bank0
  4307  053D  1303               	bcf	3,6	;RP1=0, select bank0
  4308  053E  01DA               	clrf	___fldiv@new_exp
  4309  053F  01DB               	clrf	___fldiv@new_exp+1
  4310  0540                     l1880:
  4311  0540  3000               	movlw	0
  4312  0541  00CF               	movwf	___fldiv@b+3
  4313  0542  3000               	movlw	0
  4314  0543  00CE               	movwf	___fldiv@b+2
  4315  0544  3000               	movlw	0
  4316  0545  00CD               	movwf	___fldiv@b+1
  4317  0546  3000               	movlw	0
  4318  0547  00CC               	movwf	___fldiv@b
  4319  0548                     l1882:
  4320  0548  01D9               	clrf	___fldiv@sign
  4321  0549                     l596:
  4322  0549  1283               	bcf	3,5	;RP0=0, select bank0
  4323  054A  1303               	bcf	3,6	;RP1=0, select bank0
  4324  054B  085A               	movf	___fldiv@new_exp,w
  4325  054C  00D0               	movwf	??___fldiv
  4326  054D  0850               	movf	??___fldiv,w
  4327  054E  00E0               	movwf	___fldiv@bexp
  4328  054F                     l1884:
  4329  054F  1C60               	btfss	___fldiv@bexp,0
  4330  0550  2D52               	goto	u2181
  4331  0551  2D53               	goto	u2180
  4332  0552                     u2181:
  4333  0552  2D55               	goto	l1888
  4334  0553                     u2180:
  4335  0553                     l1886:
  4336  0553  17CE               	bsf	___fldiv@b+2,7
  4337  0554  2D59               	goto	l598
  4338  0555                     l1888:
  4339  0555  307F               	movlw	127
  4340  0556  00D0               	movwf	??___fldiv
  4341  0557  0850               	movf	??___fldiv,w
  4342  0558  05CE               	andwf	___fldiv@b+2,f
  4343  0559                     l598:
  4344  0559  0860               	movf	___fldiv@bexp,w
  4345  055A  00D0               	movwf	??___fldiv
  4346  055B  1003               	clrc
  4347  055C  0C50               	rrf	??___fldiv,w
  4348  055D  00D1               	movwf	??___fldiv+1
  4349  055E  0851               	movf	??___fldiv+1,w
  4350  055F  00CF               	movwf	___fldiv@b+3
  4351  0560  0859               	movf	___fldiv@sign,w
  4352  0561  00D0               	movwf	??___fldiv
  4353  0562  0850               	movf	??___fldiv,w
  4354  0563  04CF               	iorwf	___fldiv@b+3,f
  4355  0564  2BFD               	goto	l1796
  4356  0565                     l576:
  4357  0565  0008               	return
  4358  0566                     __end_of___fldiv:
  4359                           
  4360                           	psect	text13
  4361  0EB7                     __ptext13:	
  4362 ;; *************** function ___awmod *****************
  4363 ;; Defined at:
  4364 ;;		line 5 in file "C:\Program Files\Microchip\xc8\v2.31\pic\sources\c90\common\awmod.c"
  4365 ;; Parameters:    Size  Location     Type
  4366 ;;  divisor         2    8[BANK0 ] int 
  4367 ;;  dividend        2   10[BANK0 ] int 
  4368 ;; Auto vars:     Size  Location     Type
  4369 ;;  sign            1   13[BANK0 ] unsigned char 
  4370 ;;  counter         1   12[BANK0 ] unsigned char 
  4371 ;; Return value:  Size  Location     Type
  4372 ;;                  2    8[BANK0 ] int 
  4373 ;; Registers used:
  4374 ;;		wreg, status,2, status,0
  4375 ;; Tracked objects:
  4376 ;;		On entry : 0/0
  4377 ;;		On exit  : 0/0
  4378 ;;		Unchanged: 0/0
  4379 ;; Data sizes:     COMMON   BANK0   BANK1   BANK3   BANK2
  4380 ;;      Params:         0       4       0       0       0
  4381 ;;      Locals:         0       2       0       0       0
  4382 ;;      Temps:          1       0       0       0       0
  4383 ;;      Totals:         1       6       0       0       0
  4384 ;;Total ram usage:        7 bytes
  4385 ;; Hardware stack levels used:    1
  4386 ;; Hardware stack levels required when called:    3
  4387 ;; This function calls:
  4388 ;;		Nothing
  4389 ;; This function is called by:
  4390 ;;		_main
  4391 ;; This function uses a non-reentrant model
  4392 ;;
  4393                           
  4394                           
  4395                           ;psect for function ___awmod
  4396  0EB7                     ___awmod:
  4397  0EB7                     l1678:	
  4398                           ;incstack = 0
  4399                           ; Regs used in ___awmod: [wreg+status,2+status,0]
  4400                           
  4401  0EB7  1283               	bcf	3,5	;RP0=0, select bank0
  4402  0EB8  1303               	bcf	3,6	;RP1=0, select bank0
  4403  0EB9  01AD               	clrf	___awmod@sign
  4404  0EBA                     l1680:
  4405  0EBA  1FAB               	btfss	___awmod@dividend+1,7
  4406  0EBB  2EBD               	goto	u1711
  4407  0EBC  2EBE               	goto	u1710
  4408  0EBD                     u1711:
  4409  0EBD  2EC5               	goto	l1686
  4410  0EBE                     u1710:
  4411  0EBE                     l1682:
  4412  0EBE  09AA               	comf	___awmod@dividend,f
  4413  0EBF  09AB               	comf	___awmod@dividend+1,f
  4414  0EC0  0AAA               	incf	___awmod@dividend,f
  4415  0EC1  1903               	skipnz
  4416  0EC2  0AAB               	incf	___awmod@dividend+1,f
  4417  0EC3                     l1684:
  4418  0EC3  01AD               	clrf	___awmod@sign
  4419  0EC4  0AAD               	incf	___awmod@sign,f
  4420  0EC5                     l1686:
  4421  0EC5  1FA9               	btfss	___awmod@divisor+1,7
  4422  0EC6  2EC8               	goto	u1721
  4423  0EC7  2EC9               	goto	u1720
  4424  0EC8                     u1721:
  4425  0EC8  2ECE               	goto	l1690
  4426  0EC9                     u1720:
  4427  0EC9                     l1688:
  4428  0EC9  09A8               	comf	___awmod@divisor,f
  4429  0ECA  09A9               	comf	___awmod@divisor+1,f
  4430  0ECB  0AA8               	incf	___awmod@divisor,f
  4431  0ECC  1903               	skipnz
  4432  0ECD  0AA9               	incf	___awmod@divisor+1,f
  4433  0ECE                     l1690:
  4434  0ECE  0828               	movf	___awmod@divisor,w
  4435  0ECF  0429               	iorwf	___awmod@divisor+1,w
  4436  0ED0  1903               	btfsc	3,2
  4437  0ED1  2ED3               	goto	u1731
  4438  0ED2  2ED4               	goto	u1730
  4439  0ED3                     u1731:
  4440  0ED3  2F03               	goto	l1708
  4441  0ED4                     u1730:
  4442  0ED4                     l1692:
  4443  0ED4  01AC               	clrf	___awmod@counter
  4444  0ED5  0AAC               	incf	___awmod@counter,f
  4445  0ED6  2EE2               	goto	l1698
  4446  0ED7                     l1694:
  4447  0ED7  3001               	movlw	1
  4448  0ED8                     u1745:
  4449  0ED8  1003               	clrc
  4450  0ED9  0DA8               	rlf	___awmod@divisor,f
  4451  0EDA  0DA9               	rlf	___awmod@divisor+1,f
  4452  0EDB  3EFF               	addlw	-1
  4453  0EDC  1D03               	skipz
  4454  0EDD  2ED8               	goto	u1745
  4455  0EDE                     l1696:
  4456  0EDE  3001               	movlw	1
  4457  0EDF  00F5               	movwf	??___awmod
  4458  0EE0  0875               	movf	??___awmod,w
  4459  0EE1  07AC               	addwf	___awmod@counter,f
  4460  0EE2                     l1698:
  4461  0EE2  1FA9               	btfss	___awmod@divisor+1,7
  4462  0EE3  2EE5               	goto	u1751
  4463  0EE4  2EE6               	goto	u1750
  4464  0EE5                     u1751:
  4465  0EE5  2ED7               	goto	l1694
  4466  0EE6                     u1750:
  4467  0EE6                     l1700:
  4468  0EE6  0829               	movf	___awmod@divisor+1,w
  4469  0EE7  022B               	subwf	___awmod@dividend+1,w
  4470  0EE8  1D03               	skipz
  4471  0EE9  2EEC               	goto	u1765
  4472  0EEA  0828               	movf	___awmod@divisor,w
  4473  0EEB  022A               	subwf	___awmod@dividend,w
  4474  0EEC                     u1765:
  4475  0EEC  1C03               	skipc
  4476  0EED  2EEF               	goto	u1761
  4477  0EEE  2EF0               	goto	u1760
  4478  0EEF                     u1761:
  4479  0EEF  2EF6               	goto	l1704
  4480  0EF0                     u1760:
  4481  0EF0                     l1702:
  4482  0EF0  0828               	movf	___awmod@divisor,w
  4483  0EF1  02AA               	subwf	___awmod@dividend,f
  4484  0EF2  0829               	movf	___awmod@divisor+1,w
  4485  0EF3  1C03               	skipc
  4486  0EF4  03AB               	decf	___awmod@dividend+1,f
  4487  0EF5  02AB               	subwf	___awmod@dividend+1,f
  4488  0EF6                     l1704:
  4489  0EF6  3001               	movlw	1
  4490  0EF7                     u1775:
  4491  0EF7  1003               	clrc
  4492  0EF8  0CA9               	rrf	___awmod@divisor+1,f
  4493  0EF9  0CA8               	rrf	___awmod@divisor,f
  4494  0EFA  3EFF               	addlw	-1
  4495  0EFB  1D03               	skipz
  4496  0EFC  2EF7               	goto	u1775
  4497  0EFD                     l1706:
  4498  0EFD  3001               	movlw	1
  4499  0EFE  02AC               	subwf	___awmod@counter,f
  4500  0EFF  1D03               	btfss	3,2
  4501  0F00  2F02               	goto	u1781
  4502  0F01  2F03               	goto	u1780
  4503  0F02                     u1781:
  4504  0F02  2EE6               	goto	l1700
  4505  0F03                     u1780:
  4506  0F03                     l1708:
  4507  0F03  082D               	movf	___awmod@sign,w
  4508  0F04  1903               	btfsc	3,2
  4509  0F05  2F07               	goto	u1791
  4510  0F06  2F08               	goto	u1790
  4511  0F07                     u1791:
  4512  0F07  2F0D               	goto	l1712
  4513  0F08                     u1790:
  4514  0F08                     l1710:
  4515  0F08  09AA               	comf	___awmod@dividend,f
  4516  0F09  09AB               	comf	___awmod@dividend+1,f
  4517  0F0A  0AAA               	incf	___awmod@dividend,f
  4518  0F0B  1903               	skipnz
  4519  0F0C  0AAB               	incf	___awmod@dividend+1,f
  4520  0F0D                     l1712:
  4521  0F0D  082B               	movf	___awmod@dividend+1,w
  4522  0F0E  00A9               	movwf	?___awmod+1
  4523  0F0F  082A               	movf	___awmod@dividend,w
  4524  0F10  00A8               	movwf	?___awmod
  4525  0F11                     l391:
  4526  0F11  0008               	return
  4527  0F12                     __end_of___awmod:
  4528                           
  4529                           	psect	text14
  4530  0793                     __ptext14:	
  4531 ;; *************** function ___awdiv *****************
  4532 ;; Defined at:
  4533 ;;		line 5 in file "C:\Program Files\Microchip\xc8\v2.31\pic\sources\c90\common\awdiv.c"
  4534 ;; Parameters:    Size  Location     Type
  4535 ;;  divisor         2    0[BANK0 ] int 
  4536 ;;  dividend        2    2[BANK0 ] int 
  4537 ;; Auto vars:     Size  Location     Type
  4538 ;;  quotient        2    6[BANK0 ] int 
  4539 ;;  sign            1    5[BANK0 ] unsigned char 
  4540 ;;  counter         1    4[BANK0 ] unsigned char 
  4541 ;; Return value:  Size  Location     Type
  4542 ;;                  2    0[BANK0 ] int 
  4543 ;; Registers used:
  4544 ;;		wreg, status,2, status,0
  4545 ;; Tracked objects:
  4546 ;;		On entry : 0/0
  4547 ;;		On exit  : 0/0
  4548 ;;		Unchanged: 0/0
  4549 ;; Data sizes:     COMMON   BANK0   BANK1   BANK3   BANK2
  4550 ;;      Params:         0       4       0       0       0
  4551 ;;      Locals:         0       4       0       0       0
  4552 ;;      Temps:          1       0       0       0       0
  4553 ;;      Totals:         1       8       0       0       0
  4554 ;;Total ram usage:        9 bytes
  4555 ;; Hardware stack levels used:    1
  4556 ;; Hardware stack levels required when called:    3
  4557 ;; This function calls:
  4558 ;;		Nothing
  4559 ;; This function is called by:
  4560 ;;		_main
  4561 ;; This function uses a non-reentrant model
  4562 ;;
  4563                           
  4564                           
  4565                           ;psect for function ___awdiv
  4566  0793                     ___awdiv:
  4567  0793                     l2266:	
  4568                           ;incstack = 0
  4569                           ; Regs used in ___awdiv: [wreg+status,2+status,0]
  4570                           
  4571  0793  1283               	bcf	3,5	;RP0=0, select bank0
  4572  0794  1303               	bcf	3,6	;RP1=0, select bank0
  4573  0795  01A5               	clrf	___awdiv@sign
  4574  0796                     l2268:
  4575  0796  1FA1               	btfss	___awdiv@divisor+1,7
  4576  0797  2F99               	goto	u2951
  4577  0798  2F9A               	goto	u2950
  4578  0799                     u2951:
  4579  0799  2FA1               	goto	l2274
  4580  079A                     u2950:
  4581  079A                     l2270:
  4582  079A  09A0               	comf	___awdiv@divisor,f
  4583  079B  09A1               	comf	___awdiv@divisor+1,f
  4584  079C  0AA0               	incf	___awdiv@divisor,f
  4585  079D  1903               	skipnz
  4586  079E  0AA1               	incf	___awdiv@divisor+1,f
  4587  079F                     l2272:
  4588  079F  01A5               	clrf	___awdiv@sign
  4589  07A0  0AA5               	incf	___awdiv@sign,f
  4590  07A1                     l2274:
  4591  07A1  1FA3               	btfss	___awdiv@dividend+1,7
  4592  07A2  2FA4               	goto	u2961
  4593  07A3  2FA5               	goto	u2960
  4594  07A4                     u2961:
  4595  07A4  2FAE               	goto	l2280
  4596  07A5                     u2960:
  4597  07A5                     l2276:
  4598  07A5  09A2               	comf	___awdiv@dividend,f
  4599  07A6  09A3               	comf	___awdiv@dividend+1,f
  4600  07A7  0AA2               	incf	___awdiv@dividend,f
  4601  07A8  1903               	skipnz
  4602  07A9  0AA3               	incf	___awdiv@dividend+1,f
  4603  07AA                     l2278:
  4604  07AA  3001               	movlw	1
  4605  07AB  00F4               	movwf	??___awdiv
  4606  07AC  0874               	movf	??___awdiv,w
  4607  07AD  06A5               	xorwf	___awdiv@sign,f
  4608  07AE                     l2280:
  4609  07AE  01A6               	clrf	___awdiv@quotient
  4610  07AF  01A7               	clrf	___awdiv@quotient+1
  4611  07B0                     l2282:
  4612  07B0  0820               	movf	___awdiv@divisor,w
  4613  07B1  0421               	iorwf	___awdiv@divisor+1,w
  4614  07B2  1903               	btfsc	3,2
  4615  07B3  2FB5               	goto	u2971
  4616  07B4  2FB6               	goto	u2970
  4617  07B5                     u2971:
  4618  07B5  2FED               	goto	l2302
  4619  07B6                     u2970:
  4620  07B6                     l2284:
  4621  07B6  01A4               	clrf	___awdiv@counter
  4622  07B7  0AA4               	incf	___awdiv@counter,f
  4623  07B8  2FC4               	goto	l2290
  4624  07B9                     l2286:
  4625  07B9  3001               	movlw	1
  4626  07BA                     u2985:
  4627  07BA  1003               	clrc
  4628  07BB  0DA0               	rlf	___awdiv@divisor,f
  4629  07BC  0DA1               	rlf	___awdiv@divisor+1,f
  4630  07BD  3EFF               	addlw	-1
  4631  07BE  1D03               	skipz
  4632  07BF  2FBA               	goto	u2985
  4633  07C0                     l2288:
  4634  07C0  3001               	movlw	1
  4635  07C1  00F4               	movwf	??___awdiv
  4636  07C2  0874               	movf	??___awdiv,w
  4637  07C3  07A4               	addwf	___awdiv@counter,f
  4638  07C4                     l2290:
  4639  07C4  1FA1               	btfss	___awdiv@divisor+1,7
  4640  07C5  2FC7               	goto	u2991
  4641  07C6  2FC8               	goto	u2990
  4642  07C7                     u2991:
  4643  07C7  2FB9               	goto	l2286
  4644  07C8                     u2990:
  4645  07C8                     l2292:
  4646  07C8  3001               	movlw	1
  4647  07C9                     u3005:
  4648  07C9  1003               	clrc
  4649  07CA  0DA6               	rlf	___awdiv@quotient,f
  4650  07CB  0DA7               	rlf	___awdiv@quotient+1,f
  4651  07CC  3EFF               	addlw	-1
  4652  07CD  1D03               	skipz
  4653  07CE  2FC9               	goto	u3005
  4654  07CF  0821               	movf	___awdiv@divisor+1,w
  4655  07D0  0223               	subwf	___awdiv@dividend+1,w
  4656  07D1  1D03               	skipz
  4657  07D2  2FD5               	goto	u3015
  4658  07D3  0820               	movf	___awdiv@divisor,w
  4659  07D4  0222               	subwf	___awdiv@dividend,w
  4660  07D5                     u3015:
  4661  07D5  1C03               	skipc
  4662  07D6  2FD8               	goto	u3011
  4663  07D7  2FD9               	goto	u3010
  4664  07D8                     u3011:
  4665  07D8  2FE0               	goto	l2298
  4666  07D9                     u3010:
  4667  07D9                     l2294:
  4668  07D9  0820               	movf	___awdiv@divisor,w
  4669  07DA  02A2               	subwf	___awdiv@dividend,f
  4670  07DB  0821               	movf	___awdiv@divisor+1,w
  4671  07DC  1C03               	skipc
  4672  07DD  03A3               	decf	___awdiv@dividend+1,f
  4673  07DE  02A3               	subwf	___awdiv@dividend+1,f
  4674  07DF                     l2296:
  4675  07DF  1426               	bsf	___awdiv@quotient,0
  4676  07E0                     l2298:
  4677  07E0  3001               	movlw	1
  4678  07E1                     u3025:
  4679  07E1  1003               	clrc
  4680  07E2  0CA1               	rrf	___awdiv@divisor+1,f
  4681  07E3  0CA0               	rrf	___awdiv@divisor,f
  4682  07E4  3EFF               	addlw	-1
  4683  07E5  1D03               	skipz
  4684  07E6  2FE1               	goto	u3025
  4685  07E7                     l2300:
  4686  07E7  3001               	movlw	1
  4687  07E8  02A4               	subwf	___awdiv@counter,f
  4688  07E9  1D03               	btfss	3,2
  4689  07EA  2FEC               	goto	u3031
  4690  07EB  2FED               	goto	u3030
  4691  07EC                     u3031:
  4692  07EC  2FC8               	goto	l2292
  4693  07ED                     u3030:
  4694  07ED                     l2302:
  4695  07ED  0825               	movf	___awdiv@sign,w
  4696  07EE  1903               	btfsc	3,2
  4697  07EF  2FF1               	goto	u3041
  4698  07F0  2FF2               	goto	u3040
  4699  07F1                     u3041:
  4700  07F1  2FF7               	goto	l2306
  4701  07F2                     u3040:
  4702  07F2                     l2304:
  4703  07F2  09A6               	comf	___awdiv@quotient,f
  4704  07F3  09A7               	comf	___awdiv@quotient+1,f
  4705  07F4  0AA6               	incf	___awdiv@quotient,f
  4706  07F5  1903               	skipnz
  4707  07F6  0AA7               	incf	___awdiv@quotient+1,f
  4708  07F7                     l2306:
  4709  07F7  0827               	movf	___awdiv@quotient+1,w
  4710  07F8  00A1               	movwf	?___awdiv+1
  4711  07F9  0826               	movf	___awdiv@quotient,w
  4712  07FA  00A0               	movwf	?___awdiv
  4713  07FB                     l378:
  4714  07FB  0008               	return
  4715  07FC                     __end_of___awdiv:
  4716                           
  4717                           	psect	text15
  4718  0D39                     __ptext15:	
  4719 ;; *************** function _SPI_Init *****************
  4720 ;; Defined at:
  4721 ;;		line 8 in file "SPI.c"
  4722 ;; Parameters:    Size  Location     Type
  4723 ;;  sType           1    wreg     enum E1349
  4724 ;;  sDataSample     1    0[BANK0 ] enum E1357
  4725 ;;  sClockIdle      1    1[BANK0 ] enum E1361
  4726 ;;  sTransmitEdg    1    2[BANK0 ] enum E1365
  4727 ;; Auto vars:     Size  Location     Type
  4728 ;;  sType           1    4[COMMON] enum E1349
  4729 ;; Return value:  Size  Location     Type
  4730 ;;                  1    wreg      void 
  4731 ;; Registers used:
  4732 ;;		wreg, status,2, status,0
  4733 ;; Tracked objects:
  4734 ;;		On entry : 0/0
  4735 ;;		On exit  : 0/0
  4736 ;;		Unchanged: 0/0
  4737 ;; Data sizes:     COMMON   BANK0   BANK1   BANK3   BANK2
  4738 ;;      Params:         0       3       0       0       0
  4739 ;;      Locals:         1       0       0       0       0
  4740 ;;      Temps:          0       0       0       0       0
  4741 ;;      Totals:         1       3       0       0       0
  4742 ;;Total ram usage:        4 bytes
  4743 ;; Hardware stack levels used:    1
  4744 ;; Hardware stack levels required when called:    3
  4745 ;; This function calls:
  4746 ;;		Nothing
  4747 ;; This function is called by:
  4748 ;;		_main
  4749 ;; This function uses a non-reentrant model
  4750 ;;
  4751                           
  4752                           
  4753                           ;psect for function _SPI_Init
  4754  0D39                     _SPI_Init:
  4755                           
  4756                           ;incstack = 0
  4757                           ; Regs used in _SPI_Init: [wreg+status,2+status,0]
  4758                           ;SPI_Init@sType stored from wreg
  4759  0D39  00F4               	movwf	SPI_Init@sType
  4760  0D3A                     l2210:
  4761                           
  4762                           ;SPI.c: 8: void SPI_Init(Spi_Type sType, Spi_Data_Sample sDataSample, Spi_Clock_Idle sCl
      +                          ockIdle, Spi_Transmit_Edge sTransmitEdge);SPI.c: 9: {;SPI.c: 10:     TRISC5 = 0;
  4763  0D3A  1683               	bsf	3,5	;RP0=1, select bank1
  4764  0D3B  1303               	bcf	3,6	;RP1=0, select bank1
  4765  0D3C  1287               	bcf	7,5	;volatile
  4766                           
  4767                           ;SPI.c: 11:     TRISC4 = 1;
  4768  0D3D  1607               	bsf	7,4	;volatile
  4769                           
  4770                           ;SPI.c: 13:     if(sType & 0b00000100)
  4771  0D3E  1D74               	btfss	SPI_Init@sType,2
  4772  0D3F  2D41               	goto	u2901
  4773  0D40  2D42               	goto	u2900
  4774  0D41                     u2901:
  4775  0D41  2D4A               	goto	l2216
  4776  0D42                     u2900:
  4777  0D42                     l2212:
  4778                           
  4779                           ;SPI.c: 14:     {;SPI.c: 15:         SSPSTAT = sTransmitEdge;
  4780  0D42  1283               	bcf	3,5	;RP0=0, select bank0
  4781  0D43  1303               	bcf	3,6	;RP1=0, select bank0
  4782  0D44  0822               	movf	SPI_Init@sTransmitEdge,w
  4783  0D45  1683               	bsf	3,5	;RP0=1, select bank1
  4784  0D46  1303               	bcf	3,6	;RP1=0, select bank1
  4785  0D47  0094               	movwf	20	;volatile
  4786  0D48                     l2214:
  4787                           
  4788                           ;SPI.c: 16:         TRISC3 = 1;
  4789  0D48  1587               	bsf	7,3	;volatile
  4790                           
  4791                           ;SPI.c: 17:     }
  4792  0D49  2D52               	goto	l121
  4793  0D4A                     l2216:
  4794                           
  4795                           ;SPI.c: 19:     {;SPI.c: 20:         SSPSTAT = sDataSample | sTransmitEdge;
  4796  0D4A  1283               	bcf	3,5	;RP0=0, select bank0
  4797  0D4B  1303               	bcf	3,6	;RP1=0, select bank0
  4798  0D4C  0820               	movf	SPI_Init@sDataSample,w
  4799  0D4D  0422               	iorwf	SPI_Init@sTransmitEdge,w
  4800  0D4E  1683               	bsf	3,5	;RP0=1, select bank1
  4801  0D4F  1303               	bcf	3,6	;RP1=0, select bank1
  4802  0D50  0094               	movwf	20	;volatile
  4803  0D51                     l2218:
  4804                           
  4805                           ;SPI.c: 21:         TRISC3 = 0;
  4806  0D51  1187               	bcf	7,3	;volatile
  4807  0D52                     l121:	
  4808                           ;SPI.c: 22:     }
  4809                           
  4810                           
  4811                           ;SPI.c: 24:     SSPCON = sType | sClockIdle;
  4812  0D52  0874               	movf	SPI_Init@sType,w
  4813  0D53  1283               	bcf	3,5	;RP0=0, select bank0
  4814  0D54  1303               	bcf	3,6	;RP1=0, select bank0
  4815  0D55  0421               	iorwf	SPI_Init@sClockIdle,w
  4816  0D56  0094               	movwf	20	;volatile
  4817  0D57                     l122:
  4818  0D57  0008               	return
  4819  0D58                     __end_of_SPI_Init:
  4820                           
  4821                           	psect	text16
  4822  0D26                     __ptext16:	
  4823 ;; *************** function _ADC_Read *****************
  4824 ;; Defined at:
  4825 ;;		line 17 in file "ADC.c"
  4826 ;; Parameters:    Size  Location     Type
  4827 ;;  a               2    0[BANK0 ] int 
  4828 ;;  b               2    2[BANK0 ] int 
  4829 ;; Auto vars:     Size  Location     Type
  4830 ;;		None
  4831 ;; Return value:  Size  Location     Type
  4832 ;;                  1    wreg      unsigned char 
  4833 ;; Registers used:
  4834 ;;		wreg, status,0
  4835 ;; Tracked objects:
  4836 ;;		On entry : 0/0
  4837 ;;		On exit  : 0/0
  4838 ;;		Unchanged: 0/0
  4839 ;; Data sizes:     COMMON   BANK0   BANK1   BANK3   BANK2
  4840 ;;      Params:         0       4       0       0       0
  4841 ;;      Locals:         0       0       0       0       0
  4842 ;;      Temps:          0       0       0       0       0
  4843 ;;      Totals:         0       4       0       0       0
  4844 ;;Total ram usage:        4 bytes
  4845 ;; Hardware stack levels used:    1
  4846 ;; Hardware stack levels required when called:    3
  4847 ;; This function calls:
  4848 ;;		Nothing
  4849 ;; This function is called by:
  4850 ;;		_main
  4851 ;; This function uses a non-reentrant model
  4852 ;;
  4853                           
  4854                           
  4855                           ;psect for function _ADC_Read
  4856  0D26                     _ADC_Read:
  4857  0D26                     l2220:	
  4858                           ;incstack = 0
  4859                           ; Regs used in _ADC_Read: [wreg+status,0]
  4860                           
  4861                           
  4862                           ;ADC.c: 18:     ADCON0bits.CHS0 = a;
  4863  0D26  1283               	bcf	3,5	;RP0=0, select bank0
  4864  0D27  1303               	bcf	3,6	;RP1=0, select bank0
  4865  0D28  0C20               	rrf	ADC_Read@a,w
  4866  0D29  1C03               	skipc
  4867  0D2A  111F               	bcf	31,2	;volatile
  4868  0D2B  1803               	skipnc
  4869  0D2C  151F               	bsf	31,2	;volatile
  4870                           
  4871                           ;ADC.c: 19:     ADCON0bits.CHS1 = b;
  4872  0D2D  0C22               	rrf	ADC_Read@b,w
  4873  0D2E  1C03               	skipc
  4874  0D2F  119F               	bcf	31,3	;volatile
  4875  0D30  1803               	skipnc
  4876  0D31  159F               	bsf	31,3	;volatile
  4877  0D32                     l2222:
  4878                           
  4879                           ;ADC.c: 20:     ADCON0bits.CHS2 = 0;
  4880  0D32  121F               	bcf	31,4	;volatile
  4881  0D33                     l2224:
  4882                           
  4883                           ;ADC.c: 21:     ADCON0bits.CHS3 = 0;
  4884  0D33  129F               	bcf	31,5	;volatile
  4885  0D34                     l2226:
  4886                           
  4887                           ;ADC.c: 22:     ADCON0bits.ADON = 1;
  4888  0D34  141F               	bsf	31,0	;volatile
  4889  0D35                     l2228:
  4890                           
  4891                           ;ADC.c: 23:     ADCON0bits.GO = 1;
  4892  0D35  149F               	bsf	31,1	;volatile
  4893  0D36                     l2230:
  4894                           
  4895                           ;ADC.c: 24:     PIR1bits.ADIF = 0;
  4896  0D36  130C               	bcf	12,6	;volatile
  4897  0D37                     l2232:
  4898                           
  4899                           ;ADC.c: 25:     return(ADRESH);
  4900  0D37  081E               	movf	30,w	;volatile
  4901  0D38                     l103:
  4902  0D38  0008               	return
  4903  0D39                     __end_of_ADC_Read:
  4904                           
  4905                           	psect	text17
  4906  0D1B                     __ptext17:	
  4907 ;; *************** function _ADC_Init *****************
  4908 ;; Defined at:
  4909 ;;		line 8 in file "ADC.c"
  4910 ;; Parameters:    Size  Location     Type
  4911 ;;		None
  4912 ;; Auto vars:     Size  Location     Type
  4913 ;;		None
  4914 ;; Return value:  Size  Location     Type
  4915 ;;                  1    wreg      void 
  4916 ;; Registers used:
  4917 ;;		None
  4918 ;; Tracked objects:
  4919 ;;		On entry : 0/0
  4920 ;;		On exit  : 0/0
  4921 ;;		Unchanged: 0/0
  4922 ;; Data sizes:     COMMON   BANK0   BANK1   BANK3   BANK2
  4923 ;;      Params:         0       0       0       0       0
  4924 ;;      Locals:         0       0       0       0       0
  4925 ;;      Temps:          0       0       0       0       0
  4926 ;;      Totals:         0       0       0       0       0
  4927 ;;Total ram usage:        0 bytes
  4928 ;; Hardware stack levels used:    1
  4929 ;; Hardware stack levels required when called:    3
  4930 ;; This function calls:
  4931 ;;		Nothing
  4932 ;; This function is called by:
  4933 ;;		_main
  4934 ;; This function uses a non-reentrant model
  4935 ;;
  4936                           
  4937                           
  4938                           ;psect for function _ADC_Init
  4939  0D1B                     _ADC_Init:
  4940  0D1B                     l1576:	
  4941                           ;incstack = 0
  4942                           ; Regs used in _ADC_Init: []
  4943                           
  4944                           
  4945                           ;ADC.c: 9:     ADCON0bits.ADCS0 = 1;
  4946  0D1B  1283               	bcf	3,5	;RP0=0, select bank0
  4947  0D1C  1303               	bcf	3,6	;RP1=0, select bank0
  4948  0D1D  171F               	bsf	31,6	;volatile
  4949                           
  4950                           ;ADC.c: 10:     ADCON0bits.ADCS1 = 0;
  4951  0D1E  139F               	bcf	31,7	;volatile
  4952                           
  4953                           ;ADC.c: 11:     ADCON0bits.ADON = 1;
  4954  0D1F  141F               	bsf	31,0	;volatile
  4955                           
  4956                           ;ADC.c: 12:     ADCON1bits.ADFM = 0;
  4957  0D20  1683               	bsf	3,5	;RP0=1, select bank1
  4958  0D21  1303               	bcf	3,6	;RP1=0, select bank1
  4959  0D22  139F               	bcf	31,7	;volatile
  4960                           
  4961                           ;ADC.c: 13:     ADCON1bits.VCFG0 = 0;
  4962  0D23  121F               	bcf	31,4	;volatile
  4963                           
  4964                           ;ADC.c: 14:     ADCON1bits.VCFG1 = 0;
  4965  0D24  129F               	bcf	31,5	;volatile
  4966  0D25                     l100:
  4967  0D25  0008               	return
  4968  0D26                     __end_of_ADC_Init:
  4969                           
  4970                           	psect	text18
  4971  0D58                     __ptext18:	
  4972 ;; *************** function _ISR *****************
  4973 ;; Defined at:
  4974 ;;		line 76 in file "S1.c"
  4975 ;; Parameters:    Size  Location     Type
  4976 ;;		None
  4977 ;; Auto vars:     Size  Location     Type
  4978 ;;		None
  4979 ;; Return value:  Size  Location     Type
  4980 ;;                  1    wreg      void 
  4981 ;; Registers used:
  4982 ;;		wreg, status,2, status,0, pclath, cstack
  4983 ;; Tracked objects:
  4984 ;;		On entry : 0/0
  4985 ;;		On exit  : 0/0
  4986 ;;		Unchanged: 0/0
  4987 ;; Data sizes:     COMMON   BANK0   BANK1   BANK3   BANK2
  4988 ;;      Params:         0       0       0       0       0
  4989 ;;      Locals:         0       0       0       0       0
  4990 ;;      Temps:          3       0       0       0       0
  4991 ;;      Totals:         3       0       0       0       0
  4992 ;;Total ram usage:        3 bytes
  4993 ;; Hardware stack levels used:    1
  4994 ;; Hardware stack levels required when called:    2
  4995 ;; This function calls:
  4996 ;;		_SPI_Read
  4997 ;;		_SPI_Write
  4998 ;; This function is called by:
  4999 ;;		Interrupt level 1
  5000 ;; This function uses a non-reentrant model
  5001 ;;
  5002                           
  5003                           
  5004                           ;psect for function _ISR
  5005  0D58                     _ISR:
  5006  0D58                     i1l2078:
  5007                           
  5008                           ;S1.c: 77:     if (SSPIF == 1){
  5009  0D58  1283               	bcf	3,5	;RP0=0, select bank0
  5010  0D59  1303               	bcf	3,6	;RP1=0, select bank0
  5011  0D5A  1D8C               	btfss	12,3	;volatile
  5012  0D5B  2D5D               	goto	u270_21
  5013  0D5C  2D5E               	goto	u270_20
  5014  0D5D                     u270_21:
  5015  0D5D  2D71               	goto	i1l78
  5016  0D5E                     u270_20:
  5017  0D5E                     i1l2080:
  5018                           
  5019                           ;S1.c: 78:         slave = SPI_Read();
  5020  0D5E  120A  158A  2512  120A  158A  	fcall	_SPI_Read
  5021  0D63  00F1               	movwf	??_ISR
  5022  0D64  0871               	movf	??_ISR,w
  5023  0D65  1283               	bcf	3,5	;RP0=0, select bank0
  5024  0D66  1303               	bcf	3,6	;RP1=0, select bank0
  5025  0D67  00EC               	movwf	_slave
  5026                           
  5027                           ;S1.c: 79:         SPI_Write(POT1SC);
  5028  0D68  30A5               	movlw	(low _POT1SC)& (0+255)
  5029  0D69  120A  158A  24FD  120A  158A  	fcall	_SPI_Write
  5030  0D6E                     i1l2082:
  5031                           
  5032                           ;S1.c: 80:         SSPIF = 0;
  5033  0D6E  1283               	bcf	3,5	;RP0=0, select bank0
  5034  0D6F  1303               	bcf	3,6	;RP1=0, select bank0
  5035  0D70  118C               	bcf	12,3	;volatile
  5036  0D71                     i1l78:
  5037  0D71  0873               	movf	??_ISR+2,w
  5038  0D72  008A               	movwf	10
  5039  0D73  0E72               	swapf	??_ISR+1,w
  5040  0D74  0083               	movwf	3
  5041  0D75  0EFE               	swapf	btemp,f
  5042  0D76  0E7E               	swapf	btemp,w
  5043  0D77  0009               	retfie
  5044  0D78                     __end_of_ISR:
  5045                           
  5046                           	psect	intentry
  5047  0004                     __pintentry:	
  5048                           ;incstack = 0
  5049                           ; Regs used in _ISR: [wreg+status,2+status,0+pclath+cstack]
  5050                           
  5051  0004                     interrupt_function:
  5052  007E                     saved_w	set	btemp
  5053  0004  00FE               	movwf	btemp
  5054  0005  0E03               	swapf	3,w
  5055  0006  00F2               	movwf	??_ISR+1
  5056  0007  080A               	movf	10,w
  5057  0008  00F3               	movwf	??_ISR+2
  5058  0009  120A  158A  2D58   	ljmp	_ISR
  5059                           
  5060                           	psect	text19
  5061  0CFD                     __ptext19:	
  5062 ;; *************** function _SPI_Write *****************
  5063 ;; Defined at:
  5064 ;;		line 27 in file "SPI.c"
  5065 ;; Parameters:    Size  Location     Type
  5066 ;;  a               1    wreg     unsigned char 
  5067 ;; Auto vars:     Size  Location     Type
  5068 ;;  a               1    0[COMMON] unsigned char 
  5069 ;; Return value:  Size  Location     Type
  5070 ;;                  1    wreg      void 
  5071 ;; Registers used:
  5072 ;;		wreg
  5073 ;; Tracked objects:
  5074 ;;		On entry : 0/0
  5075 ;;		On exit  : 0/0
  5076 ;;		Unchanged: 0/0
  5077 ;; Data sizes:     COMMON   BANK0   BANK1   BANK3   BANK2
  5078 ;;      Params:         0       0       0       0       0
  5079 ;;      Locals:         1       0       0       0       0
  5080 ;;      Temps:          0       0       0       0       0
  5081 ;;      Totals:         1       0       0       0       0
  5082 ;;Total ram usage:        1 bytes
  5083 ;; Hardware stack levels used:    1
  5084 ;; This function calls:
  5085 ;;		Nothing
  5086 ;; This function is called by:
  5087 ;;		_ISR
  5088 ;; This function uses a non-reentrant model
  5089 ;;
  5090                           
  5091                           
  5092                           ;psect for function _SPI_Write
  5093  0CFD                     _SPI_Write:
  5094                           
  5095                           ;incstack = 0
  5096                           ; Regs used in _SPI_Write: [wreg]
  5097                           ;SPI_Write@a stored from wreg
  5098  0CFD  00F0               	movwf	SPI_Write@a
  5099  0CFE                     i1l1542:
  5100                           
  5101                           ;SPI.c: 28:     SSPBUF = a;
  5102  0CFE  0870               	movf	SPI_Write@a,w
  5103  0CFF  1283               	bcf	3,5	;RP0=0, select bank0
  5104  0D00  1303               	bcf	3,6	;RP1=0, select bank0
  5105  0D01  0093               	movwf	19	;volatile
  5106  0D02                     i1l125:
  5107  0D02  0008               	return
  5108  0D03                     __end_of_SPI_Write:
  5109                           
  5110                           	psect	text20
  5111  0D12                     __ptext20:	
  5112 ;; *************** function _SPI_Read *****************
  5113 ;; Defined at:
  5114 ;;		line 43 in file "SPI.c"
  5115 ;; Parameters:    Size  Location     Type
  5116 ;;		None
  5117 ;; Auto vars:     Size  Location     Type
  5118 ;;		None
  5119 ;; Return value:  Size  Location     Type
  5120 ;;                  1    wreg      unsigned char 
  5121 ;; Registers used:
  5122 ;;		wreg, status,2, status,0, pclath, cstack
  5123 ;; Tracked objects:
  5124 ;;		On entry : 0/0
  5125 ;;		On exit  : 0/0
  5126 ;;		Unchanged: 0/0
  5127 ;; Data sizes:     COMMON   BANK0   BANK1   BANK3   BANK2
  5128 ;;      Params:         0       0       0       0       0
  5129 ;;      Locals:         0       0       0       0       0
  5130 ;;      Temps:          0       0       0       0       0
  5131 ;;      Totals:         0       0       0       0       0
  5132 ;;Total ram usage:        0 bytes
  5133 ;; Hardware stack levels used:    1
  5134 ;; Hardware stack levels required when called:    1
  5135 ;; This function calls:
  5136 ;;		_spiReceiveWait
  5137 ;; This function is called by:
  5138 ;;		_ISR
  5139 ;; This function uses a non-reentrant model
  5140 ;;
  5141                           
  5142                           
  5143                           ;psect for function _SPI_Read
  5144  0D12                     _SPI_Read:
  5145  0D12                     i1l1536:	
  5146                           ;incstack = 0
  5147                           ; Regs used in _SPI_Read: [wreg+status,2+status,0+pclath+cstack]
  5148                           
  5149                           
  5150                           ;SPI.c: 44:     spiReceiveWait();
  5151  0D12  120A  158A  2503  120A  158A  	fcall	_spiReceiveWait
  5152  0D17                     i1l1538:
  5153                           
  5154                           ;SPI.c: 45:     return (SSPBUF);
  5155  0D17  1283               	bcf	3,5	;RP0=0, select bank0
  5156  0D18  1303               	bcf	3,6	;RP1=0, select bank0
  5157  0D19  0813               	movf	19,w	;volatile
  5158  0D1A                     i1l139:
  5159  0D1A  0008               	return
  5160  0D1B                     __end_of_SPI_Read:
  5161                           
  5162                           	psect	text21
  5163  0D03                     __ptext21:	
  5164 ;; *************** function _spiReceiveWait *****************
  5165 ;; Defined at:
  5166 ;;		line 31 in file "SPI.c"
  5167 ;; Parameters:    Size  Location     Type
  5168 ;;		None
  5169 ;; Auto vars:     Size  Location     Type
  5170 ;;		None
  5171 ;; Return value:  Size  Location     Type
  5172 ;;                  1    wreg      void 
  5173 ;; Registers used:
  5174 ;;		None
  5175 ;; Tracked objects:
  5176 ;;		On entry : 0/0
  5177 ;;		On exit  : 0/0
  5178 ;;		Unchanged: 0/0
  5179 ;; Data sizes:     COMMON   BANK0   BANK1   BANK3   BANK2
  5180 ;;      Params:         0       0       0       0       0
  5181 ;;      Locals:         0       0       0       0       0
  5182 ;;      Temps:          0       0       0       0       0
  5183 ;;      Totals:         0       0       0       0       0
  5184 ;;Total ram usage:        0 bytes
  5185 ;; Hardware stack levels used:    1
  5186 ;; This function calls:
  5187 ;;		Nothing
  5188 ;; This function is called by:
  5189 ;;		_SPI_Read
  5190 ;; This function uses a non-reentrant model
  5191 ;;
  5192                           
  5193                           
  5194                           ;psect for function _spiReceiveWait
  5195  0D03                     _spiReceiveWait:
  5196  0D03                     i1l1490:	
  5197                           ;incstack = 0
  5198                           ; Regs used in _spiReceiveWait: []
  5199                           
  5200  0D03                     i1l128:	
  5201                           ;SPI.c: 33:     while ( !SSPSTATbits.BF );
  5202                           
  5203  0D03  1683               	bsf	3,5	;RP0=1, select bank1
  5204  0D04  1303               	bcf	3,6	;RP1=0, select bank1
  5205  0D05  1C14               	btfss	20,0	;volatile
  5206  0D06  2D08               	goto	u149_21
  5207  0D07  2D09               	goto	u149_20
  5208  0D08                     u149_21:
  5209  0D08  2D03               	goto	i1l128
  5210  0D09                     u149_20:
  5211  0D09                     i1l131:
  5212  0D09  0008               	return
  5213  0D0A                     __end_of_spiReceiveWait:
  5214  007E                     btemp	set	126	;btemp
  5215  007E                     wtemp0	set	126
  5216                           
  5217                           	psect	config
  5218                           
  5219                           ;Config register CONFIG1 @ 0x2007
  5220                           ;	Oscillator Selection bits
  5221                           ;	FOSC = XT, XT oscillator: Crystal/resonator on RA6/OSC2/CLKOUT and RA7/OSC1/CLKIN
  5222                           ;	Watchdog Timer Enable bit
  5223                           ;	WDTE = OFF, WDT disabled and can be enabled by SWDTEN bit of the WDTCON register
  5224                           ;	Power-up Timer Enable bit
  5225                           ;	PWRTE = OFF, PWRT disabled
  5226                           ;	RE3/MCLR pin function select bit
  5227                           ;	MCLRE = OFF, RE3/MCLR pin function is digital input, MCLR internally tied to VDD
  5228                           ;	Code Protection bit
  5229                           ;	CP = OFF, Program memory code protection is disabled
  5230                           ;	Data Code Protection bit
  5231                           ;	CPD = OFF, Data memory code protection is disabled
  5232                           ;	Brown Out Reset Selection bits
  5233                           ;	BOREN = OFF, BOR disabled
  5234                           ;	Internal External Switchover bit
  5235                           ;	IESO = OFF, Internal/External Switchover mode is disabled
  5236                           ;	Fail-Safe Clock Monitor Enabled bit
  5237                           ;	FCMEN = OFF, Fail-Safe Clock Monitor is disabled
  5238                           ;	Low Voltage Programming Enable bit
  5239                           ;	LVP = OFF, RB3 pin has digital I/O, HV on MCLR must be used for programming
  5240                           ;	In-Circuit Debugger Mode bit
  5241                           ;	DEBUG = 0x1, unprogrammed default
  5242  2007                     	org	8199
  5243  2007  20D1               	dw	8401
  5244                           
  5245                           ;Config register CONFIG2 @ 0x2008
  5246                           ;	Brown-out Reset Selection bit
  5247                           ;	BOR4V = BOR40V, Brown-out Reset set to 4.0V
  5248                           ;	Flash Program Memory Self Write Enable bits
  5249                           ;	WRT = OFF, Write protection off
  5250  2008                     	org	8200
  5251  2008  3FFF               	dw	16383

Data Sizes:
    Strings     2
    Constant    0
    Data        0
    BSS         35
    Persistent  0
    Stack       0

Auto Spaces:
    Space          Size  Autos    Used
    COMMON           14      6      10
    BANK0            80     66      77
    BANK1            80      4      24
    BANK3            96      0       0
    BANK2            96      0       0

Pointer List with Targets:

    strcpy@from	PTR const unsigned char  size(1) Largest target is 2
		 -> STR_1(CODE[2]), 

    strcpy@to	PTR unsigned char  size(1) Largest target is 5
		 -> PUNTO1(BANK1[5]), 

    strcpy@cp	PTR unsigned char  size(1) Largest target is 5
		 -> PUNTO1(BANK1[5]), 

    strcat@from	PTR const unsigned char  size(1) Largest target is 5
		 -> PUNTO1(BANK1[5]), POT1SB(BANK1[5]), POT1SA(BANK1[5]), 

    strcat@to	PTR unsigned char  size(1) Largest target is 5
		 -> PUNTO1(BANK1[5]), POT1SB(BANK1[5]), POT1SC(BANK1[5]), 

    strcat@cp	PTR unsigned char  size(1) Largest target is 5
		 -> PUNTO1(BANK1[5]), POT1SB(BANK1[5]), POT1SC(BANK1[5]), 

    utoa@buf	PTR unsigned char  size(1) Largest target is 5
		 -> POT1SB(BANK1[5]), POT1SA(BANK1[5]), POT1SC(BANK1[5]), 

    sp__utoa	PTR unsigned char  size(1) Largest target is 5
		 -> POT1SB(BANK1[5]), POT1SA(BANK1[5]), POT1SC(BANK1[5]), 

    itoa@buf	PTR unsigned char  size(1) Largest target is 5
		 -> POT1SB(BANK1[5]), POT1SA(BANK1[5]), POT1SC(BANK1[5]), 

    itoa@cp	PTR unsigned char  size(1) Largest target is 5
		 -> POT1SB(BANK1[5]), POT1SA(BANK1[5]), POT1SC(BANK1[5]), 

    sp__strcat	PTR unsigned char  size(1) Largest target is 5
		 -> PUNTO1(BANK1[5]), POT1SB(BANK1[5]), POT1SC(BANK1[5]), 

    sp__strcpy	PTR unsigned char  size(1) Largest target is 5
		 -> PUNTO1(BANK1[5]), 

    sp__itoa	PTR unsigned char  size(1) Largest target is 5
		 -> POT1SB(BANK1[5]), POT1SA(BANK1[5]), POT1SC(BANK1[5]), 


Critical Paths under _main in COMMON

    _main->___awmod
    _main->_strcat
    _main->_strcpy
    _utoa->___lwmod
    ___flmul->__Umul8_16
    ___awmod->___awdiv

Critical Paths under _ISR in COMMON

    _ISR->_SPI_Write

Critical Paths under _main in BANK0

    _main->___fldiv
    _itoa->_utoa
    _utoa->___lwdiv
    ___fltol->___flmul
    ___flmul->___xxtofl
    ___fldiv->___flmul
    ___awmod->___awdiv

Critical Paths under _ISR in BANK0

    None.

Critical Paths under _main in BANK1

    None.

Critical Paths under _ISR in BANK1

    None.

Critical Paths under _main in BANK3

    None.

Critical Paths under _ISR in BANK3

    None.

Critical Paths under _main in BANK2

    None.

Critical Paths under _ISR in BANK2

    None.

Call Graph Tables:

 ---------------------------------------------------------------------------------
 (Depth) Function   	        Calls       Base Space   Used Autos Params    Refs
 ---------------------------------------------------------------------------------
 (0) _main                                                 4     4      0   11360
                                              0 BANK1      4     4      0
                           _ADC_Init
                           _ADC_Read
                           _SPI_Init
                            ___awdiv
                            ___awmod
                            ___fldiv
                            ___flmul
                            ___fltol
                           ___xxtofl
                               _itoa
                              _setup
                             _strcat
                             _strcpy
 ---------------------------------------------------------------------------------
 (1) _strcpy                                               4     3      1     235
                                              4 COMMON     2     1      1
                                              0 BANK0      2     2      0
 ---------------------------------------------------------------------------------
 (1) _strcat                                               4     3      1     521
                                              4 COMMON     2     1      1
                                              0 BANK0      2     2      0
 ---------------------------------------------------------------------------------
 (1) _setup                                                0     0      0       0
 ---------------------------------------------------------------------------------
 (1) _itoa                                                 7     3      4    2550
                                             16 BANK0      7     3      4
                               _utoa
 ---------------------------------------------------------------------------------
 (2) _utoa                                                 9     5      4    1669
                                              7 BANK0      9     5      4
                            ___lwdiv
                            ___lwmod
 ---------------------------------------------------------------------------------
 (3) ___lwmod                                              6     2      4     412
                                              4 COMMON     2     2      0
                                              0 BANK0      4     0      4
 ---------------------------------------------------------------------------------
 (3) ___lwdiv                                              8     4      4     601
                                              4 COMMON     1     1      0
                                              0 BANK0      7     3      4
 ---------------------------------------------------------------------------------
 (1) ___xxtofl                                            14    10      4     566
                                              0 BANK0     14    10      4
 ---------------------------------------------------------------------------------
 (1) ___fltol                                             11     7      4     427
                                             40 BANK0     11     7      4
                            ___flmul (ARG)
 ---------------------------------------------------------------------------------
 (1) ___flmul                                             26    18      8    3533
                                             14 BANK0     26    18      8
                          __Umul8_16
                           ___xxtofl (ARG)
 ---------------------------------------------------------------------------------
 (2) __Umul8_16                                            9     7      2     980
                                              4 COMMON     2     0      2
                                              0 BANK0      7     7      0
 ---------------------------------------------------------------------------------
 (1) ___fldiv                                             26    18      8    1273
                                             40 BANK0     26    18      8
                            ___flmul (ARG)
                           ___xxtofl (ARG)
 ---------------------------------------------------------------------------------
 (1) ___awmod                                              7     3      4     752
                                              5 COMMON     1     1      0
                                              8 BANK0      6     2      4
                            ___awdiv (ARG)
 ---------------------------------------------------------------------------------
 (1) ___awdiv                                              9     5      4     805
                                              4 COMMON     1     1      0
                                              0 BANK0      8     4      4
 ---------------------------------------------------------------------------------
 (1) _SPI_Init                                             4     1      3     456
                                              4 COMMON     1     1      0
                                              0 BANK0      3     0      3
 ---------------------------------------------------------------------------------
 (1) _ADC_Read                                             4     0      4     242
                                              0 BANK0      4     0      4
 ---------------------------------------------------------------------------------
 (1) _ADC_Init                                             0     0      0       0
 ---------------------------------------------------------------------------------
 Estimated maximum stack depth 3
 ---------------------------------------------------------------------------------
 (Depth) Function   	        Calls       Base Space   Used Autos Params    Refs
 ---------------------------------------------------------------------------------
 (4) _ISR                                                  3     3      0      22
                                              1 COMMON     3     3      0
                           _SPI_Read
                          _SPI_Write
 ---------------------------------------------------------------------------------
 (5) _SPI_Write                                            1     1      0      22
                                              0 COMMON     1     1      0
 ---------------------------------------------------------------------------------
 (5) _SPI_Read                                             0     0      0       0
                     _spiReceiveWait
 ---------------------------------------------------------------------------------
 (6) _spiReceiveWait                                       0     0      0       0
 ---------------------------------------------------------------------------------
 Estimated maximum stack depth 6
 ---------------------------------------------------------------------------------

 Call Graph Graphs:

 _main (ROOT)
   _ADC_Init
   _ADC_Read
   _SPI_Init
   ___awdiv
   ___awmod
     ___awdiv (ARG)
   ___fldiv
     ___flmul (ARG)
       __Umul8_16
       ___xxtofl (ARG)
     ___xxtofl (ARG)
   ___flmul
     __Umul8_16
     ___xxtofl (ARG)
   ___fltol
     ___flmul (ARG)
       __Umul8_16
       ___xxtofl (ARG)
   ___xxtofl
   _itoa
     _utoa
       ___lwdiv
       ___lwmod
   _setup
   _strcat
   _strcpy

 _ISR (ROOT)
   _SPI_Read
     _spiReceiveWait
   _SPI_Write

 Address spaces:
Name               Size   Autos  Total    Cost      Usage
BITCOMMON            E      0       0       0        0.0%
EEDATA             100      0       0       0        0.0%
NULL                 0      0       0       0        0.0%
CODE                 0      0       0       0        0.0%
COMMON               E      6       A       1       71.4%
BITSFR0              0      0       0       1        0.0%
SFR0                 0      0       0       1        0.0%
BITSFR1              0      0       0       2        0.0%
SFR1                 0      0       0       2        0.0%
STACK                0      0       0       2        0.0%
ABS                  0      0      6F       3        0.0%
BITBANK0            50      0       0       4        0.0%
BITSFR3              0      0       0       4        0.0%
SFR3                 0      0       0       4        0.0%
BANK0               50     42      4D       5       96.2%
BITSFR2              0      0       0       5        0.0%
SFR2                 0      0       0       5        0.0%
BITBANK1            50      0       0       6        0.0%
BANK1               50      4      18       7       30.0%
BITBANK3            60      0       0       8        0.0%
BANK3               60      0       0       9        0.0%
BITBANK2            60      0       0      10        0.0%
BANK2               60      0       0      11        0.0%
DATA                 0      0      6F      12        0.0%


Microchip Technology PIC Macro Assembler V2.31 build 20201012212115 
Symbol Table                                                                                   Tue Feb 23 01:46:16 2021

           ___fldiv@aexp 0061             ___fldiv@bexp 0060                        pc 0002  
           ___fldiv@sign 0059              _SSPSTATbits 0094                       l89 0D97  
                     _V1 0076             ___awdiv@sign 0025                       fsr 0004  
    __Umul8_16@word_mpld 0024                      l100 0D25                      l103 0D38  
                    l121 0D52                      l122 0D57                      l411 0FFF  
                    l421 0FFF                      l418 0FEA                      l507 0E70  
                    l620 02F4                      l614 0388                      l702 0DBA  
                    l391 0F11                      l633 0DF7                      l378 07FB  
                    l626 037C                      l635 0E09                      l660 0792  
                    l590 04D7                      l574 03E5                      l671 075C  
                    l576 0565                      l672 0768                      l664 0740  
                    l497 0EB6                      l658 06FB                      l596 0549  
                    l685 0F6C                      l598 0559                      l687 0F83  
                    l679 0DE0                      l696 0E34                      _ISR 0D58  
                    _adc 0079                      fsr0 0004                      indf 0000  
           ___awmod@sign 002D             ___flmul@aexp 003C             ___flmul@bexp 0041  
           ___flmul@sign 003B             ___flmul@temp 0046             ___flmul@prod 0042  
                   ?_ISR 0070             ___fltol@exp1 0052                     l2120 0E75  
                   l2200 0F70                     l2210 0D3A                     l2130 0E8D  
                   l2122 0E7B                     l2202 0F77                     l2220 0D26  
                   l2212 0D42                     l2300 07E7                     l2132 0E9E  
                   l2124 0E7E                     l2140 0EB2                     l2204 0F79  
                   l2230 0D36                     l2222 0D32                     l2214 0D48  
                   l2302 07ED                     l2310 0F84                     l2134 0EA4  
                   l2126 0E85                     l2118 0E71                     l2150 0E47  
                   l2206 0F7F                     l2232 0D37                     l2224 0D33  
                   l2216 0D4A                     l2304 07F2                     l2400 0117  
                   l2320 0FB0                     l2312 0F91                     l2136 0EA5  
                   l2128 0E89                     l2160 0E66                     l2152 0E4B  
                   l2144 0E35                     l2240 0DC2                     l2226 0D34  
                   l2218 0D51                     l2306 07F7                     l2170 0DED  
                   l2410 0185                     l2402 0133                     l2322 0FB8  
                   l2138 0EAC                     l2154 0E4F                     l2146 0E3D  
                   l2162 0E6C                     l2242 0DC9                     l2250 0D9B  
                   l2228 0D35                     l1700 0EE6                     l2172 0DF1  
                   l2420 0215                     l2412 0195                     l2404 014F  
                   l2340 0FDF                     l2332 0FC6                     l2324 0FBA  
                   l2316 0F9A                     l2500 0711                     l2156 0E59  
                   l2148 0E40                     l2180 0F15                     l2244 0DCD  
                   l2236 0DBE                     l2260 0E16                     l2252 0DA0  
                   l2270 079A                     l1710 0F08                     l1702 0EF0  
                   l2174 0E00                     l2166 0DE4                     l2430 02A9  
                   l2422 0225                     l2414 01B2                     l2406 0158  
                   l2350 0035                     l2342 0FEF                     l2326 0FBE  
                   l2334 0FD8                     l2318 0FAF                     l2510 0747  
                   l2502 071E                     l2158 0E5F                     l2190 0F3A  
                   l2182 0F19                     l2246 0DD2                     l2238 0DBE  
                   l1550 0D82                     l2262 0E1F                     l2254 0DA8  
                   l2280 07AE                     l2272 079F                     l1712 0F0D  
                   l1704 0EF6                     l1800 0406                     l2176 0E05  
                   l2168 0DE6                     l2440 02CE                     l2432 02B7  
                   l2424 0252                     l2416 01CB                     l2408 0168  
                   l2360 004C                     l2352 0039                     l2344 0FF4  
                   l2520 0780                     l2512 0752                     l2504 0725  
                   l2192 0F3C                     l2184 0F2C                     l1560 0D8A  
                   l1552 0D84                     l1544 0D78                     l2264 0E27  
                   l2256 0E0D                     l2290 07C4                     l2282 07B0  
                   l2274 07A1                     l2266 0793                     l1706 0EFD  
                   l1810 042E                     l1802 040B                     l2450 02F1  
                   l2434 02C0                     l2442 02D4                     l2426 0278  
                   l2418 01E8                     l2370 0065                     l2362 004E  
                   l2354 003A                     l2346 0028                     l2522 0785  
                   l2514 0756                     l2506 0729                     l2194 0F4F  
                   l2186 0F30                     l1570 0D94                     l1562 0D8B  
                   l1554 0D85                     l1546 0D7C                     l2258 0E12  
                   l2530 0566                     l2292 07C8                     l2284 07B6  
                   l2276 07A5                     l2268 0796                     l1708 0F03  
                   l1820 0457                     l1812 0436                     l2460 0310  
                   l2444 02D8                     l2436 02C4                     l2428 02A0  
                   l2380 007A                     l2372 0066                     l2364 0056  
                   l2356 003F                     l2348 002F                     l2524 0789  
                   l2516 0760                     l2508 0737                     l2196 0F62  
                   l2188 0F36                     l1572 0D95                     l1564 0D8C  
                   l1556 0D88                     l1548 0D7D                     l2540 0597  
                   l2532 056B                     l2294 07D9                     l2286 07B9  
                   l2278 07AA                     l1830 0478                     l1822 045B  
                   l1814 043E                     l1806 0414                     l2470 0356  
                   l2462 0329                     l2454 02F9                     l2446 02D9  
                   l2438 02C5                     l2390 0095                     l2382 0082  
                   l2374 006B                     l2366 005B                     l2358 0044  
                   l2526 078A                     l2518 076A                     l2198 0F68  
                   l1574 0D96                     l1566 0D8F                     l1558 0D89  
                   l2550 0663                     l2542 05F4                     l2534 0570  
                   l1576 0D1B                     l2296 07DF                     l2288 07C0  
                   l1680 0EBA                     l1840 049A                     l1832 0486  
                   l1824 045C                     l1816 0440                     l1808 0426  
                   l1760 039B                     l1752 0389                     l2480 0375  
                   l2472 0360                     l2456 02FE                     l2464 032F  
                   l2448 02DD                     l2392 00A5                     l2384 0087  
                   l2376 0070                     l2368 0061                     l1568 0D93  
                   l2560 06BB                     l2552 0671                     l2544 061E  
                   l2536 057B                     l2298 07E0                     l1690 0ECE  
                   l1682 0EBE                     l1842 04A3                     l1850 04B7  
                   l1818 0445                     l1826 0465                     l1834 048A  
                   l1762 03A0                     l1770 03B0                     l1754 0390  
                   l2482 0380                     l2474 0362                     l2466 033C  
                   l2458 030C                     l2394 00B2                     l2386 008C  
                   l2378 0078                     l2490 06E3                     l2562 06C7  
                   l2554 0695                     l2546 0631                     l2538 0585  
                   l1692 0ED4                     l1684 0EC3                     l1852 04BB  
                   l1844 04A7                     l1836 0490                     l1828 0477  
                   l1780 03C8                     l1772 03B8                     l1764 03A5  
                   l1756 0396                     l2476 0370                     l2468 0347  
                   l2396 00CF                     l2492 06F3                     l2556 06A3  
                   l2548 063F                     l1694 0ED7                     l1686 0EC5  
                   l1678 0EB7                     l1870 050C                     l1862 04DC  
                   l1854 04BC                     l1846 04A8                     l1838 0498  
                   l1782 03CD                     l1790 03DD                     l1774 03BD  
                   l1766 03AD                     l1758 039A                     l2478 0374  
                   l2398 00EB                     l2494 0703                     l2486 06DA  
                   l2558 06AF                     l1696 0EDE                     l1688 0EC9  
                   l1880 0540                     l1864 04E1                     l1872 0512  
                   l1856 04C0                     l1848 04B1                     l1792 03ED  
                   l1784 03D2                     l1776 03C3                     l1768 03AE  
                   l2488 06DF                     l1698 0EE2                     l1882 0548  
                   l1874 051F                     l1866 04EF                     l1858 04D4  
                   l1794 03F9                     l1786 03DA                     l1778 03C7  
                   l2498 070C                     l1884 054F                     l1876 052D  
                   l1868 04F3                     l1796 03FD                     l1788 03DB  
                   l1886 0553                     l1878 053C                     l1888 0555  
                   STR_1 0806                     u2010 045B                     u2011 045A  
                   u2100 04C0                     u2101 04BF                     u2005 0450  
                   u2110 04D4                     u2030 0477                     u2111 04D3  
                   u2031 0476                     u2120 04DB                     u2040 0490  
                   u2121 04DA                     u2041 048F                     u2025 045E  
                   u3010 07D9                     u2130 04E1                     u2050 0498  
                   u3011 07D8                     u2131 04E0                     u2051 0497  
                   u2035 0473                     u2140 04F3                     u3100 0FD7  
                   u3005 07C9                     u2141 04F2                     u3101 0FD6  
                   u3030 07ED                     u2150 0502                     u2070 04A7  
                   u3110 0FDE                     u3031 07EC                     u3015 07D5  
                   u2071 04A6                     u3111 0FDD                     u3040 07F2  
                   u2160 051F                     u3200 0070                     u3041 07F1  
                   u3025 07E1                     u2161 051E                     u2065 049C  
                   u3201 006F                     u2170 053C                     u2090 04BB  
                   u3210 0087                     u3130 0FEF                     u3050 0F91  
                   u2171 053B                     u2155 04FD                     u2091 04BA  
                   u3211 0086                     u3131 0FEE                     u3051 0F90  
                   u2180 0553                     u3220 008C                     u3140 0FF4  
                   u3060 0FA8                     u2181 0552                     u2165 051B  
                   u2085 04AA                     u3221 008B                     u3141 0FF3  
                   u3125 0FE1                     u1710 0EBE                     u3150 0039  
                   u3070 0FBE                     u1711 0EBD                     u2175 0538  
                   u3311 01DA                     u3231 00DD                     u3151 0038  
                   u3071 0FBD                     u1720 0EC9                     u3400 02C4  
                   u3312 01E1                     u3232 00E4                     u3160 003F  
                   u3080 0FC5                     u1721 0EC8                     u3401 02C3  
                   u3321 0207                     u3313 01E8                     u3305 01B4  
                   u3241 00F9                     u3233 00EB                     u3161 003E  
                   u3081 0FC4                     u3065 0FA3                     u1730 0ED4  
                   u3322 020E                     u3242 0100                     u3170 0044  
                   u1731 0ED3                     u3331 0234                     u3323 0215  
                   u3251 0125                     u3243 0107                     u3171 0043  
                   u1900 039A                     u3500 0356                     u3420 02D8  
                   u3340 025E                     u3332 023B                     u3252 012C  
                   u3180 0065                     u1901 0399                     u3501 0355  
                   u3421 02D7                     u3333 0242                     u3261 0141  
                   u3253 0133                     u3181 0064                     u1750 0EE6  
                   u1910 03A0                     u3510 0374                     u3430 02DD  
                   u3262 0148                     u3190 006B                     u2710 0E7B  
                   u1751 0EE5                     u1911 039F                     u3511 0373  
                   u3431 02DC                     u3415 02C7                     u3351 026A  
                   u3263 014F                     u3191 006A                     u3095 0FC7  
                   u2711 0E7A                     u1760 0EF0                     u1920 03A5  
                   u3440 02F1                     u3360 0286                     u3352 0271  
                   u3600 0756                     u3520 06DF                     u2800 0E4F  
                   u1761 0EEF                     u1745 0ED8                     u1921 03A4  
                   u3505 0352                     u3441 02F0                     u3353 0278  
                   u3345 0259                     u3281 0177                     u3601 0755  
                   u3521 06DE                     u2801 0E4E                     u1930 03C7  
                   u3450 02F8                     u3282 017E                     u3610 075C  
                   u3530 06E3                     u2730 0E8D                     u2810 0E59  
                   u1931 03C6                     u3451 02F7                     u3371 0292  
                   u3291 01A4                     u3283 0185                     u3275 0151  
                   u3611 075B                     u3531 06E2                     u2731 0E8C  
                   u2811 0E58                     u2900 0D42                     u1780 0F03  
                   u1940 03CD                     u3460 02FE                     u3372 0299  
                   u3292 01AB                     u3620 0760                     u3540 0703  
                   u2901 0D41                     u1781 0F02                     u1765 0EEC  
                   u1941 03CC                     u3461 02FD                     u3373 02A0  
                   u3365 0281                     u3293 01B2                     u3621 075F  
                   u3541 0702                     u2725 0E7F                     u1790 0F08  
                   u1950 03D2                     u3470 0310                     u3630 0775  
                   u2750 0E9E                     u2830 0E6C                     u2910 0DC2  
                   u1791 0F07                     u1775 0EF7                     u1951 03D1  
                   u3471 030F                     u2751 0E9D                     u2831 0E6B  
                   u2815 0E55                     u2911 0DC1                     u1960 03ED  
                   u2840 0DF1                     u3480 031F                     u3640 0785  
                   u3560 0724                     u2920 0DBA                     u1961 03EC  
                   u2841 0DF0                     u3385 02A2                     u3641 0784  
                   u3561 0723                     u2745 0E8E                     u2825 0E60  
                   u2921 0DB9                     u1970 040B                     u3490 033C  
                   u3650 0789                     u2770 0EB2                     u2930 0E1E  
                   u1971 040A                     u3491 033B                     u3395 02B9  
                   u3651 0788                     u3635 0770                     u3555 0716  
                   u2771 0EB1                     u2755 0E9A                     u2931 0E1D  
                   u1980 0445                     u2860 0E05                     u3580 0746  
                   u2780 0E3D                     u2940 0E34                     u1981 0444  
                   u2861 0E04                     u3485 031A                     u3581 0745  
                   u2765 0EA6                     u2781 0E3C                     u2941 0E33  
                   u2950 079A                     u2870 0F36                     u2951 0799  
                   u2855 0DF8                     u3495 0338                     u3575 0738  
                   u2871 0F35                     u2960 07A5                     u2880 0F68  
                   u2961 07A4                     u2881 0F67                     u2970 07B6  
                   u2890 0F7F                     u2971 07B5                     u1995 0447  
                   u3595 074B                     u2795 0E41                     u2891 0F7E  
                   u3667 0581                     u2990 07C8                     u2991 07C7  
                   u2985 07BA                     i1l78 0D71                     _main 0566  
                   _itoa 0DBB                     btemp 007E                     _utoa 0F12  
     SPI_Init@sClockIdle 0021         __end_of_ADC_Init 0D26         __end_of_ADC_Read 0D39  
                   start 000C          ___fldiv@new_exp 005A                    ??_ISR 0071  
    SPI_Init@sDataSample 0020            ___fltol@sign1 0051                    ?_main 0070  
        __end_of___fldiv 0566                    ?_itoa 0030          __end_of___awdiv 07FC  
        __end_of___awmod 0F12          __end_of___flmul 0389          __end_of___fltol 1000  
                  _ANSEL 0188                    ?_utoa 0027          ___awdiv@divisor 0020  
        __end_of___lwdiv 0EB7                    i1l131 0D09                    i1l125 0D02  
                  i1l128 0D03                    i1l139 0D1A          __end_of___lwmod 0E71  
        ___awdiv@counter 0024                    _POT1A 006A                    _POT1B 0068  
                  _POT1C 0066                    _PORTA 0005                    _PORTB 0006  
                  _PORTC 0007                    _PORTD 0008                    _PORTE 0009  
                  _TRISA 0085                    _TRISB 0086                    _TRISC 0087  
                  _TRISD 0088                    _SSPIF 0063                    _Ready 0078  
  SPI_Init@sTransmitEdge 0022                    _slave 006C                    _setup 0D78  
       __end_of_SPI_Init 0D58         __end_of_SPI_Read 0D1B                    pclath 000A  
                  utoa@c 002E                    utoa@v 002C                    status 0003  
                  wtemp0 007E       __size_of_SPI_Write 0006          __initialization 000F  
           __end_of_main 06D7             __end_of_itoa 0DE1             __end_of_utoa 0F84  
                 ??_main 00B4                   ??_itoa 0034                   ??_utoa 002B  
                 _ADRESH 001E         ___awdiv@dividend 0022                ADC_Read@a 0020  
              ADC_Read@b 0022                   ?_setup 0070                   _ANSELH 0189  
                 i1l2080 0D5E                   i1l2082 0D6E                   i1l1542 0CFE  
                 i1l2078 0D58                   i1l1536 0D12                   i1l1490 0D03  
                 i1l1538 0D17                   u149_20 0D09                   u149_21 0D08  
                 u270_20 0D5E                   u270_21 0D5D                   _POT1SA 00AF  
                 _POT1SB 00AA                   _POT1SC 00A5                   _PUNTO1 00A0  
                 _TRISC3 043B                   _TRISC4 043C                   _TRISC5 043D  
                 _SSPCON 0014                   _SSPBUF 0013         __end_of___xxtofl 0793  
              ??___fldiv 0050                ??___awdiv 0074                ??___awmod 0075  
              ??___flmul 0036                ??___fltol 004C                ??___lwdiv 0074  
              ??___lwmod 0074         ___awdiv@quotient 0026          ___awmod@divisor 0028  
        ___awmod@counter 002C                   _strcat 0E0A                   _strcpy 0D98  
      __end_of_SPI_Write 0D03       __size_of__Umul8_16 0029                ?_ADC_Init 0070  
              ?_ADC_Read 0020                   saved_w 007E             ___xxtofl@arg 002A  
           ___xxtofl@exp 0029             ___xxtofl@val 0020  __end_of__initialization 0024  
          SPI_Init@sType 0074               ___fltol@f1 0048           __pcstackCOMMON 0070  
          __end_of_setup 0D98                ?_SPI_Init 0020                ?_SPI_Read 0070  
             ??_ADC_Init 0074               ??_ADC_Read 0074                  ??_setup 0074  
             __pbssBANK0 0062               __pbssBANK1 00A0        __end_of__Umul8_16 0E0A  
             __pmaintext 0566               __pintentry 0004  __size_of_spiReceiveWait 0007  
             ??_SPI_Init 0074               ??_SPI_Read 0070                  ?_strcat 0074  
                ?_strcpy 0074                ?___xxtofl 0020                  _SSPSTAT 0094  
             __stringtab 0800                  ___fldiv 0389                  ___awdiv 0793  
                ___awmod 0EB7                  ___flmul 0028                  ___fltol 0F84  
                ___lwdiv 0E71                  ___lwmod 0E35                  __ptext1 0D98  
                __ptext2 0E0A                  __ptext3 0D78                  __ptext4 0DBB  
                __ptext5 0F12                  __ptext6 0E35                  __ptext7 0E71  
                __ptext8 06D7                  __ptext9 0F84          __size_of_strcat 002B  
        __size_of_strcpy 0023             __size_of_ISR 0020               ??___xxtofl 0024  
       ___awmod@dividend 002A                  clrloop0 0D0B                  _voltaje 0062  
   end_of_initialization 0024                  itoa@buf 0036                  itoa@val 0030  
                utoa@buf 002F                  utoa@val 0027            ___xxtofl@sign 0028  
              _TRISAbits 0085              ___fldiv@grs 005C              ___fldiv@rem 0055  
              _SPI_Write 0CFD        __size_of_ADC_Init 000B        __size_of_ADC_Read 0013  
            ___flmul@grs 003D           _spiReceiveWait 0D03        __size_of_SPI_Init 001F  
      __size_of_SPI_Read 0009           __end_of_strcat 0E35           __end_of_strcpy 0DBB  
    start_initialization 000F              __end_of_ISR 0D78               ?_SPI_Write 0070  
 __end_of_spiReceiveWait 0D0A                __Umul8_16 0DE1                 ??_strcat 0075  
               ??_strcpy 0075                ___fldiv@a 0048                ___fldiv@b 004C  
              ___flmul@a 0032                ___flmul@b 002E              __pbssCOMMON 0076  
              ___latbits 0002            __pcstackBANK0 0020            __pcstackBANK1 00B4  
      __size_of___xxtofl 00BC         ___lwdiv@dividend 0022          ?_spiReceiveWait 0070  
               ?___fldiv 0048                 ?___awdiv 0020                 ?___awmod 0028  
               ?___flmul 002E                 ?___fltol 0048               ?__Umul8_16 0074  
               ?___lwdiv 0020                 ?___lwmod 0020                __pstrings 0800  
               _ADC_Init 0D1B                 _ADC_Read 0D26              ??_SPI_Write 0070  
       ___lwdiv@quotient 0025           __size_of_setup 0020        interrupt_function 0004  
              clear_ram0 0D0A                 _PIR1bits 000C                 _SPI_Init 0D39  
               _SPI_Read 0D12               _ADCON0bits 001F              __stringbase 0805  
             _ADCON1bits 009F               SPI_Write@a 0070              ??__Umul8_16 0020  
       __size_of___fldiv 01DD         __size_of___awdiv 0069         __size_of___awmod 005B  
       __size_of___flmul 0361         __size_of___fltol 007C         __size_of___lwdiv 0046  
       __size_of___lwmod 003C       __end_of__stringtab 0806                 ___xxtofl 06D7  
             strcat@from 0074          ___lwdiv@divisor 0020          ___lwdiv@counter 0024  
               __ptext10 0028                 __ptext11 0DE1                 __ptext20 0D12  
               __ptext12 0389                 __ptext21 0D03                 __ptext13 0EB7  
               __ptext14 0793                 __ptext15 0D39                 __ptext16 0D26  
               __ptext17 0D1B                 __ptext18 0D58                 __ptext19 0CFD  
             strcpy@from 0074            __size_of_main 0171            __size_of_itoa 0026  
          __size_of_utoa 0072                 itoa@base 0032                 intlevel1 0000  
       ___lwmod@dividend 0022         ??_spiReceiveWait 0070                stringcode 0800  
             _OSCCONbits 008F                 utoa@base 0029   __Umul8_16@multiplicand 0074  
               strcat@cp 0021                 strcat@to 0020          ___lwmod@divisor 0020  
               strcpy@cp 0021                 strcpy@to 0020          ___lwmod@counter 0075  
               stringdir 0800                 stringtab 0800     __Umul8_16@multiplier 0026  
      __Umul8_16@product 0022  
