

Microchip MPLAB XC8 Assembler V2.31 build 20201012212115 
                                                                                               Tue Feb 23 08:15:51 2021

Microchip MPLAB XC8 C Compiler v2.31 (Free license) build 20201012212115 Og1 
     1                           	processor	16F887
     2                           	pagewidth 120
     3                           	opt	flic
     4                           	psect	strings,global,class=STRING,delta=2,noexec
     5                           	psect	cinit,global,class=CODE,merge=1,delta=2
     6                           	psect	bssCOMMON,global,class=COMMON,space=1,delta=1,noexec
     7                           	psect	bssBANK0,global,class=BANK0,space=1,delta=1,noexec
     8                           	psect	bssBANK1,global,class=BANK1,space=1,delta=1,noexec
     9                           	psect	clrtext,global,class=CODE,delta=2
    10                           	psect	cstackBANK1,global,class=BANK1,space=1,delta=1,noexec
    11                           	psect	cstackCOMMON,global,class=COMMON,space=1,delta=1,noexec
    12                           	psect	cstackBANK0,global,class=BANK0,space=1,delta=1,noexec
    13                           	psect	maintext,global,class=CODE,split=1,delta=2
    14                           	psect	text1,local,class=CODE,merge=1,delta=2,group=2
    15                           	psect	text2,local,class=CODE,merge=1,delta=2,group=2
    16                           	psect	text3,local,class=CODE,merge=1,delta=2
    17                           	psect	text4,local,class=CODE,merge=1,delta=2,group=2
    18                           	psect	text5,local,class=CODE,merge=1,delta=2,group=2
    19                           	psect	text6,local,class=CODE,merge=1,delta=2,group=1
    20                           	psect	text7,local,class=CODE,merge=1,delta=2,group=1
    21                           	psect	text8,local,class=CODE,merge=1,delta=2,group=1
    22                           	psect	text9,local,class=CODE,merge=1,delta=2,group=1
    23                           	psect	text10,local,class=CODE,merge=1,delta=2,group=1
    24                           	psect	text11,local,class=CODE,merge=1,delta=2,group=1
    25                           	psect	text12,local,class=CODE,merge=1,delta=2,group=1
    26                           	psect	text13,local,class=CODE,merge=1,delta=2,group=1
    27                           	psect	text14,local,class=CODE,merge=1,delta=2,group=1
    28                           	psect	text15,local,class=CODE,merge=1,delta=2,group=1
    29                           	psect	text16,local,class=CODE,merge=1,delta=2
    30                           	psect	text17,local,class=CODE,merge=1,delta=2
    31                           	psect	text18,local,class=CODE,merge=1,delta=2
    32                           	psect	text19,local,class=CODE,merge=1,delta=2
    33                           	psect	intentry,global,class=CODE,delta=2
    34                           	psect	text20,local,class=CODE,merge=1,delta=2
    35                           	psect	text21,local,class=CODE,merge=1,delta=2
    36                           	psect	text22,local,class=CODE,merge=1,delta=2
    37                           	psect	config,global,abs,ovrld,class=CONFIG,space=4,delta=2,noexec
    38                           	dabs	1,0x7E,2
    39  0000                     
    40                           ; Version 2.20
    41                           ; Generated 12/02/2020 GMT
    42                           ; 
    43                           ; Copyright © 2020, Microchip Technology Inc. and its subsidiaries ("Microchip")
    44                           ; All rights reserved.
    45                           ; 
    46                           ; This software is developed by Microchip Technology Inc. and its subsidiaries ("Microch
      +                          ip").
    47                           ; 
    48                           ; Redistribution and use in source and binary forms, with or without modification, are
    49                           ; permitted provided that the following conditions are met:
    50                           ; 
    51                           ;     1. Redistributions of source code must retain the above copyright notice, this lis
      +                          t of
    52                           ;        conditions and the following disclaimer.
    53                           ; 
    54                           ;     2. Redistributions in binary form must reproduce the above copyright notice, this 
      +                          list
    55                           ;        of conditions and the following disclaimer in the documentation and/or other
    56                           ;        materials provided with the distribution.
    57                           ; 
    58                           ;     3. Microchip's name may not be used to endorse or promote products derived from th
      +                          is
    59                           ;        software without specific prior written permission.
    60                           ; 
    61                           ; THIS SOFTWARE IS PROVIDED BY MICROCHIP "AS IS" AND ANY EXPRESS OR IMPLIED WARRANTIES,
    62                           ; INCLUDING, BUT NOT LIMITED TO, THE IMPLIED WARRANTIES OF MERCHANTABILITY AND FITNESS F
      +                          OR
    63                           ; PURPOSE ARE DISCLAIMED.  IN NO EVENT SHALL MICROCHIP BE LIABLE FOR ANY DIRECT, INDIREC
      +                          T,
    64                           ; INCIDENTAL, SPECIAL, EXEMPLARY, OR CONSEQUENTIAL DAMAGES (INCLUDING BUT NOT LIMITED TO
    65                           ; PROCUREMENT OF SUBSTITUTE GOODS OR SERVICES; LOSS OF USE, DATA OR PROFITS; OR BUSINESS
    66                           ; INTERRUPTION) HOWSOEVER CAUSED AND ON ANY THEORY OF LIABILITY, WHETHER IN CONTRACT, ST
      +                          RICT
    67                           ; LIABILITY, OR TORT (INCLUDING NEGLIGENCE OR OTHERWISE) ARISING IN ANY WAY OUT OF THE U
      +                          SE OF
    68                           ; THIS SOFTWARE, EVEN IF ADVISED OF THE POSSIBILITY OF SUCH DAMAGE.
    69                           ; 
    70                           ; 
    71                           ; Code-generator required, PIC16F887 Definitions
    72                           ; 
    73                           ; SFR Addresses
    74  0000                     	;# 
    75  0001                     	;# 
    76  0002                     	;# 
    77  0003                     	;# 
    78  0004                     	;# 
    79  0005                     	;# 
    80  0006                     	;# 
    81  0007                     	;# 
    82  0008                     	;# 
    83  0009                     	;# 
    84  000A                     	;# 
    85  000B                     	;# 
    86  000C                     	;# 
    87  000D                     	;# 
    88  000E                     	;# 
    89  000E                     	;# 
    90  000F                     	;# 
    91  0010                     	;# 
    92  0011                     	;# 
    93  0012                     	;# 
    94  0013                     	;# 
    95  0014                     	;# 
    96  0015                     	;# 
    97  0015                     	;# 
    98  0016                     	;# 
    99  0017                     	;# 
   100  0018                     	;# 
   101  0019                     	;# 
   102  001A                     	;# 
   103  001B                     	;# 
   104  001B                     	;# 
   105  001C                     	;# 
   106  001D                     	;# 
   107  001E                     	;# 
   108  001F                     	;# 
   109  0081                     	;# 
   110  0085                     	;# 
   111  0086                     	;# 
   112  0087                     	;# 
   113  0088                     	;# 
   114  0089                     	;# 
   115  008C                     	;# 
   116  008D                     	;# 
   117  008E                     	;# 
   118  008F                     	;# 
   119  0090                     	;# 
   120  0091                     	;# 
   121  0092                     	;# 
   122  0093                     	;# 
   123  0093                     	;# 
   124  0093                     	;# 
   125  0094                     	;# 
   126  0095                     	;# 
   127  0096                     	;# 
   128  0097                     	;# 
   129  0098                     	;# 
   130  0099                     	;# 
   131  009A                     	;# 
   132  009B                     	;# 
   133  009C                     	;# 
   134  009D                     	;# 
   135  009E                     	;# 
   136  009F                     	;# 
   137  0105                     	;# 
   138  0107                     	;# 
   139  0108                     	;# 
   140  0109                     	;# 
   141  010C                     	;# 
   142  010C                     	;# 
   143  010D                     	;# 
   144  010E                     	;# 
   145  010F                     	;# 
   146  0185                     	;# 
   147  0187                     	;# 
   148  0188                     	;# 
   149  0189                     	;# 
   150  018C                     	;# 
   151  018D                     	;# 
   152  0000                     	;# 
   153  0001                     	;# 
   154  0002                     	;# 
   155  0003                     	;# 
   156  0004                     	;# 
   157  0005                     	;# 
   158  0006                     	;# 
   159  0007                     	;# 
   160  0008                     	;# 
   161  0009                     	;# 
   162  000A                     	;# 
   163  000B                     	;# 
   164  000C                     	;# 
   165  000D                     	;# 
   166  000E                     	;# 
   167  000E                     	;# 
   168  000F                     	;# 
   169  0010                     	;# 
   170  0011                     	;# 
   171  0012                     	;# 
   172  0013                     	;# 
   173  0014                     	;# 
   174  0015                     	;# 
   175  0015                     	;# 
   176  0016                     	;# 
   177  0017                     	;# 
   178  0018                     	;# 
   179  0019                     	;# 
   180  001A                     	;# 
   181  001B                     	;# 
   182  001B                     	;# 
   183  001C                     	;# 
   184  001D                     	;# 
   185  001E                     	;# 
   186  001F                     	;# 
   187  0081                     	;# 
   188  0085                     	;# 
   189  0086                     	;# 
   190  0087                     	;# 
   191  0088                     	;# 
   192  0089                     	;# 
   193  008C                     	;# 
   194  008D                     	;# 
   195  008E                     	;# 
   196  008F                     	;# 
   197  0090                     	;# 
   198  0091                     	;# 
   199  0092                     	;# 
   200  0093                     	;# 
   201  0093                     	;# 
   202  0093                     	;# 
   203  0094                     	;# 
   204  0095                     	;# 
   205  0096                     	;# 
   206  0097                     	;# 
   207  0098                     	;# 
   208  0099                     	;# 
   209  009A                     	;# 
   210  009B                     	;# 
   211  009C                     	;# 
   212  009D                     	;# 
   213  009E                     	;# 
   214  009F                     	;# 
   215  0105                     	;# 
   216  0107                     	;# 
   217  0108                     	;# 
   218  0109                     	;# 
   219  010C                     	;# 
   220  010C                     	;# 
   221  010D                     	;# 
   222  010E                     	;# 
   223  010F                     	;# 
   224  0185                     	;# 
   225  0187                     	;# 
   226  0188                     	;# 
   227  0189                     	;# 
   228  018C                     	;# 
   229  018D                     	;# 
   230  0000                     	;# 
   231  0001                     	;# 
   232  0002                     	;# 
   233  0003                     	;# 
   234  0004                     	;# 
   235  0005                     	;# 
   236  0006                     	;# 
   237  0007                     	;# 
   238  0008                     	;# 
   239  0009                     	;# 
   240  000A                     	;# 
   241  000B                     	;# 
   242  000C                     	;# 
   243  000D                     	;# 
   244  000E                     	;# 
   245  000E                     	;# 
   246  000F                     	;# 
   247  0010                     	;# 
   248  0011                     	;# 
   249  0012                     	;# 
   250  0013                     	;# 
   251  0014                     	;# 
   252  0015                     	;# 
   253  0015                     	;# 
   254  0016                     	;# 
   255  0017                     	;# 
   256  0018                     	;# 
   257  0019                     	;# 
   258  001A                     	;# 
   259  001B                     	;# 
   260  001B                     	;# 
   261  001C                     	;# 
   262  001D                     	;# 
   263  001E                     	;# 
   264  001F                     	;# 
   265  0081                     	;# 
   266  0085                     	;# 
   267  0086                     	;# 
   268  0087                     	;# 
   269  0088                     	;# 
   270  0089                     	;# 
   271  008C                     	;# 
   272  008D                     	;# 
   273  008E                     	;# 
   274  008F                     	;# 
   275  0090                     	;# 
   276  0091                     	;# 
   277  0092                     	;# 
   278  0093                     	;# 
   279  0093                     	;# 
   280  0093                     	;# 
   281  0094                     	;# 
   282  0095                     	;# 
   283  0096                     	;# 
   284  0097                     	;# 
   285  0098                     	;# 
   286  0099                     	;# 
   287  009A                     	;# 
   288  009B                     	;# 
   289  009C                     	;# 
   290  009D                     	;# 
   291  009E                     	;# 
   292  009F                     	;# 
   293  0105                     	;# 
   294  0107                     	;# 
   295  0108                     	;# 
   296  0109                     	;# 
   297  010C                     	;# 
   298  010C                     	;# 
   299  010D                     	;# 
   300  010E                     	;# 
   301  010F                     	;# 
   302  0185                     	;# 
   303  0187                     	;# 
   304  0188                     	;# 
   305  0189                     	;# 
   306  018C                     	;# 
   307  018D                     	;# 
   308  0000                     	;# 
   309  0001                     	;# 
   310  0002                     	;# 
   311  0003                     	;# 
   312  0004                     	;# 
   313  0005                     	;# 
   314  0006                     	;# 
   315  0007                     	;# 
   316  0008                     	;# 
   317  0009                     	;# 
   318  000A                     	;# 
   319  000B                     	;# 
   320  000C                     	;# 
   321  000D                     	;# 
   322  000E                     	;# 
   323  000E                     	;# 
   324  000F                     	;# 
   325  0010                     	;# 
   326  0011                     	;# 
   327  0012                     	;# 
   328  0013                     	;# 
   329  0014                     	;# 
   330  0015                     	;# 
   331  0015                     	;# 
   332  0016                     	;# 
   333  0017                     	;# 
   334  0018                     	;# 
   335  0019                     	;# 
   336  001A                     	;# 
   337  001B                     	;# 
   338  001B                     	;# 
   339  001C                     	;# 
   340  001D                     	;# 
   341  001E                     	;# 
   342  001F                     	;# 
   343  0081                     	;# 
   344  0085                     	;# 
   345  0086                     	;# 
   346  0087                     	;# 
   347  0088                     	;# 
   348  0089                     	;# 
   349  008C                     	;# 
   350  008D                     	;# 
   351  008E                     	;# 
   352  008F                     	;# 
   353  0090                     	;# 
   354  0091                     	;# 
   355  0092                     	;# 
   356  0093                     	;# 
   357  0093                     	;# 
   358  0093                     	;# 
   359  0094                     	;# 
   360  0095                     	;# 
   361  0096                     	;# 
   362  0097                     	;# 
   363  0098                     	;# 
   364  0099                     	;# 
   365  009A                     	;# 
   366  009B                     	;# 
   367  009C                     	;# 
   368  009D                     	;# 
   369  009E                     	;# 
   370  009F                     	;# 
   371  0105                     	;# 
   372  0107                     	;# 
   373  0108                     	;# 
   374  0109                     	;# 
   375  010C                     	;# 
   376  010C                     	;# 
   377  010D                     	;# 
   378  010E                     	;# 
   379  010F                     	;# 
   380  0185                     	;# 
   381  0187                     	;# 
   382  0188                     	;# 
   383  0189                     	;# 
   384  018C                     	;# 
   385  018D                     	;# 
   386  0013                     _SSPBUF	set	19
   387  0014                     _SSPCON	set	20
   388  001E                     _ADRESH	set	30
   389  000C                     _PIR1bits	set	12
   390  001F                     _ADCON0bits	set	31
   391  0009                     _PORTE	set	9
   392  0008                     _PORTD	set	8
   393  0007                     _PORTC	set	7
   394  0006                     _PORTB	set	6
   395  0005                     _PORTA	set	5
   396  0006                     _PORTBbits	set	6
   397  0063                     _SSPIF	set	99
   398  0094                     _SSPSTATbits	set	148
   399  0094                     _SSPSTAT	set	148
   400  009F                     _ADCON1bits	set	159
   401  008F                     _OSCCONbits	set	143
   402  0085                     _TRISAbits	set	133
   403  0088                     _TRISD	set	136
   404  0087                     _TRISC	set	135
   405  0086                     _TRISB	set	134
   406  0085                     _TRISA	set	133
   407  043B                     _TRISC3	set	1083
   408  043C                     _TRISC4	set	1084
   409  043D                     _TRISC5	set	1085
   410  0189                     _ANSELH	set	393
   411  0188                     _ANSEL	set	392
   412                           
   413                           	psect	strings
   414  0800                     __pstrings:
   415  0800                     stringtab:
   416  0800                     __stringtab:
   417  0800                     stringcode:	
   418                           ;	String table - string pointers are 1 byte each
   419                           
   420  0800                     stringdir:
   421  0800  3008               	movlw	high stringdir
   422  0801  008A               	movwf	10
   423  0802  0804               	movf	4,w
   424  0803  0A84               	incf	4,f
   425  0804  0782               	addwf	2,f
   426  0805                     __stringbase:
   427  0805  3400               	retlw	0
   428  0806                     __end_of__stringtab:
   429  0806                     STR_1:
   430  0806  342E               	retlw	46	;'.'
   431  0807  3400               	retlw	0
   432                           
   433                           	psect	cinit
   434  000F                     start_initialization:	
   435                           ; #config settings
   436                           
   437  000F                     __initialization:
   438                           
   439                           ; Clear objects allocated to COMMON
   440  000F  01F6               	clrf	__pbssCOMMON& (0+127)
   441  0010  01F7               	clrf	(__pbssCOMMON+1)& (0+127)
   442  0011  01F8               	clrf	(__pbssCOMMON+2)& (0+127)
   443  0012  01F9               	clrf	(__pbssCOMMON+3)& (0+127)
   444                           
   445                           ; Clear objects allocated to BANK0
   446  0013  1383               	bcf	3,7	;select IRP bank0
   447  0014  3062               	movlw	low __pbssBANK0
   448  0015  0084               	movwf	4
   449  0016  306D               	movlw	low (__pbssBANK0+11)
   450  0017  120A  158A  2423  120A  118A  	fcall	clear_ram0
   451                           
   452                           ; Clear objects allocated to BANK1
   453  001C  30A0               	movlw	low __pbssBANK1
   454  001D  0084               	movwf	4
   455  001E  30B4               	movlw	low (__pbssBANK1+20)
   456  001F  120A  158A  2423  120A  118A  	fcall	clear_ram0
   457  0024                     end_of_initialization:	
   458                           ;End of C runtime variable initialization code
   459                           
   460  0024                     __end_of__initialization:
   461  0024  0183               	clrf	3
   462  0025  120A  118A  2D66   	ljmp	_main	;jump to C main() function
   463                           
   464                           	psect	bssCOMMON
   465  0076                     __pbssCOMMON:
   466  0076                     _V1:
   467  0076                     	ds	2
   468  0078                     _Ready:
   469  0078                     	ds	1
   470  0079                     _adc:
   471  0079                     	ds	1
   472                           
   473                           	psect	bssBANK0
   474  0062                     __pbssBANK0:
   475  0062                     _voltaje:
   476  0062                     	ds	4
   477  0066                     _POT1C:
   478  0066                     	ds	2
   479  0068                     _POT1B:
   480  0068                     	ds	2
   481  006A                     _POT1A:
   482  006A                     	ds	2
   483  006C                     _slave:
   484  006C                     	ds	1
   485                           
   486                           	psect	bssBANK1
   487  00A0                     __pbssBANK1:
   488  00A0                     _PUNTO1:
   489  00A0                     	ds	5
   490  00A5                     _POT1SC:
   491  00A5                     	ds	5
   492  00AA                     _POT1SB:
   493  00AA                     	ds	5
   494  00AF                     _POT1SA:
   495  00AF                     	ds	5
   496                           
   497                           	psect	clrtext
   498  0C23                     clear_ram0:	
   499                           ;	Called with FSR containing the base address, and
   500                           ;	W with the last address+1
   501                           
   502  0C23  0064               	clrwdt	;clear the watchdog before getting into this loop
   503  0C24                     clrloop0:
   504  0C24  0180               	clrf	0	;clear RAM location pointed to by FSR
   505  0C25  0A84               	incf	4,f	;increment pointer
   506  0C26  0604               	xorwf	4,w	;XOR with final address
   507  0C27  1903               	btfsc	3,2	;have we reached the end yet?
   508  0C28  3400               	retlw	0	;all done for this memory range, return
   509  0C29  0604               	xorwf	4,w	;XOR again to restore value
   510  0C2A  2C24               	goto	clrloop0	;do the next byte
   511                           
   512                           	psect	cstackBANK1
   513  00B4                     __pcstackBANK1:
   514  00B4                     ??_main:
   515                           
   516                           ; 1 bytes @ 0x0
   517  00B4                     	ds	4
   518                           
   519                           	psect	cstackCOMMON
   520  0070                     __pcstackCOMMON:
   521  0070                     ?_SPI_Read:
   522  0070                     ??_SPI_Read:	
   523                           ; 1 bytes @ 0x0
   524                           
   525  0070                     ?_SPI_Write:	
   526                           ; 1 bytes @ 0x0
   527                           
   528  0070                     ??_SPI_Write:	
   529                           ; 1 bytes @ 0x0
   530                           
   531  0070                     ?_setup:	
   532                           ; 1 bytes @ 0x0
   533                           
   534  0070                     ?_ADC_Init:	
   535                           ; 1 bytes @ 0x0
   536                           
   537  0070                     ?_ISR:	
   538                           ; 1 bytes @ 0x0
   539                           
   540  0070                     ?_main:	
   541                           ; 1 bytes @ 0x0
   542                           
   543  0070                     ?_spiReceiveWait:	
   544                           ; 1 bytes @ 0x0
   545                           
   546  0070                     ??_spiReceiveWait:	
   547                           ; 1 bytes @ 0x0
   548                           
   549  0070                     SPI_Write@a:	
   550                           ; 1 bytes @ 0x0
   551                           
   552                           
   553                           ; 1 bytes @ 0x0
   554  0070                     	ds	1
   555  0071                     ??_ISR:
   556                           
   557                           ; 1 bytes @ 0x1
   558  0071                     	ds	3
   559  0074                     ??_setup:
   560  0074                     ??_ADC_Init:	
   561                           ; 1 bytes @ 0x4
   562                           
   563  0074                     ??_SPI_Init:	
   564                           ; 1 bytes @ 0x4
   565                           
   566  0074                     ??_ADC_Read:	
   567                           ; 1 bytes @ 0x4
   568                           
   569  0074                     ?_strcpy:	
   570                           ; 1 bytes @ 0x4
   571                           
   572  0074                     ?_strcat:	
   573                           ; 1 bytes @ 0x4
   574                           
   575  0074                     ??___awdiv:	
   576                           ; 1 bytes @ 0x4
   577                           
   578  0074                     ??___lwdiv:	
   579                           ; 1 bytes @ 0x4
   580                           
   581  0074                     ??___lwmod:	
   582                           ; 1 bytes @ 0x4
   583                           
   584  0074                     ?__Umul8_16:	
   585                           ; 1 bytes @ 0x4
   586                           
   587  0074                     SPI_Init@sType:	
   588                           ; 2 bytes @ 0x4
   589                           
   590  0074                     __Umul8_16@multiplicand:	
   591                           ; 1 bytes @ 0x4
   592                           
   593  0074                     strcat@from:	
   594                           ; 1 bytes @ 0x4
   595                           
   596  0074                     strcpy@from:	
   597                           ; 1 bytes @ 0x4
   598                           
   599                           
   600                           ; 1 bytes @ 0x4
   601  0074                     	ds	1
   602  0075                     ??_strcpy:
   603  0075                     ??_strcat:	
   604                           ; 1 bytes @ 0x5
   605                           
   606  0075                     ??___awmod:	
   607                           ; 1 bytes @ 0x5
   608                           
   609  0075                     ___lwmod@counter:	
   610                           ; 1 bytes @ 0x5
   611                           
   612                           
   613                           ; 1 bytes @ 0x5
   614  0075                     	ds	1
   615                           
   616                           	psect	cstackBANK0
   617  0020                     __pcstackBANK0:
   618  0020                     ?___flge:
   619  0020                     ?_SPI_Init:	
   620                           ; 1 bit 
   621                           
   622  0020                     ?_ADC_Read:	
   623                           ; 1 bytes @ 0x0
   624                           
   625  0020                     ??__Umul8_16:	
   626                           ; 1 bytes @ 0x0
   627                           
   628  0020                     ?___awdiv:	
   629                           ; 1 bytes @ 0x0
   630                           
   631  0020                     ?___lwdiv:	
   632                           ; 2 bytes @ 0x0
   633                           
   634  0020                     ?___lwmod:	
   635                           ; 2 bytes @ 0x0
   636                           
   637  0020                     ?___xxtofl:	
   638                           ; 2 bytes @ 0x0
   639                           
   640  0020                     SPI_Init@sDataSample:	
   641                           ; 4 bytes @ 0x0
   642                           
   643  0020                     strcat@to:	
   644                           ; 1 bytes @ 0x0
   645                           
   646  0020                     strcpy@to:	
   647                           ; 1 bytes @ 0x0
   648                           
   649  0020                     ADC_Read@a:	
   650                           ; 1 bytes @ 0x0
   651                           
   652  0020                     ___awdiv@divisor:	
   653                           ; 2 bytes @ 0x0
   654                           
   655  0020                     ___lwdiv@divisor:	
   656                           ; 2 bytes @ 0x0
   657                           
   658  0020                     ___lwmod@divisor:	
   659                           ; 2 bytes @ 0x0
   660                           
   661  0020                     ___flge@ff1:	
   662                           ; 2 bytes @ 0x0
   663                           
   664  0020                     ___xxtofl@val:	
   665                           ; 4 bytes @ 0x0
   666                           
   667                           
   668                           ; 4 bytes @ 0x0
   669  0020                     	ds	1
   670  0021                     SPI_Init@sClockIdle:
   671  0021                     strcat@cp:	
   672                           ; 1 bytes @ 0x1
   673                           
   674  0021                     strcpy@cp:	
   675                           ; 1 bytes @ 0x1
   676                           
   677                           
   678                           ; 1 bytes @ 0x1
   679  0021                     	ds	1
   680  0022                     SPI_Init@sTransmitEdge:
   681  0022                     ADC_Read@b:	
   682                           ; 1 bytes @ 0x2
   683                           
   684  0022                     ___awdiv@dividend:	
   685                           ; 2 bytes @ 0x2
   686                           
   687  0022                     ___lwdiv@dividend:	
   688                           ; 2 bytes @ 0x2
   689                           
   690  0022                     ___lwmod@dividend:	
   691                           ; 2 bytes @ 0x2
   692                           
   693  0022                     __Umul8_16@product:	
   694                           ; 2 bytes @ 0x2
   695                           
   696                           
   697                           ; 2 bytes @ 0x2
   698  0022                     	ds	2
   699  0024                     ??___xxtofl:
   700  0024                     ___awdiv@counter:	
   701                           ; 1 bytes @ 0x4
   702                           
   703  0024                     ___lwdiv@counter:	
   704                           ; 1 bytes @ 0x4
   705                           
   706  0024                     __Umul8_16@word_mpld:	
   707                           ; 1 bytes @ 0x4
   708                           
   709  0024                     ___flge@ff2:	
   710                           ; 2 bytes @ 0x4
   711                           
   712                           
   713                           ; 4 bytes @ 0x4
   714  0024                     	ds	1
   715  0025                     ___awdiv@sign:
   716  0025                     ___lwdiv@quotient:	
   717                           ; 1 bytes @ 0x5
   718                           
   719                           
   720                           ; 2 bytes @ 0x5
   721  0025                     	ds	1
   722  0026                     __Umul8_16@multiplier:
   723  0026                     ___awdiv@quotient:	
   724                           ; 1 bytes @ 0x6
   725                           
   726                           
   727                           ; 2 bytes @ 0x6
   728  0026                     	ds	1
   729  0027                     ?_utoa:
   730  0027                     utoa@val:	
   731                           ; 1 bytes @ 0x7
   732                           
   733                           
   734                           ; 2 bytes @ 0x7
   735  0027                     	ds	1
   736  0028                     ??___flge:
   737  0028                     ?___awmod:	
   738                           ; 1 bytes @ 0x8
   739                           
   740  0028                     ___xxtofl@sign:	
   741                           ; 2 bytes @ 0x8
   742                           
   743  0028                     ___awmod@divisor:	
   744                           ; 1 bytes @ 0x8
   745                           
   746                           
   747                           ; 2 bytes @ 0x8
   748  0028                     	ds	1
   749  0029                     ___xxtofl@exp:
   750  0029                     utoa@base:	
   751                           ; 1 bytes @ 0x9
   752                           
   753                           
   754                           ; 2 bytes @ 0x9
   755  0029                     	ds	1
   756  002A                     ___awmod@dividend:
   757  002A                     ___xxtofl@arg:	
   758                           ; 2 bytes @ 0xA
   759                           
   760                           
   761                           ; 4 bytes @ 0xA
   762  002A                     	ds	1
   763  002B                     ??_utoa:
   764                           
   765                           ; 1 bytes @ 0xB
   766  002B                     	ds	1
   767  002C                     ___awmod@counter:
   768  002C                     utoa@v:	
   769                           ; 1 bytes @ 0xC
   770                           
   771                           
   772                           ; 2 bytes @ 0xC
   773  002C                     	ds	1
   774  002D                     ___awmod@sign:
   775                           
   776                           ; 1 bytes @ 0xD
   777  002D                     	ds	1
   778  002E                     ?___flmul:
   779  002E                     utoa@c:	
   780                           ; 4 bytes @ 0xE
   781                           
   782  002E                     ___flmul@b:	
   783                           ; 1 bytes @ 0xE
   784                           
   785                           
   786                           ; 4 bytes @ 0xE
   787  002E                     	ds	1
   788  002F                     utoa@buf:
   789                           
   790                           ; 1 bytes @ 0xF
   791  002F                     	ds	1
   792  0030                     ?_itoa:
   793  0030                     itoa@val:	
   794                           ; 1 bytes @ 0x10
   795                           
   796                           
   797                           ; 2 bytes @ 0x10
   798  0030                     	ds	2
   799  0032                     itoa@base:
   800  0032                     ___flmul@a:	
   801                           ; 2 bytes @ 0x12
   802                           
   803                           
   804                           ; 4 bytes @ 0x12
   805  0032                     	ds	2
   806  0034                     ??_itoa:
   807                           
   808                           ; 1 bytes @ 0x14
   809  0034                     	ds	2
   810  0036                     ??___flmul:
   811  0036                     itoa@buf:	
   812                           ; 1 bytes @ 0x16
   813                           
   814                           
   815                           ; 1 bytes @ 0x16
   816  0036                     	ds	5
   817  003B                     ___flmul@sign:
   818                           
   819                           ; 1 bytes @ 0x1B
   820  003B                     	ds	1
   821  003C                     ___flmul@aexp:
   822                           
   823                           ; 1 bytes @ 0x1C
   824  003C                     	ds	1
   825  003D                     ___flmul@grs:
   826                           
   827                           ; 4 bytes @ 0x1D
   828  003D                     	ds	4
   829  0041                     ___flmul@bexp:
   830                           
   831                           ; 1 bytes @ 0x21
   832  0041                     	ds	1
   833  0042                     ___flmul@prod:
   834                           
   835                           ; 4 bytes @ 0x22
   836  0042                     	ds	4
   837  0046                     ___flmul@temp:
   838                           
   839                           ; 2 bytes @ 0x26
   840  0046                     	ds	2
   841  0048                     ?___fltol:
   842  0048                     ?___fldiv:	
   843                           ; 4 bytes @ 0x28
   844                           
   845  0048                     ___fltol@f1:	
   846                           ; 4 bytes @ 0x28
   847                           
   848  0048                     ___fldiv@a:	
   849                           ; 4 bytes @ 0x28
   850                           
   851                           
   852                           ; 4 bytes @ 0x28
   853  0048                     	ds	4
   854  004C                     ??___fltol:
   855  004C                     ___fldiv@b:	
   856                           ; 1 bytes @ 0x2C
   857                           
   858                           
   859                           ; 4 bytes @ 0x2C
   860  004C                     	ds	4
   861  0050                     ??___fldiv:
   862                           
   863                           ; 1 bytes @ 0x30
   864  0050                     	ds	1
   865  0051                     ___fltol@sign1:
   866                           
   867                           ; 1 bytes @ 0x31
   868  0051                     	ds	1
   869  0052                     ___fltol@exp1:
   870                           
   871                           ; 1 bytes @ 0x32
   872  0052                     	ds	3
   873  0055                     ___fldiv@rem:
   874                           
   875                           ; 4 bytes @ 0x35
   876  0055                     	ds	4
   877  0059                     ___fldiv@sign:
   878                           
   879                           ; 1 bytes @ 0x39
   880  0059                     	ds	1
   881  005A                     ___fldiv@new_exp:
   882                           
   883                           ; 2 bytes @ 0x3A
   884  005A                     	ds	2
   885  005C                     ___fldiv@grs:
   886                           
   887                           ; 4 bytes @ 0x3C
   888  005C                     	ds	4
   889  0060                     ___fldiv@bexp:
   890                           
   891                           ; 1 bytes @ 0x40
   892  0060                     	ds	1
   893  0061                     ___fldiv@aexp:
   894                           
   895                           ; 1 bytes @ 0x41
   896  0061                     	ds	1
   897                           
   898                           	psect	maintext
   899  0566                     __pmaintext:	
   900 ;;
   901 ;;Main: autosize = 0, tempsize = 4, incstack = 0, save=0
   902 ;;
   903 ;; *************** function _main *****************
   904 ;; Defined at:
   905 ;;		line 85 in file "S1.c"
   906 ;; Parameters:    Size  Location     Type
   907 ;;		None
   908 ;; Auto vars:     Size  Location     Type
   909 ;;		None
   910 ;; Return value:  Size  Location     Type
   911 ;;                  1    wreg      void 
   912 ;; Registers used:
   913 ;;		wreg, fsr0l, fsr0h, status,2, status,0, btemp+1, pclath, cstack
   914 ;; Tracked objects:
   915 ;;		On entry : B00/0
   916 ;;		On exit  : 0/0
   917 ;;		Unchanged: 0/0
   918 ;; Data sizes:     COMMON   BANK0   BANK1   BANK3   BANK2
   919 ;;      Params:         0       0       0       0       0
   920 ;;      Locals:         0       0       0       0       0
   921 ;;      Temps:          0       0       4       0       0
   922 ;;      Totals:         0       0       4       0       0
   923 ;;Total ram usage:        4 bytes
   924 ;; Hardware stack levels required when called:    6
   925 ;; This function calls:
   926 ;;		_ADC_Init
   927 ;;		_ADC_Read
   928 ;;		_SPI_Init
   929 ;;		___awdiv
   930 ;;		___awmod
   931 ;;		___fldiv
   932 ;;		___flge
   933 ;;		___flmul
   934 ;;		___fltol
   935 ;;		___xxtofl
   936 ;;		_itoa
   937 ;;		_setup
   938 ;;		_strcat
   939 ;;		_strcpy
   940 ;; This function is called by:
   941 ;;		Startup code after reset
   942 ;; This function uses a non-reentrant model
   943 ;;
   944                           
   945                           
   946                           ;psect for function _main
   947  0566                     _main:
   948  0566                     l2632:	
   949                           ;incstack = 0
   950                           ; Regs used in _main: [wreg-fsr0h+status,2+status,0+btemp+1+pclath+cstack]
   951                           
   952                           
   953                           ;S1.c: 87:     setup();
   954  0566  120A  158A  2491  120A  118A  	fcall	_setup
   955  056B                     l2634:
   956                           
   957                           ;S1.c: 94:         ADC_Init();
   958  056B  120A  158A  2434  120A  118A  	fcall	_ADC_Init
   959  0570                     l2636:
   960                           
   961                           ;S1.c: 95:         SPI_Init(SPI_SLAVE_SS_EN, SPI_DATA_SAMPLE_MIDDLE, SPI_CLOCK_IDLE_LOW,
      +                           SPI_IDLE_2_ACTIVE);
   962  0570  1283               	bcf	3,5	;RP0=0, select bank0
   963  0571  1303               	bcf	3,6	;RP1=0, select bank0
   964  0572  01A0               	clrf	SPI_Init@sDataSample
   965  0573  01A1               	clrf	SPI_Init@sClockIdle
   966  0574  01A2               	clrf	SPI_Init@sTransmitEdge
   967  0575  3024               	movlw	36
   968  0576  120A  158A  2452  120A  118A  	fcall	_SPI_Init
   969  057B                     l2638:
   970                           
   971                           ;S1.c: 98:         _delay((unsigned long)((1)*(8000000/4000.0)));
   972  057B  3003               	movlw	3
   973  057C  1683               	bsf	3,5	;RP0=1, select bank1
   974  057D  1303               	bcf	3,6	;RP1=0, select bank1
   975  057E  00B5               	movwf	(??_main^(0+128)+1)
   976  057F  3097               	movlw	151
   977  0580  00B4               	movwf	??_main^(0+128)
   978  0581                     u3937:
   979  0581  0BB4               	decfsz	??_main^(0+128),f
   980  0582  2D81               	goto	u3937
   981  0583  0BB5               	decfsz	(??_main^(0+128)+1),f
   982  0584  2D81               	goto	u3937
   983  0585                     l2640:
   984                           
   985                           ;S1.c: 99:         adc=ADC_Read(0,0);
   986  0585  3000               	movlw	0
   987  0586  1283               	bcf	3,5	;RP0=0, select bank0
   988  0587  1303               	bcf	3,6	;RP1=0, select bank0
   989  0588  00A0               	movwf	ADC_Read@a
   990  0589  00A1               	movwf	ADC_Read@a+1
   991  058A  3000               	movlw	0
   992  058B  00A2               	movwf	ADC_Read@b
   993  058C  00A3               	movwf	ADC_Read@b+1
   994  058D  120A  158A  243F  120A  118A  	fcall	_ADC_Read
   995  0592  1683               	bsf	3,5	;RP0=1, select bank1
   996  0593  1303               	bcf	3,6	;RP1=0, select bank1
   997  0594  00B4               	movwf	??_main^(0+128)
   998  0595  0834               	movf	??_main^(0+128),w
   999  0596  00F9               	movwf	_adc
  1000  0597                     l2642:
  1001                           
  1002                           ;S1.c: 101:         voltaje = (adc*5.0)/255.0;
  1003  0597  3043               	movlw	67
  1004  0598  1283               	bcf	3,5	;RP0=0, select bank0
  1005  0599  1303               	bcf	3,6	;RP1=0, select bank0
  1006  059A  00CB               	movwf	___fldiv@a+3
  1007  059B  307F               	movlw	127
  1008  059C  00CA               	movwf	___fldiv@a+2
  1009  059D  3000               	movlw	0
  1010  059E  00C9               	movwf	___fldiv@a+1
  1011  059F  3000               	movlw	0
  1012  05A0  00C8               	movwf	___fldiv@a
  1013  05A1  3040               	movlw	64
  1014  05A2  00B1               	movwf	___flmul@b+3
  1015  05A3  30A0               	movlw	160
  1016  05A4  00B0               	movwf	___flmul@b+2
  1017  05A5  3000               	movlw	0
  1018  05A6  00AF               	movwf	___flmul@b+1
  1019  05A7  3000               	movlw	0
  1020  05A8  00AE               	movwf	___flmul@b
  1021  05A9  0879               	movf	_adc,w
  1022  05AA  1683               	bsf	3,5	;RP0=1, select bank1
  1023  05AB  1303               	bcf	3,6	;RP1=0, select bank1
  1024  05AC  00B4               	movwf	??_main^(0+128)
  1025  05AD  01B5               	clrf	(??_main^(0+128)+1)
  1026  05AE  01B6               	clrf	(??_main^(0+128)+2)
  1027  05AF  01B7               	clrf	(??_main^(0+128)+3)
  1028  05B0  0837               	movf	(??_main+3)^(0+128),w
  1029  05B1  1283               	bcf	3,5	;RP0=0, select bank0
  1030  05B2  1303               	bcf	3,6	;RP1=0, select bank0
  1031  05B3  00A3               	movwf	___xxtofl@val+3
  1032  05B4  1683               	bsf	3,5	;RP0=1, select bank1
  1033  05B5  1303               	bcf	3,6	;RP1=0, select bank1
  1034  05B6  0836               	movf	(??_main+2)^(0+128),w
  1035  05B7  1283               	bcf	3,5	;RP0=0, select bank0
  1036  05B8  1303               	bcf	3,6	;RP1=0, select bank0
  1037  05B9  00A2               	movwf	___xxtofl@val+2
  1038  05BA  1683               	bsf	3,5	;RP0=1, select bank1
  1039  05BB  1303               	bcf	3,6	;RP1=0, select bank1
  1040  05BC  0835               	movf	(??_main+1)^(0+128),w
  1041  05BD  1283               	bcf	3,5	;RP0=0, select bank0
  1042  05BE  1303               	bcf	3,6	;RP1=0, select bank0
  1043  05BF  00A1               	movwf	___xxtofl@val+1
  1044  05C0  1683               	bsf	3,5	;RP0=1, select bank1
  1045  05C1  1303               	bcf	3,6	;RP1=0, select bank1
  1046  05C2  0834               	movf	??_main^(0+128),w
  1047  05C3  1283               	bcf	3,5	;RP0=0, select bank0
  1048  05C4  1303               	bcf	3,6	;RP1=0, select bank0
  1049  05C5  00A0               	movwf	___xxtofl@val
  1050  05C6  3001               	movlw	1
  1051  05C7  120A  118A  271E  120A  118A  	fcall	___xxtofl
  1052  05CC  1283               	bcf	3,5	;RP0=0, select bank0
  1053  05CD  1303               	bcf	3,6	;RP1=0, select bank0
  1054  05CE  0823               	movf	?___xxtofl+3,w
  1055  05CF  00B5               	movwf	___flmul@a+3
  1056  05D0  0822               	movf	?___xxtofl+2,w
  1057  05D1  00B4               	movwf	___flmul@a+2
  1058  05D2  0821               	movf	?___xxtofl+1,w
  1059  05D3  00B3               	movwf	___flmul@a+1
  1060  05D4  0820               	movf	?___xxtofl,w
  1061  05D5  00B2               	movwf	___flmul@a
  1062  05D6  120A  118A  2028  120A  118A  	fcall	___flmul
  1063  05DB  1283               	bcf	3,5	;RP0=0, select bank0
  1064  05DC  1303               	bcf	3,6	;RP1=0, select bank0
  1065  05DD  0831               	movf	?___flmul+3,w
  1066  05DE  00CF               	movwf	___fldiv@b+3
  1067  05DF  0830               	movf	?___flmul+2,w
  1068  05E0  00CE               	movwf	___fldiv@b+2
  1069  05E1  082F               	movf	?___flmul+1,w
  1070  05E2  00CD               	movwf	___fldiv@b+1
  1071  05E3  082E               	movf	?___flmul,w
  1072  05E4  00CC               	movwf	___fldiv@b
  1073  05E5  120A  118A  2389  120A  118A  	fcall	___fldiv
  1074  05EA  1283               	bcf	3,5	;RP0=0, select bank0
  1075  05EB  1303               	bcf	3,6	;RP1=0, select bank0
  1076  05EC  084B               	movf	?___fldiv+3,w
  1077  05ED  00E5               	movwf	_voltaje+3
  1078  05EE  084A               	movf	?___fldiv+2,w
  1079  05EF  00E4               	movwf	_voltaje+2
  1080  05F0  0849               	movf	?___fldiv+1,w
  1081  05F1  00E3               	movwf	_voltaje+1
  1082  05F2  0848               	movf	?___fldiv,w
  1083  05F3  00E2               	movwf	_voltaje
  1084  05F4                     l2644:
  1085                           
  1086                           ;S1.c: 102:         V1 = (voltaje)*100;
  1087  05F4  0865               	movf	_voltaje+3,w
  1088  05F5  00B5               	movwf	___flmul@a+3
  1089  05F6  0864               	movf	_voltaje+2,w
  1090  05F7  00B4               	movwf	___flmul@a+2
  1091  05F8  0863               	movf	_voltaje+1,w
  1092  05F9  00B3               	movwf	___flmul@a+1
  1093  05FA  0862               	movf	_voltaje,w
  1094  05FB  00B2               	movwf	___flmul@a
  1095  05FC  3042               	movlw	66
  1096  05FD  00B1               	movwf	___flmul@b+3
  1097  05FE  30C8               	movlw	200
  1098  05FF  00B0               	movwf	___flmul@b+2
  1099  0600  3000               	movlw	0
  1100  0601  00AF               	movwf	___flmul@b+1
  1101  0602  3000               	movlw	0
  1102  0603  00AE               	movwf	___flmul@b
  1103  0604  120A  118A  2028  120A  118A  	fcall	___flmul
  1104  0609  1283               	bcf	3,5	;RP0=0, select bank0
  1105  060A  1303               	bcf	3,6	;RP1=0, select bank0
  1106  060B  0831               	movf	?___flmul+3,w
  1107  060C  00CB               	movwf	___fltol@f1+3
  1108  060D  0830               	movf	?___flmul+2,w
  1109  060E  00CA               	movwf	___fltol@f1+2
  1110  060F  082F               	movf	?___flmul+1,w
  1111  0610  00C9               	movwf	___fltol@f1+1
  1112  0611  082E               	movf	?___flmul,w
  1113  0612  00C8               	movwf	___fltol@f1
  1114  0613  120A  158A  26E0  120A  118A  	fcall	___fltol
  1115  0618  1283               	bcf	3,5	;RP0=0, select bank0
  1116  0619  1303               	bcf	3,6	;RP1=0, select bank0
  1117  061A  0849               	movf	?___fltol+1,w
  1118  061B  00F7               	movwf	_V1+1
  1119  061C  0848               	movf	?___fltol,w
  1120  061D  00F6               	movwf	_V1
  1121  061E                     l2646:
  1122                           
  1123                           ;S1.c: 103:         POT1A = V1%10;
  1124  061E  300A               	movlw	10
  1125  061F  00A8               	movwf	___awmod@divisor
  1126  0620  3000               	movlw	0
  1127  0621  00A9               	movwf	___awmod@divisor+1
  1128  0622  0877               	movf	_V1+1,w
  1129  0623  00AB               	movwf	___awmod@dividend+1
  1130  0624  0876               	movf	_V1,w
  1131  0625  00AA               	movwf	___awmod@dividend
  1132  0626  120A  158A  25AA  120A  118A  	fcall	___awmod
  1133  062B  1283               	bcf	3,5	;RP0=0, select bank0
  1134  062C  1303               	bcf	3,6	;RP1=0, select bank0
  1135  062D  0829               	movf	?___awmod+1,w
  1136  062E  00EB               	movwf	_POT1A+1
  1137  062F  0828               	movf	?___awmod,w
  1138  0630  00EA               	movwf	_POT1A
  1139  0631                     l2648:
  1140                           
  1141                           ;S1.c: 104:         itoa(POT1SA,POT1A,10);
  1142  0631  086B               	movf	_POT1A+1,w
  1143  0632  00B1               	movwf	itoa@val+1
  1144  0633  086A               	movf	_POT1A,w
  1145  0634  00B0               	movwf	itoa@val
  1146  0635  300A               	movlw	10
  1147  0636  00B2               	movwf	itoa@base
  1148  0637  3000               	movlw	0
  1149  0638  00B3               	movwf	itoa@base+1
  1150  0639  30AF               	movlw	(low (_POT1SA| 0))& (0+255)
  1151  063A  120A  118A  27DA  120A  118A  	fcall	_itoa
  1152  063F                     l2650:
  1153                           
  1154                           ;S1.c: 105:         POT1B = (V1/10)%10;
  1155  063F  300A               	movlw	10
  1156  0640  1283               	bcf	3,5	;RP0=0, select bank0
  1157  0641  1303               	bcf	3,6	;RP1=0, select bank0
  1158  0642  00A8               	movwf	___awmod@divisor
  1159  0643  3000               	movlw	0
  1160  0644  00A9               	movwf	___awmod@divisor+1
  1161  0645  300A               	movlw	10
  1162  0646  00A0               	movwf	___awdiv@divisor
  1163  0647  3000               	movlw	0
  1164  0648  00A1               	movwf	___awdiv@divisor+1
  1165  0649  0877               	movf	_V1+1,w
  1166  064A  00A3               	movwf	___awdiv@dividend+1
  1167  064B  0876               	movf	_V1,w
  1168  064C  00A2               	movwf	___awdiv@dividend
  1169  064D  120A  158A  2605  120A  118A  	fcall	___awdiv
  1170  0652  1283               	bcf	3,5	;RP0=0, select bank0
  1171  0653  1303               	bcf	3,6	;RP1=0, select bank0
  1172  0654  0821               	movf	?___awdiv+1,w
  1173  0655  00AB               	movwf	___awmod@dividend+1
  1174  0656  0820               	movf	?___awdiv,w
  1175  0657  00AA               	movwf	___awmod@dividend
  1176  0658  120A  158A  25AA  120A  118A  	fcall	___awmod
  1177  065D  1283               	bcf	3,5	;RP0=0, select bank0
  1178  065E  1303               	bcf	3,6	;RP1=0, select bank0
  1179  065F  0829               	movf	?___awmod+1,w
  1180  0660  00E9               	movwf	_POT1B+1
  1181  0661  0828               	movf	?___awmod,w
  1182  0662  00E8               	movwf	_POT1B
  1183  0663                     l2652:
  1184                           
  1185                           ;S1.c: 106:         itoa(POT1SB,POT1B,10);
  1186  0663  0869               	movf	_POT1B+1,w
  1187  0664  00B1               	movwf	itoa@val+1
  1188  0665  0868               	movf	_POT1B,w
  1189  0666  00B0               	movwf	itoa@val
  1190  0667  300A               	movlw	10
  1191  0668  00B2               	movwf	itoa@base
  1192  0669  3000               	movlw	0
  1193  066A  00B3               	movwf	itoa@base+1
  1194  066B  30AA               	movlw	(low (_POT1SB| 0))& (0+255)
  1195  066C  120A  118A  27DA  120A  118A  	fcall	_itoa
  1196  0671                     l2654:
  1197                           
  1198                           ;S1.c: 107:         POT1C = (V1/100)%10;
  1199  0671  300A               	movlw	10
  1200  0672  1283               	bcf	3,5	;RP0=0, select bank0
  1201  0673  1303               	bcf	3,6	;RP1=0, select bank0
  1202  0674  00A8               	movwf	___awmod@divisor
  1203  0675  3000               	movlw	0
  1204  0676  00A9               	movwf	___awmod@divisor+1
  1205  0677  3064               	movlw	100
  1206  0678  00A0               	movwf	___awdiv@divisor
  1207  0679  3000               	movlw	0
  1208  067A  00A1               	movwf	___awdiv@divisor+1
  1209  067B  0877               	movf	_V1+1,w
  1210  067C  00A3               	movwf	___awdiv@dividend+1
  1211  067D  0876               	movf	_V1,w
  1212  067E  00A2               	movwf	___awdiv@dividend
  1213  067F  120A  158A  2605  120A  118A  	fcall	___awdiv
  1214  0684  1283               	bcf	3,5	;RP0=0, select bank0
  1215  0685  1303               	bcf	3,6	;RP1=0, select bank0
  1216  0686  0821               	movf	?___awdiv+1,w
  1217  0687  00AB               	movwf	___awmod@dividend+1
  1218  0688  0820               	movf	?___awdiv,w
  1219  0689  00AA               	movwf	___awmod@dividend
  1220  068A  120A  158A  25AA  120A  118A  	fcall	___awmod
  1221  068F  1283               	bcf	3,5	;RP0=0, select bank0
  1222  0690  1303               	bcf	3,6	;RP1=0, select bank0
  1223  0691  0829               	movf	?___awmod+1,w
  1224  0692  00E7               	movwf	_POT1C+1
  1225  0693  0828               	movf	?___awmod,w
  1226  0694  00E6               	movwf	_POT1C
  1227  0695                     l2656:
  1228                           
  1229                           ;S1.c: 108:         itoa(POT1SC,POT1C,10);
  1230  0695  0867               	movf	_POT1C+1,w
  1231  0696  00B1               	movwf	itoa@val+1
  1232  0697  0866               	movf	_POT1C,w
  1233  0698  00B0               	movwf	itoa@val
  1234  0699  300A               	movlw	10
  1235  069A  00B2               	movwf	itoa@base
  1236  069B  3000               	movlw	0
  1237  069C  00B3               	movwf	itoa@base+1
  1238  069D  30A5               	movlw	(low (_POT1SC| 0))& (0+255)
  1239  069E  120A  118A  27DA  120A  118A  	fcall	_itoa
  1240  06A3                     l2658:
  1241                           
  1242                           ;S1.c: 109:         strcpy(PUNTO1,".");
  1243  06A3  3001               	movlw	(low ((STR_1-__stringbase)| (0+32768)))& (0+255)
  1244  06A4  1683               	bsf	3,5	;RP0=1, select bank1
  1245  06A5  1303               	bcf	3,6	;RP1=0, select bank1
  1246  06A6  00B4               	movwf	??_main^(0+128)
  1247  06A7  0834               	movf	??_main^(0+128),w
  1248  06A8  00F4               	movwf	strcpy@from
  1249  06A9  30A0               	movlw	(low (_PUNTO1| 0))& (0+255)
  1250  06AA  120A  158A  24B1  120A  118A  	fcall	_strcpy
  1251  06AF                     l2660:
  1252                           
  1253                           ;S1.c: 110:         strcat(POT1SB,POT1SA);
  1254  06AF  30AF               	movlw	(low (_POT1SA| 0))& (0+255)
  1255  06B0  1683               	bsf	3,5	;RP0=1, select bank1
  1256  06B1  1303               	bcf	3,6	;RP1=0, select bank1
  1257  06B2  00B4               	movwf	??_main^(0+128)
  1258  06B3  0834               	movf	??_main^(0+128),w
  1259  06B4  00F4               	movwf	strcat@from
  1260  06B5  30AA               	movlw	(low (_POT1SB| 0))& (0+255)
  1261  06B6  120A  158A  24FD  120A  118A  	fcall	_strcat
  1262  06BB                     l2662:
  1263                           
  1264                           ;S1.c: 111:         strcat(PUNTO1,POT1SB);
  1265  06BB  30AA               	movlw	(low (_POT1SB| 0))& (0+255)
  1266  06BC  1683               	bsf	3,5	;RP0=1, select bank1
  1267  06BD  1303               	bcf	3,6	;RP1=0, select bank1
  1268  06BE  00B4               	movwf	??_main^(0+128)
  1269  06BF  0834               	movf	??_main^(0+128),w
  1270  06C0  00F4               	movwf	strcat@from
  1271  06C1  30A0               	movlw	(low (_PUNTO1| 0))& (0+255)
  1272  06C2  120A  158A  24FD  120A  118A  	fcall	_strcat
  1273  06C7                     l2664:
  1274                           
  1275                           ;S1.c: 112:         strcat(POT1SC,PUNTO1);
  1276  06C7  30A0               	movlw	(low (_PUNTO1| 0))& (0+255)
  1277  06C8  1683               	bsf	3,5	;RP0=1, select bank1
  1278  06C9  1303               	bcf	3,6	;RP1=0, select bank1
  1279  06CA  00B4               	movwf	??_main^(0+128)
  1280  06CB  0834               	movf	??_main^(0+128),w
  1281  06CC  00F4               	movwf	strcat@from
  1282  06CD  30A5               	movlw	(low (_POT1SC| 0))& (0+255)
  1283  06CE  120A  158A  24FD  120A  118A  	fcall	_strcat
  1284  06D3                     l2666:
  1285                           
  1286                           ;S1.c: 114:         if (voltaje<=2){
  1287  06D3  3040               	movlw	64
  1288  06D4  1283               	bcf	3,5	;RP0=0, select bank0
  1289  06D5  1303               	bcf	3,6	;RP1=0, select bank0
  1290  06D6  00A3               	movwf	___flge@ff1+3
  1291  06D7  3000               	movlw	0
  1292  06D8  00A2               	movwf	___flge@ff1+2
  1293  06D9  3000               	movlw	0
  1294  06DA  00A1               	movwf	___flge@ff1+1
  1295  06DB  3000               	movlw	0
  1296  06DC  00A0               	movwf	___flge@ff1
  1297  06DD  0865               	movf	_voltaje+3,w
  1298  06DE  00A7               	movwf	___flge@ff2+3
  1299  06DF  0864               	movf	_voltaje+2,w
  1300  06E0  00A6               	movwf	___flge@ff2+2
  1301  06E1  0863               	movf	_voltaje+1,w
  1302  06E2  00A5               	movwf	___flge@ff2+1
  1303  06E3  0862               	movf	_voltaje,w
  1304  06E4  00A4               	movwf	___flge@ff2
  1305  06E5  120A  158A  275C  120A  118A  	fcall	___flge
  1306  06EA  1C03               	btfss	3,0
  1307  06EB  2EED               	goto	u3911
  1308  06EC  2EEE               	goto	u3910
  1309  06ED                     u3911:
  1310  06ED  2EF4               	goto	l2670
  1311  06EE                     u3910:
  1312  06EE                     l2668:
  1313                           
  1314                           ;S1.c: 115:             PORTBbits.RB0 = 1;
  1315  06EE  1283               	bcf	3,5	;RP0=0, select bank0
  1316  06EF  1303               	bcf	3,6	;RP1=0, select bank0
  1317  06F0  1406               	bsf	6,0	;volatile
  1318                           
  1319                           ;S1.c: 116:             PORTBbits.RB1 = 0;
  1320  06F1  1086               	bcf	6,1	;volatile
  1321                           
  1322                           ;S1.c: 117:             PORTBbits.RB2 = 0;
  1323  06F2  1106               	bcf	6,2	;volatile
  1324                           
  1325                           ;S1.c: 118:         }
  1326  06F3  2D6B               	goto	l2634
  1327  06F4                     l2670:
  1328  06F4  3040               	movlw	64
  1329  06F5  1283               	bcf	3,5	;RP0=0, select bank0
  1330  06F6  1303               	bcf	3,6	;RP1=0, select bank0
  1331  06F7  00A3               	movwf	___flge@ff1+3
  1332  06F8  3040               	movlw	64
  1333  06F9  00A2               	movwf	___flge@ff1+2
  1334  06FA  3000               	movlw	0
  1335  06FB  00A1               	movwf	___flge@ff1+1
  1336  06FC  3000               	movlw	0
  1337  06FD  00A0               	movwf	___flge@ff1
  1338  06FE  0865               	movf	_voltaje+3,w
  1339  06FF  00A7               	movwf	___flge@ff2+3
  1340  0700  0864               	movf	_voltaje+2,w
  1341  0701  00A6               	movwf	___flge@ff2+2
  1342  0702  0863               	movf	_voltaje+1,w
  1343  0703  00A5               	movwf	___flge@ff2+1
  1344  0704  0862               	movf	_voltaje,w
  1345  0705  00A4               	movwf	___flge@ff2
  1346  0706  120A  158A  275C  120A  118A  	fcall	___flge
  1347  070B  1C03               	btfss	3,0
  1348  070C  2F0E               	goto	u3921
  1349  070D  2F0F               	goto	u3920
  1350  070E                     u3921:
  1351  070E  2F15               	goto	l88
  1352  070F                     u3920:
  1353  070F                     l2672:
  1354                           
  1355                           ;S1.c: 120:             PORTBbits.RB0 = 0;
  1356  070F  1283               	bcf	3,5	;RP0=0, select bank0
  1357  0710  1303               	bcf	3,6	;RP1=0, select bank0
  1358  0711  1006               	bcf	6,0	;volatile
  1359                           
  1360                           ;S1.c: 121:             PORTBbits.RB1 = 1;
  1361  0712  1486               	bsf	6,1	;volatile
  1362                           
  1363                           ;S1.c: 122:             PORTBbits.RB2 = 0;
  1364  0713  1106               	bcf	6,2	;volatile
  1365                           
  1366                           ;S1.c: 123:         }
  1367  0714  2D6B               	goto	l2634
  1368  0715                     l88:	
  1369                           ;S1.c: 124:         else {
  1370                           
  1371                           
  1372                           ;S1.c: 125:             PORTBbits.RB0 = 0;
  1373  0715  1283               	bcf	3,5	;RP0=0, select bank0
  1374  0716  1303               	bcf	3,6	;RP1=0, select bank0
  1375  0717  1006               	bcf	6,0	;volatile
  1376                           
  1377                           ;S1.c: 126:             PORTBbits.RB1 = 0;
  1378  0718  1086               	bcf	6,1	;volatile
  1379                           
  1380                           ;S1.c: 127:             PORTBbits.RB2 = 1;
  1381  0719  1506               	bsf	6,2	;volatile
  1382  071A  2D6B               	goto	l2634
  1383  071B  120A  118A  280C   	ljmp	start
  1384  071E                     __end_of_main:
  1385                           
  1386                           	psect	text1
  1387  0CB1                     __ptext1:	
  1388 ;; *************** function _strcpy *****************
  1389 ;; Defined at:
  1390 ;;		line 8 in file "C:\Program Files\Microchip\xc8\v2.31\pic\sources\c90\common\strcpy.c"
  1391 ;; Parameters:    Size  Location     Type
  1392 ;;  to              1    wreg     PTR unsigned char 
  1393 ;;		 -> PUNTO1(5), 
  1394 ;;  from            1    4[COMMON] PTR const unsigned char 
  1395 ;;		 -> STR_1(2), 
  1396 ;; Auto vars:     Size  Location     Type
  1397 ;;  to              1    0[BANK0 ] PTR unsigned char 
  1398 ;;		 -> PUNTO1(5), 
  1399 ;;  cp              1    1[BANK0 ] PTR unsigned char 
  1400 ;;		 -> PUNTO1(5), 
  1401 ;; Return value:  Size  Location     Type
  1402 ;;                  1    wreg      PTR unsigned char 
  1403 ;; Registers used:
  1404 ;;		wreg, fsr0l, fsr0h, status,2, status,0, pclath
  1405 ;; Tracked objects:
  1406 ;;		On entry : 0/0
  1407 ;;		On exit  : 0/0
  1408 ;;		Unchanged: 0/0
  1409 ;; Data sizes:     COMMON   BANK0   BANK1   BANK3   BANK2
  1410 ;;      Params:         1       0       0       0       0
  1411 ;;      Locals:         0       2       0       0       0
  1412 ;;      Temps:          1       0       0       0       0
  1413 ;;      Totals:         2       2       0       0       0
  1414 ;;Total ram usage:        4 bytes
  1415 ;; Hardware stack levels used:    1
  1416 ;; Hardware stack levels required when called:    3
  1417 ;; This function calls:
  1418 ;;		Nothing
  1419 ;; This function is called by:
  1420 ;;		_main
  1421 ;; This function uses a non-reentrant model
  1422 ;;
  1423                           
  1424                           
  1425                           ;psect for function _strcpy
  1426  0CB1                     _strcpy:
  1427                           
  1428                           ;incstack = 0
  1429                           ; Regs used in _strcpy: [wreg-fsr0h+status,2+status,0+pclath]
  1430                           ;strcpy@to stored from wreg
  1431  0CB1  1283               	bcf	3,5	;RP0=0, select bank0
  1432  0CB2  1303               	bcf	3,6	;RP1=0, select bank0
  1433  0CB3  00A0               	movwf	strcpy@to
  1434  0CB4                     l2332:
  1435  0CB4  0820               	movf	strcpy@to,w
  1436  0CB5  00F5               	movwf	??_strcpy
  1437  0CB6  0875               	movf	??_strcpy,w
  1438  0CB7  00A1               	movwf	strcpy@cp
  1439  0CB8  2CC1               	goto	l2336
  1440  0CB9                     l2334:
  1441  0CB9  3001               	movlw	1
  1442  0CBA  00F5               	movwf	??_strcpy
  1443  0CBB  0875               	movf	??_strcpy,w
  1444  0CBC  07A1               	addwf	strcpy@cp,f
  1445  0CBD  3001               	movlw	1
  1446  0CBE  00F5               	movwf	??_strcpy
  1447  0CBF  0875               	movf	??_strcpy,w
  1448  0CC0  07F4               	addwf	strcpy@from,f
  1449  0CC1                     l2336:
  1450  0CC1  0874               	movf	strcpy@from,w
  1451  0CC2  0084               	movwf	4
  1452  0CC3  120A  158A  2000  120A  158A  	fcall	stringdir
  1453  0CC8  00F5               	movwf	??_strcpy
  1454  0CC9  0821               	movf	strcpy@cp,w
  1455  0CCA  0084               	movwf	4
  1456  0CCB  0875               	movf	??_strcpy,w
  1457  0CCC  1383               	bcf	3,7	;select IRP bank0
  1458  0CCD  0080               	movwf	0
  1459  0CCE  0800               	movf	0,w
  1460  0CCF  1D03               	btfss	3,2
  1461  0CD0  2CD2               	goto	u3101
  1462  0CD1  2CD3               	goto	u3100
  1463  0CD2                     u3101:
  1464  0CD2  2CB9               	goto	l2334
  1465  0CD3                     u3100:
  1466  0CD3                     l708:
  1467  0CD3  0008               	return
  1468  0CD4                     __end_of_strcpy:
  1469                           
  1470                           	psect	text2
  1471  0CFD                     __ptext2:	
  1472 ;; *************** function _strcat *****************
  1473 ;; Defined at:
  1474 ;;		line 8 in file "C:\Program Files\Microchip\xc8\v2.31\pic\sources\c90\common\strcat.c"
  1475 ;; Parameters:    Size  Location     Type
  1476 ;;  to              1    wreg     PTR unsigned char 
  1477 ;;		 -> PUNTO1(5), POT1SB(5), POT1SC(5), 
  1478 ;;  from            1    4[COMMON] PTR const unsigned char 
  1479 ;;		 -> PUNTO1(5), POT1SB(5), POT1SA(5), 
  1480 ;; Auto vars:     Size  Location     Type
  1481 ;;  to              1    0[BANK0 ] PTR unsigned char 
  1482 ;;		 -> PUNTO1(5), POT1SB(5), POT1SC(5), 
  1483 ;;  cp              1    1[BANK0 ] PTR unsigned char 
  1484 ;;		 -> PUNTO1(5), POT1SB(5), POT1SC(5), 
  1485 ;; Return value:  Size  Location     Type
  1486 ;;                  1    wreg      PTR unsigned char 
  1487 ;; Registers used:
  1488 ;;		wreg, fsr0l, fsr0h, status,2, status,0
  1489 ;; Tracked objects:
  1490 ;;		On entry : 0/0
  1491 ;;		On exit  : 0/0
  1492 ;;		Unchanged: 0/0
  1493 ;; Data sizes:     COMMON   BANK0   BANK1   BANK3   BANK2
  1494 ;;      Params:         1       0       0       0       0
  1495 ;;      Locals:         0       2       0       0       0
  1496 ;;      Temps:          1       0       0       0       0
  1497 ;;      Totals:         2       2       0       0       0
  1498 ;;Total ram usage:        4 bytes
  1499 ;; Hardware stack levels used:    1
  1500 ;; Hardware stack levels required when called:    3
  1501 ;; This function calls:
  1502 ;;		Nothing
  1503 ;; This function is called by:
  1504 ;;		_main
  1505 ;; This function uses a non-reentrant model
  1506 ;;
  1507                           
  1508                           
  1509                           ;psect for function _strcat
  1510  0CFD                     _strcat:
  1511                           
  1512                           ;incstack = 0
  1513                           ; Regs used in _strcat: [wreg-fsr0h+status,2+status,0]
  1514                           ;strcat@to stored from wreg
  1515  0CFD  1283               	bcf	3,5	;RP0=0, select bank0
  1516  0CFE  1303               	bcf	3,6	;RP1=0, select bank0
  1517  0CFF  00A0               	movwf	strcat@to
  1518  0D00                     l2338:
  1519  0D00  0820               	movf	strcat@to,w
  1520  0D01  00F5               	movwf	??_strcat
  1521  0D02  0875               	movf	??_strcat,w
  1522  0D03  00A1               	movwf	strcat@cp
  1523  0D04  2D09               	goto	l2342
  1524  0D05                     l2340:
  1525  0D05  3001               	movlw	1
  1526  0D06  00F5               	movwf	??_strcat
  1527  0D07  0875               	movf	??_strcat,w
  1528  0D08  07A1               	addwf	strcat@cp,f
  1529  0D09                     l2342:
  1530  0D09  0821               	movf	strcat@cp,w
  1531  0D0A  0084               	movwf	4
  1532  0D0B  1383               	bcf	3,7	;select IRP bank0
  1533  0D0C  0800               	movf	0,w
  1534  0D0D  1D03               	btfss	3,2
  1535  0D0E  2D10               	goto	u3111
  1536  0D0F  2D11               	goto	u3110
  1537  0D10                     u3111:
  1538  0D10  2D05               	goto	l2340
  1539  0D11                     u3110:
  1540  0D11  2D1A               	goto	l2346
  1541  0D12                     l2344:
  1542  0D12  3001               	movlw	1
  1543  0D13  00F5               	movwf	??_strcat
  1544  0D14  0875               	movf	??_strcat,w
  1545  0D15  07A1               	addwf	strcat@cp,f
  1546  0D16  3001               	movlw	1
  1547  0D17  00F5               	movwf	??_strcat
  1548  0D18  0875               	movf	??_strcat,w
  1549  0D19  07F4               	addwf	strcat@from,f
  1550  0D1A                     l2346:
  1551  0D1A  0874               	movf	strcat@from,w
  1552  0D1B  0084               	movwf	4
  1553  0D1C  0800               	movf	0,w
  1554  0D1D  00F5               	movwf	??_strcat
  1555  0D1E  0821               	movf	strcat@cp,w
  1556  0D1F  0084               	movwf	4
  1557  0D20  0875               	movf	??_strcat,w
  1558  0D21  0080               	movwf	0
  1559  0D22  0800               	movf	0,w
  1560  0D23  1D03               	btfss	3,2
  1561  0D24  2D26               	goto	u3121
  1562  0D25  2D27               	goto	u3120
  1563  0D26                     u3121:
  1564  0D26  2D12               	goto	l2344
  1565  0D27                     u3120:
  1566  0D27                     l702:
  1567  0D27  0008               	return
  1568  0D28                     __end_of_strcat:
  1569                           
  1570                           	psect	text3
  1571  0C91                     __ptext3:	
  1572 ;; *************** function _setup *****************
  1573 ;; Defined at:
  1574 ;;		line 136 in file "S1.c"
  1575 ;; Parameters:    Size  Location     Type
  1576 ;;		None
  1577 ;; Auto vars:     Size  Location     Type
  1578 ;;		None
  1579 ;; Return value:  Size  Location     Type
  1580 ;;                  1    wreg      void 
  1581 ;; Registers used:
  1582 ;;		wreg, status,2, status,0
  1583 ;; Tracked objects:
  1584 ;;		On entry : 0/0
  1585 ;;		On exit  : 0/0
  1586 ;;		Unchanged: 0/0
  1587 ;; Data sizes:     COMMON   BANK0   BANK1   BANK3   BANK2
  1588 ;;      Params:         0       0       0       0       0
  1589 ;;      Locals:         0       0       0       0       0
  1590 ;;      Temps:          0       0       0       0       0
  1591 ;;      Totals:         0       0       0       0       0
  1592 ;;Total ram usage:        0 bytes
  1593 ;; Hardware stack levels used:    1
  1594 ;; Hardware stack levels required when called:    3
  1595 ;; This function calls:
  1596 ;;		Nothing
  1597 ;; This function is called by:
  1598 ;;		_main
  1599 ;; This function uses a non-reentrant model
  1600 ;;
  1601                           
  1602                           
  1603                           ;psect for function _setup
  1604  0C91                     _setup:
  1605  0C91                     l1594:	
  1606                           ;incstack = 0
  1607                           ; Regs used in _setup: [wreg+status,2+status,0]
  1608                           
  1609                           
  1610                           ;S1.c: 137:     ANSEL = 0b00100001;
  1611  0C91  3021               	movlw	33
  1612  0C92  1683               	bsf	3,5	;RP0=1, select bank3
  1613  0C93  1703               	bsf	3,6	;RP1=1, select bank3
  1614  0C94  0088               	movwf	8	;volatile
  1615  0C95                     l1596:
  1616                           
  1617                           ;S1.c: 138:     ANSELH= 0b00000000;
  1618  0C95  0189               	clrf	9	;volatile
  1619  0C96                     l1598:
  1620                           
  1621                           ;S1.c: 139:     TRISA = 0b00100001;
  1622  0C96  3021               	movlw	33
  1623  0C97  1683               	bsf	3,5	;RP0=1, select bank1
  1624  0C98  1303               	bcf	3,6	;RP1=0, select bank1
  1625  0C99  0085               	movwf	5	;volatile
  1626                           
  1627                           ;S1.c: 140:     TRISB = 0;
  1628  0C9A  0186               	clrf	6	;volatile
  1629  0C9B                     l1600:
  1630                           
  1631                           ;S1.c: 141:     TRISC = 0b00010000;
  1632  0C9B  3010               	movlw	16
  1633  0C9C  0087               	movwf	7	;volatile
  1634  0C9D                     l1602:
  1635                           
  1636                           ;S1.c: 142:     TRISD = 0;
  1637  0C9D  0188               	clrf	8	;volatile
  1638  0C9E                     l1604:
  1639                           
  1640                           ;S1.c: 144:     PORTA = 0;
  1641  0C9E  1283               	bcf	3,5	;RP0=0, select bank0
  1642  0C9F  1303               	bcf	3,6	;RP1=0, select bank0
  1643  0CA0  0185               	clrf	5	;volatile
  1644  0CA1                     l1606:
  1645                           
  1646                           ;S1.c: 145:     PORTB = 0;
  1647  0CA1  0186               	clrf	6	;volatile
  1648  0CA2                     l1608:
  1649                           
  1650                           ;S1.c: 146:     PORTC = 0;
  1651  0CA2  0187               	clrf	7	;volatile
  1652  0CA3                     l1610:
  1653                           
  1654                           ;S1.c: 147:     PORTD = 0;
  1655  0CA3  0188               	clrf	8	;volatile
  1656  0CA4                     l1612:
  1657                           
  1658                           ;S1.c: 148:     PORTE = 0;
  1659  0CA4  0189               	clrf	9	;volatile
  1660  0CA5                     l1614:
  1661                           
  1662                           ;S1.c: 150:     TRISAbits.TRISA5 = 1;
  1663  0CA5  1683               	bsf	3,5	;RP0=1, select bank1
  1664  0CA6  1303               	bcf	3,6	;RP1=0, select bank1
  1665  0CA7  1685               	bsf	5,5	;volatile
  1666  0CA8                     l1616:
  1667                           
  1668                           ;S1.c: 152:     OSCCONbits.IRCF = 0b110;
  1669  0CA8  080F               	movf	15,w	;volatile
  1670  0CA9  398F               	andlw	-113
  1671  0CAA  3860               	iorlw	96
  1672  0CAB  008F               	movwf	15	;volatile
  1673  0CAC                     l1618:
  1674                           
  1675                           ;S1.c: 153:     OSCCONbits.OSTS= 0;
  1676  0CAC  118F               	bcf	15,3	;volatile
  1677  0CAD                     l1620:
  1678                           
  1679                           ;S1.c: 154:     OSCCONbits.HTS = 0;
  1680  0CAD  110F               	bcf	15,2	;volatile
  1681  0CAE                     l1622:
  1682                           
  1683                           ;S1.c: 155:     OSCCONbits.LTS = 0;
  1684  0CAE  108F               	bcf	15,1	;volatile
  1685  0CAF                     l1624:
  1686                           
  1687                           ;S1.c: 156:     OSCCONbits.SCS = 1;
  1688  0CAF  140F               	bsf	15,0	;volatile
  1689  0CB0                     l95:
  1690  0CB0  0008               	return
  1691  0CB1                     __end_of_setup:
  1692                           
  1693                           	psect	text4
  1694  07DA                     __ptext4:	
  1695 ;; *************** function _itoa *****************
  1696 ;; Defined at:
  1697 ;;		line 4 in file "C:\Program Files\Microchip\xc8\v2.31\pic\sources\c90\common\itoa.c"
  1698 ;; Parameters:    Size  Location     Type
  1699 ;;  buf             1    wreg     PTR unsigned char 
  1700 ;;		 -> POT1SB(5), POT1SA(5), POT1SC(5), 
  1701 ;;  val             2   16[BANK0 ] int 
  1702 ;;  base            2   18[BANK0 ] int 
  1703 ;; Auto vars:     Size  Location     Type
  1704 ;;  buf             1   22[BANK0 ] PTR unsigned char 
  1705 ;;		 -> POT1SB(5), POT1SA(5), POT1SC(5), 
  1706 ;;  cp              1    0        PTR unsigned char 
  1707 ;;		 -> POT1SB(5), POT1SA(5), POT1SC(5), 
  1708 ;; Return value:  Size  Location     Type
  1709 ;;                  1    wreg      PTR unsigned char 
  1710 ;; Registers used:
  1711 ;;		wreg, fsr0l, fsr0h, status,2, status,0, pclath, cstack
  1712 ;; Tracked objects:
  1713 ;;		On entry : 0/0
  1714 ;;		On exit  : 0/0
  1715 ;;		Unchanged: 0/0
  1716 ;; Data sizes:     COMMON   BANK0   BANK1   BANK3   BANK2
  1717 ;;      Params:         0       4       0       0       0
  1718 ;;      Locals:         0       2       0       0       0
  1719 ;;      Temps:          0       1       0       0       0
  1720 ;;      Totals:         0       7       0       0       0
  1721 ;;Total ram usage:        7 bytes
  1722 ;; Hardware stack levels used:    1
  1723 ;; Hardware stack levels required when called:    5
  1724 ;; This function calls:
  1725 ;;		_utoa
  1726 ;; This function is called by:
  1727 ;;		_main
  1728 ;; This function uses a non-reentrant model
  1729 ;;
  1730                           
  1731                           
  1732                           ;psect for function _itoa
  1733  07DA                     _itoa:
  1734                           
  1735                           ;incstack = 0
  1736                           ; Regs used in _itoa: [wreg-fsr0h+status,2+status,0+pclath+cstack]
  1737                           ;itoa@buf stored from wreg
  1738  07DA  1283               	bcf	3,5	;RP0=0, select bank0
  1739  07DB  1303               	bcf	3,6	;RP1=0, select bank0
  1740  07DC  00B6               	movwf	itoa@buf
  1741  07DD                     l2318:
  1742  07DD                     l2320:
  1743  07DD  1FB1               	btfss	itoa@val+1,7
  1744  07DE  2FE0               	goto	u3091
  1745  07DF  2FE1               	goto	u3090
  1746  07E0                     u3091:
  1747  07E0  2FF1               	goto	l2328
  1748  07E1                     u3090:
  1749  07E1                     l2322:
  1750  07E1  302D               	movlw	45
  1751  07E2  00B4               	movwf	??_itoa
  1752  07E3  0836               	movf	itoa@buf,w
  1753  07E4  0084               	movwf	4
  1754  07E5  0834               	movf	??_itoa,w
  1755  07E6  1383               	bcf	3,7	;select IRP bank0
  1756  07E7  0080               	movwf	0
  1757  07E8                     l2324:
  1758  07E8  3001               	movlw	1
  1759  07E9  00B4               	movwf	??_itoa
  1760  07EA  0834               	movf	??_itoa,w
  1761  07EB  07B6               	addwf	itoa@buf,f
  1762  07EC                     l2326:
  1763  07EC  09B0               	comf	itoa@val,f
  1764  07ED  09B1               	comf	itoa@val+1,f
  1765  07EE  0AB0               	incf	itoa@val,f
  1766  07EF  1903               	skipnz
  1767  07F0  0AB1               	incf	itoa@val+1,f
  1768  07F1                     l2328:
  1769  07F1  0831               	movf	itoa@val+1,w
  1770  07F2  00A8               	movwf	utoa@val+1
  1771  07F3  0830               	movf	itoa@val,w
  1772  07F4  00A7               	movwf	utoa@val
  1773  07F5  0833               	movf	itoa@base+1,w
  1774  07F6  00AA               	movwf	utoa@base+1
  1775  07F7  0832               	movf	itoa@base,w
  1776  07F8  00A9               	movwf	utoa@base
  1777  07F9  0836               	movf	itoa@buf,w
  1778  07FA  120A  158A  266E  120A  118A  	fcall	_utoa
  1779  07FF                     l685:
  1780  07FF  0008               	return
  1781  0800                     __end_of_itoa:
  1782                           
  1783                           	psect	text5
  1784  0E6E                     __ptext5:	
  1785 ;; *************** function _utoa *****************
  1786 ;; Defined at:
  1787 ;;		line 17 in file "C:\Program Files\Microchip\xc8\v2.31\pic\sources\c90\common\itoa.c"
  1788 ;; Parameters:    Size  Location     Type
  1789 ;;  buf             1    wreg     PTR unsigned char 
  1790 ;;		 -> POT1SB(5), POT1SA(5), POT1SC(5), 
  1791 ;;  val             2    7[BANK0 ] unsigned int 
  1792 ;;  base            2    9[BANK0 ] int 
  1793 ;; Auto vars:     Size  Location     Type
  1794 ;;  buf             1   15[BANK0 ] PTR unsigned char 
  1795 ;;		 -> POT1SB(5), POT1SA(5), POT1SC(5), 
  1796 ;;  v               2   12[BANK0 ] unsigned int 
  1797 ;;  c               1   14[BANK0 ] unsigned char 
  1798 ;; Return value:  Size  Location     Type
  1799 ;;                  1    wreg      PTR unsigned char 
  1800 ;; Registers used:
  1801 ;;		wreg, fsr0l, fsr0h, status,2, status,0, pclath, cstack
  1802 ;; Tracked objects:
  1803 ;;		On entry : 0/0
  1804 ;;		On exit  : 0/0
  1805 ;;		Unchanged: 0/0
  1806 ;; Data sizes:     COMMON   BANK0   BANK1   BANK3   BANK2
  1807 ;;      Params:         0       4       0       0       0
  1808 ;;      Locals:         0       4       0       0       0
  1809 ;;      Temps:          0       1       0       0       0
  1810 ;;      Totals:         0       9       0       0       0
  1811 ;;Total ram usage:        9 bytes
  1812 ;; Hardware stack levels used:    1
  1813 ;; Hardware stack levels required when called:    4
  1814 ;; This function calls:
  1815 ;;		___lwdiv
  1816 ;;		___lwmod
  1817 ;; This function is called by:
  1818 ;;		_itoa
  1819 ;; This function uses a non-reentrant model
  1820 ;;
  1821                           
  1822                           
  1823                           ;psect for function _utoa
  1824  0E6E                     _utoa:
  1825                           
  1826                           ;incstack = 0
  1827                           ; Regs used in _utoa: [wreg-fsr0h+status,2+status,0+pclath+cstack]
  1828                           ;utoa@buf stored from wreg
  1829  0E6E  1283               	bcf	3,5	;RP0=0, select bank0
  1830  0E6F  1303               	bcf	3,6	;RP1=0, select bank0
  1831  0E70  00AF               	movwf	utoa@buf
  1832  0E71                     l2262:
  1833  0E71  0828               	movf	utoa@val+1,w
  1834  0E72  00AD               	movwf	utoa@v+1
  1835  0E73  0827               	movf	utoa@val,w
  1836  0E74  00AC               	movwf	utoa@v
  1837  0E75                     l2264:
  1838  0E75  082A               	movf	utoa@base+1,w
  1839  0E76  00A1               	movwf	___lwdiv@divisor+1
  1840  0E77  0829               	movf	utoa@base,w
  1841  0E78  00A0               	movwf	___lwdiv@divisor
  1842  0E79  082D               	movf	utoa@v+1,w
  1843  0E7A  00A3               	movwf	___lwdiv@dividend+1
  1844  0E7B  082C               	movf	utoa@v,w
  1845  0E7C  00A2               	movwf	___lwdiv@dividend
  1846  0E7D  120A  158A  2564  120A  158A  	fcall	___lwdiv
  1847  0E82  1283               	bcf	3,5	;RP0=0, select bank0
  1848  0E83  1303               	bcf	3,6	;RP1=0, select bank0
  1849  0E84  0821               	movf	?___lwdiv+1,w
  1850  0E85  00AD               	movwf	utoa@v+1
  1851  0E86  0820               	movf	?___lwdiv,w
  1852  0E87  00AC               	movwf	utoa@v
  1853  0E88                     l2266:
  1854  0E88  3001               	movlw	1
  1855  0E89  00AB               	movwf	??_utoa
  1856  0E8A  082B               	movf	??_utoa,w
  1857  0E8B  07AF               	addwf	utoa@buf,f
  1858  0E8C                     l2268:
  1859  0E8C  082C               	movf	utoa@v,w
  1860  0E8D  042D               	iorwf	utoa@v+1,w
  1861  0E8E  1D03               	btfss	3,2
  1862  0E8F  2E91               	goto	u3051
  1863  0E90  2E92               	goto	u3050
  1864  0E91                     u3051:
  1865  0E91  2E75               	goto	l2264
  1866  0E92                     u3050:
  1867  0E92                     l2270:
  1868  0E92  082F               	movf	utoa@buf,w
  1869  0E93  0084               	movwf	4
  1870  0E94  1383               	bcf	3,7	;select IRP bank0
  1871  0E95  0180               	clrf	0
  1872  0E96                     l2272:
  1873  0E96  3001               	movlw	1
  1874  0E97  02AF               	subwf	utoa@buf,f
  1875  0E98                     l2274:
  1876  0E98  082A               	movf	utoa@base+1,w
  1877  0E99  00A1               	movwf	___lwmod@divisor+1
  1878  0E9A  0829               	movf	utoa@base,w
  1879  0E9B  00A0               	movwf	___lwmod@divisor
  1880  0E9C  0828               	movf	utoa@val+1,w
  1881  0E9D  00A3               	movwf	___lwmod@dividend+1
  1882  0E9E  0827               	movf	utoa@val,w
  1883  0E9F  00A2               	movwf	___lwmod@dividend
  1884  0EA0  120A  158A  2528  120A  158A  	fcall	___lwmod
  1885  0EA5  1283               	bcf	3,5	;RP0=0, select bank0
  1886  0EA6  1303               	bcf	3,6	;RP1=0, select bank0
  1887  0EA7  0820               	movf	?___lwmod,w
  1888  0EA8  00AB               	movwf	??_utoa
  1889  0EA9  082B               	movf	??_utoa,w
  1890  0EAA  00AE               	movwf	utoa@c
  1891  0EAB                     l2276:
  1892  0EAB  082A               	movf	utoa@base+1,w
  1893  0EAC  00A1               	movwf	___lwdiv@divisor+1
  1894  0EAD  0829               	movf	utoa@base,w
  1895  0EAE  00A0               	movwf	___lwdiv@divisor
  1896  0EAF  0828               	movf	utoa@val+1,w
  1897  0EB0  00A3               	movwf	___lwdiv@dividend+1
  1898  0EB1  0827               	movf	utoa@val,w
  1899  0EB2  00A2               	movwf	___lwdiv@dividend
  1900  0EB3  120A  158A  2564  120A  158A  	fcall	___lwdiv
  1901  0EB8  1283               	bcf	3,5	;RP0=0, select bank0
  1902  0EB9  1303               	bcf	3,6	;RP1=0, select bank0
  1903  0EBA  0821               	movf	?___lwdiv+1,w
  1904  0EBB  00A8               	movwf	utoa@val+1
  1905  0EBC  0820               	movf	?___lwdiv,w
  1906  0EBD  00A7               	movwf	utoa@val
  1907  0EBE                     l2278:
  1908  0EBE  300A               	movlw	10
  1909  0EBF  022E               	subwf	utoa@c,w
  1910  0EC0  1C03               	skipc
  1911  0EC1  2EC3               	goto	u3061
  1912  0EC2  2EC4               	goto	u3060
  1913  0EC3                     u3061:
  1914  0EC3  2EC8               	goto	l691
  1915  0EC4                     u3060:
  1916  0EC4                     l2280:
  1917  0EC4  3007               	movlw	7
  1918  0EC5  00AB               	movwf	??_utoa
  1919  0EC6  082B               	movf	??_utoa,w
  1920  0EC7  07AE               	addwf	utoa@c,f
  1921  0EC8                     l691:
  1922  0EC8  3030               	movlw	48
  1923  0EC9  00AB               	movwf	??_utoa
  1924  0ECA  082B               	movf	??_utoa,w
  1925  0ECB  07AE               	addwf	utoa@c,f
  1926  0ECC                     l2282:
  1927  0ECC  082E               	movf	utoa@c,w
  1928  0ECD  00AB               	movwf	??_utoa
  1929  0ECE  082F               	movf	utoa@buf,w
  1930  0ECF  0084               	movwf	4
  1931  0ED0  082B               	movf	??_utoa,w
  1932  0ED1  1383               	bcf	3,7	;select IRP bank0
  1933  0ED2  0080               	movwf	0
  1934  0ED3                     l2284:
  1935  0ED3  3001               	movlw	1
  1936  0ED4  02AF               	subwf	utoa@buf,f
  1937  0ED5                     l2286:
  1938  0ED5  0827               	movf	utoa@val,w
  1939  0ED6  0428               	iorwf	utoa@val+1,w
  1940  0ED7  1D03               	btfss	3,2
  1941  0ED8  2EDA               	goto	u3071
  1942  0ED9  2EDB               	goto	u3070
  1943  0EDA                     u3071:
  1944  0EDA  2E98               	goto	l2274
  1945  0EDB                     u3070:
  1946  0EDB                     l2288:
  1947                           
  1948                           ;	Return value of _utoa is never used
  1949  0EDB  3001               	movlw	1
  1950  0EDC  00AB               	movwf	??_utoa
  1951  0EDD  082B               	movf	??_utoa,w
  1952  0EDE  07AF               	addwf	utoa@buf,f
  1953  0EDF                     l693:
  1954  0EDF  0008               	return
  1955  0EE0                     __end_of_utoa:
  1956                           
  1957                           	psect	text6
  1958  0D28                     __ptext6:	
  1959 ;; *************** function ___lwmod *****************
  1960 ;; Defined at:
  1961 ;;		line 5 in file "C:\Program Files\Microchip\xc8\v2.31\pic\sources\c90\common\lwmod.c"
  1962 ;; Parameters:    Size  Location     Type
  1963 ;;  divisor         2    0[BANK0 ] unsigned int 
  1964 ;;  dividend        2    2[BANK0 ] unsigned int 
  1965 ;; Auto vars:     Size  Location     Type
  1966 ;;  counter         1    5[COMMON] unsigned char 
  1967 ;; Return value:  Size  Location     Type
  1968 ;;                  2    0[BANK0 ] unsigned int 
  1969 ;; Registers used:
  1970 ;;		wreg, status,2, status,0
  1971 ;; Tracked objects:
  1972 ;;		On entry : 0/0
  1973 ;;		On exit  : 0/0
  1974 ;;		Unchanged: 0/0
  1975 ;; Data sizes:     COMMON   BANK0   BANK1   BANK3   BANK2
  1976 ;;      Params:         0       4       0       0       0
  1977 ;;      Locals:         1       0       0       0       0
  1978 ;;      Temps:          1       0       0       0       0
  1979 ;;      Totals:         2       4       0       0       0
  1980 ;;Total ram usage:        6 bytes
  1981 ;; Hardware stack levels used:    1
  1982 ;; Hardware stack levels required when called:    3
  1983 ;; This function calls:
  1984 ;;		Nothing
  1985 ;; This function is called by:
  1986 ;;		_utoa
  1987 ;; This function uses a non-reentrant model
  1988 ;;
  1989                           
  1990                           
  1991                           ;psect for function ___lwmod
  1992  0D28                     ___lwmod:
  1993  0D28                     l2226:	
  1994                           ;incstack = 0
  1995                           ; Regs used in ___lwmod: [wreg+status,2+status,0]
  1996                           
  1997  0D28  1283               	bcf	3,5	;RP0=0, select bank0
  1998  0D29  1303               	bcf	3,6	;RP1=0, select bank0
  1999  0D2A  0820               	movf	___lwmod@divisor,w
  2000  0D2B  0421               	iorwf	___lwmod@divisor+1,w
  2001  0D2C  1903               	btfsc	3,2
  2002  0D2D  2D2F               	goto	u2961
  2003  0D2E  2D30               	goto	u2960
  2004  0D2F                     u2961:
  2005  0D2F  2D5F               	goto	l2244
  2006  0D30                     u2960:
  2007  0D30                     l2228:
  2008  0D30  01F5               	clrf	___lwmod@counter
  2009  0D31  0AF5               	incf	___lwmod@counter,f
  2010  0D32  2D3E               	goto	l2234
  2011  0D33                     l2230:
  2012  0D33  3001               	movlw	1
  2013  0D34                     u2975:
  2014  0D34  1003               	clrc
  2015  0D35  0DA0               	rlf	___lwmod@divisor,f
  2016  0D36  0DA1               	rlf	___lwmod@divisor+1,f
  2017  0D37  3EFF               	addlw	-1
  2018  0D38  1D03               	skipz
  2019  0D39  2D34               	goto	u2975
  2020  0D3A                     l2232:
  2021  0D3A  3001               	movlw	1
  2022  0D3B  00F4               	movwf	??___lwmod
  2023  0D3C  0874               	movf	??___lwmod,w
  2024  0D3D  07F5               	addwf	___lwmod@counter,f
  2025  0D3E                     l2234:
  2026  0D3E  1FA1               	btfss	___lwmod@divisor+1,7
  2027  0D3F  2D41               	goto	u2981
  2028  0D40  2D42               	goto	u2980
  2029  0D41                     u2981:
  2030  0D41  2D33               	goto	l2230
  2031  0D42                     u2980:
  2032  0D42                     l2236:
  2033  0D42  0821               	movf	___lwmod@divisor+1,w
  2034  0D43  0223               	subwf	___lwmod@dividend+1,w
  2035  0D44  1D03               	skipz
  2036  0D45  2D48               	goto	u2995
  2037  0D46  0820               	movf	___lwmod@divisor,w
  2038  0D47  0222               	subwf	___lwmod@dividend,w
  2039  0D48                     u2995:
  2040  0D48  1C03               	skipc
  2041  0D49  2D4B               	goto	u2991
  2042  0D4A  2D4C               	goto	u2990
  2043  0D4B                     u2991:
  2044  0D4B  2D52               	goto	l2240
  2045  0D4C                     u2990:
  2046  0D4C                     l2238:
  2047  0D4C  0820               	movf	___lwmod@divisor,w
  2048  0D4D  02A2               	subwf	___lwmod@dividend,f
  2049  0D4E  0821               	movf	___lwmod@divisor+1,w
  2050  0D4F  1C03               	skipc
  2051  0D50  03A3               	decf	___lwmod@dividend+1,f
  2052  0D51  02A3               	subwf	___lwmod@dividend+1,f
  2053  0D52                     l2240:
  2054  0D52  3001               	movlw	1
  2055  0D53                     u3005:
  2056  0D53  1003               	clrc
  2057  0D54  0CA1               	rrf	___lwmod@divisor+1,f
  2058  0D55  0CA0               	rrf	___lwmod@divisor,f
  2059  0D56  3EFF               	addlw	-1
  2060  0D57  1D03               	skipz
  2061  0D58  2D53               	goto	u3005
  2062  0D59                     l2242:
  2063  0D59  3001               	movlw	1
  2064  0D5A  02F5               	subwf	___lwmod@counter,f
  2065  0D5B  1D03               	btfss	3,2
  2066  0D5C  2D5E               	goto	u3011
  2067  0D5D  2D5F               	goto	u3010
  2068  0D5E                     u3011:
  2069  0D5E  2D42               	goto	l2236
  2070  0D5F                     u3010:
  2071  0D5F                     l2244:
  2072  0D5F  0823               	movf	___lwmod@dividend+1,w
  2073  0D60  00A1               	movwf	?___lwmod+1
  2074  0D61  0822               	movf	___lwmod@dividend,w
  2075  0D62  00A0               	movwf	?___lwmod
  2076  0D63                     l513:
  2077  0D63  0008               	return
  2078  0D64                     __end_of___lwmod:
  2079                           
  2080                           	psect	text7
  2081  0D64                     __ptext7:	
  2082 ;; *************** function ___lwdiv *****************
  2083 ;; Defined at:
  2084 ;;		line 5 in file "C:\Program Files\Microchip\xc8\v2.31\pic\sources\c90\common\lwdiv.c"
  2085 ;; Parameters:    Size  Location     Type
  2086 ;;  divisor         2    0[BANK0 ] unsigned int 
  2087 ;;  dividend        2    2[BANK0 ] unsigned int 
  2088 ;; Auto vars:     Size  Location     Type
  2089 ;;  quotient        2    5[BANK0 ] unsigned int 
  2090 ;;  counter         1    4[BANK0 ] unsigned char 
  2091 ;; Return value:  Size  Location     Type
  2092 ;;                  2    0[BANK0 ] unsigned int 
  2093 ;; Registers used:
  2094 ;;		wreg, status,2, status,0
  2095 ;; Tracked objects:
  2096 ;;		On entry : 0/0
  2097 ;;		On exit  : 0/0
  2098 ;;		Unchanged: 0/0
  2099 ;; Data sizes:     COMMON   BANK0   BANK1   BANK3   BANK2
  2100 ;;      Params:         0       4       0       0       0
  2101 ;;      Locals:         0       3       0       0       0
  2102 ;;      Temps:          1       0       0       0       0
  2103 ;;      Totals:         1       7       0       0       0
  2104 ;;Total ram usage:        8 bytes
  2105 ;; Hardware stack levels used:    1
  2106 ;; Hardware stack levels required when called:    3
  2107 ;; This function calls:
  2108 ;;		Nothing
  2109 ;; This function is called by:
  2110 ;;		_utoa
  2111 ;; This function uses a non-reentrant model
  2112 ;;
  2113                           
  2114                           
  2115                           ;psect for function ___lwdiv
  2116  0D64                     ___lwdiv:
  2117  0D64                     l2200:	
  2118                           ;incstack = 0
  2119                           ; Regs used in ___lwdiv: [wreg+status,2+status,0]
  2120                           
  2121  0D64  1283               	bcf	3,5	;RP0=0, select bank0
  2122  0D65  1303               	bcf	3,6	;RP1=0, select bank0
  2123  0D66  01A5               	clrf	___lwdiv@quotient
  2124  0D67  01A6               	clrf	___lwdiv@quotient+1
  2125  0D68                     l2202:
  2126  0D68  0820               	movf	___lwdiv@divisor,w
  2127  0D69  0421               	iorwf	___lwdiv@divisor+1,w
  2128  0D6A  1903               	btfsc	3,2
  2129  0D6B  2D6D               	goto	u2891
  2130  0D6C  2D6E               	goto	u2890
  2131  0D6D                     u2891:
  2132  0D6D  2DA5               	goto	l2222
  2133  0D6E                     u2890:
  2134  0D6E                     l2204:
  2135  0D6E  01A4               	clrf	___lwdiv@counter
  2136  0D6F  0AA4               	incf	___lwdiv@counter,f
  2137  0D70  2D7C               	goto	l2210
  2138  0D71                     l2206:
  2139  0D71  3001               	movlw	1
  2140  0D72                     u2905:
  2141  0D72  1003               	clrc
  2142  0D73  0DA0               	rlf	___lwdiv@divisor,f
  2143  0D74  0DA1               	rlf	___lwdiv@divisor+1,f
  2144  0D75  3EFF               	addlw	-1
  2145  0D76  1D03               	skipz
  2146  0D77  2D72               	goto	u2905
  2147  0D78                     l2208:
  2148  0D78  3001               	movlw	1
  2149  0D79  00F4               	movwf	??___lwdiv
  2150  0D7A  0874               	movf	??___lwdiv,w
  2151  0D7B  07A4               	addwf	___lwdiv@counter,f
  2152  0D7C                     l2210:
  2153  0D7C  1FA1               	btfss	___lwdiv@divisor+1,7
  2154  0D7D  2D7F               	goto	u2911
  2155  0D7E  2D80               	goto	u2910
  2156  0D7F                     u2911:
  2157  0D7F  2D71               	goto	l2206
  2158  0D80                     u2910:
  2159  0D80                     l2212:
  2160  0D80  3001               	movlw	1
  2161  0D81                     u2925:
  2162  0D81  1003               	clrc
  2163  0D82  0DA5               	rlf	___lwdiv@quotient,f
  2164  0D83  0DA6               	rlf	___lwdiv@quotient+1,f
  2165  0D84  3EFF               	addlw	-1
  2166  0D85  1D03               	skipz
  2167  0D86  2D81               	goto	u2925
  2168  0D87  0821               	movf	___lwdiv@divisor+1,w
  2169  0D88  0223               	subwf	___lwdiv@dividend+1,w
  2170  0D89  1D03               	skipz
  2171  0D8A  2D8D               	goto	u2935
  2172  0D8B  0820               	movf	___lwdiv@divisor,w
  2173  0D8C  0222               	subwf	___lwdiv@dividend,w
  2174  0D8D                     u2935:
  2175  0D8D  1C03               	skipc
  2176  0D8E  2D90               	goto	u2931
  2177  0D8F  2D91               	goto	u2930
  2178  0D90                     u2931:
  2179  0D90  2D98               	goto	l2218
  2180  0D91                     u2930:
  2181  0D91                     l2214:
  2182  0D91  0820               	movf	___lwdiv@divisor,w
  2183  0D92  02A2               	subwf	___lwdiv@dividend,f
  2184  0D93  0821               	movf	___lwdiv@divisor+1,w
  2185  0D94  1C03               	skipc
  2186  0D95  03A3               	decf	___lwdiv@dividend+1,f
  2187  0D96  02A3               	subwf	___lwdiv@dividend+1,f
  2188  0D97                     l2216:
  2189  0D97  1425               	bsf	___lwdiv@quotient,0
  2190  0D98                     l2218:
  2191  0D98  3001               	movlw	1
  2192  0D99                     u2945:
  2193  0D99  1003               	clrc
  2194  0D9A  0CA1               	rrf	___lwdiv@divisor+1,f
  2195  0D9B  0CA0               	rrf	___lwdiv@divisor,f
  2196  0D9C  3EFF               	addlw	-1
  2197  0D9D  1D03               	skipz
  2198  0D9E  2D99               	goto	u2945
  2199  0D9F                     l2220:
  2200  0D9F  3001               	movlw	1
  2201  0DA0  02A4               	subwf	___lwdiv@counter,f
  2202  0DA1  1D03               	btfss	3,2
  2203  0DA2  2DA4               	goto	u2951
  2204  0DA3  2DA5               	goto	u2950
  2205  0DA4                     u2951:
  2206  0DA4  2D80               	goto	l2212
  2207  0DA5                     u2950:
  2208  0DA5                     l2222:
  2209  0DA5  0826               	movf	___lwdiv@quotient+1,w
  2210  0DA6  00A1               	movwf	?___lwdiv+1
  2211  0DA7  0825               	movf	___lwdiv@quotient,w
  2212  0DA8  00A0               	movwf	?___lwdiv
  2213  0DA9                     l503:
  2214  0DA9  0008               	return
  2215  0DAA                     __end_of___lwdiv:
  2216                           
  2217                           	psect	text8
  2218  071E                     __ptext8:	
  2219 ;; *************** function ___xxtofl *****************
  2220 ;; Defined at:
  2221 ;;		line 10 in file "C:\Program Files\Microchip\xc8\v2.31\pic\sources\c90\common\xxtofl.c"
  2222 ;; Parameters:    Size  Location     Type
  2223 ;;  sign            1    wreg     unsigned char 
  2224 ;;  val             4    0[BANK0 ] long 
  2225 ;; Auto vars:     Size  Location     Type
  2226 ;;  sign            1    8[BANK0 ] unsigned char 
  2227 ;;  arg             4   10[BANK0 ] unsigned long 
  2228 ;;  exp             1    9[BANK0 ] unsigned char 
  2229 ;; Return value:  Size  Location     Type
  2230 ;;                  4    0[BANK0 ] unsigned char 
  2231 ;; Registers used:
  2232 ;;		wreg, status,2, status,0
  2233 ;; Tracked objects:
  2234 ;;		On entry : 0/0
  2235 ;;		On exit  : 0/0
  2236 ;;		Unchanged: 0/0
  2237 ;; Data sizes:     COMMON   BANK0   BANK1   BANK3   BANK2
  2238 ;;      Params:         0       4       0       0       0
  2239 ;;      Locals:         0       6       0       0       0
  2240 ;;      Temps:          0       4       0       0       0
  2241 ;;      Totals:         0      14       0       0       0
  2242 ;;Total ram usage:       14 bytes
  2243 ;; Hardware stack levels used:    1
  2244 ;; Hardware stack levels required when called:    3
  2245 ;; This function calls:
  2246 ;;		Nothing
  2247 ;; This function is called by:
  2248 ;;		_main
  2249 ;; This function uses a non-reentrant model
  2250 ;;
  2251                           
  2252                           
  2253                           ;psect for function ___xxtofl
  2254  071E                     ___xxtofl:
  2255                           
  2256                           ;incstack = 0
  2257                           ; Regs used in ___xxtofl: [wreg+status,2+status,0]
  2258                           ;___xxtofl@sign stored from wreg
  2259  071E  1283               	bcf	3,5	;RP0=0, select bank0
  2260  071F  1303               	bcf	3,6	;RP1=0, select bank0
  2261  0720  00A8               	movwf	___xxtofl@sign
  2262  0721                     l2588:
  2263  0721  0828               	movf	___xxtofl@sign,w
  2264  0722  1903               	btfsc	3,2
  2265  0723  2F25               	goto	u3771
  2266  0724  2F26               	goto	u3770
  2267  0725                     u3771:
  2268  0725  2F3A               	goto	l2594
  2269  0726                     u3770:
  2270  0726                     l2590:
  2271  0726  1FA3               	btfss	___xxtofl@val+3,7
  2272  0727  2F29               	goto	u3781
  2273  0728  2F2A               	goto	u3780
  2274  0729                     u3781:
  2275  0729  2F3A               	goto	l2594
  2276  072A                     u3780:
  2277  072A                     l2592:
  2278  072A  0920               	comf	___xxtofl@val,w
  2279  072B  00AA               	movwf	___xxtofl@arg
  2280  072C  0921               	comf	___xxtofl@val+1,w
  2281  072D  00AB               	movwf	___xxtofl@arg+1
  2282  072E  0922               	comf	___xxtofl@val+2,w
  2283  072F  00AC               	movwf	___xxtofl@arg+2
  2284  0730  0923               	comf	___xxtofl@val+3,w
  2285  0731  00AD               	movwf	___xxtofl@arg+3
  2286  0732  0AAA               	incf	___xxtofl@arg,f
  2287  0733  1903               	skipnz
  2288  0734  0AAB               	incf	___xxtofl@arg+1,f
  2289  0735  1903               	skipnz
  2290  0736  0AAC               	incf	___xxtofl@arg+2,f
  2291  0737  1903               	skipnz
  2292  0738  0AAD               	incf	___xxtofl@arg+3,f
  2293  0739  2F42               	goto	l664
  2294  073A                     l2594:
  2295  073A  0823               	movf	___xxtofl@val+3,w
  2296  073B  00AD               	movwf	___xxtofl@arg+3
  2297  073C  0822               	movf	___xxtofl@val+2,w
  2298  073D  00AC               	movwf	___xxtofl@arg+2
  2299  073E  0821               	movf	___xxtofl@val+1,w
  2300  073F  00AB               	movwf	___xxtofl@arg+1
  2301  0740  0820               	movf	___xxtofl@val,w
  2302  0741  00AA               	movwf	___xxtofl@arg
  2303  0742                     l664:
  2304  0742  0823               	movf	___xxtofl@val+3,w
  2305  0743  0422               	iorwf	___xxtofl@val+2,w
  2306  0744  0421               	iorwf	___xxtofl@val+1,w
  2307  0745  0420               	iorwf	___xxtofl@val,w
  2308  0746  1D03               	skipz
  2309  0747  2F49               	goto	u3791
  2310  0748  2F4A               	goto	u3790
  2311  0749                     u3791:
  2312  0749  2F53               	goto	l2600
  2313  074A                     u3790:
  2314  074A                     l2596:
  2315  074A  3000               	movlw	0
  2316  074B  00A3               	movwf	?___xxtofl+3
  2317  074C  3000               	movlw	0
  2318  074D  00A2               	movwf	?___xxtofl+2
  2319  074E  3000               	movlw	0
  2320  074F  00A1               	movwf	?___xxtofl+1
  2321  0750  3000               	movlw	0
  2322  0751  00A0               	movwf	?___xxtofl
  2323  0752  2FD9               	goto	l666
  2324  0753                     l2600:
  2325  0753  3096               	movlw	150
  2326  0754  00A4               	movwf	??___xxtofl
  2327  0755  0824               	movf	??___xxtofl,w
  2328  0756  00A9               	movwf	___xxtofl@exp
  2329  0757  2F65               	goto	l2604
  2330  0758                     l2602:
  2331  0758  3001               	movlw	1
  2332  0759  00A4               	movwf	??___xxtofl
  2333  075A  0824               	movf	??___xxtofl,w
  2334  075B  07A9               	addwf	___xxtofl@exp,f
  2335  075C  3001               	movlw	1
  2336  075D                     u3805:
  2337  075D  1003               	clrc
  2338  075E  0CAD               	rrf	___xxtofl@arg+3,f
  2339  075F  0CAC               	rrf	___xxtofl@arg+2,f
  2340  0760  0CAB               	rrf	___xxtofl@arg+1,f
  2341  0761  0CAA               	rrf	___xxtofl@arg,f
  2342  0762  3EFF               	addlw	-1
  2343  0763  1D03               	skipz
  2344  0764  2F5D               	goto	u3805
  2345  0765                     l2604:
  2346  0765  30FE               	movlw	254
  2347  0766  052D               	andwf	___xxtofl@arg+3,w
  2348  0767  1D03               	btfss	3,2
  2349  0768  2F6A               	goto	u3811
  2350  0769  2F6B               	goto	u3810
  2351  076A                     u3811:
  2352  076A  2F58               	goto	l2602
  2353  076B                     u3810:
  2354  076B  2F87               	goto	l670
  2355  076C                     l2606:
  2356  076C  3001               	movlw	1
  2357  076D  00A4               	movwf	??___xxtofl
  2358  076E  0824               	movf	??___xxtofl,w
  2359  076F  07A9               	addwf	___xxtofl@exp,f
  2360  0770                     l2608:
  2361  0770  3001               	movlw	1
  2362  0771  07AA               	addwf	___xxtofl@arg,f
  2363  0772  3000               	movlw	0
  2364  0773  1803               	skipnc
  2365  0774  3001               	movlw	1
  2366  0775  07AB               	addwf	___xxtofl@arg+1,f
  2367  0776  3000               	movlw	0
  2368  0777  1803               	skipnc
  2369  0778  3001               	movlw	1
  2370  0779  07AC               	addwf	___xxtofl@arg+2,f
  2371  077A  3000               	movlw	0
  2372  077B  1803               	skipnc
  2373  077C  3001               	movlw	1
  2374  077D  07AD               	addwf	___xxtofl@arg+3,f
  2375  077E                     l2610:
  2376  077E  3001               	movlw	1
  2377  077F                     u3825:
  2378  077F  1003               	clrc
  2379  0780  0CAD               	rrf	___xxtofl@arg+3,f
  2380  0781  0CAC               	rrf	___xxtofl@arg+2,f
  2381  0782  0CAB               	rrf	___xxtofl@arg+1,f
  2382  0783  0CAA               	rrf	___xxtofl@arg,f
  2383  0784  3EFF               	addlw	-1
  2384  0785  1D03               	skipz
  2385  0786  2F7F               	goto	u3825
  2386  0787                     l670:
  2387  0787  30FF               	movlw	255
  2388  0788  052D               	andwf	___xxtofl@arg+3,w
  2389  0789  1D03               	btfss	3,2
  2390  078A  2F8C               	goto	u3831
  2391  078B  2F8D               	goto	u3830
  2392  078C                     u3831:
  2393  078C  2F6C               	goto	l2606
  2394  078D                     u3830:
  2395  078D  2F99               	goto	l2614
  2396  078E                     l2612:
  2397  078E  3001               	movlw	1
  2398  078F  02A9               	subwf	___xxtofl@exp,f
  2399  0790  3001               	movlw	1
  2400  0791  00A4               	movwf	??___xxtofl
  2401  0792                     u3845:
  2402  0792  1003               	clrc
  2403  0793  0DAA               	rlf	___xxtofl@arg,f
  2404  0794  0DAB               	rlf	___xxtofl@arg+1,f
  2405  0795  0DAC               	rlf	___xxtofl@arg+2,f
  2406  0796  0DAD               	rlf	___xxtofl@arg+3,f
  2407  0797  0BA4               	decfsz	??___xxtofl,f
  2408  0798  2F92               	goto	u3845
  2409  0799                     l2614:
  2410  0799  1BAC               	btfsc	___xxtofl@arg+2,7
  2411  079A  2F9C               	goto	u3851
  2412  079B  2F9D               	goto	u3850
  2413  079C                     u3851:
  2414  079C  2FA3               	goto	l677
  2415  079D                     u3850:
  2416  079D                     l2616:
  2417  079D  3002               	movlw	2
  2418  079E  0229               	subwf	___xxtofl@exp,w
  2419  079F  1803               	skipnc
  2420  07A0  2FA2               	goto	u3861
  2421  07A1  2FA3               	goto	u3860
  2422  07A2                     u3861:
  2423  07A2  2F8E               	goto	l2612
  2424  07A3                     u3860:
  2425  07A3                     l677:
  2426  07A3  1829               	btfsc	___xxtofl@exp,0
  2427  07A4  2FA6               	goto	u3871
  2428  07A5  2FA7               	goto	u3870
  2429  07A6                     u3871:
  2430  07A6  2FAF               	goto	l678
  2431  07A7                     u3870:
  2432  07A7                     l2618:
  2433  07A7  30FF               	movlw	255
  2434  07A8  05AA               	andwf	___xxtofl@arg,f
  2435  07A9  30FF               	movlw	255
  2436  07AA  05AB               	andwf	___xxtofl@arg+1,f
  2437  07AB  307F               	movlw	127
  2438  07AC  05AC               	andwf	___xxtofl@arg+2,f
  2439  07AD  30FF               	movlw	255
  2440  07AE  05AD               	andwf	___xxtofl@arg+3,f
  2441  07AF                     l678:
  2442  07AF  1003               	clrc
  2443  07B0  0CA9               	rrf	___xxtofl@exp,f
  2444  07B1                     l2620:
  2445  07B1  0829               	movf	___xxtofl@exp,w
  2446  07B2  00A4               	movwf	??___xxtofl
  2447  07B3  01A5               	clrf	??___xxtofl+1
  2448  07B4  01A6               	clrf	??___xxtofl+2
  2449  07B5  01A7               	clrf	??___xxtofl+3
  2450  07B6  3018               	movlw	24
  2451  07B7                     u3885:
  2452  07B7  1003               	clrc
  2453  07B8  0DA4               	rlf	??___xxtofl,f
  2454  07B9  0DA5               	rlf	??___xxtofl+1,f
  2455  07BA  0DA6               	rlf	??___xxtofl+2,f
  2456  07BB  0DA7               	rlf	??___xxtofl+3,f
  2457  07BC                     u3880:
  2458  07BC  3EFF               	addlw	-1
  2459  07BD  1D03               	skipz
  2460  07BE  2FB7               	goto	u3885
  2461  07BF  0824               	movf	??___xxtofl,w
  2462  07C0  04AA               	iorwf	___xxtofl@arg,f
  2463  07C1  0825               	movf	??___xxtofl+1,w
  2464  07C2  04AB               	iorwf	___xxtofl@arg+1,f
  2465  07C3  0826               	movf	??___xxtofl+2,w
  2466  07C4  04AC               	iorwf	___xxtofl@arg+2,f
  2467  07C5  0827               	movf	??___xxtofl+3,w
  2468  07C6  04AD               	iorwf	___xxtofl@arg+3,f
  2469  07C7                     l2622:
  2470  07C7  0828               	movf	___xxtofl@sign,w
  2471  07C8  1903               	btfsc	3,2
  2472  07C9  2FCB               	goto	u3891
  2473  07CA  2FCC               	goto	u3890
  2474  07CB                     u3891:
  2475  07CB  2FD1               	goto	l2628
  2476  07CC                     u3890:
  2477  07CC                     l2624:
  2478  07CC  1FA3               	btfss	___xxtofl@val+3,7
  2479  07CD  2FCF               	goto	u3901
  2480  07CE  2FD0               	goto	u3900
  2481  07CF                     u3901:
  2482  07CF  2FD1               	goto	l2628
  2483  07D0                     u3900:
  2484  07D0                     l2626:
  2485  07D0  17AD               	bsf	___xxtofl@arg+3,7
  2486  07D1                     l2628:
  2487  07D1  082D               	movf	___xxtofl@arg+3,w
  2488  07D2  00A3               	movwf	?___xxtofl+3
  2489  07D3  082C               	movf	___xxtofl@arg+2,w
  2490  07D4  00A2               	movwf	?___xxtofl+2
  2491  07D5  082B               	movf	___xxtofl@arg+1,w
  2492  07D6  00A1               	movwf	?___xxtofl+1
  2493  07D7  082A               	movf	___xxtofl@arg,w
  2494  07D8  00A0               	movwf	?___xxtofl
  2495  07D9                     l666:
  2496  07D9  0008               	return
  2497  07DA                     __end_of___xxtofl:
  2498                           
  2499                           	psect	text9
  2500  0EE0                     __ptext9:	
  2501 ;; *************** function ___fltol *****************
  2502 ;; Defined at:
  2503 ;;		line 43 in file "C:\Program Files\Microchip\xc8\v2.31\pic\sources\c90\common\fltol.c"
  2504 ;; Parameters:    Size  Location     Type
  2505 ;;  f1              4   40[BANK0 ] unsigned char 
  2506 ;; Auto vars:     Size  Location     Type
  2507 ;;  exp1            1   50[BANK0 ] unsigned char 
  2508 ;;  sign1           1   49[BANK0 ] unsigned char 
  2509 ;; Return value:  Size  Location     Type
  2510 ;;                  4   40[BANK0 ] long 
  2511 ;; Registers used:
  2512 ;;		wreg, status,2, status,0
  2513 ;; Tracked objects:
  2514 ;;		On entry : 0/0
  2515 ;;		On exit  : 0/0
  2516 ;;		Unchanged: 0/0
  2517 ;; Data sizes:     COMMON   BANK0   BANK1   BANK3   BANK2
  2518 ;;      Params:         0       4       0       0       0
  2519 ;;      Locals:         0       2       0       0       0
  2520 ;;      Temps:          0       5       0       0       0
  2521 ;;      Totals:         0      11       0       0       0
  2522 ;;Total ram usage:       11 bytes
  2523 ;; Hardware stack levels used:    1
  2524 ;; Hardware stack levels required when called:    3
  2525 ;; This function calls:
  2526 ;;		Nothing
  2527 ;; This function is called by:
  2528 ;;		_main
  2529 ;; This function uses a non-reentrant model
  2530 ;;
  2531                           
  2532                           
  2533                           ;psect for function ___fltol
  2534  0EE0                     ___fltol:
  2535  0EE0                     l2412:	
  2536                           ;incstack = 0
  2537                           ; Regs used in ___fltol: [wreg+status,2+status,0]
  2538                           
  2539  0EE0  1003               	clrc
  2540  0EE1  1283               	bcf	3,5	;RP0=0, select bank0
  2541  0EE2  1303               	bcf	3,6	;RP1=0, select bank0
  2542  0EE3  0D4A               	rlf	___fltol@f1+2,w
  2543  0EE4  0D4B               	rlf	___fltol@f1+3,w
  2544  0EE5  00CC               	movwf	??___fltol
  2545  0EE6  084C               	movf	??___fltol,w
  2546  0EE7  00D2               	movwf	___fltol@exp1
  2547  0EE8  0852               	movf	___fltol@exp1,w
  2548  0EE9  1D03               	btfss	3,2
  2549  0EEA  2EEC               	goto	u3301
  2550  0EEB  2EED               	goto	u3300
  2551  0EEC                     u3301:
  2552  0EEC  2EF6               	goto	l2418
  2553  0EED                     u3300:
  2554  0EED                     l2414:
  2555  0EED  3000               	movlw	0
  2556  0EEE  00CB               	movwf	?___fltol+3
  2557  0EEF  3000               	movlw	0
  2558  0EF0  00CA               	movwf	?___fltol+2
  2559  0EF1  3000               	movlw	0
  2560  0EF2  00C9               	movwf	?___fltol+1
  2561  0EF3  3000               	movlw	0
  2562  0EF4  00C8               	movwf	?___fltol
  2563  0EF5  2F5B               	goto	l417
  2564  0EF6                     l2418:
  2565  0EF6  0848               	movf	___fltol@f1,w
  2566  0EF7  00CC               	movwf	??___fltol
  2567  0EF8  0849               	movf	___fltol@f1+1,w
  2568  0EF9  00CD               	movwf	??___fltol+1
  2569  0EFA  084A               	movf	___fltol@f1+2,w
  2570  0EFB  00CE               	movwf	??___fltol+2
  2571  0EFC  084B               	movf	___fltol@f1+3,w
  2572  0EFD  00CF               	movwf	??___fltol+3
  2573  0EFE  301F               	movlw	31
  2574  0EFF                     u3315:
  2575  0EFF  1003               	clrc
  2576  0F00  0CCF               	rrf	??___fltol+3,f
  2577  0F01  0CCE               	rrf	??___fltol+2,f
  2578  0F02  0CCD               	rrf	??___fltol+1,f
  2579  0F03  0CCC               	rrf	??___fltol,f
  2580  0F04                     u3310:
  2581  0F04  3EFF               	addlw	-1
  2582  0F05  1D03               	skipz
  2583  0F06  2EFF               	goto	u3315
  2584  0F07  084C               	movf	??___fltol,w
  2585  0F08  00D0               	movwf	??___fltol+4
  2586  0F09  0850               	movf	??___fltol+4,w
  2587  0F0A  00D1               	movwf	___fltol@sign1
  2588  0F0B                     l2420:
  2589  0F0B  17CA               	bsf	___fltol@f1+2,7
  2590  0F0C                     l2422:
  2591  0F0C  30FF               	movlw	255
  2592  0F0D  05C8               	andwf	___fltol@f1,f
  2593  0F0E  30FF               	movlw	255
  2594  0F0F  05C9               	andwf	___fltol@f1+1,f
  2595  0F10  30FF               	movlw	255
  2596  0F11  05CA               	andwf	___fltol@f1+2,f
  2597  0F12  3000               	movlw	0
  2598  0F13  05CB               	andwf	___fltol@f1+3,f
  2599  0F14                     l2424:
  2600  0F14  3096               	movlw	150
  2601  0F15  02D2               	subwf	___fltol@exp1,f
  2602  0F16                     l2426:
  2603  0F16  1FD2               	btfss	___fltol@exp1,7
  2604  0F17  2F19               	goto	u3321
  2605  0F18  2F1A               	goto	u3320
  2606  0F19                     u3321:
  2607  0F19  2F34               	goto	l2436
  2608  0F1A                     u3320:
  2609  0F1A                     l2428:
  2610  0F1A  0852               	movf	___fltol@exp1,w
  2611  0F1B  3A80               	xorlw	128
  2612  0F1C  3E97               	addlw	151
  2613  0F1D  1803               	skipnc
  2614  0F1E  2F20               	goto	u3331
  2615  0F1F  2F21               	goto	u3330
  2616  0F20                     u3331:
  2617  0F20  2F22               	goto	l2434
  2618  0F21                     u3330:
  2619  0F21  2EED               	goto	l2414
  2620  0F22                     l2434:
  2621  0F22  3001               	movlw	1
  2622  0F23                     u3345:
  2623  0F23  1003               	clrc
  2624  0F24  0CCB               	rrf	___fltol@f1+3,f
  2625  0F25  0CCA               	rrf	___fltol@f1+2,f
  2626  0F26  0CC9               	rrf	___fltol@f1+1,f
  2627  0F27  0CC8               	rrf	___fltol@f1,f
  2628  0F28  3EFF               	addlw	-1
  2629  0F29  1D03               	skipz
  2630  0F2A  2F23               	goto	u3345
  2631  0F2B  3001               	movlw	1
  2632  0F2C  00CC               	movwf	??___fltol
  2633  0F2D  084C               	movf	??___fltol,w
  2634  0F2E  07D2               	addwf	___fltol@exp1,f
  2635  0F2F  1D03               	btfss	3,2
  2636  0F30  2F32               	goto	u3351
  2637  0F31  2F33               	goto	u3350
  2638  0F32                     u3351:
  2639  0F32  2F22               	goto	l2434
  2640  0F33                     u3350:
  2641  0F33  2F4B               	goto	l2444
  2642  0F34                     l2436:
  2643  0F34  3020               	movlw	32
  2644  0F35  0252               	subwf	___fltol@exp1,w
  2645  0F36  1C03               	skipc
  2646  0F37  2F39               	goto	u3361
  2647  0F38  2F3A               	goto	u3360
  2648  0F39                     u3361:
  2649  0F39  2F46               	goto	l424
  2650  0F3A                     u3360:
  2651  0F3A  2EED               	goto	l2414
  2652  0F3B                     l2442:
  2653  0F3B  3001               	movlw	1
  2654  0F3C  00CC               	movwf	??___fltol
  2655  0F3D                     u3375:
  2656  0F3D  1003               	clrc
  2657  0F3E  0DC8               	rlf	___fltol@f1,f
  2658  0F3F  0DC9               	rlf	___fltol@f1+1,f
  2659  0F40  0DCA               	rlf	___fltol@f1+2,f
  2660  0F41  0DCB               	rlf	___fltol@f1+3,f
  2661  0F42  0BCC               	decfsz	??___fltol,f
  2662  0F43  2F3D               	goto	u3375
  2663  0F44  3001               	movlw	1
  2664  0F45  02D2               	subwf	___fltol@exp1,f
  2665  0F46                     l424:
  2666  0F46  0852               	movf	___fltol@exp1,w
  2667  0F47  1D03               	btfss	3,2
  2668  0F48  2F4A               	goto	u3381
  2669  0F49  2F4B               	goto	u3380
  2670  0F4A                     u3381:
  2671  0F4A  2F3B               	goto	l2442
  2672  0F4B                     u3380:
  2673  0F4B                     l2444:
  2674  0F4B  0851               	movf	___fltol@sign1,w
  2675  0F4C  1903               	btfsc	3,2
  2676  0F4D  2F4F               	goto	u3391
  2677  0F4E  2F50               	goto	u3390
  2678  0F4F                     u3391:
  2679  0F4F  2F5B               	goto	l427
  2680  0F50                     u3390:
  2681  0F50                     l2446:
  2682  0F50  09C8               	comf	___fltol@f1,f
  2683  0F51  09C9               	comf	___fltol@f1+1,f
  2684  0F52  09CA               	comf	___fltol@f1+2,f
  2685  0F53  09CB               	comf	___fltol@f1+3,f
  2686  0F54  0AC8               	incf	___fltol@f1,f
  2687  0F55  1903               	skipnz
  2688  0F56  0AC9               	incf	___fltol@f1+1,f
  2689  0F57  1903               	skipnz
  2690  0F58  0ACA               	incf	___fltol@f1+2,f
  2691  0F59  1903               	skipnz
  2692  0F5A  0ACB               	incf	___fltol@f1+3,f
  2693  0F5B                     l427:
  2694  0F5B                     l417:
  2695  0F5B  0008               	return
  2696  0F5C                     __end_of___fltol:
  2697                           
  2698                           	psect	text10
  2699  0028                     __ptext10:	
  2700 ;; *************** function ___flmul *****************
  2701 ;; Defined at:
  2702 ;;		line 8 in file "C:\Program Files\Microchip\xc8\v2.31\pic\sources\c90\common\sprcmul.c"
  2703 ;; Parameters:    Size  Location     Type
  2704 ;;  b               4   14[BANK0 ] long 
  2705 ;;  a               4   18[BANK0 ] long 
  2706 ;; Auto vars:     Size  Location     Type
  2707 ;;  prod            4   34[BANK0 ] struct .
  2708 ;;  grs             4   29[BANK0 ] unsigned long 
  2709 ;;  temp            2   38[BANK0 ] struct .
  2710 ;;  bexp            1   33[BANK0 ] unsigned char 
  2711 ;;  aexp            1   28[BANK0 ] unsigned char 
  2712 ;;  sign            1   27[BANK0 ] unsigned char 
  2713 ;; Return value:  Size  Location     Type
  2714 ;;                  4   14[BANK0 ] unsigned char 
  2715 ;; Registers used:
  2716 ;;		wreg, status,2, status,0, btemp+1, pclath, cstack
  2717 ;; Tracked objects:
  2718 ;;		On entry : 0/0
  2719 ;;		On exit  : 0/0
  2720 ;;		Unchanged: 0/0
  2721 ;; Data sizes:     COMMON   BANK0   BANK1   BANK3   BANK2
  2722 ;;      Params:         0       8       0       0       0
  2723 ;;      Locals:         0      13       0       0       0
  2724 ;;      Temps:          0       5       0       0       0
  2725 ;;      Totals:         0      26       0       0       0
  2726 ;;Total ram usage:       26 bytes
  2727 ;; Hardware stack levels used:    1
  2728 ;; Hardware stack levels required when called:    4
  2729 ;; This function calls:
  2730 ;;		__Umul8_16
  2731 ;; This function is called by:
  2732 ;;		_main
  2733 ;; This function uses a non-reentrant model
  2734 ;;
  2735                           
  2736                           
  2737                           ;psect for function ___flmul
  2738  0028                     ___flmul:
  2739  0028                     l2448:	
  2740                           ;incstack = 0
  2741                           ; Regs used in ___flmul: [wreg+status,2+status,0+btemp+1+pclath+cstack]
  2742                           
  2743  0028  1283               	bcf	3,5	;RP0=0, select bank0
  2744  0029  1303               	bcf	3,6	;RP1=0, select bank0
  2745  002A  0831               	movf	___flmul@b+3,w
  2746  002B  3980               	andlw	128
  2747  002C  00B6               	movwf	??___flmul
  2748  002D  0836               	movf	??___flmul,w
  2749  002E  00BB               	movwf	___flmul@sign
  2750  002F                     l2450:
  2751  002F  0831               	movf	___flmul@b+3,w
  2752  0030  00B6               	movwf	??___flmul
  2753  0031  0736               	addwf	??___flmul,w
  2754  0032  00B7               	movwf	??___flmul+1
  2755  0033  0837               	movf	??___flmul+1,w
  2756  0034  00C1               	movwf	___flmul@bexp
  2757  0035                     l2452:
  2758  0035  1FB0               	btfss	___flmul@b+2,7
  2759  0036  2838               	goto	u3401
  2760  0037  2839               	goto	u3400
  2761  0038                     u3401:
  2762  0038  283A               	goto	l2456
  2763  0039                     u3400:
  2764  0039                     l2454:
  2765  0039  1441               	bsf	___flmul@bexp,0
  2766  003A                     l2456:
  2767  003A  0841               	movf	___flmul@bexp,w
  2768  003B  1903               	btfsc	3,2
  2769  003C  283E               	goto	u3411
  2770  003D  283F               	goto	u3410
  2771  003E                     u3411:
  2772  003E  284E               	goto	l2464
  2773  003F                     u3410:
  2774  003F                     l2458:
  2775  003F  0A41               	incf	___flmul@bexp,w
  2776  0040  1D03               	btfss	3,2
  2777  0041  2843               	goto	u3421
  2778  0042  2844               	goto	u3420
  2779  0043                     u3421:
  2780  0043  284C               	goto	l2462
  2781  0044                     u3420:
  2782  0044                     l2460:
  2783  0044  3000               	movlw	0
  2784  0045  00B1               	movwf	___flmul@b+3
  2785  0046  3000               	movlw	0
  2786  0047  00B0               	movwf	___flmul@b+2
  2787  0048  3000               	movlw	0
  2788  0049  00AF               	movwf	___flmul@b+1
  2789  004A  3000               	movlw	0
  2790  004B  00AE               	movwf	___flmul@b
  2791  004C                     l2462:
  2792  004C  17B0               	bsf	___flmul@b+2,7
  2793  004D  2856               	goto	l2466
  2794  004E                     l2464:
  2795  004E  3000               	movlw	0
  2796  004F  00B1               	movwf	___flmul@b+3
  2797  0050  3000               	movlw	0
  2798  0051  00B0               	movwf	___flmul@b+2
  2799  0052  3000               	movlw	0
  2800  0053  00AF               	movwf	___flmul@b+1
  2801  0054  3000               	movlw	0
  2802  0055  00AE               	movwf	___flmul@b
  2803  0056                     l2466:
  2804  0056  0835               	movf	___flmul@a+3,w
  2805  0057  3980               	andlw	128
  2806  0058  00B6               	movwf	??___flmul
  2807  0059  0836               	movf	??___flmul,w
  2808  005A  06BB               	xorwf	___flmul@sign,f
  2809  005B                     l2468:
  2810  005B  0835               	movf	___flmul@a+3,w
  2811  005C  00B6               	movwf	??___flmul
  2812  005D  0736               	addwf	??___flmul,w
  2813  005E  00B7               	movwf	??___flmul+1
  2814  005F  0837               	movf	??___flmul+1,w
  2815  0060  00BC               	movwf	___flmul@aexp
  2816  0061                     l2470:
  2817  0061  1FB4               	btfss	___flmul@a+2,7
  2818  0062  2864               	goto	u3431
  2819  0063  2865               	goto	u3430
  2820  0064                     u3431:
  2821  0064  2866               	goto	l2474
  2822  0065                     u3430:
  2823  0065                     l2472:
  2824  0065  143C               	bsf	___flmul@aexp,0
  2825  0066                     l2474:
  2826  0066  083C               	movf	___flmul@aexp,w
  2827  0067  1903               	btfsc	3,2
  2828  0068  286A               	goto	u3441
  2829  0069  286B               	goto	u3440
  2830  006A                     u3441:
  2831  006A  287A               	goto	l2482
  2832  006B                     u3440:
  2833  006B                     l2476:
  2834  006B  0A3C               	incf	___flmul@aexp,w
  2835  006C  1D03               	btfss	3,2
  2836  006D  286F               	goto	u3451
  2837  006E  2870               	goto	u3450
  2838  006F                     u3451:
  2839  006F  2878               	goto	l2480
  2840  0070                     u3450:
  2841  0070                     l2478:
  2842  0070  3000               	movlw	0
  2843  0071  00B5               	movwf	___flmul@a+3
  2844  0072  3000               	movlw	0
  2845  0073  00B4               	movwf	___flmul@a+2
  2846  0074  3000               	movlw	0
  2847  0075  00B3               	movwf	___flmul@a+1
  2848  0076  3000               	movlw	0
  2849  0077  00B2               	movwf	___flmul@a
  2850  0078                     l2480:
  2851  0078  17B4               	bsf	___flmul@a+2,7
  2852  0079  2882               	goto	l2484
  2853  007A                     l2482:
  2854  007A  3000               	movlw	0
  2855  007B  00B5               	movwf	___flmul@a+3
  2856  007C  3000               	movlw	0
  2857  007D  00B4               	movwf	___flmul@a+2
  2858  007E  3000               	movlw	0
  2859  007F  00B3               	movwf	___flmul@a+1
  2860  0080  3000               	movlw	0
  2861  0081  00B2               	movwf	___flmul@a
  2862  0082                     l2484:
  2863  0082  083C               	movf	___flmul@aexp,w
  2864  0083  1903               	btfsc	3,2
  2865  0084  2886               	goto	u3461
  2866  0085  2887               	goto	u3460
  2867  0086                     u3461:
  2868  0086  288C               	goto	l2488
  2869  0087                     u3460:
  2870  0087                     l2486:
  2871  0087  0841               	movf	___flmul@bexp,w
  2872  0088  1D03               	btfss	3,2
  2873  0089  288B               	goto	u3471
  2874  008A  288C               	goto	u3470
  2875  008B                     u3471:
  2876  008B  2895               	goto	l2492
  2877  008C                     u3470:
  2878  008C                     l2488:
  2879  008C  3000               	movlw	0
  2880  008D  00B1               	movwf	?___flmul+3
  2881  008E  3000               	movlw	0
  2882  008F  00B0               	movwf	?___flmul+2
  2883  0090  3000               	movlw	0
  2884  0091  00AF               	movwf	?___flmul+1
  2885  0092  3000               	movlw	0
  2886  0093  00AE               	movwf	?___flmul
  2887  0094  2B88               	goto	l620
  2888  0095                     l2492:
  2889  0095  082E               	movf	___flmul@b,w
  2890  0096  00B6               	movwf	??___flmul
  2891  0097  0836               	movf	??___flmul,w
  2892  0098  00F4               	movwf	__Umul8_16@multiplicand
  2893  0099  0834               	movf	___flmul@a+2,w
  2894  009A  120A  158A  24D4  120A  118A  	fcall	__Umul8_16
  2895  009F  0875               	movf	?__Umul8_16+1,w
  2896  00A0  1283               	bcf	3,5	;RP0=0, select bank0
  2897  00A1  1303               	bcf	3,6	;RP1=0, select bank0
  2898  00A2  00C7               	movwf	___flmul@temp+1
  2899  00A3  0874               	movf	?__Umul8_16,w
  2900  00A4  00C6               	movwf	___flmul@temp
  2901  00A5                     l2494:
  2902  00A5  0846               	movf	___flmul@temp,w
  2903  00A6  00B6               	movwf	??___flmul
  2904  00A7  01B7               	clrf	??___flmul+1
  2905  00A8  01B8               	clrf	??___flmul+2
  2906  00A9  01B9               	clrf	??___flmul+3
  2907  00AA  0839               	movf	??___flmul+3,w
  2908  00AB  00C0               	movwf	___flmul@grs+3
  2909  00AC  0838               	movf	??___flmul+2,w
  2910  00AD  00BF               	movwf	___flmul@grs+2
  2911  00AE  0837               	movf	??___flmul+1,w
  2912  00AF  00BE               	movwf	___flmul@grs+1
  2913  00B0  0836               	movf	??___flmul,w
  2914  00B1  00BD               	movwf	___flmul@grs
  2915  00B2                     l2496:
  2916  00B2  0847               	movf	___flmul@temp+1,w
  2917  00B3  00B6               	movwf	??___flmul
  2918  00B4  01B7               	clrf	??___flmul+1
  2919  00B5  01B8               	clrf	??___flmul+2
  2920  00B6  01B9               	clrf	??___flmul+3
  2921  00B7  0839               	movf	??___flmul+3,w
  2922  00B8  00C5               	movwf	___flmul@prod+3
  2923  00B9  0838               	movf	??___flmul+2,w
  2924  00BA  00C4               	movwf	___flmul@prod+2
  2925  00BB  0837               	movf	??___flmul+1,w
  2926  00BC  00C3               	movwf	___flmul@prod+1
  2927  00BD  0836               	movf	??___flmul,w
  2928  00BE  00C2               	movwf	___flmul@prod
  2929  00BF  082F               	movf	___flmul@b+1,w
  2930  00C0  00B6               	movwf	??___flmul
  2931  00C1  0836               	movf	??___flmul,w
  2932  00C2  00F4               	movwf	__Umul8_16@multiplicand
  2933  00C3  0833               	movf	___flmul@a+1,w
  2934  00C4  120A  158A  24D4  120A  118A  	fcall	__Umul8_16
  2935  00C9  0875               	movf	?__Umul8_16+1,w
  2936  00CA  1283               	bcf	3,5	;RP0=0, select bank0
  2937  00CB  1303               	bcf	3,6	;RP1=0, select bank0
  2938  00CC  00C7               	movwf	___flmul@temp+1
  2939  00CD  0874               	movf	?__Umul8_16,w
  2940  00CE  00C6               	movwf	___flmul@temp
  2941  00CF                     l2498:
  2942  00CF  0846               	movf	___flmul@temp,w
  2943  00D0  00B6               	movwf	??___flmul
  2944  00D1  01B7               	clrf	??___flmul+1
  2945  00D2  01B8               	clrf	??___flmul+2
  2946  00D3  01B9               	clrf	??___flmul+3
  2947  00D4  0836               	movf	??___flmul,w
  2948  00D5  07BD               	addwf	___flmul@grs,f
  2949  00D6  0837               	movf	??___flmul+1,w
  2950  00D7  1103               	clrz
  2951  00D8  1803               	skipnc
  2952  00D9  3E01               	addlw	1
  2953  00DA  1903               	skipnz
  2954  00DB  28DD               	goto	u3481
  2955  00DC  07BE               	addwf	___flmul@grs+1,f
  2956  00DD                     u3481:
  2957  00DD  0838               	movf	??___flmul+2,w
  2958  00DE  1103               	clrz
  2959  00DF  1803               	skipnc
  2960  00E0  3E01               	addlw	1
  2961  00E1  1903               	skipnz
  2962  00E2  28E4               	goto	u3482
  2963  00E3  07BF               	addwf	___flmul@grs+2,f
  2964  00E4                     u3482:
  2965  00E4  0839               	movf	??___flmul+3,w
  2966  00E5  1103               	clrz
  2967  00E6  1803               	skipnc
  2968  00E7  3E01               	addlw	1
  2969  00E8  1903               	skipnz
  2970  00E9  28EB               	goto	u3483
  2971  00EA  07C0               	addwf	___flmul@grs+3,f
  2972  00EB                     u3483:
  2973  00EB                     l2500:
  2974  00EB  0847               	movf	___flmul@temp+1,w
  2975  00EC  00B6               	movwf	??___flmul
  2976  00ED  01B7               	clrf	??___flmul+1
  2977  00EE  01B8               	clrf	??___flmul+2
  2978  00EF  01B9               	clrf	??___flmul+3
  2979  00F0  0836               	movf	??___flmul,w
  2980  00F1  07C2               	addwf	___flmul@prod,f
  2981  00F2  0837               	movf	??___flmul+1,w
  2982  00F3  1103               	clrz
  2983  00F4  1803               	skipnc
  2984  00F5  3E01               	addlw	1
  2985  00F6  1903               	skipnz
  2986  00F7  28F9               	goto	u3491
  2987  00F8  07C3               	addwf	___flmul@prod+1,f
  2988  00F9                     u3491:
  2989  00F9  0838               	movf	??___flmul+2,w
  2990  00FA  1103               	clrz
  2991  00FB  1803               	skipnc
  2992  00FC  3E01               	addlw	1
  2993  00FD  1903               	skipnz
  2994  00FE  2900               	goto	u3492
  2995  00FF  07C4               	addwf	___flmul@prod+2,f
  2996  0100                     u3492:
  2997  0100  0839               	movf	??___flmul+3,w
  2998  0101  1103               	clrz
  2999  0102  1803               	skipnc
  3000  0103  3E01               	addlw	1
  3001  0104  1903               	skipnz
  3002  0105  2907               	goto	u3493
  3003  0106  07C5               	addwf	___flmul@prod+3,f
  3004  0107                     u3493:
  3005  0107  0830               	movf	___flmul@b+2,w
  3006  0108  00B6               	movwf	??___flmul
  3007  0109  0836               	movf	??___flmul,w
  3008  010A  00F4               	movwf	__Umul8_16@multiplicand
  3009  010B  0832               	movf	___flmul@a,w
  3010  010C  120A  158A  24D4  120A  118A  	fcall	__Umul8_16
  3011  0111  0875               	movf	?__Umul8_16+1,w
  3012  0112  1283               	bcf	3,5	;RP0=0, select bank0
  3013  0113  1303               	bcf	3,6	;RP1=0, select bank0
  3014  0114  00C7               	movwf	___flmul@temp+1
  3015  0115  0874               	movf	?__Umul8_16,w
  3016  0116  00C6               	movwf	___flmul@temp
  3017  0117                     l2502:
  3018  0117  0846               	movf	___flmul@temp,w
  3019  0118  00B6               	movwf	??___flmul
  3020  0119  01B7               	clrf	??___flmul+1
  3021  011A  01B8               	clrf	??___flmul+2
  3022  011B  01B9               	clrf	??___flmul+3
  3023  011C  0836               	movf	??___flmul,w
  3024  011D  07BD               	addwf	___flmul@grs,f
  3025  011E  0837               	movf	??___flmul+1,w
  3026  011F  1103               	clrz
  3027  0120  1803               	skipnc
  3028  0121  3E01               	addlw	1
  3029  0122  1903               	skipnz
  3030  0123  2925               	goto	u3501
  3031  0124  07BE               	addwf	___flmul@grs+1,f
  3032  0125                     u3501:
  3033  0125  0838               	movf	??___flmul+2,w
  3034  0126  1103               	clrz
  3035  0127  1803               	skipnc
  3036  0128  3E01               	addlw	1
  3037  0129  1903               	skipnz
  3038  012A  292C               	goto	u3502
  3039  012B  07BF               	addwf	___flmul@grs+2,f
  3040  012C                     u3502:
  3041  012C  0839               	movf	??___flmul+3,w
  3042  012D  1103               	clrz
  3043  012E  1803               	skipnc
  3044  012F  3E01               	addlw	1
  3045  0130  1903               	skipnz
  3046  0131  2933               	goto	u3503
  3047  0132  07C0               	addwf	___flmul@grs+3,f
  3048  0133                     u3503:
  3049  0133                     l2504:
  3050  0133  0847               	movf	___flmul@temp+1,w
  3051  0134  00B6               	movwf	??___flmul
  3052  0135  01B7               	clrf	??___flmul+1
  3053  0136  01B8               	clrf	??___flmul+2
  3054  0137  01B9               	clrf	??___flmul+3
  3055  0138  0836               	movf	??___flmul,w
  3056  0139  07C2               	addwf	___flmul@prod,f
  3057  013A  0837               	movf	??___flmul+1,w
  3058  013B  1103               	clrz
  3059  013C  1803               	skipnc
  3060  013D  3E01               	addlw	1
  3061  013E  1903               	skipnz
  3062  013F  2941               	goto	u3511
  3063  0140  07C3               	addwf	___flmul@prod+1,f
  3064  0141                     u3511:
  3065  0141  0838               	movf	??___flmul+2,w
  3066  0142  1103               	clrz
  3067  0143  1803               	skipnc
  3068  0144  3E01               	addlw	1
  3069  0145  1903               	skipnz
  3070  0146  2948               	goto	u3512
  3071  0147  07C4               	addwf	___flmul@prod+2,f
  3072  0148                     u3512:
  3073  0148  0839               	movf	??___flmul+3,w
  3074  0149  1103               	clrz
  3075  014A  1803               	skipnc
  3076  014B  3E01               	addlw	1
  3077  014C  1903               	skipnz
  3078  014D  294F               	goto	u3513
  3079  014E  07C5               	addwf	___flmul@prod+3,f
  3080  014F                     u3513:
  3081  014F                     l2506:
  3082  014F  3008               	movlw	8
  3083  0150  00B6               	movwf	??___flmul
  3084  0151                     u3525:
  3085  0151  1003               	clrc
  3086  0152  0DBD               	rlf	___flmul@grs,f
  3087  0153  0DBE               	rlf	___flmul@grs+1,f
  3088  0154  0DBF               	rlf	___flmul@grs+2,f
  3089  0155  0DC0               	rlf	___flmul@grs+3,f
  3090  0156  0BB6               	decfsz	??___flmul,f
  3091  0157  2951               	goto	u3525
  3092  0158                     l2508:
  3093  0158  082F               	movf	___flmul@b+1,w
  3094  0159  00B6               	movwf	??___flmul
  3095  015A  0836               	movf	??___flmul,w
  3096  015B  00F4               	movwf	__Umul8_16@multiplicand
  3097  015C  0832               	movf	___flmul@a,w
  3098  015D  120A  158A  24D4  120A  118A  	fcall	__Umul8_16
  3099  0162  0875               	movf	?__Umul8_16+1,w
  3100  0163  1283               	bcf	3,5	;RP0=0, select bank0
  3101  0164  1303               	bcf	3,6	;RP1=0, select bank0
  3102  0165  00C7               	movwf	___flmul@temp+1
  3103  0166  0874               	movf	?__Umul8_16,w
  3104  0167  00C6               	movwf	___flmul@temp
  3105  0168                     l2510:
  3106  0168  0846               	movf	___flmul@temp,w
  3107  0169  00B6               	movwf	??___flmul
  3108  016A  0847               	movf	___flmul@temp+1,w
  3109  016B  00B7               	movwf	??___flmul+1
  3110  016C  01B8               	clrf	??___flmul+2
  3111  016D  01B9               	clrf	??___flmul+3
  3112  016E  0836               	movf	??___flmul,w
  3113  016F  07BD               	addwf	___flmul@grs,f
  3114  0170  0837               	movf	??___flmul+1,w
  3115  0171  1103               	clrz
  3116  0172  1803               	skipnc
  3117  0173  3E01               	addlw	1
  3118  0174  1903               	skipnz
  3119  0175  2977               	goto	u3531
  3120  0176  07BE               	addwf	___flmul@grs+1,f
  3121  0177                     u3531:
  3122  0177  0838               	movf	??___flmul+2,w
  3123  0178  1103               	clrz
  3124  0179  1803               	skipnc
  3125  017A  3E01               	addlw	1
  3126  017B  1903               	skipnz
  3127  017C  297E               	goto	u3532
  3128  017D  07BF               	addwf	___flmul@grs+2,f
  3129  017E                     u3532:
  3130  017E  0839               	movf	??___flmul+3,w
  3131  017F  1103               	clrz
  3132  0180  1803               	skipnc
  3133  0181  3E01               	addlw	1
  3134  0182  1903               	skipnz
  3135  0183  2985               	goto	u3533
  3136  0184  07C0               	addwf	___flmul@grs+3,f
  3137  0185                     u3533:
  3138  0185                     l2512:
  3139  0185  082E               	movf	___flmul@b,w
  3140  0186  00B6               	movwf	??___flmul
  3141  0187  0836               	movf	??___flmul,w
  3142  0188  00F4               	movwf	__Umul8_16@multiplicand
  3143  0189  0833               	movf	___flmul@a+1,w
  3144  018A  120A  158A  24D4  120A  118A  	fcall	__Umul8_16
  3145  018F  0875               	movf	?__Umul8_16+1,w
  3146  0190  1283               	bcf	3,5	;RP0=0, select bank0
  3147  0191  1303               	bcf	3,6	;RP1=0, select bank0
  3148  0192  00C7               	movwf	___flmul@temp+1
  3149  0193  0874               	movf	?__Umul8_16,w
  3150  0194  00C6               	movwf	___flmul@temp
  3151  0195                     l2514:
  3152  0195  0846               	movf	___flmul@temp,w
  3153  0196  00B6               	movwf	??___flmul
  3154  0197  0847               	movf	___flmul@temp+1,w
  3155  0198  00B7               	movwf	??___flmul+1
  3156  0199  01B8               	clrf	??___flmul+2
  3157  019A  01B9               	clrf	??___flmul+3
  3158  019B  0836               	movf	??___flmul,w
  3159  019C  07BD               	addwf	___flmul@grs,f
  3160  019D  0837               	movf	??___flmul+1,w
  3161  019E  1103               	clrz
  3162  019F  1803               	skipnc
  3163  01A0  3E01               	addlw	1
  3164  01A1  1903               	skipnz
  3165  01A2  29A4               	goto	u3541
  3166  01A3  07BE               	addwf	___flmul@grs+1,f
  3167  01A4                     u3541:
  3168  01A4  0838               	movf	??___flmul+2,w
  3169  01A5  1103               	clrz
  3170  01A6  1803               	skipnc
  3171  01A7  3E01               	addlw	1
  3172  01A8  1903               	skipnz
  3173  01A9  29AB               	goto	u3542
  3174  01AA  07BF               	addwf	___flmul@grs+2,f
  3175  01AB                     u3542:
  3176  01AB  0839               	movf	??___flmul+3,w
  3177  01AC  1103               	clrz
  3178  01AD  1803               	skipnc
  3179  01AE  3E01               	addlw	1
  3180  01AF  1903               	skipnz
  3181  01B0  29B2               	goto	u3543
  3182  01B1  07C0               	addwf	___flmul@grs+3,f
  3183  01B2                     u3543:
  3184  01B2                     l2516:
  3185  01B2  3008               	movlw	8
  3186  01B3  00B6               	movwf	??___flmul
  3187  01B4                     u3555:
  3188  01B4  1003               	clrc
  3189  01B5  0DBD               	rlf	___flmul@grs,f
  3190  01B6  0DBE               	rlf	___flmul@grs+1,f
  3191  01B7  0DBF               	rlf	___flmul@grs+2,f
  3192  01B8  0DC0               	rlf	___flmul@grs+3,f
  3193  01B9  0BB6               	decfsz	??___flmul,f
  3194  01BA  29B4               	goto	u3555
  3195  01BB  082E               	movf	___flmul@b,w
  3196  01BC  00B6               	movwf	??___flmul
  3197  01BD  0836               	movf	??___flmul,w
  3198  01BE  00F4               	movwf	__Umul8_16@multiplicand
  3199  01BF  0832               	movf	___flmul@a,w
  3200  01C0  120A  158A  24D4  120A  118A  	fcall	__Umul8_16
  3201  01C5  0875               	movf	?__Umul8_16+1,w
  3202  01C6  1283               	bcf	3,5	;RP0=0, select bank0
  3203  01C7  1303               	bcf	3,6	;RP1=0, select bank0
  3204  01C8  00C7               	movwf	___flmul@temp+1
  3205  01C9  0874               	movf	?__Umul8_16,w
  3206  01CA  00C6               	movwf	___flmul@temp
  3207  01CB                     l2518:
  3208  01CB  0846               	movf	___flmul@temp,w
  3209  01CC  00B6               	movwf	??___flmul
  3210  01CD  0847               	movf	___flmul@temp+1,w
  3211  01CE  00B7               	movwf	??___flmul+1
  3212  01CF  01B8               	clrf	??___flmul+2
  3213  01D0  01B9               	clrf	??___flmul+3
  3214  01D1  0836               	movf	??___flmul,w
  3215  01D2  07BD               	addwf	___flmul@grs,f
  3216  01D3  0837               	movf	??___flmul+1,w
  3217  01D4  1103               	clrz
  3218  01D5  1803               	skipnc
  3219  01D6  3E01               	addlw	1
  3220  01D7  1903               	skipnz
  3221  01D8  29DA               	goto	u3561
  3222  01D9  07BE               	addwf	___flmul@grs+1,f
  3223  01DA                     u3561:
  3224  01DA  0838               	movf	??___flmul+2,w
  3225  01DB  1103               	clrz
  3226  01DC  1803               	skipnc
  3227  01DD  3E01               	addlw	1
  3228  01DE  1903               	skipnz
  3229  01DF  29E1               	goto	u3562
  3230  01E0  07BF               	addwf	___flmul@grs+2,f
  3231  01E1                     u3562:
  3232  01E1  0839               	movf	??___flmul+3,w
  3233  01E2  1103               	clrz
  3234  01E3  1803               	skipnc
  3235  01E4  3E01               	addlw	1
  3236  01E5  1903               	skipnz
  3237  01E6  29E8               	goto	u3563
  3238  01E7  07C0               	addwf	___flmul@grs+3,f
  3239  01E8                     u3563:
  3240  01E8                     l2520:
  3241  01E8  082F               	movf	___flmul@b+1,w
  3242  01E9  00B6               	movwf	??___flmul
  3243  01EA  0836               	movf	??___flmul,w
  3244  01EB  00F4               	movwf	__Umul8_16@multiplicand
  3245  01EC  0834               	movf	___flmul@a+2,w
  3246  01ED  120A  158A  24D4  120A  118A  	fcall	__Umul8_16
  3247  01F2  0875               	movf	?__Umul8_16+1,w
  3248  01F3  1283               	bcf	3,5	;RP0=0, select bank0
  3249  01F4  1303               	bcf	3,6	;RP1=0, select bank0
  3250  01F5  00C7               	movwf	___flmul@temp+1
  3251  01F6  0874               	movf	?__Umul8_16,w
  3252  01F7  00C6               	movwf	___flmul@temp
  3253  01F8  0846               	movf	___flmul@temp,w
  3254  01F9  00B6               	movwf	??___flmul
  3255  01FA  0847               	movf	___flmul@temp+1,w
  3256  01FB  00B7               	movwf	??___flmul+1
  3257  01FC  01B8               	clrf	??___flmul+2
  3258  01FD  01B9               	clrf	??___flmul+3
  3259  01FE  0836               	movf	??___flmul,w
  3260  01FF  07C2               	addwf	___flmul@prod,f
  3261  0200  0837               	movf	??___flmul+1,w
  3262  0201  1103               	clrz
  3263  0202  1803               	skipnc
  3264  0203  3E01               	addlw	1
  3265  0204  1903               	skipnz
  3266  0205  2A07               	goto	u3571
  3267  0206  07C3               	addwf	___flmul@prod+1,f
  3268  0207                     u3571:
  3269  0207  0838               	movf	??___flmul+2,w
  3270  0208  1103               	clrz
  3271  0209  1803               	skipnc
  3272  020A  3E01               	addlw	1
  3273  020B  1903               	skipnz
  3274  020C  2A0E               	goto	u3572
  3275  020D  07C4               	addwf	___flmul@prod+2,f
  3276  020E                     u3572:
  3277  020E  0839               	movf	??___flmul+3,w
  3278  020F  1103               	clrz
  3279  0210  1803               	skipnc
  3280  0211  3E01               	addlw	1
  3281  0212  1903               	skipnz
  3282  0213  2A15               	goto	u3573
  3283  0214  07C5               	addwf	___flmul@prod+3,f
  3284  0215                     u3573:
  3285  0215                     l2522:
  3286  0215  0830               	movf	___flmul@b+2,w
  3287  0216  00B6               	movwf	??___flmul
  3288  0217  0836               	movf	??___flmul,w
  3289  0218  00F4               	movwf	__Umul8_16@multiplicand
  3290  0219  0833               	movf	___flmul@a+1,w
  3291  021A  120A  158A  24D4  120A  118A  	fcall	__Umul8_16
  3292  021F  0875               	movf	?__Umul8_16+1,w
  3293  0220  1283               	bcf	3,5	;RP0=0, select bank0
  3294  0221  1303               	bcf	3,6	;RP1=0, select bank0
  3295  0222  00C7               	movwf	___flmul@temp+1
  3296  0223  0874               	movf	?__Umul8_16,w
  3297  0224  00C6               	movwf	___flmul@temp
  3298  0225                     l2524:
  3299  0225  0846               	movf	___flmul@temp,w
  3300  0226  00B6               	movwf	??___flmul
  3301  0227  0847               	movf	___flmul@temp+1,w
  3302  0228  00B7               	movwf	??___flmul+1
  3303  0229  01B8               	clrf	??___flmul+2
  3304  022A  01B9               	clrf	??___flmul+3
  3305  022B  0836               	movf	??___flmul,w
  3306  022C  07C2               	addwf	___flmul@prod,f
  3307  022D  0837               	movf	??___flmul+1,w
  3308  022E  1103               	clrz
  3309  022F  1803               	skipnc
  3310  0230  3E01               	addlw	1
  3311  0231  1903               	skipnz
  3312  0232  2A34               	goto	u3581
  3313  0233  07C3               	addwf	___flmul@prod+1,f
  3314  0234                     u3581:
  3315  0234  0838               	movf	??___flmul+2,w
  3316  0235  1103               	clrz
  3317  0236  1803               	skipnc
  3318  0237  3E01               	addlw	1
  3319  0238  1903               	skipnz
  3320  0239  2A3B               	goto	u3582
  3321  023A  07C4               	addwf	___flmul@prod+2,f
  3322  023B                     u3582:
  3323  023B  0839               	movf	??___flmul+3,w
  3324  023C  1103               	clrz
  3325  023D  1803               	skipnc
  3326  023E  3E01               	addlw	1
  3327  023F  1903               	skipnz
  3328  0240  2A42               	goto	u3583
  3329  0241  07C5               	addwf	___flmul@prod+3,f
  3330  0242                     u3583:
  3331  0242  0830               	movf	___flmul@b+2,w
  3332  0243  00B6               	movwf	??___flmul
  3333  0244  0836               	movf	??___flmul,w
  3334  0245  00F4               	movwf	__Umul8_16@multiplicand
  3335  0246  0834               	movf	___flmul@a+2,w
  3336  0247  120A  158A  24D4  120A  118A  	fcall	__Umul8_16
  3337  024C  0875               	movf	?__Umul8_16+1,w
  3338  024D  1283               	bcf	3,5	;RP0=0, select bank0
  3339  024E  1303               	bcf	3,6	;RP1=0, select bank0
  3340  024F  00C7               	movwf	___flmul@temp+1
  3341  0250  0874               	movf	?__Umul8_16,w
  3342  0251  00C6               	movwf	___flmul@temp
  3343  0252                     l2526:
  3344  0252  0846               	movf	___flmul@temp,w
  3345  0253  00B6               	movwf	??___flmul
  3346  0254  0847               	movf	___flmul@temp+1,w
  3347  0255  00B7               	movwf	??___flmul+1
  3348  0256  01B8               	clrf	??___flmul+2
  3349  0257  01B9               	clrf	??___flmul+3
  3350  0258  3008               	movlw	8
  3351  0259                     u3595:
  3352  0259  1003               	clrc
  3353  025A  0DB6               	rlf	??___flmul,f
  3354  025B  0DB7               	rlf	??___flmul+1,f
  3355  025C  0DB8               	rlf	??___flmul+2,f
  3356  025D  0DB9               	rlf	??___flmul+3,f
  3357  025E                     u3590:
  3358  025E  3EFF               	addlw	-1
  3359  025F  1D03               	skipz
  3360  0260  2A59               	goto	u3595
  3361  0261  0836               	movf	??___flmul,w
  3362  0262  07C2               	addwf	___flmul@prod,f
  3363  0263  0837               	movf	??___flmul+1,w
  3364  0264  1103               	clrz
  3365  0265  1803               	skipnc
  3366  0266  3E01               	addlw	1
  3367  0267  1903               	skipnz
  3368  0268  2A6A               	goto	u3601
  3369  0269  07C3               	addwf	___flmul@prod+1,f
  3370  026A                     u3601:
  3371  026A  0838               	movf	??___flmul+2,w
  3372  026B  1103               	clrz
  3373  026C  1803               	skipnc
  3374  026D  3E01               	addlw	1
  3375  026E  1903               	skipnz
  3376  026F  2A71               	goto	u3602
  3377  0270  07C4               	addwf	___flmul@prod+2,f
  3378  0271                     u3602:
  3379  0271  0839               	movf	??___flmul+3,w
  3380  0272  1103               	clrz
  3381  0273  1803               	skipnc
  3382  0274  3E01               	addlw	1
  3383  0275  1903               	skipnz
  3384  0276  2A78               	goto	u3603
  3385  0277  07C5               	addwf	___flmul@prod+3,f
  3386  0278                     u3603:
  3387  0278                     l2528:
  3388  0278  083D               	movf	___flmul@grs,w
  3389  0279  00B6               	movwf	??___flmul
  3390  027A  083E               	movf	___flmul@grs+1,w
  3391  027B  00B7               	movwf	??___flmul+1
  3392  027C  083F               	movf	___flmul@grs+2,w
  3393  027D  00B8               	movwf	??___flmul+2
  3394  027E  0840               	movf	___flmul@grs+3,w
  3395  027F  00B9               	movwf	??___flmul+3
  3396  0280  3018               	movlw	24
  3397  0281                     u3615:
  3398  0281  1003               	clrc
  3399  0282  0CB9               	rrf	??___flmul+3,f
  3400  0283  0CB8               	rrf	??___flmul+2,f
  3401  0284  0CB7               	rrf	??___flmul+1,f
  3402  0285  0CB6               	rrf	??___flmul,f
  3403  0286                     u3610:
  3404  0286  3EFF               	addlw	-1
  3405  0287  1D03               	skipz
  3406  0288  2A81               	goto	u3615
  3407  0289  0836               	movf	??___flmul,w
  3408  028A  07C2               	addwf	___flmul@prod,f
  3409  028B  0837               	movf	??___flmul+1,w
  3410  028C  1103               	clrz
  3411  028D  1803               	skipnc
  3412  028E  3E01               	addlw	1
  3413  028F  1903               	skipnz
  3414  0290  2A92               	goto	u3621
  3415  0291  07C3               	addwf	___flmul@prod+1,f
  3416  0292                     u3621:
  3417  0292  0838               	movf	??___flmul+2,w
  3418  0293  1103               	clrz
  3419  0294  1803               	skipnc
  3420  0295  3E01               	addlw	1
  3421  0296  1903               	skipnz
  3422  0297  2A99               	goto	u3622
  3423  0298  07C4               	addwf	___flmul@prod+2,f
  3424  0299                     u3622:
  3425  0299  0839               	movf	??___flmul+3,w
  3426  029A  1103               	clrz
  3427  029B  1803               	skipnc
  3428  029C  3E01               	addlw	1
  3429  029D  1903               	skipnz
  3430  029E  2AA0               	goto	u3623
  3431  029F  07C5               	addwf	___flmul@prod+3,f
  3432  02A0                     u3623:
  3433  02A0                     l2530:
  3434  02A0  3008               	movlw	8
  3435  02A1  00B6               	movwf	??___flmul
  3436  02A2                     u3635:
  3437  02A2  1003               	clrc
  3438  02A3  0DBD               	rlf	___flmul@grs,f
  3439  02A4  0DBE               	rlf	___flmul@grs+1,f
  3440  02A5  0DBF               	rlf	___flmul@grs+2,f
  3441  02A6  0DC0               	rlf	___flmul@grs+3,f
  3442  02A7  0BB6               	decfsz	??___flmul,f
  3443  02A8  2AA2               	goto	u3635
  3444  02A9                     l2532:
  3445  02A9  0841               	movf	___flmul@bexp,w
  3446  02AA  073C               	addwf	___flmul@aexp,w
  3447  02AB  00B6               	movwf	??___flmul
  3448  02AC  01B7               	clrf	??___flmul+1
  3449  02AD  0DB7               	rlf	??___flmul+1,f
  3450  02AE  0836               	movf	??___flmul,w
  3451  02AF  3E82               	addlw	130
  3452  02B0  00C6               	movwf	___flmul@temp
  3453  02B1  0837               	movf	??___flmul+1,w
  3454  02B2  1803               	skipnc
  3455  02B3  3E01               	addlw	1
  3456  02B4  3EFF               	addlw	255
  3457  02B5  00C7               	movwf	___flmul@temp+1
  3458  02B6  2AD4               	goto	l2544
  3459  02B7                     l2534:
  3460  02B7  3001               	movlw	1
  3461  02B8  00B6               	movwf	??___flmul
  3462  02B9                     u3645:
  3463  02B9  1003               	clrc
  3464  02BA  0DC2               	rlf	___flmul@prod,f
  3465  02BB  0DC3               	rlf	___flmul@prod+1,f
  3466  02BC  0DC4               	rlf	___flmul@prod+2,f
  3467  02BD  0DC5               	rlf	___flmul@prod+3,f
  3468  02BE  0BB6               	decfsz	??___flmul,f
  3469  02BF  2AB9               	goto	u3645
  3470  02C0                     l2536:
  3471  02C0  1FC0               	btfss	___flmul@grs+3,7
  3472  02C1  2AC3               	goto	u3651
  3473  02C2  2AC4               	goto	u3650
  3474  02C3                     u3651:
  3475  02C3  2AC5               	goto	l2540
  3476  02C4                     u3650:
  3477  02C4                     l2538:
  3478  02C4  1442               	bsf	___flmul@prod,0
  3479  02C5                     l2540:
  3480  02C5  3001               	movlw	1
  3481  02C6  00B6               	movwf	??___flmul
  3482  02C7                     u3665:
  3483  02C7  1003               	clrc
  3484  02C8  0DBD               	rlf	___flmul@grs,f
  3485  02C9  0DBE               	rlf	___flmul@grs+1,f
  3486  02CA  0DBF               	rlf	___flmul@grs+2,f
  3487  02CB  0DC0               	rlf	___flmul@grs+3,f
  3488  02CC  0BB6               	decfsz	??___flmul,f
  3489  02CD  2AC7               	goto	u3665
  3490  02CE                     l2542:
  3491  02CE  30FF               	movlw	255
  3492  02CF  07C6               	addwf	___flmul@temp,f
  3493  02D0  1803               	skipnc
  3494  02D1  0AC7               	incf	___flmul@temp+1,f
  3495  02D2  30FF               	movlw	255
  3496  02D3  07C7               	addwf	___flmul@temp+1,f
  3497  02D4                     l2544:
  3498  02D4  1FC4               	btfss	___flmul@prod+2,7
  3499  02D5  2AD7               	goto	u3671
  3500  02D6  2AD8               	goto	u3670
  3501  02D7                     u3671:
  3502  02D7  2AB7               	goto	l2534
  3503  02D8                     u3670:
  3504  02D8                     l2546:
  3505  02D8  01BC               	clrf	___flmul@aexp
  3506  02D9                     l2548:
  3507  02D9  1FC0               	btfss	___flmul@grs+3,7
  3508  02DA  2ADC               	goto	u3681
  3509  02DB  2ADD               	goto	u3680
  3510  02DC                     u3681:
  3511  02DC  2AF9               	goto	l2556
  3512  02DD                     u3680:
  3513  02DD                     l2550:
  3514  02DD  30FF               	movlw	255
  3515  02DE  053D               	andwf	___flmul@grs,w
  3516  02DF  00B6               	movwf	??___flmul
  3517  02E0  30FF               	movlw	255
  3518  02E1  053E               	andwf	___flmul@grs+1,w
  3519  02E2  00B7               	movwf	??___flmul+1
  3520  02E3  30FF               	movlw	255
  3521  02E4  053F               	andwf	___flmul@grs+2,w
  3522  02E5  00B8               	movwf	??___flmul+2
  3523  02E6  307F               	movlw	127
  3524  02E7  0540               	andwf	___flmul@grs+3,w
  3525  02E8  00B9               	movwf	??___flmul+3
  3526  02E9  0839               	movf	??___flmul+3,w
  3527  02EA  0438               	iorwf	??___flmul+2,w
  3528  02EB  0437               	iorwf	??___flmul+1,w
  3529  02EC  0436               	iorwf	??___flmul,w
  3530  02ED  1903               	skipnz
  3531  02EE  2AF0               	goto	u3691
  3532  02EF  2AF1               	goto	u3690
  3533  02F0                     u3691:
  3534  02F0  2AF4               	goto	l626
  3535  02F1                     u3690:
  3536  02F1                     l2552:
  3537  02F1  01BC               	clrf	___flmul@aexp
  3538  02F2  0ABC               	incf	___flmul@aexp,f
  3539  02F3  2AF9               	goto	l2556
  3540  02F4                     l626:
  3541  02F4  1C42               	btfss	___flmul@prod,0
  3542  02F5  2AF7               	goto	u3701
  3543  02F6  2AF8               	goto	u3700
  3544  02F7                     u3701:
  3545  02F7  2AF9               	goto	l2556
  3546  02F8                     u3700:
  3547  02F8  2AF1               	goto	l2552
  3548  02F9                     l2556:
  3549  02F9  083C               	movf	___flmul@aexp,w
  3550  02FA  1903               	btfsc	3,2
  3551  02FB  2AFD               	goto	u3711
  3552  02FC  2AFE               	goto	u3710
  3553  02FD                     u3711:
  3554  02FD  2B2F               	goto	l2566
  3555  02FE                     u3710:
  3556  02FE                     l2558:
  3557  02FE  3001               	movlw	1
  3558  02FF  07C2               	addwf	___flmul@prod,f
  3559  0300  3000               	movlw	0
  3560  0301  1803               	skipnc
  3561  0302  3001               	movlw	1
  3562  0303  07C3               	addwf	___flmul@prod+1,f
  3563  0304  3000               	movlw	0
  3564  0305  1803               	skipnc
  3565  0306  3001               	movlw	1
  3566  0307  07C4               	addwf	___flmul@prod+2,f
  3567  0308  3000               	movlw	0
  3568  0309  1803               	skipnc
  3569  030A  3001               	movlw	1
  3570  030B  07C5               	addwf	___flmul@prod+3,f
  3571  030C                     l2560:
  3572  030C  1C45               	btfss	___flmul@prod+3,0
  3573  030D  2B0F               	goto	u3721
  3574  030E  2B10               	goto	u3720
  3575  030F                     u3721:
  3576  030F  2B2F               	goto	l2566
  3577  0310                     u3720:
  3578  0310                     l2562:
  3579  0310  0842               	movf	___flmul@prod,w
  3580  0311  00B6               	movwf	??___flmul
  3581  0312  0843               	movf	___flmul@prod+1,w
  3582  0313  00B7               	movwf	??___flmul+1
  3583  0314  0844               	movf	___flmul@prod+2,w
  3584  0315  00B8               	movwf	??___flmul+2
  3585  0316  0845               	movf	___flmul@prod+3,w
  3586  0317  00B9               	movwf	??___flmul+3
  3587  0318  3001               	movlw	1
  3588  0319  00BA               	movwf	??___flmul+4
  3589  031A                     u3735:
  3590  031A  0D39               	rlf	??___flmul+3,w
  3591  031B  0CB9               	rrf	??___flmul+3,f
  3592  031C  0CB8               	rrf	??___flmul+2,f
  3593  031D  0CB7               	rrf	??___flmul+1,f
  3594  031E  0CB6               	rrf	??___flmul,f
  3595  031F                     u3730:
  3596  031F  0BBA               	decfsz	??___flmul+4,f
  3597  0320  2B1A               	goto	u3735
  3598  0321  0839               	movf	??___flmul+3,w
  3599  0322  00C5               	movwf	___flmul@prod+3
  3600  0323  0838               	movf	??___flmul+2,w
  3601  0324  00C4               	movwf	___flmul@prod+2
  3602  0325  0837               	movf	??___flmul+1,w
  3603  0326  00C3               	movwf	___flmul@prod+1
  3604  0327  0836               	movf	??___flmul,w
  3605  0328  00C2               	movwf	___flmul@prod
  3606  0329                     l2564:
  3607  0329  3001               	movlw	1
  3608  032A  07C6               	addwf	___flmul@temp,f
  3609  032B  1803               	skipnc
  3610  032C  0AC7               	incf	___flmul@temp+1,f
  3611  032D  3000               	movlw	0
  3612  032E  07C7               	addwf	___flmul@temp+1,f
  3613  032F                     l2566:
  3614  032F  0847               	movf	___flmul@temp+1,w
  3615  0330  3A80               	xorlw	128
  3616  0331  00FF               	movwf	btemp+1
  3617  0332  3080               	movlw	128
  3618  0333  027F               	subwf	btemp+1,w
  3619  0334  1D03               	skipz
  3620  0335  2B38               	goto	u3745
  3621  0336  30FF               	movlw	255
  3622  0337  0246               	subwf	___flmul@temp,w
  3623  0338                     u3745:
  3624  0338  1C03               	skipc
  3625  0339  2B3B               	goto	u3741
  3626  033A  2B3C               	goto	u3740
  3627  033B                     u3741:
  3628  033B  2B47               	goto	l2570
  3629  033C                     u3740:
  3630  033C                     l2568:
  3631  033C  307F               	movlw	127
  3632  033D  1283               	bcf	3,5	;RP0=0, select bank0
  3633  033E  1303               	bcf	3,6	;RP1=0, select bank0
  3634  033F  00C5               	movwf	___flmul@prod+3
  3635  0340  3080               	movlw	128
  3636  0341  00C4               	movwf	___flmul@prod+2
  3637  0342  3000               	movlw	0
  3638  0343  00C3               	movwf	___flmul@prod+1
  3639  0344  3000               	movlw	0
  3640  0345  00C2               	movwf	___flmul@prod
  3641  0346  2B7C               	goto	l632
  3642  0347                     l2570:
  3643  0347  1283               	bcf	3,5	;RP0=0, select bank0
  3644  0348  1303               	bcf	3,6	;RP1=0, select bank0
  3645  0349  0847               	movf	___flmul@temp+1,w
  3646  034A  3A80               	xorlw	128
  3647  034B  00FF               	movwf	btemp+1
  3648  034C  3080               	movlw	128
  3649  034D  027F               	subwf	btemp+1,w
  3650  034E  1D03               	skipz
  3651  034F  2B52               	goto	u3755
  3652  0350  3001               	movlw	1
  3653  0351  0246               	subwf	___flmul@temp,w
  3654  0352                     u3755:
  3655  0352  1803               	skipnc
  3656  0353  2B55               	goto	u3751
  3657  0354  2B56               	goto	u3750
  3658  0355                     u3751:
  3659  0355  2B62               	goto	l2576
  3660  0356                     u3750:
  3661  0356                     l2572:
  3662  0356  3000               	movlw	0
  3663  0357  1283               	bcf	3,5	;RP0=0, select bank0
  3664  0358  1303               	bcf	3,6	;RP1=0, select bank0
  3665  0359  00C5               	movwf	___flmul@prod+3
  3666  035A  3000               	movlw	0
  3667  035B  00C4               	movwf	___flmul@prod+2
  3668  035C  3000               	movlw	0
  3669  035D  00C3               	movwf	___flmul@prod+1
  3670  035E  3000               	movlw	0
  3671  035F  00C2               	movwf	___flmul@prod
  3672  0360                     l2574:
  3673  0360  01BB               	clrf	___flmul@sign
  3674  0361  2B7C               	goto	l632
  3675  0362                     l2576:
  3676  0362  1283               	bcf	3,5	;RP0=0, select bank0
  3677  0363  1303               	bcf	3,6	;RP1=0, select bank0
  3678  0364  0846               	movf	___flmul@temp,w
  3679  0365  00B6               	movwf	??___flmul
  3680  0366  0836               	movf	??___flmul,w
  3681  0367  00C1               	movwf	___flmul@bexp
  3682  0368  30FF               	movlw	255
  3683  0369  05C2               	andwf	___flmul@prod,f
  3684  036A  30FF               	movlw	255
  3685  036B  05C3               	andwf	___flmul@prod+1,f
  3686  036C  307F               	movlw	127
  3687  036D  05C4               	andwf	___flmul@prod+2,f
  3688  036E  3000               	movlw	0
  3689  036F  05C5               	andwf	___flmul@prod+3,f
  3690  0370                     l2578:
  3691  0370  1C41               	btfss	___flmul@bexp,0
  3692  0371  2B73               	goto	u3761
  3693  0372  2B74               	goto	u3760
  3694  0373                     u3761:
  3695  0373  2B75               	goto	l2582
  3696  0374                     u3760:
  3697  0374                     l2580:
  3698  0374  17C4               	bsf	___flmul@prod+2,7
  3699  0375                     l2582:
  3700  0375  0841               	movf	___flmul@bexp,w
  3701  0376  00B6               	movwf	??___flmul
  3702  0377  1003               	clrc
  3703  0378  0C36               	rrf	??___flmul,w
  3704  0379  00B7               	movwf	??___flmul+1
  3705  037A  0837               	movf	??___flmul+1,w
  3706  037B  00C5               	movwf	___flmul@prod+3
  3707  037C                     l632:
  3708  037C  083B               	movf	___flmul@sign,w
  3709  037D  00B6               	movwf	??___flmul
  3710  037E  0836               	movf	??___flmul,w
  3711  037F  04C5               	iorwf	___flmul@prod+3,f
  3712  0380                     l2584:
  3713  0380  0845               	movf	___flmul@prod+3,w
  3714  0381  00B1               	movwf	?___flmul+3
  3715  0382  0844               	movf	___flmul@prod+2,w
  3716  0383  00B0               	movwf	?___flmul+2
  3717  0384  0843               	movf	___flmul@prod+1,w
  3718  0385  00AF               	movwf	?___flmul+1
  3719  0386  0842               	movf	___flmul@prod,w
  3720  0387  00AE               	movwf	?___flmul
  3721  0388                     l620:
  3722  0388  0008               	return
  3723  0389                     __end_of___flmul:
  3724                           
  3725                           	psect	text11
  3726  0CD4                     __ptext11:	
  3727 ;; *************** function __Umul8_16 *****************
  3728 ;; Defined at:
  3729 ;;		line 4 in file "C:\Program Files\Microchip\xc8\v2.31\pic\sources\c90\common\Umul8_16.c"
  3730 ;; Parameters:    Size  Location     Type
  3731 ;;  multiplier      1    wreg     unsigned char 
  3732 ;;  multiplicand    1    4[COMMON] unsigned char 
  3733 ;; Auto vars:     Size  Location     Type
  3734 ;;  multiplier      1    6[BANK0 ] unsigned char 
  3735 ;;  word_mpld       2    4[BANK0 ] unsigned int 
  3736 ;;  product         2    2[BANK0 ] unsigned int 
  3737 ;; Return value:  Size  Location     Type
  3738 ;;                  2    4[COMMON] unsigned int 
  3739 ;; Registers used:
  3740 ;;		wreg, status,2, status,0
  3741 ;; Tracked objects:
  3742 ;;		On entry : 0/0
  3743 ;;		On exit  : 0/0
  3744 ;;		Unchanged: 0/0
  3745 ;; Data sizes:     COMMON   BANK0   BANK1   BANK3   BANK2
  3746 ;;      Params:         2       0       0       0       0
  3747 ;;      Locals:         0       5       0       0       0
  3748 ;;      Temps:          0       2       0       0       0
  3749 ;;      Totals:         2       7       0       0       0
  3750 ;;Total ram usage:        9 bytes
  3751 ;; Hardware stack levels used:    1
  3752 ;; Hardware stack levels required when called:    3
  3753 ;; This function calls:
  3754 ;;		Nothing
  3755 ;; This function is called by:
  3756 ;;		___flmul
  3757 ;; This function uses a non-reentrant model
  3758 ;;
  3759                           
  3760                           
  3761                           ;psect for function __Umul8_16
  3762  0CD4                     __Umul8_16:
  3763                           
  3764                           ;incstack = 0
  3765                           ; Regs used in __Umul8_16: [wreg+status,2+status,0]
  3766                           ;__Umul8_16@multiplier stored from wreg
  3767  0CD4  1283               	bcf	3,5	;RP0=0, select bank0
  3768  0CD5  1303               	bcf	3,6	;RP1=0, select bank0
  3769  0CD6  00A6               	movwf	__Umul8_16@multiplier
  3770  0CD7                     l2248:
  3771  0CD7  01A2               	clrf	__Umul8_16@product
  3772  0CD8  01A3               	clrf	__Umul8_16@product+1
  3773  0CD9                     l2250:
  3774  0CD9  0874               	movf	__Umul8_16@multiplicand,w
  3775  0CDA  00A0               	movwf	??__Umul8_16
  3776  0CDB  01A1               	clrf	??__Umul8_16+1
  3777  0CDC  0820               	movf	??__Umul8_16,w
  3778  0CDD  00A4               	movwf	__Umul8_16@word_mpld
  3779  0CDE  0821               	movf	??__Umul8_16+1,w
  3780  0CDF  00A5               	movwf	__Umul8_16@word_mpld+1
  3781  0CE0                     l2252:
  3782  0CE0  1C26               	btfss	__Umul8_16@multiplier,0
  3783  0CE1  2CE3               	goto	u3021
  3784  0CE2  2CE4               	goto	u3020
  3785  0CE3                     u3021:
  3786  0CE3  2CEA               	goto	l639
  3787  0CE4                     u3020:
  3788  0CE4                     l2254:
  3789  0CE4  0824               	movf	__Umul8_16@word_mpld,w
  3790  0CE5  07A2               	addwf	__Umul8_16@product,f
  3791  0CE6  1803               	skipnc
  3792  0CE7  0AA3               	incf	__Umul8_16@product+1,f
  3793  0CE8  0825               	movf	__Umul8_16@word_mpld+1,w
  3794  0CE9  07A3               	addwf	__Umul8_16@product+1,f
  3795  0CEA                     l639:
  3796  0CEA  3001               	movlw	1
  3797  0CEB                     u3035:
  3798  0CEB  1003               	clrc
  3799  0CEC  0DA4               	rlf	__Umul8_16@word_mpld,f
  3800  0CED  0DA5               	rlf	__Umul8_16@word_mpld+1,f
  3801  0CEE  3EFF               	addlw	-1
  3802  0CEF  1D03               	skipz
  3803  0CF0  2CEB               	goto	u3035
  3804  0CF1  1003               	clrc
  3805  0CF2  0CA6               	rrf	__Umul8_16@multiplier,f
  3806  0CF3                     l2256:
  3807  0CF3  0826               	movf	__Umul8_16@multiplier,w
  3808  0CF4  1D03               	btfss	3,2
  3809  0CF5  2CF7               	goto	u3041
  3810  0CF6  2CF8               	goto	u3040
  3811  0CF7                     u3041:
  3812  0CF7  2CE0               	goto	l2252
  3813  0CF8                     u3040:
  3814  0CF8                     l2258:
  3815  0CF8  0823               	movf	__Umul8_16@product+1,w
  3816  0CF9  00F5               	movwf	?__Umul8_16+1
  3817  0CFA  0822               	movf	__Umul8_16@product,w
  3818  0CFB  00F4               	movwf	?__Umul8_16
  3819  0CFC                     l641:
  3820  0CFC  0008               	return
  3821  0CFD                     __end_of__Umul8_16:
  3822                           
  3823                           	psect	text12
  3824  0F5C                     __ptext12:	
  3825 ;; *************** function ___flge *****************
  3826 ;; Defined at:
  3827 ;;		line 4 in file "C:\Program Files\Microchip\xc8\v2.31\pic\sources\c90\common\flge.c"
  3828 ;; Parameters:    Size  Location     Type
  3829 ;;  ff1             4    0[BANK0 ] unsigned int 
  3830 ;;  ff2             4    4[BANK0 ] unsigned int 
  3831 ;; Auto vars:     Size  Location     Type
  3832 ;;		None
  3833 ;; Return value:  Size  Location     Type
  3834 ;;		None               void
  3835 ;; Registers used:
  3836 ;;		wreg, status,2, status,0
  3837 ;; Tracked objects:
  3838 ;;		On entry : 0/0
  3839 ;;		On exit  : 0/0
  3840 ;;		Unchanged: 0/0
  3841 ;; Data sizes:     COMMON   BANK0   BANK1   BANK3   BANK2
  3842 ;;      Params:         0       8       0       0       0
  3843 ;;      Locals:         0       0       0       0       0
  3844 ;;      Temps:          0       4       0       0       0
  3845 ;;      Totals:         0      12       0       0       0
  3846 ;;Total ram usage:       12 bytes
  3847 ;; Hardware stack levels used:    1
  3848 ;; Hardware stack levels required when called:    3
  3849 ;; This function calls:
  3850 ;;		Nothing
  3851 ;; This function is called by:
  3852 ;;		_main
  3853 ;; This function uses a non-reentrant model
  3854 ;;
  3855                           
  3856                           
  3857                           ;psect for function ___flge
  3858  0F5C                     ___flge:
  3859  0F5C                     l2392:	
  3860                           ;incstack = 0
  3861                           ; Regs used in ___flge: [wreg+status,2+status,0]
  3862                           
  3863  0F5C  3000               	movlw	0
  3864  0F5D  1283               	bcf	3,5	;RP0=0, select bank0
  3865  0F5E  1303               	bcf	3,6	;RP1=0, select bank0
  3866  0F5F  0520               	andwf	___flge@ff1,w
  3867  0F60  00A8               	movwf	??___flge
  3868  0F61  3000               	movlw	0
  3869  0F62  0521               	andwf	___flge@ff1+1,w
  3870  0F63  00A9               	movwf	??___flge+1
  3871  0F64  3080               	movlw	128
  3872  0F65  0522               	andwf	___flge@ff1+2,w
  3873  0F66  00AA               	movwf	??___flge+2
  3874  0F67  307F               	movlw	127
  3875  0F68  0523               	andwf	___flge@ff1+3,w
  3876  0F69  00AB               	movwf	??___flge+3
  3877  0F6A  082B               	movf	??___flge+3,w
  3878  0F6B  042A               	iorwf	??___flge+2,w
  3879  0F6C  0429               	iorwf	??___flge+1,w
  3880  0F6D  0428               	iorwf	??___flge,w
  3881  0F6E  1D03               	skipz
  3882  0F6F  2F71               	goto	u3231
  3883  0F70  2F72               	goto	u3230
  3884  0F71                     u3231:
  3885  0F71  2F7A               	goto	l405
  3886  0F72                     u3230:
  3887  0F72                     l2394:
  3888  0F72  3000               	movlw	0
  3889  0F73  00A3               	movwf	___flge@ff1+3
  3890  0F74  3000               	movlw	0
  3891  0F75  00A2               	movwf	___flge@ff1+2
  3892  0F76  3000               	movlw	0
  3893  0F77  00A1               	movwf	___flge@ff1+1
  3894  0F78  3000               	movlw	0
  3895  0F79  00A0               	movwf	___flge@ff1
  3896  0F7A                     l405:
  3897  0F7A  3000               	movlw	0
  3898  0F7B  0524               	andwf	___flge@ff2,w
  3899  0F7C  00A8               	movwf	??___flge
  3900  0F7D  3000               	movlw	0
  3901  0F7E  0525               	andwf	___flge@ff2+1,w
  3902  0F7F  00A9               	movwf	??___flge+1
  3903  0F80  3080               	movlw	128
  3904  0F81  0526               	andwf	___flge@ff2+2,w
  3905  0F82  00AA               	movwf	??___flge+2
  3906  0F83  307F               	movlw	127
  3907  0F84  0527               	andwf	___flge@ff2+3,w
  3908  0F85  00AB               	movwf	??___flge+3
  3909  0F86  082B               	movf	??___flge+3,w
  3910  0F87  042A               	iorwf	??___flge+2,w
  3911  0F88  0429               	iorwf	??___flge+1,w
  3912  0F89  0428               	iorwf	??___flge,w
  3913  0F8A  1D03               	skipz
  3914  0F8B  2F8D               	goto	u3241
  3915  0F8C  2F8E               	goto	u3240
  3916  0F8D                     u3241:
  3917  0F8D  2F96               	goto	l2398
  3918  0F8E                     u3240:
  3919  0F8E                     l2396:
  3920  0F8E  3000               	movlw	0
  3921  0F8F  00A7               	movwf	___flge@ff2+3
  3922  0F90  3000               	movlw	0
  3923  0F91  00A6               	movwf	___flge@ff2+2
  3924  0F92  3000               	movlw	0
  3925  0F93  00A5               	movwf	___flge@ff2+1
  3926  0F94  3000               	movlw	0
  3927  0F95  00A4               	movwf	___flge@ff2
  3928  0F96                     l2398:
  3929  0F96  1FA3               	btfss	___flge@ff1+3,7
  3930  0F97  2F99               	goto	u3251
  3931  0F98  2F9A               	goto	u3250
  3932  0F99                     u3251:
  3933  0F99  2FBE               	goto	l2402
  3934  0F9A                     u3250:
  3935  0F9A                     l2400:
  3936  0F9A  3000               	movlw	0
  3937  0F9B  00A8               	movwf	??___flge
  3938  0F9C  3000               	movlw	0
  3939  0F9D  00A9               	movwf	??___flge+1
  3940  0F9E  3000               	movlw	0
  3941  0F9F  00AA               	movwf	??___flge+2
  3942  0FA0  3080               	movlw	128
  3943  0FA1  00AB               	movwf	??___flge+3
  3944  0FA2  0820               	movf	___flge@ff1,w
  3945  0FA3  02A8               	subwf	??___flge,f
  3946  0FA4  0821               	movf	___flge@ff1+1,w
  3947  0FA5  1C03               	skipc
  3948  0FA6  0F21               	incfsz	___flge@ff1+1,w
  3949  0FA7  2FA9               	goto	u3261
  3950  0FA8  2FAA               	goto	u3262
  3951  0FA9                     u3261:
  3952  0FA9  02A9               	subwf	??___flge+1,f
  3953  0FAA                     u3262:
  3954  0FAA  0822               	movf	___flge@ff1+2,w
  3955  0FAB  1C03               	skipc
  3956  0FAC  0F22               	incfsz	___flge@ff1+2,w
  3957  0FAD  2FAF               	goto	u3263
  3958  0FAE  2FB0               	goto	u3264
  3959  0FAF                     u3263:
  3960  0FAF  02AA               	subwf	??___flge+2,f
  3961  0FB0                     u3264:
  3962  0FB0  0823               	movf	___flge@ff1+3,w
  3963  0FB1  1C03               	skipc
  3964  0FB2  0F23               	incfsz	___flge@ff1+3,w
  3965  0FB3  2FB5               	goto	u3265
  3966  0FB4  2FB6               	goto	u3266
  3967  0FB5                     u3265:
  3968  0FB5  02AB               	subwf	??___flge+3,f
  3969  0FB6                     u3266:
  3970  0FB6  082B               	movf	??___flge+3,w
  3971  0FB7  00A3               	movwf	___flge@ff1+3
  3972  0FB8  082A               	movf	??___flge+2,w
  3973  0FB9  00A2               	movwf	___flge@ff1+2
  3974  0FBA  0829               	movf	??___flge+1,w
  3975  0FBB  00A1               	movwf	___flge@ff1+1
  3976  0FBC  0828               	movf	??___flge,w
  3977  0FBD  00A0               	movwf	___flge@ff1
  3978  0FBE                     l2402:
  3979  0FBE  1FA7               	btfss	___flge@ff2+3,7
  3980  0FBF  2FC1               	goto	u3271
  3981  0FC0  2FC2               	goto	u3270
  3982  0FC1                     u3271:
  3983  0FC1  2FE6               	goto	l408
  3984  0FC2                     u3270:
  3985  0FC2                     l2404:
  3986  0FC2  3000               	movlw	0
  3987  0FC3  00A8               	movwf	??___flge
  3988  0FC4  3000               	movlw	0
  3989  0FC5  00A9               	movwf	??___flge+1
  3990  0FC6  3000               	movlw	0
  3991  0FC7  00AA               	movwf	??___flge+2
  3992  0FC8  3080               	movlw	128
  3993  0FC9  00AB               	movwf	??___flge+3
  3994  0FCA  0824               	movf	___flge@ff2,w
  3995  0FCB  02A8               	subwf	??___flge,f
  3996  0FCC  0825               	movf	___flge@ff2+1,w
  3997  0FCD  1C03               	skipc
  3998  0FCE  0F25               	incfsz	___flge@ff2+1,w
  3999  0FCF  2FD1               	goto	u3281
  4000  0FD0  2FD2               	goto	u3282
  4001  0FD1                     u3281:
  4002  0FD1  02A9               	subwf	??___flge+1,f
  4003  0FD2                     u3282:
  4004  0FD2  0826               	movf	___flge@ff2+2,w
  4005  0FD3  1C03               	skipc
  4006  0FD4  0F26               	incfsz	___flge@ff2+2,w
  4007  0FD5  2FD7               	goto	u3283
  4008  0FD6  2FD8               	goto	u3284
  4009  0FD7                     u3283:
  4010  0FD7  02AA               	subwf	??___flge+2,f
  4011  0FD8                     u3284:
  4012  0FD8  0827               	movf	___flge@ff2+3,w
  4013  0FD9  1C03               	skipc
  4014  0FDA  0F27               	incfsz	___flge@ff2+3,w
  4015  0FDB  2FDD               	goto	u3285
  4016  0FDC  2FDE               	goto	u3286
  4017  0FDD                     u3285:
  4018  0FDD  02AB               	subwf	??___flge+3,f
  4019  0FDE                     u3286:
  4020  0FDE  082B               	movf	??___flge+3,w
  4021  0FDF  00A7               	movwf	___flge@ff2+3
  4022  0FE0  082A               	movf	??___flge+2,w
  4023  0FE1  00A6               	movwf	___flge@ff2+2
  4024  0FE2  0829               	movf	??___flge+1,w
  4025  0FE3  00A5               	movwf	___flge@ff2+1
  4026  0FE4  0828               	movf	??___flge,w
  4027  0FE5  00A4               	movwf	___flge@ff2
  4028  0FE6                     l408:
  4029  0FE6  3080               	movlw	128
  4030  0FE7  06A3               	xorwf	___flge@ff1+3,f
  4031  0FE8  3080               	movlw	128
  4032  0FE9  06A7               	xorwf	___flge@ff2+3,f
  4033  0FEA  0827               	movf	___flge@ff2+3,w
  4034  0FEB  0223               	subwf	___flge@ff1+3,w
  4035  0FEC  1D03               	skipz
  4036  0FED  2FF8               	goto	u3295
  4037  0FEE  0826               	movf	___flge@ff2+2,w
  4038  0FEF  0222               	subwf	___flge@ff1+2,w
  4039  0FF0  1D03               	skipz
  4040  0FF1  2FF8               	goto	u3295
  4041  0FF2  0825               	movf	___flge@ff2+1,w
  4042  0FF3  0221               	subwf	___flge@ff1+1,w
  4043  0FF4  1D03               	skipz
  4044  0FF5  2FF8               	goto	u3295
  4045  0FF6  0824               	movf	___flge@ff2,w
  4046  0FF7  0220               	subwf	___flge@ff1,w
  4047  0FF8                     u3295:
  4048  0FF8  1803               	skipnc
  4049  0FF9  2FFB               	goto	u3291
  4050  0FFA  2FFC               	goto	u3290
  4051  0FFB                     u3291:
  4052  0FFB  2FFE               	goto	l2408
  4053  0FFC                     u3290:
  4054  0FFC                     l2406:
  4055  0FFC  1003               	clrc
  4056  0FFD  2FFF               	goto	l409
  4057  0FFE                     l2408:
  4058  0FFE  1403               	setc
  4059  0FFF                     l409:
  4060  0FFF  0008               	return
  4061  1000                     __end_of___flge:
  4062                           
  4063                           	psect	text13
  4064  0389                     __ptext13:	
  4065 ;; *************** function ___fldiv *****************
  4066 ;; Defined at:
  4067 ;;		line 8 in file "C:\Program Files\Microchip\xc8\v2.31\pic\sources\c90\common\sprcdiv.c"
  4068 ;; Parameters:    Size  Location     Type
  4069 ;;  a               4   40[BANK0 ] unsigned int 
  4070 ;;  b               4   44[BANK0 ] unsigned int 
  4071 ;; Auto vars:     Size  Location     Type
  4072 ;;  grs             4   60[BANK0 ] unsigned long 
  4073 ;;  rem             4   53[BANK0 ] unsigned long 
  4074 ;;  new_exp         2   58[BANK0 ] int 
  4075 ;;  aexp            1   65[BANK0 ] unsigned char 
  4076 ;;  bexp            1   64[BANK0 ] unsigned char 
  4077 ;;  sign            1   57[BANK0 ] unsigned char 
  4078 ;; Return value:  Size  Location     Type
  4079 ;;                  4   40[BANK0 ] unsigned char 
  4080 ;; Registers used:
  4081 ;;		wreg, status,2, status,0, btemp+1
  4082 ;; Tracked objects:
  4083 ;;		On entry : 0/0
  4084 ;;		On exit  : 0/0
  4085 ;;		Unchanged: 0/0
  4086 ;; Data sizes:     COMMON   BANK0   BANK1   BANK3   BANK2
  4087 ;;      Params:         0       8       0       0       0
  4088 ;;      Locals:         0      13       0       0       0
  4089 ;;      Temps:          0       5       0       0       0
  4090 ;;      Totals:         0      26       0       0       0
  4091 ;;Total ram usage:       26 bytes
  4092 ;; Hardware stack levels used:    1
  4093 ;; Hardware stack levels required when called:    3
  4094 ;; This function calls:
  4095 ;;		Nothing
  4096 ;; This function is called by:
  4097 ;;		_main
  4098 ;; This function uses a non-reentrant model
  4099 ;;
  4100                           
  4101                           
  4102                           ;psect for function ___fldiv
  4103  0389                     ___fldiv:
  4104  0389                     l1822:	
  4105                           ;incstack = 0
  4106                           ; Regs used in ___fldiv: [wreg+status,2+status,0+btemp+1]
  4107                           
  4108  0389  1283               	bcf	3,5	;RP0=0, select bank0
  4109  038A  1303               	bcf	3,6	;RP1=0, select bank0
  4110  038B  084F               	movf	___fldiv@b+3,w
  4111  038C  3980               	andlw	128
  4112  038D  00D0               	movwf	??___fldiv
  4113  038E  0850               	movf	??___fldiv,w
  4114  038F  00D9               	movwf	___fldiv@sign
  4115  0390                     l1824:
  4116  0390  084F               	movf	___fldiv@b+3,w
  4117  0391  00D0               	movwf	??___fldiv
  4118  0392  0750               	addwf	??___fldiv,w
  4119  0393  00D1               	movwf	??___fldiv+1
  4120  0394  0851               	movf	??___fldiv+1,w
  4121  0395  00E0               	movwf	___fldiv@bexp
  4122  0396                     l1826:
  4123  0396  1FCE               	btfss	___fldiv@b+2,7
  4124  0397  2B99               	goto	u2061
  4125  0398  2B9A               	goto	u2060
  4126  0399                     u2061:
  4127  0399  2B9B               	goto	l1830
  4128  039A                     u2060:
  4129  039A                     l1828:
  4130  039A  1460               	bsf	___fldiv@bexp,0
  4131  039B                     l1830:
  4132  039B  0860               	movf	___fldiv@bexp,w
  4133  039C  1903               	btfsc	3,2
  4134  039D  2B9F               	goto	u2071
  4135  039E  2BA0               	goto	u2070
  4136  039F                     u2071:
  4137  039F  2BB0               	goto	l1840
  4138  03A0                     u2070:
  4139  03A0                     l1832:
  4140  03A0  0A60               	incf	___fldiv@bexp,w
  4141  03A1  1D03               	btfss	3,2
  4142  03A2  2BA4               	goto	u2081
  4143  03A3  2BA5               	goto	u2080
  4144  03A4                     u2081:
  4145  03A4  2BAD               	goto	l1836
  4146  03A5                     u2080:
  4147  03A5                     l1834:
  4148  03A5  3000               	movlw	0
  4149  03A6  00CF               	movwf	___fldiv@b+3
  4150  03A7  3000               	movlw	0
  4151  03A8  00CE               	movwf	___fldiv@b+2
  4152  03A9  3000               	movlw	0
  4153  03AA  00CD               	movwf	___fldiv@b+1
  4154  03AB  3000               	movlw	0
  4155  03AC  00CC               	movwf	___fldiv@b
  4156  03AD                     l1836:
  4157  03AD  17CE               	bsf	___fldiv@b+2,7
  4158  03AE                     l1838:
  4159  03AE  01CF               	clrf	___fldiv@b+3
  4160  03AF  2BB8               	goto	l1842
  4161  03B0                     l1840:
  4162  03B0  3000               	movlw	0
  4163  03B1  00CF               	movwf	___fldiv@b+3
  4164  03B2  3000               	movlw	0
  4165  03B3  00CE               	movwf	___fldiv@b+2
  4166  03B4  3000               	movlw	0
  4167  03B5  00CD               	movwf	___fldiv@b+1
  4168  03B6  3000               	movlw	0
  4169  03B7  00CC               	movwf	___fldiv@b
  4170  03B8                     l1842:
  4171  03B8  084B               	movf	___fldiv@a+3,w
  4172  03B9  3980               	andlw	128
  4173  03BA  00D0               	movwf	??___fldiv
  4174  03BB  0850               	movf	??___fldiv,w
  4175  03BC  06D9               	xorwf	___fldiv@sign,f
  4176  03BD                     l1844:
  4177  03BD  084B               	movf	___fldiv@a+3,w
  4178  03BE  00D0               	movwf	??___fldiv
  4179  03BF  0750               	addwf	??___fldiv,w
  4180  03C0  00D1               	movwf	??___fldiv+1
  4181  03C1  0851               	movf	??___fldiv+1,w
  4182  03C2  00E1               	movwf	___fldiv@aexp
  4183  03C3                     l1846:
  4184  03C3  1FCA               	btfss	___fldiv@a+2,7
  4185  03C4  2BC6               	goto	u2091
  4186  03C5  2BC7               	goto	u2090
  4187  03C6                     u2091:
  4188  03C6  2BC8               	goto	l1850
  4189  03C7                     u2090:
  4190  03C7                     l1848:
  4191  03C7  1461               	bsf	___fldiv@aexp,0
  4192  03C8                     l1850:
  4193  03C8  0861               	movf	___fldiv@aexp,w
  4194  03C9  1903               	btfsc	3,2
  4195  03CA  2BCC               	goto	u2101
  4196  03CB  2BCD               	goto	u2100
  4197  03CC                     u2101:
  4198  03CC  2BDD               	goto	l1860
  4199  03CD                     u2100:
  4200  03CD                     l1852:
  4201  03CD  0A61               	incf	___fldiv@aexp,w
  4202  03CE  1D03               	btfss	3,2
  4203  03CF  2BD1               	goto	u2111
  4204  03D0  2BD2               	goto	u2110
  4205  03D1                     u2111:
  4206  03D1  2BDA               	goto	l1856
  4207  03D2                     u2110:
  4208  03D2                     l1854:
  4209  03D2  3000               	movlw	0
  4210  03D3  00CB               	movwf	___fldiv@a+3
  4211  03D4  3000               	movlw	0
  4212  03D5  00CA               	movwf	___fldiv@a+2
  4213  03D6  3000               	movlw	0
  4214  03D7  00C9               	movwf	___fldiv@a+1
  4215  03D8  3000               	movlw	0
  4216  03D9  00C8               	movwf	___fldiv@a
  4217  03DA                     l1856:
  4218  03DA  17CA               	bsf	___fldiv@a+2,7
  4219  03DB                     l1858:
  4220  03DB  01CB               	clrf	___fldiv@a+3
  4221  03DC  2BE5               	goto	l580
  4222  03DD                     l1860:
  4223  03DD  3000               	movlw	0
  4224  03DE  00CB               	movwf	___fldiv@a+3
  4225  03DF  3000               	movlw	0
  4226  03E0  00CA               	movwf	___fldiv@a+2
  4227  03E1  3000               	movlw	0
  4228  03E2  00C9               	movwf	___fldiv@a+1
  4229  03E3  3000               	movlw	0
  4230  03E4  00C8               	movwf	___fldiv@a
  4231  03E5                     l580:
  4232  03E5  084B               	movf	___fldiv@a+3,w
  4233  03E6  044A               	iorwf	___fldiv@a+2,w
  4234  03E7  0449               	iorwf	___fldiv@a+1,w
  4235  03E8  0448               	iorwf	___fldiv@a,w
  4236  03E9  1D03               	skipz
  4237  03EA  2BEC               	goto	u2121
  4238  03EB  2BED               	goto	u2120
  4239  03EC                     u2121:
  4240  03EC  2C06               	goto	l1870
  4241  03ED                     u2120:
  4242  03ED                     l1862:
  4243  03ED  3000               	movlw	0
  4244  03EE  00CF               	movwf	___fldiv@b+3
  4245  03EF  3000               	movlw	0
  4246  03F0  00CE               	movwf	___fldiv@b+2
  4247  03F1  3000               	movlw	0
  4248  03F2  00CD               	movwf	___fldiv@b+1
  4249  03F3  3000               	movlw	0
  4250  03F4  00CC               	movwf	___fldiv@b
  4251  03F5  3080               	movlw	128
  4252  03F6  04CE               	iorwf	___fldiv@b+2,f
  4253  03F7  307F               	movlw	127
  4254  03F8  04CF               	iorwf	___fldiv@b+3,f
  4255  03F9                     l1864:
  4256  03F9  0859               	movf	___fldiv@sign,w
  4257  03FA  00D0               	movwf	??___fldiv
  4258  03FB  0850               	movf	??___fldiv,w
  4259  03FC  04CF               	iorwf	___fldiv@b+3,f
  4260  03FD                     l1866:
  4261  03FD  084F               	movf	___fldiv@b+3,w
  4262  03FE  00CB               	movwf	?___fldiv+3
  4263  03FF  084E               	movf	___fldiv@b+2,w
  4264  0400  00CA               	movwf	?___fldiv+2
  4265  0401  084D               	movf	___fldiv@b+1,w
  4266  0402  00C9               	movwf	?___fldiv+1
  4267  0403  084C               	movf	___fldiv@b,w
  4268  0404  00C8               	movwf	?___fldiv
  4269  0405  2D65               	goto	l582
  4270  0406                     l1870:
  4271  0406  0860               	movf	___fldiv@bexp,w
  4272  0407  1D03               	btfss	3,2
  4273  0408  2C0A               	goto	u2131
  4274  0409  2C0B               	goto	u2130
  4275  040A                     u2131:
  4276  040A  2C14               	goto	l1876
  4277  040B                     u2130:
  4278  040B                     l1872:
  4279  040B  3000               	movlw	0
  4280  040C  00CB               	movwf	?___fldiv+3
  4281  040D  3000               	movlw	0
  4282  040E  00CA               	movwf	?___fldiv+2
  4283  040F  3000               	movlw	0
  4284  0410  00C9               	movwf	?___fldiv+1
  4285  0411  3000               	movlw	0
  4286  0412  00C8               	movwf	?___fldiv
  4287  0413  2D65               	goto	l582
  4288  0414                     l1876:
  4289  0414  0860               	movf	___fldiv@bexp,w
  4290  0415  00D0               	movwf	??___fldiv
  4291  0416  01D1               	clrf	??___fldiv+1
  4292  0417  0851               	movf	??___fldiv+1,w
  4293  0418  00D3               	movwf	??___fldiv+3
  4294  0419  0861               	movf	___fldiv@aexp,w
  4295  041A  0250               	subwf	??___fldiv,w
  4296  041B  00D2               	movwf	??___fldiv+2
  4297  041C  1C03               	skipc
  4298  041D  03D3               	decf	??___fldiv+3,f
  4299  041E  0852               	movf	??___fldiv+2,w
  4300  041F  3E7F               	addlw	127
  4301  0420  00DA               	movwf	___fldiv@new_exp
  4302  0421  0853               	movf	??___fldiv+3,w
  4303  0422  1803               	skipnc
  4304  0423  3E01               	addlw	1
  4305  0424  3E00               	addlw	0
  4306  0425  00DB               	movwf	___fldiv@new_exp+1
  4307  0426                     l1878:
  4308  0426  084F               	movf	___fldiv@b+3,w
  4309  0427  00D8               	movwf	___fldiv@rem+3
  4310  0428  084E               	movf	___fldiv@b+2,w
  4311  0429  00D7               	movwf	___fldiv@rem+2
  4312  042A  084D               	movf	___fldiv@b+1,w
  4313  042B  00D6               	movwf	___fldiv@rem+1
  4314  042C  084C               	movf	___fldiv@b,w
  4315  042D  00D5               	movwf	___fldiv@rem
  4316  042E                     l1880:
  4317  042E  3000               	movlw	0
  4318  042F  00CF               	movwf	___fldiv@b+3
  4319  0430  3000               	movlw	0
  4320  0431  00CE               	movwf	___fldiv@b+2
  4321  0432  3000               	movlw	0
  4322  0433  00CD               	movwf	___fldiv@b+1
  4323  0434  3000               	movlw	0
  4324  0435  00CC               	movwf	___fldiv@b
  4325  0436                     l1882:
  4326  0436  3000               	movlw	0
  4327  0437  00DF               	movwf	___fldiv@grs+3
  4328  0438  3000               	movlw	0
  4329  0439  00DE               	movwf	___fldiv@grs+2
  4330  043A  3000               	movlw	0
  4331  043B  00DD               	movwf	___fldiv@grs+1
  4332  043C  3000               	movlw	0
  4333  043D  00DC               	movwf	___fldiv@grs
  4334  043E                     l1884:
  4335  043E  01E1               	clrf	___fldiv@aexp
  4336  043F  2C8A               	goto	l1904
  4337  0440                     l1886:
  4338  0440  0861               	movf	___fldiv@aexp,w
  4339  0441  1903               	btfsc	3,2
  4340  0442  2C44               	goto	u2141
  4341  0443  2C45               	goto	u2140
  4342  0444                     u2141:
  4343  0444  2C65               	goto	l1896
  4344  0445                     u2140:
  4345  0445                     l1888:
  4346  0445  3001               	movlw	1
  4347  0446  00D0               	movwf	??___fldiv
  4348  0447                     u2155:
  4349  0447  1003               	clrc
  4350  0448  0DD5               	rlf	___fldiv@rem,f
  4351  0449  0DD6               	rlf	___fldiv@rem+1,f
  4352  044A  0DD7               	rlf	___fldiv@rem+2,f
  4353  044B  0DD8               	rlf	___fldiv@rem+3,f
  4354  044C  0BD0               	decfsz	??___fldiv,f
  4355  044D  2C47               	goto	u2155
  4356  044E  3001               	movlw	1
  4357  044F  00D0               	movwf	??___fldiv
  4358  0450                     u2165:
  4359  0450  1003               	clrc
  4360  0451  0DCC               	rlf	___fldiv@b,f
  4361  0452  0DCD               	rlf	___fldiv@b+1,f
  4362  0453  0DCE               	rlf	___fldiv@b+2,f
  4363  0454  0DCF               	rlf	___fldiv@b+3,f
  4364  0455  0BD0               	decfsz	??___fldiv,f
  4365  0456  2C50               	goto	u2165
  4366  0457                     l1890:
  4367  0457  1FDF               	btfss	___fldiv@grs+3,7
  4368  0458  2C5A               	goto	u2171
  4369  0459  2C5B               	goto	u2170
  4370  045A                     u2171:
  4371  045A  2C5C               	goto	l1894
  4372  045B                     u2170:
  4373  045B                     l1892:
  4374  045B  144C               	bsf	___fldiv@b,0
  4375  045C                     l1894:
  4376  045C  3001               	movlw	1
  4377  045D  00D0               	movwf	??___fldiv
  4378  045E                     u2185:
  4379  045E  1003               	clrc
  4380  045F  0DDC               	rlf	___fldiv@grs,f
  4381  0460  0DDD               	rlf	___fldiv@grs+1,f
  4382  0461  0DDE               	rlf	___fldiv@grs+2,f
  4383  0462  0DDF               	rlf	___fldiv@grs+3,f
  4384  0463  0BD0               	decfsz	??___fldiv,f
  4385  0464  2C5E               	goto	u2185
  4386  0465                     l1896:
  4387  0465  084B               	movf	___fldiv@a+3,w
  4388  0466  0258               	subwf	___fldiv@rem+3,w
  4389  0467  1D03               	skipz
  4390  0468  2C73               	goto	u2195
  4391  0469  084A               	movf	___fldiv@a+2,w
  4392  046A  0257               	subwf	___fldiv@rem+2,w
  4393  046B  1D03               	skipz
  4394  046C  2C73               	goto	u2195
  4395  046D  0849               	movf	___fldiv@a+1,w
  4396  046E  0256               	subwf	___fldiv@rem+1,w
  4397  046F  1D03               	skipz
  4398  0470  2C73               	goto	u2195
  4399  0471  0848               	movf	___fldiv@a,w
  4400  0472  0255               	subwf	___fldiv@rem,w
  4401  0473                     u2195:
  4402  0473  1C03               	skipc
  4403  0474  2C76               	goto	u2191
  4404  0475  2C77               	goto	u2190
  4405  0476                     u2191:
  4406  0476  2C86               	goto	l1902
  4407  0477                     u2190:
  4408  0477                     l1898:
  4409  0477  175F               	bsf	___fldiv@grs+3,6
  4410  0478                     l1900:
  4411  0478  0848               	movf	___fldiv@a,w
  4412  0479  02D5               	subwf	___fldiv@rem,f
  4413  047A  0849               	movf	___fldiv@a+1,w
  4414  047B  1C03               	skipc
  4415  047C  0F49               	incfsz	___fldiv@a+1,w
  4416  047D  02D6               	subwf	___fldiv@rem+1,f
  4417  047E  084A               	movf	___fldiv@a+2,w
  4418  047F  1C03               	skipc
  4419  0480  0F4A               	incfsz	___fldiv@a+2,w
  4420  0481  02D7               	subwf	___fldiv@rem+2,f
  4421  0482  084B               	movf	___fldiv@a+3,w
  4422  0483  1C03               	skipc
  4423  0484  0F4B               	incfsz	___fldiv@a+3,w
  4424  0485  02D8               	subwf	___fldiv@rem+3,f
  4425  0486                     l1902:
  4426  0486  3001               	movlw	1
  4427  0487  00D0               	movwf	??___fldiv
  4428  0488  0850               	movf	??___fldiv,w
  4429  0489  07E1               	addwf	___fldiv@aexp,f
  4430  048A                     l1904:
  4431  048A  301A               	movlw	26
  4432  048B  0261               	subwf	___fldiv@aexp,w
  4433  048C  1C03               	skipc
  4434  048D  2C8F               	goto	u2201
  4435  048E  2C90               	goto	u2200
  4436  048F                     u2201:
  4437  048F  2C40               	goto	l1886
  4438  0490                     u2200:
  4439  0490                     l1906:
  4440  0490  0858               	movf	___fldiv@rem+3,w
  4441  0491  0457               	iorwf	___fldiv@rem+2,w
  4442  0492  0456               	iorwf	___fldiv@rem+1,w
  4443  0493  0455               	iorwf	___fldiv@rem,w
  4444  0494  1903               	skipnz
  4445  0495  2C97               	goto	u2211
  4446  0496  2C98               	goto	u2210
  4447  0497                     u2211:
  4448  0497  2CB7               	goto	l1920
  4449  0498                     u2210:
  4450  0498                     l1908:
  4451  0498  145C               	bsf	___fldiv@grs,0
  4452  0499  2CB7               	goto	l1920
  4453  049A                     l1910:
  4454  049A  3001               	movlw	1
  4455  049B  00D0               	movwf	??___fldiv
  4456  049C                     u2225:
  4457  049C  1003               	clrc
  4458  049D  0DCC               	rlf	___fldiv@b,f
  4459  049E  0DCD               	rlf	___fldiv@b+1,f
  4460  049F  0DCE               	rlf	___fldiv@b+2,f
  4461  04A0  0DCF               	rlf	___fldiv@b+3,f
  4462  04A1  0BD0               	decfsz	??___fldiv,f
  4463  04A2  2C9C               	goto	u2225
  4464  04A3                     l1912:
  4465  04A3  1FDF               	btfss	___fldiv@grs+3,7
  4466  04A4  2CA6               	goto	u2231
  4467  04A5  2CA7               	goto	u2230
  4468  04A6                     u2231:
  4469  04A6  2CA8               	goto	l1916
  4470  04A7                     u2230:
  4471  04A7                     l1914:
  4472  04A7  144C               	bsf	___fldiv@b,0
  4473  04A8                     l1916:
  4474  04A8  3001               	movlw	1
  4475  04A9  00D0               	movwf	??___fldiv
  4476  04AA                     u2245:
  4477  04AA  1003               	clrc
  4478  04AB  0DDC               	rlf	___fldiv@grs,f
  4479  04AC  0DDD               	rlf	___fldiv@grs+1,f
  4480  04AD  0DDE               	rlf	___fldiv@grs+2,f
  4481  04AE  0DDF               	rlf	___fldiv@grs+3,f
  4482  04AF  0BD0               	decfsz	??___fldiv,f
  4483  04B0  2CAA               	goto	u2245
  4484  04B1                     l1918:
  4485  04B1  30FF               	movlw	255
  4486  04B2  07DA               	addwf	___fldiv@new_exp,f
  4487  04B3  1803               	skipnc
  4488  04B4  0ADB               	incf	___fldiv@new_exp+1,f
  4489  04B5  30FF               	movlw	255
  4490  04B6  07DB               	addwf	___fldiv@new_exp+1,f
  4491  04B7                     l1920:
  4492  04B7  1FCE               	btfss	___fldiv@b+2,7
  4493  04B8  2CBA               	goto	u2251
  4494  04B9  2CBB               	goto	u2250
  4495  04BA                     u2251:
  4496  04BA  2C9A               	goto	l1910
  4497  04BB                     u2250:
  4498  04BB                     l1922:
  4499  04BB  01E1               	clrf	___fldiv@aexp
  4500  04BC                     l1924:
  4501  04BC  1FDF               	btfss	___fldiv@grs+3,7
  4502  04BD  2CBF               	goto	u2261
  4503  04BE  2CC0               	goto	u2260
  4504  04BF                     u2261:
  4505  04BF  2CDC               	goto	l1932
  4506  04C0                     u2260:
  4507  04C0                     l1926:
  4508  04C0  30FF               	movlw	255
  4509  04C1  055C               	andwf	___fldiv@grs,w
  4510  04C2  00D0               	movwf	??___fldiv
  4511  04C3  30FF               	movlw	255
  4512  04C4  055D               	andwf	___fldiv@grs+1,w
  4513  04C5  00D1               	movwf	??___fldiv+1
  4514  04C6  30FF               	movlw	255
  4515  04C7  055E               	andwf	___fldiv@grs+2,w
  4516  04C8  00D2               	movwf	??___fldiv+2
  4517  04C9  307F               	movlw	127
  4518  04CA  055F               	andwf	___fldiv@grs+3,w
  4519  04CB  00D3               	movwf	??___fldiv+3
  4520  04CC  0853               	movf	??___fldiv+3,w
  4521  04CD  0452               	iorwf	??___fldiv+2,w
  4522  04CE  0451               	iorwf	??___fldiv+1,w
  4523  04CF  0450               	iorwf	??___fldiv,w
  4524  04D0  1903               	skipnz
  4525  04D1  2CD3               	goto	u2271
  4526  04D2  2CD4               	goto	u2270
  4527  04D3                     u2271:
  4528  04D3  2CD7               	goto	l596
  4529  04D4                     u2270:
  4530  04D4                     l1928:
  4531  04D4  01E1               	clrf	___fldiv@aexp
  4532  04D5  0AE1               	incf	___fldiv@aexp,f
  4533  04D6  2CDC               	goto	l1932
  4534  04D7                     l596:
  4535  04D7  1C4C               	btfss	___fldiv@b,0
  4536  04D8  2CDA               	goto	u2281
  4537  04D9  2CDB               	goto	u2280
  4538  04DA                     u2281:
  4539  04DA  2CDC               	goto	l1932
  4540  04DB                     u2280:
  4541  04DB  2CD4               	goto	l1928
  4542  04DC                     l1932:
  4543  04DC  0861               	movf	___fldiv@aexp,w
  4544  04DD  1903               	btfsc	3,2
  4545  04DE  2CE0               	goto	u2291
  4546  04DF  2CE1               	goto	u2290
  4547  04E0                     u2291:
  4548  04E0  2D12               	goto	l1942
  4549  04E1                     u2290:
  4550  04E1                     l1934:
  4551  04E1  3001               	movlw	1
  4552  04E2  07CC               	addwf	___fldiv@b,f
  4553  04E3  3000               	movlw	0
  4554  04E4  1803               	skipnc
  4555  04E5  3001               	movlw	1
  4556  04E6  07CD               	addwf	___fldiv@b+1,f
  4557  04E7  3000               	movlw	0
  4558  04E8  1803               	skipnc
  4559  04E9  3001               	movlw	1
  4560  04EA  07CE               	addwf	___fldiv@b+2,f
  4561  04EB  3000               	movlw	0
  4562  04EC  1803               	skipnc
  4563  04ED  3001               	movlw	1
  4564  04EE  07CF               	addwf	___fldiv@b+3,f
  4565  04EF                     l1936:
  4566  04EF  1C4F               	btfss	___fldiv@b+3,0
  4567  04F0  2CF2               	goto	u2301
  4568  04F1  2CF3               	goto	u2300
  4569  04F2                     u2301:
  4570  04F2  2D12               	goto	l1942
  4571  04F3                     u2300:
  4572  04F3                     l1938:
  4573  04F3  084C               	movf	___fldiv@b,w
  4574  04F4  00D0               	movwf	??___fldiv
  4575  04F5  084D               	movf	___fldiv@b+1,w
  4576  04F6  00D1               	movwf	??___fldiv+1
  4577  04F7  084E               	movf	___fldiv@b+2,w
  4578  04F8  00D2               	movwf	??___fldiv+2
  4579  04F9  084F               	movf	___fldiv@b+3,w
  4580  04FA  00D3               	movwf	??___fldiv+3
  4581  04FB  3001               	movlw	1
  4582  04FC  00D4               	movwf	??___fldiv+4
  4583  04FD                     u2315:
  4584  04FD  0D53               	rlf	??___fldiv+3,w
  4585  04FE  0CD3               	rrf	??___fldiv+3,f
  4586  04FF  0CD2               	rrf	??___fldiv+2,f
  4587  0500  0CD1               	rrf	??___fldiv+1,f
  4588  0501  0CD0               	rrf	??___fldiv,f
  4589  0502                     u2310:
  4590  0502  0BD4               	decfsz	??___fldiv+4,f
  4591  0503  2CFD               	goto	u2315
  4592  0504  0853               	movf	??___fldiv+3,w
  4593  0505  00CF               	movwf	___fldiv@b+3
  4594  0506  0852               	movf	??___fldiv+2,w
  4595  0507  00CE               	movwf	___fldiv@b+2
  4596  0508  0851               	movf	??___fldiv+1,w
  4597  0509  00CD               	movwf	___fldiv@b+1
  4598  050A  0850               	movf	??___fldiv,w
  4599  050B  00CC               	movwf	___fldiv@b
  4600  050C                     l1940:
  4601  050C  3001               	movlw	1
  4602  050D  07DA               	addwf	___fldiv@new_exp,f
  4603  050E  1803               	skipnc
  4604  050F  0ADB               	incf	___fldiv@new_exp+1,f
  4605  0510  3000               	movlw	0
  4606  0511  07DB               	addwf	___fldiv@new_exp+1,f
  4607  0512                     l1942:
  4608  0512  085B               	movf	___fldiv@new_exp+1,w
  4609  0513  3A80               	xorlw	128
  4610  0514  00FF               	movwf	btemp+1
  4611  0515  3080               	movlw	128
  4612  0516  027F               	subwf	btemp+1,w
  4613  0517  1D03               	skipz
  4614  0518  2D1B               	goto	u2325
  4615  0519  30FF               	movlw	255
  4616  051A  025A               	subwf	___fldiv@new_exp,w
  4617  051B                     u2325:
  4618  051B  1C03               	skipc
  4619  051C  2D1E               	goto	u2321
  4620  051D  2D1F               	goto	u2320
  4621  051E                     u2321:
  4622  051E  2D2D               	goto	l1946
  4623  051F                     u2320:
  4624  051F                     l1944:
  4625  051F  30FF               	movlw	255
  4626  0520  1283               	bcf	3,5	;RP0=0, select bank0
  4627  0521  1303               	bcf	3,6	;RP1=0, select bank0
  4628  0522  00DA               	movwf	___fldiv@new_exp
  4629  0523  3000               	movlw	0
  4630  0524  00DB               	movwf	___fldiv@new_exp+1
  4631  0525  3000               	movlw	0
  4632  0526  00CF               	movwf	___fldiv@b+3
  4633  0527  3000               	movlw	0
  4634  0528  00CE               	movwf	___fldiv@b+2
  4635  0529  3000               	movlw	0
  4636  052A  00CD               	movwf	___fldiv@b+1
  4637  052B  3000               	movlw	0
  4638  052C  00CC               	movwf	___fldiv@b
  4639  052D                     l1946:
  4640  052D  1283               	bcf	3,5	;RP0=0, select bank0
  4641  052E  1303               	bcf	3,6	;RP1=0, select bank0
  4642  052F  085B               	movf	___fldiv@new_exp+1,w
  4643  0530  3A80               	xorlw	128
  4644  0531  00FF               	movwf	btemp+1
  4645  0532  3080               	movlw	128
  4646  0533  027F               	subwf	btemp+1,w
  4647  0534  1D03               	skipz
  4648  0535  2D38               	goto	u2335
  4649  0536  3001               	movlw	1
  4650  0537  025A               	subwf	___fldiv@new_exp,w
  4651  0538                     u2335:
  4652  0538  1803               	skipnc
  4653  0539  2D3B               	goto	u2331
  4654  053A  2D3C               	goto	u2330
  4655  053B                     u2331:
  4656  053B  2D49               	goto	l602
  4657  053C                     u2330:
  4658  053C                     l1948:
  4659  053C  1283               	bcf	3,5	;RP0=0, select bank0
  4660  053D  1303               	bcf	3,6	;RP1=0, select bank0
  4661  053E  01DA               	clrf	___fldiv@new_exp
  4662  053F  01DB               	clrf	___fldiv@new_exp+1
  4663  0540                     l1950:
  4664  0540  3000               	movlw	0
  4665  0541  00CF               	movwf	___fldiv@b+3
  4666  0542  3000               	movlw	0
  4667  0543  00CE               	movwf	___fldiv@b+2
  4668  0544  3000               	movlw	0
  4669  0545  00CD               	movwf	___fldiv@b+1
  4670  0546  3000               	movlw	0
  4671  0547  00CC               	movwf	___fldiv@b
  4672  0548                     l1952:
  4673  0548  01D9               	clrf	___fldiv@sign
  4674  0549                     l602:
  4675  0549  1283               	bcf	3,5	;RP0=0, select bank0
  4676  054A  1303               	bcf	3,6	;RP1=0, select bank0
  4677  054B  085A               	movf	___fldiv@new_exp,w
  4678  054C  00D0               	movwf	??___fldiv
  4679  054D  0850               	movf	??___fldiv,w
  4680  054E  00E0               	movwf	___fldiv@bexp
  4681  054F                     l1954:
  4682  054F  1C60               	btfss	___fldiv@bexp,0
  4683  0550  2D52               	goto	u2341
  4684  0551  2D53               	goto	u2340
  4685  0552                     u2341:
  4686  0552  2D55               	goto	l1958
  4687  0553                     u2340:
  4688  0553                     l1956:
  4689  0553  17CE               	bsf	___fldiv@b+2,7
  4690  0554  2D59               	goto	l604
  4691  0555                     l1958:
  4692  0555  307F               	movlw	127
  4693  0556  00D0               	movwf	??___fldiv
  4694  0557  0850               	movf	??___fldiv,w
  4695  0558  05CE               	andwf	___fldiv@b+2,f
  4696  0559                     l604:
  4697  0559  0860               	movf	___fldiv@bexp,w
  4698  055A  00D0               	movwf	??___fldiv
  4699  055B  1003               	clrc
  4700  055C  0C50               	rrf	??___fldiv,w
  4701  055D  00D1               	movwf	??___fldiv+1
  4702  055E  0851               	movf	??___fldiv+1,w
  4703  055F  00CF               	movwf	___fldiv@b+3
  4704  0560  0859               	movf	___fldiv@sign,w
  4705  0561  00D0               	movwf	??___fldiv
  4706  0562  0850               	movf	??___fldiv,w
  4707  0563  04CF               	iorwf	___fldiv@b+3,f
  4708  0564  2BFD               	goto	l1866
  4709  0565                     l582:
  4710  0565  0008               	return
  4711  0566                     __end_of___fldiv:
  4712                           
  4713                           	psect	text14
  4714  0DAA                     __ptext14:	
  4715 ;; *************** function ___awmod *****************
  4716 ;; Defined at:
  4717 ;;		line 5 in file "C:\Program Files\Microchip\xc8\v2.31\pic\sources\c90\common\awmod.c"
  4718 ;; Parameters:    Size  Location     Type
  4719 ;;  divisor         2    8[BANK0 ] int 
  4720 ;;  dividend        2   10[BANK0 ] int 
  4721 ;; Auto vars:     Size  Location     Type
  4722 ;;  sign            1   13[BANK0 ] unsigned char 
  4723 ;;  counter         1   12[BANK0 ] unsigned char 
  4724 ;; Return value:  Size  Location     Type
  4725 ;;                  2    8[BANK0 ] int 
  4726 ;; Registers used:
  4727 ;;		wreg, status,2, status,0
  4728 ;; Tracked objects:
  4729 ;;		On entry : 0/0
  4730 ;;		On exit  : 0/0
  4731 ;;		Unchanged: 0/0
  4732 ;; Data sizes:     COMMON   BANK0   BANK1   BANK3   BANK2
  4733 ;;      Params:         0       4       0       0       0
  4734 ;;      Locals:         0       2       0       0       0
  4735 ;;      Temps:          1       0       0       0       0
  4736 ;;      Totals:         1       6       0       0       0
  4737 ;;Total ram usage:        7 bytes
  4738 ;; Hardware stack levels used:    1
  4739 ;; Hardware stack levels required when called:    3
  4740 ;; This function calls:
  4741 ;;		Nothing
  4742 ;; This function is called by:
  4743 ;;		_main
  4744 ;; This function uses a non-reentrant model
  4745 ;;
  4746                           
  4747                           
  4748                           ;psect for function ___awmod
  4749  0DAA                     ___awmod:
  4750  0DAA                     l1728:	
  4751                           ;incstack = 0
  4752                           ; Regs used in ___awmod: [wreg+status,2+status,0]
  4753                           
  4754  0DAA  1283               	bcf	3,5	;RP0=0, select bank0
  4755  0DAB  1303               	bcf	3,6	;RP1=0, select bank0
  4756  0DAC  01AD               	clrf	___awmod@sign
  4757  0DAD                     l1730:
  4758  0DAD  1FAB               	btfss	___awmod@dividend+1,7
  4759  0DAE  2DB0               	goto	u1801
  4760  0DAF  2DB1               	goto	u1800
  4761  0DB0                     u1801:
  4762  0DB0  2DB8               	goto	l1736
  4763  0DB1                     u1800:
  4764  0DB1                     l1732:
  4765  0DB1  09AA               	comf	___awmod@dividend,f
  4766  0DB2  09AB               	comf	___awmod@dividend+1,f
  4767  0DB3  0AAA               	incf	___awmod@dividend,f
  4768  0DB4  1903               	skipnz
  4769  0DB5  0AAB               	incf	___awmod@dividend+1,f
  4770  0DB6                     l1734:
  4771  0DB6  01AD               	clrf	___awmod@sign
  4772  0DB7  0AAD               	incf	___awmod@sign,f
  4773  0DB8                     l1736:
  4774  0DB8  1FA9               	btfss	___awmod@divisor+1,7
  4775  0DB9  2DBB               	goto	u1811
  4776  0DBA  2DBC               	goto	u1810
  4777  0DBB                     u1811:
  4778  0DBB  2DC1               	goto	l1740
  4779  0DBC                     u1810:
  4780  0DBC                     l1738:
  4781  0DBC  09A8               	comf	___awmod@divisor,f
  4782  0DBD  09A9               	comf	___awmod@divisor+1,f
  4783  0DBE  0AA8               	incf	___awmod@divisor,f
  4784  0DBF  1903               	skipnz
  4785  0DC0  0AA9               	incf	___awmod@divisor+1,f
  4786  0DC1                     l1740:
  4787  0DC1  0828               	movf	___awmod@divisor,w
  4788  0DC2  0429               	iorwf	___awmod@divisor+1,w
  4789  0DC3  1903               	btfsc	3,2
  4790  0DC4  2DC6               	goto	u1821
  4791  0DC5  2DC7               	goto	u1820
  4792  0DC6                     u1821:
  4793  0DC6  2DF6               	goto	l1758
  4794  0DC7                     u1820:
  4795  0DC7                     l1742:
  4796  0DC7  01AC               	clrf	___awmod@counter
  4797  0DC8  0AAC               	incf	___awmod@counter,f
  4798  0DC9  2DD5               	goto	l1748
  4799  0DCA                     l1744:
  4800  0DCA  3001               	movlw	1
  4801  0DCB                     u1835:
  4802  0DCB  1003               	clrc
  4803  0DCC  0DA8               	rlf	___awmod@divisor,f
  4804  0DCD  0DA9               	rlf	___awmod@divisor+1,f
  4805  0DCE  3EFF               	addlw	-1
  4806  0DCF  1D03               	skipz
  4807  0DD0  2DCB               	goto	u1835
  4808  0DD1                     l1746:
  4809  0DD1  3001               	movlw	1
  4810  0DD2  00F5               	movwf	??___awmod
  4811  0DD3  0875               	movf	??___awmod,w
  4812  0DD4  07AC               	addwf	___awmod@counter,f
  4813  0DD5                     l1748:
  4814  0DD5  1FA9               	btfss	___awmod@divisor+1,7
  4815  0DD6  2DD8               	goto	u1841
  4816  0DD7  2DD9               	goto	u1840
  4817  0DD8                     u1841:
  4818  0DD8  2DCA               	goto	l1744
  4819  0DD9                     u1840:
  4820  0DD9                     l1750:
  4821  0DD9  0829               	movf	___awmod@divisor+1,w
  4822  0DDA  022B               	subwf	___awmod@dividend+1,w
  4823  0DDB  1D03               	skipz
  4824  0DDC  2DDF               	goto	u1855
  4825  0DDD  0828               	movf	___awmod@divisor,w
  4826  0DDE  022A               	subwf	___awmod@dividend,w
  4827  0DDF                     u1855:
  4828  0DDF  1C03               	skipc
  4829  0DE0  2DE2               	goto	u1851
  4830  0DE1  2DE3               	goto	u1850
  4831  0DE2                     u1851:
  4832  0DE2  2DE9               	goto	l1754
  4833  0DE3                     u1850:
  4834  0DE3                     l1752:
  4835  0DE3  0828               	movf	___awmod@divisor,w
  4836  0DE4  02AA               	subwf	___awmod@dividend,f
  4837  0DE5  0829               	movf	___awmod@divisor+1,w
  4838  0DE6  1C03               	skipc
  4839  0DE7  03AB               	decf	___awmod@dividend+1,f
  4840  0DE8  02AB               	subwf	___awmod@dividend+1,f
  4841  0DE9                     l1754:
  4842  0DE9  3001               	movlw	1
  4843  0DEA                     u1865:
  4844  0DEA  1003               	clrc
  4845  0DEB  0CA9               	rrf	___awmod@divisor+1,f
  4846  0DEC  0CA8               	rrf	___awmod@divisor,f
  4847  0DED  3EFF               	addlw	-1
  4848  0DEE  1D03               	skipz
  4849  0DEF  2DEA               	goto	u1865
  4850  0DF0                     l1756:
  4851  0DF0  3001               	movlw	1
  4852  0DF1  02AC               	subwf	___awmod@counter,f
  4853  0DF2  1D03               	btfss	3,2
  4854  0DF3  2DF5               	goto	u1871
  4855  0DF4  2DF6               	goto	u1870
  4856  0DF5                     u1871:
  4857  0DF5  2DD9               	goto	l1750
  4858  0DF6                     u1870:
  4859  0DF6                     l1758:
  4860  0DF6  082D               	movf	___awmod@sign,w
  4861  0DF7  1903               	btfsc	3,2
  4862  0DF8  2DFA               	goto	u1881
  4863  0DF9  2DFB               	goto	u1880
  4864  0DFA                     u1881:
  4865  0DFA  2E00               	goto	l1762
  4866  0DFB                     u1880:
  4867  0DFB                     l1760:
  4868  0DFB  09AA               	comf	___awmod@dividend,f
  4869  0DFC  09AB               	comf	___awmod@dividend+1,f
  4870  0DFD  0AAA               	incf	___awmod@dividend,f
  4871  0DFE  1903               	skipnz
  4872  0DFF  0AAB               	incf	___awmod@dividend+1,f
  4873  0E00                     l1762:
  4874  0E00  082B               	movf	___awmod@dividend+1,w
  4875  0E01  00A9               	movwf	?___awmod+1
  4876  0E02  082A               	movf	___awmod@dividend,w
  4877  0E03  00A8               	movwf	?___awmod
  4878  0E04                     l397:
  4879  0E04  0008               	return
  4880  0E05                     __end_of___awmod:
  4881                           
  4882                           	psect	text15
  4883  0E05                     __ptext15:	
  4884 ;; *************** function ___awdiv *****************
  4885 ;; Defined at:
  4886 ;;		line 5 in file "C:\Program Files\Microchip\xc8\v2.31\pic\sources\c90\common\awdiv.c"
  4887 ;; Parameters:    Size  Location     Type
  4888 ;;  divisor         2    0[BANK0 ] int 
  4889 ;;  dividend        2    2[BANK0 ] int 
  4890 ;; Auto vars:     Size  Location     Type
  4891 ;;  quotient        2    6[BANK0 ] int 
  4892 ;;  sign            1    5[BANK0 ] unsigned char 
  4893 ;;  counter         1    4[BANK0 ] unsigned char 
  4894 ;; Return value:  Size  Location     Type
  4895 ;;                  2    0[BANK0 ] int 
  4896 ;; Registers used:
  4897 ;;		wreg, status,2, status,0
  4898 ;; Tracked objects:
  4899 ;;		On entry : 0/0
  4900 ;;		On exit  : 0/0
  4901 ;;		Unchanged: 0/0
  4902 ;; Data sizes:     COMMON   BANK0   BANK1   BANK3   BANK2
  4903 ;;      Params:         0       4       0       0       0
  4904 ;;      Locals:         0       4       0       0       0
  4905 ;;      Temps:          1       0       0       0       0
  4906 ;;      Totals:         1       8       0       0       0
  4907 ;;Total ram usage:        9 bytes
  4908 ;; Hardware stack levels used:    1
  4909 ;; Hardware stack levels required when called:    3
  4910 ;; This function calls:
  4911 ;;		Nothing
  4912 ;; This function is called by:
  4913 ;;		_main
  4914 ;; This function uses a non-reentrant model
  4915 ;;
  4916                           
  4917                           
  4918                           ;psect for function ___awdiv
  4919  0E05                     ___awdiv:
  4920  0E05                     l2348:	
  4921                           ;incstack = 0
  4922                           ; Regs used in ___awdiv: [wreg+status,2+status,0]
  4923                           
  4924  0E05  1283               	bcf	3,5	;RP0=0, select bank0
  4925  0E06  1303               	bcf	3,6	;RP1=0, select bank0
  4926  0E07  01A5               	clrf	___awdiv@sign
  4927  0E08                     l2350:
  4928  0E08  1FA1               	btfss	___awdiv@divisor+1,7
  4929  0E09  2E0B               	goto	u3131
  4930  0E0A  2E0C               	goto	u3130
  4931  0E0B                     u3131:
  4932  0E0B  2E13               	goto	l2356
  4933  0E0C                     u3130:
  4934  0E0C                     l2352:
  4935  0E0C  09A0               	comf	___awdiv@divisor,f
  4936  0E0D  09A1               	comf	___awdiv@divisor+1,f
  4937  0E0E  0AA0               	incf	___awdiv@divisor,f
  4938  0E0F  1903               	skipnz
  4939  0E10  0AA1               	incf	___awdiv@divisor+1,f
  4940  0E11                     l2354:
  4941  0E11  01A5               	clrf	___awdiv@sign
  4942  0E12  0AA5               	incf	___awdiv@sign,f
  4943  0E13                     l2356:
  4944  0E13  1FA3               	btfss	___awdiv@dividend+1,7
  4945  0E14  2E16               	goto	u3141
  4946  0E15  2E17               	goto	u3140
  4947  0E16                     u3141:
  4948  0E16  2E20               	goto	l2362
  4949  0E17                     u3140:
  4950  0E17                     l2358:
  4951  0E17  09A2               	comf	___awdiv@dividend,f
  4952  0E18  09A3               	comf	___awdiv@dividend+1,f
  4953  0E19  0AA2               	incf	___awdiv@dividend,f
  4954  0E1A  1903               	skipnz
  4955  0E1B  0AA3               	incf	___awdiv@dividend+1,f
  4956  0E1C                     l2360:
  4957  0E1C  3001               	movlw	1
  4958  0E1D  00F4               	movwf	??___awdiv
  4959  0E1E  0874               	movf	??___awdiv,w
  4960  0E1F  06A5               	xorwf	___awdiv@sign,f
  4961  0E20                     l2362:
  4962  0E20  01A6               	clrf	___awdiv@quotient
  4963  0E21  01A7               	clrf	___awdiv@quotient+1
  4964  0E22                     l2364:
  4965  0E22  0820               	movf	___awdiv@divisor,w
  4966  0E23  0421               	iorwf	___awdiv@divisor+1,w
  4967  0E24  1903               	btfsc	3,2
  4968  0E25  2E27               	goto	u3151
  4969  0E26  2E28               	goto	u3150
  4970  0E27                     u3151:
  4971  0E27  2E5F               	goto	l2384
  4972  0E28                     u3150:
  4973  0E28                     l2366:
  4974  0E28  01A4               	clrf	___awdiv@counter
  4975  0E29  0AA4               	incf	___awdiv@counter,f
  4976  0E2A  2E36               	goto	l2372
  4977  0E2B                     l2368:
  4978  0E2B  3001               	movlw	1
  4979  0E2C                     u3165:
  4980  0E2C  1003               	clrc
  4981  0E2D  0DA0               	rlf	___awdiv@divisor,f
  4982  0E2E  0DA1               	rlf	___awdiv@divisor+1,f
  4983  0E2F  3EFF               	addlw	-1
  4984  0E30  1D03               	skipz
  4985  0E31  2E2C               	goto	u3165
  4986  0E32                     l2370:
  4987  0E32  3001               	movlw	1
  4988  0E33  00F4               	movwf	??___awdiv
  4989  0E34  0874               	movf	??___awdiv,w
  4990  0E35  07A4               	addwf	___awdiv@counter,f
  4991  0E36                     l2372:
  4992  0E36  1FA1               	btfss	___awdiv@divisor+1,7
  4993  0E37  2E39               	goto	u3171
  4994  0E38  2E3A               	goto	u3170
  4995  0E39                     u3171:
  4996  0E39  2E2B               	goto	l2368
  4997  0E3A                     u3170:
  4998  0E3A                     l2374:
  4999  0E3A  3001               	movlw	1
  5000  0E3B                     u3185:
  5001  0E3B  1003               	clrc
  5002  0E3C  0DA6               	rlf	___awdiv@quotient,f
  5003  0E3D  0DA7               	rlf	___awdiv@quotient+1,f
  5004  0E3E  3EFF               	addlw	-1
  5005  0E3F  1D03               	skipz
  5006  0E40  2E3B               	goto	u3185
  5007  0E41  0821               	movf	___awdiv@divisor+1,w
  5008  0E42  0223               	subwf	___awdiv@dividend+1,w
  5009  0E43  1D03               	skipz
  5010  0E44  2E47               	goto	u3195
  5011  0E45  0820               	movf	___awdiv@divisor,w
  5012  0E46  0222               	subwf	___awdiv@dividend,w
  5013  0E47                     u3195:
  5014  0E47  1C03               	skipc
  5015  0E48  2E4A               	goto	u3191
  5016  0E49  2E4B               	goto	u3190
  5017  0E4A                     u3191:
  5018  0E4A  2E52               	goto	l2380
  5019  0E4B                     u3190:
  5020  0E4B                     l2376:
  5021  0E4B  0820               	movf	___awdiv@divisor,w
  5022  0E4C  02A2               	subwf	___awdiv@dividend,f
  5023  0E4D  0821               	movf	___awdiv@divisor+1,w
  5024  0E4E  1C03               	skipc
  5025  0E4F  03A3               	decf	___awdiv@dividend+1,f
  5026  0E50  02A3               	subwf	___awdiv@dividend+1,f
  5027  0E51                     l2378:
  5028  0E51  1426               	bsf	___awdiv@quotient,0
  5029  0E52                     l2380:
  5030  0E52  3001               	movlw	1
  5031  0E53                     u3205:
  5032  0E53  1003               	clrc
  5033  0E54  0CA1               	rrf	___awdiv@divisor+1,f
  5034  0E55  0CA0               	rrf	___awdiv@divisor,f
  5035  0E56  3EFF               	addlw	-1
  5036  0E57  1D03               	skipz
  5037  0E58  2E53               	goto	u3205
  5038  0E59                     l2382:
  5039  0E59  3001               	movlw	1
  5040  0E5A  02A4               	subwf	___awdiv@counter,f
  5041  0E5B  1D03               	btfss	3,2
  5042  0E5C  2E5E               	goto	u3211
  5043  0E5D  2E5F               	goto	u3210
  5044  0E5E                     u3211:
  5045  0E5E  2E3A               	goto	l2374
  5046  0E5F                     u3210:
  5047  0E5F                     l2384:
  5048  0E5F  0825               	movf	___awdiv@sign,w
  5049  0E60  1903               	btfsc	3,2
  5050  0E61  2E63               	goto	u3221
  5051  0E62  2E64               	goto	u3220
  5052  0E63                     u3221:
  5053  0E63  2E69               	goto	l2388
  5054  0E64                     u3220:
  5055  0E64                     l2386:
  5056  0E64  09A6               	comf	___awdiv@quotient,f
  5057  0E65  09A7               	comf	___awdiv@quotient+1,f
  5058  0E66  0AA6               	incf	___awdiv@quotient,f
  5059  0E67  1903               	skipnz
  5060  0E68  0AA7               	incf	___awdiv@quotient+1,f
  5061  0E69                     l2388:
  5062  0E69  0827               	movf	___awdiv@quotient+1,w
  5063  0E6A  00A1               	movwf	?___awdiv+1
  5064  0E6B  0826               	movf	___awdiv@quotient,w
  5065  0E6C  00A0               	movwf	?___awdiv
  5066  0E6D                     l384:
  5067  0E6D  0008               	return
  5068  0E6E                     __end_of___awdiv:
  5069                           
  5070                           	psect	text16
  5071  0C52                     __ptext16:	
  5072 ;; *************** function _SPI_Init *****************
  5073 ;; Defined at:
  5074 ;;		line 8 in file "SPI.c"
  5075 ;; Parameters:    Size  Location     Type
  5076 ;;  sType           1    wreg     enum E1349
  5077 ;;  sDataSample     1    0[BANK0 ] enum E1357
  5078 ;;  sClockIdle      1    1[BANK0 ] enum E1361
  5079 ;;  sTransmitEdg    1    2[BANK0 ] enum E1365
  5080 ;; Auto vars:     Size  Location     Type
  5081 ;;  sType           1    4[COMMON] enum E1349
  5082 ;; Return value:  Size  Location     Type
  5083 ;;                  1    wreg      void 
  5084 ;; Registers used:
  5085 ;;		wreg, status,2, status,0
  5086 ;; Tracked objects:
  5087 ;;		On entry : 0/0
  5088 ;;		On exit  : 0/0
  5089 ;;		Unchanged: 0/0
  5090 ;; Data sizes:     COMMON   BANK0   BANK1   BANK3   BANK2
  5091 ;;      Params:         0       3       0       0       0
  5092 ;;      Locals:         1       0       0       0       0
  5093 ;;      Temps:          0       0       0       0       0
  5094 ;;      Totals:         1       3       0       0       0
  5095 ;;Total ram usage:        4 bytes
  5096 ;; Hardware stack levels used:    1
  5097 ;; Hardware stack levels required when called:    3
  5098 ;; This function calls:
  5099 ;;		Nothing
  5100 ;; This function is called by:
  5101 ;;		_main
  5102 ;; This function uses a non-reentrant model
  5103 ;;
  5104                           
  5105                           
  5106                           ;psect for function _SPI_Init
  5107  0C52                     _SPI_Init:
  5108                           
  5109                           ;incstack = 0
  5110                           ; Regs used in _SPI_Init: [wreg+status,2+status,0]
  5111                           ;SPI_Init@sType stored from wreg
  5112  0C52  00F4               	movwf	SPI_Init@sType
  5113  0C53                     l2292:
  5114                           
  5115                           ;SPI.c: 8: void SPI_Init(Spi_Type sType, Spi_Data_Sample sDataSample, Spi_Clock_Idle sCl
      +                          ockIdle, Spi_Transmit_Edge sTransmitEdge);SPI.c: 9: {;SPI.c: 10:     TRISC5 = 0;
  5116  0C53  1683               	bsf	3,5	;RP0=1, select bank1
  5117  0C54  1303               	bcf	3,6	;RP1=0, select bank1
  5118  0C55  1287               	bcf	7,5	;volatile
  5119                           
  5120                           ;SPI.c: 11:     TRISC4 = 1;
  5121  0C56  1607               	bsf	7,4	;volatile
  5122                           
  5123                           ;SPI.c: 13:     if(sType & 0b00000100)
  5124  0C57  1D74               	btfss	SPI_Init@sType,2
  5125  0C58  2C5A               	goto	u3081
  5126  0C59  2C5B               	goto	u3080
  5127  0C5A                     u3081:
  5128  0C5A  2C63               	goto	l2298
  5129  0C5B                     u3080:
  5130  0C5B                     l2294:
  5131                           
  5132                           ;SPI.c: 14:     {;SPI.c: 15:         SSPSTAT = sTransmitEdge;
  5133  0C5B  1283               	bcf	3,5	;RP0=0, select bank0
  5134  0C5C  1303               	bcf	3,6	;RP1=0, select bank0
  5135  0C5D  0822               	movf	SPI_Init@sTransmitEdge,w
  5136  0C5E  1683               	bsf	3,5	;RP0=1, select bank1
  5137  0C5F  1303               	bcf	3,6	;RP1=0, select bank1
  5138  0C60  0094               	movwf	20	;volatile
  5139  0C61                     l2296:
  5140                           
  5141                           ;SPI.c: 16:         TRISC3 = 1;
  5142  0C61  1587               	bsf	7,3	;volatile
  5143                           
  5144                           ;SPI.c: 17:     }
  5145  0C62  2C6B               	goto	l127
  5146  0C63                     l2298:
  5147                           
  5148                           ;SPI.c: 19:     {;SPI.c: 20:         SSPSTAT = sDataSample | sTransmitEdge;
  5149  0C63  1283               	bcf	3,5	;RP0=0, select bank0
  5150  0C64  1303               	bcf	3,6	;RP1=0, select bank0
  5151  0C65  0820               	movf	SPI_Init@sDataSample,w
  5152  0C66  0422               	iorwf	SPI_Init@sTransmitEdge,w
  5153  0C67  1683               	bsf	3,5	;RP0=1, select bank1
  5154  0C68  1303               	bcf	3,6	;RP1=0, select bank1
  5155  0C69  0094               	movwf	20	;volatile
  5156  0C6A                     l2300:
  5157                           
  5158                           ;SPI.c: 21:         TRISC3 = 0;
  5159  0C6A  1187               	bcf	7,3	;volatile
  5160  0C6B                     l127:	
  5161                           ;SPI.c: 22:     }
  5162                           
  5163                           
  5164                           ;SPI.c: 24:     SSPCON = sType | sClockIdle;
  5165  0C6B  0874               	movf	SPI_Init@sType,w
  5166  0C6C  1283               	bcf	3,5	;RP0=0, select bank0
  5167  0C6D  1303               	bcf	3,6	;RP1=0, select bank0
  5168  0C6E  0421               	iorwf	SPI_Init@sClockIdle,w
  5169  0C6F  0094               	movwf	20	;volatile
  5170  0C70                     l128:
  5171  0C70  0008               	return
  5172  0C71                     __end_of_SPI_Init:
  5173                           
  5174                           	psect	text17
  5175  0C3F                     __ptext17:	
  5176 ;; *************** function _ADC_Read *****************
  5177 ;; Defined at:
  5178 ;;		line 17 in file "ADC.c"
  5179 ;; Parameters:    Size  Location     Type
  5180 ;;  a               2    0[BANK0 ] int 
  5181 ;;  b               2    2[BANK0 ] int 
  5182 ;; Auto vars:     Size  Location     Type
  5183 ;;		None
  5184 ;; Return value:  Size  Location     Type
  5185 ;;                  1    wreg      unsigned char 
  5186 ;; Registers used:
  5187 ;;		wreg, status,0
  5188 ;; Tracked objects:
  5189 ;;		On entry : 0/0
  5190 ;;		On exit  : 0/0
  5191 ;;		Unchanged: 0/0
  5192 ;; Data sizes:     COMMON   BANK0   BANK1   BANK3   BANK2
  5193 ;;      Params:         0       4       0       0       0
  5194 ;;      Locals:         0       0       0       0       0
  5195 ;;      Temps:          0       0       0       0       0
  5196 ;;      Totals:         0       4       0       0       0
  5197 ;;Total ram usage:        4 bytes
  5198 ;; Hardware stack levels used:    1
  5199 ;; Hardware stack levels required when called:    3
  5200 ;; This function calls:
  5201 ;;		Nothing
  5202 ;; This function is called by:
  5203 ;;		_main
  5204 ;; This function uses a non-reentrant model
  5205 ;;
  5206                           
  5207                           
  5208                           ;psect for function _ADC_Read
  5209  0C3F                     _ADC_Read:
  5210  0C3F                     l2302:	
  5211                           ;incstack = 0
  5212                           ; Regs used in _ADC_Read: [wreg+status,0]
  5213                           
  5214                           
  5215                           ;ADC.c: 18:     ADCON0bits.CHS0 = a;
  5216  0C3F  1283               	bcf	3,5	;RP0=0, select bank0
  5217  0C40  1303               	bcf	3,6	;RP1=0, select bank0
  5218  0C41  0C20               	rrf	ADC_Read@a,w
  5219  0C42  1C03               	skipc
  5220  0C43  111F               	bcf	31,2	;volatile
  5221  0C44  1803               	skipnc
  5222  0C45  151F               	bsf	31,2	;volatile
  5223                           
  5224                           ;ADC.c: 19:     ADCON0bits.CHS1 = b;
  5225  0C46  0C22               	rrf	ADC_Read@b,w
  5226  0C47  1C03               	skipc
  5227  0C48  119F               	bcf	31,3	;volatile
  5228  0C49  1803               	skipnc
  5229  0C4A  159F               	bsf	31,3	;volatile
  5230  0C4B                     l2304:
  5231                           
  5232                           ;ADC.c: 20:     ADCON0bits.CHS2 = 0;
  5233  0C4B  121F               	bcf	31,4	;volatile
  5234  0C4C                     l2306:
  5235                           
  5236                           ;ADC.c: 21:     ADCON0bits.CHS3 = 0;
  5237  0C4C  129F               	bcf	31,5	;volatile
  5238  0C4D                     l2308:
  5239                           
  5240                           ;ADC.c: 22:     ADCON0bits.ADON = 1;
  5241  0C4D  141F               	bsf	31,0	;volatile
  5242  0C4E                     l2310:
  5243                           
  5244                           ;ADC.c: 23:     ADCON0bits.GO = 1;
  5245  0C4E  149F               	bsf	31,1	;volatile
  5246  0C4F                     l2312:
  5247                           
  5248                           ;ADC.c: 24:     PIR1bits.ADIF = 0;
  5249  0C4F  130C               	bcf	12,6	;volatile
  5250  0C50                     l2314:
  5251                           
  5252                           ;ADC.c: 25:     return(ADRESH);
  5253  0C50  081E               	movf	30,w	;volatile
  5254  0C51                     l109:
  5255  0C51  0008               	return
  5256  0C52                     __end_of_ADC_Read:
  5257                           
  5258                           	psect	text18
  5259  0C34                     __ptext18:	
  5260 ;; *************** function _ADC_Init *****************
  5261 ;; Defined at:
  5262 ;;		line 8 in file "ADC.c"
  5263 ;; Parameters:    Size  Location     Type
  5264 ;;		None
  5265 ;; Auto vars:     Size  Location     Type
  5266 ;;		None
  5267 ;; Return value:  Size  Location     Type
  5268 ;;                  1    wreg      void 
  5269 ;; Registers used:
  5270 ;;		None
  5271 ;; Tracked objects:
  5272 ;;		On entry : 0/0
  5273 ;;		On exit  : 0/0
  5274 ;;		Unchanged: 0/0
  5275 ;; Data sizes:     COMMON   BANK0   BANK1   BANK3   BANK2
  5276 ;;      Params:         0       0       0       0       0
  5277 ;;      Locals:         0       0       0       0       0
  5278 ;;      Temps:          0       0       0       0       0
  5279 ;;      Totals:         0       0       0       0       0
  5280 ;;Total ram usage:        0 bytes
  5281 ;; Hardware stack levels used:    1
  5282 ;; Hardware stack levels required when called:    3
  5283 ;; This function calls:
  5284 ;;		Nothing
  5285 ;; This function is called by:
  5286 ;;		_main
  5287 ;; This function uses a non-reentrant model
  5288 ;;
  5289                           
  5290                           
  5291                           ;psect for function _ADC_Init
  5292  0C34                     _ADC_Init:
  5293  0C34                     l1626:	
  5294                           ;incstack = 0
  5295                           ; Regs used in _ADC_Init: []
  5296                           
  5297                           
  5298                           ;ADC.c: 9:     ADCON0bits.ADCS0 = 1;
  5299  0C34  1283               	bcf	3,5	;RP0=0, select bank0
  5300  0C35  1303               	bcf	3,6	;RP1=0, select bank0
  5301  0C36  171F               	bsf	31,6	;volatile
  5302                           
  5303                           ;ADC.c: 10:     ADCON0bits.ADCS1 = 0;
  5304  0C37  139F               	bcf	31,7	;volatile
  5305                           
  5306                           ;ADC.c: 11:     ADCON0bits.ADON = 1;
  5307  0C38  141F               	bsf	31,0	;volatile
  5308                           
  5309                           ;ADC.c: 12:     ADCON1bits.ADFM = 0;
  5310  0C39  1683               	bsf	3,5	;RP0=1, select bank1
  5311  0C3A  1303               	bcf	3,6	;RP1=0, select bank1
  5312  0C3B  139F               	bcf	31,7	;volatile
  5313                           
  5314                           ;ADC.c: 13:     ADCON1bits.VCFG0 = 0;
  5315  0C3C  121F               	bcf	31,4	;volatile
  5316                           
  5317                           ;ADC.c: 14:     ADCON1bits.VCFG1 = 0;
  5318  0C3D  129F               	bcf	31,5	;volatile
  5319  0C3E                     l106:
  5320  0C3E  0008               	return
  5321  0C3F                     __end_of_ADC_Init:
  5322                           
  5323                           	psect	text19
  5324  0C71                     __ptext19:	
  5325 ;; *************** function _ISR *****************
  5326 ;; Defined at:
  5327 ;;		line 76 in file "S1.c"
  5328 ;; Parameters:    Size  Location     Type
  5329 ;;		None
  5330 ;; Auto vars:     Size  Location     Type
  5331 ;;		None
  5332 ;; Return value:  Size  Location     Type
  5333 ;;                  1    wreg      void 
  5334 ;; Registers used:
  5335 ;;		wreg, status,2, status,0, pclath, cstack
  5336 ;; Tracked objects:
  5337 ;;		On entry : 0/0
  5338 ;;		On exit  : 0/0
  5339 ;;		Unchanged: 0/0
  5340 ;; Data sizes:     COMMON   BANK0   BANK1   BANK3   BANK2
  5341 ;;      Params:         0       0       0       0       0
  5342 ;;      Locals:         0       0       0       0       0
  5343 ;;      Temps:          3       0       0       0       0
  5344 ;;      Totals:         3       0       0       0       0
  5345 ;;Total ram usage:        3 bytes
  5346 ;; Hardware stack levels used:    1
  5347 ;; Hardware stack levels required when called:    2
  5348 ;; This function calls:
  5349 ;;		_SPI_Read
  5350 ;;		_SPI_Write
  5351 ;; This function is called by:
  5352 ;;		Interrupt level 1
  5353 ;; This function uses a non-reentrant model
  5354 ;;
  5355                           
  5356                           
  5357                           ;psect for function _ISR
  5358  0C71                     _ISR:
  5359  0C71                     i1l2148:
  5360                           
  5361                           ;S1.c: 77:     if (SSPIF == 1){
  5362  0C71  1283               	bcf	3,5	;RP0=0, select bank0
  5363  0C72  1303               	bcf	3,6	;RP1=0, select bank0
  5364  0C73  1D8C               	btfss	12,3	;volatile
  5365  0C74  2C76               	goto	u286_21
  5366  0C75  2C77               	goto	u286_20
  5367  0C76                     u286_21:
  5368  0C76  2C8A               	goto	i1l80
  5369  0C77                     u286_20:
  5370  0C77                     i1l2150:
  5371                           
  5372                           ;S1.c: 78:         slave = SPI_Read();
  5373  0C77  120A  158A  242B  120A  158A  	fcall	_SPI_Read
  5374  0C7C  00F1               	movwf	??_ISR
  5375  0C7D  0871               	movf	??_ISR,w
  5376  0C7E  1283               	bcf	3,5	;RP0=0, select bank0
  5377  0C7F  1303               	bcf	3,6	;RP1=0, select bank0
  5378  0C80  00EC               	movwf	_slave
  5379                           
  5380                           ;S1.c: 79:         SPI_Write(POT1SC);
  5381  0C81  30A5               	movlw	(low _POT1SC)& (0+255)
  5382  0C82  120A  158A  2416  120A  158A  	fcall	_SPI_Write
  5383  0C87                     i1l2152:
  5384                           
  5385                           ;S1.c: 80:         SSPIF = 0;
  5386  0C87  1283               	bcf	3,5	;RP0=0, select bank0
  5387  0C88  1303               	bcf	3,6	;RP1=0, select bank0
  5388  0C89  118C               	bcf	12,3	;volatile
  5389  0C8A                     i1l80:
  5390  0C8A  0873               	movf	??_ISR+2,w
  5391  0C8B  008A               	movwf	10
  5392  0C8C  0E72               	swapf	??_ISR+1,w
  5393  0C8D  0083               	movwf	3
  5394  0C8E  0EFE               	swapf	btemp,f
  5395  0C8F  0E7E               	swapf	btemp,w
  5396  0C90  0009               	retfie
  5397  0C91                     __end_of_ISR:
  5398                           
  5399                           	psect	intentry
  5400  0004                     __pintentry:	
  5401                           ;incstack = 0
  5402                           ; Regs used in _ISR: [wreg+status,2+status,0+pclath+cstack]
  5403                           
  5404  0004                     interrupt_function:
  5405  007E                     saved_w	set	btemp
  5406  0004  00FE               	movwf	btemp
  5407  0005  0E03               	swapf	3,w
  5408  0006  00F2               	movwf	??_ISR+1
  5409  0007  080A               	movf	10,w
  5410  0008  00F3               	movwf	??_ISR+2
  5411  0009  120A  158A  2C71   	ljmp	_ISR
  5412                           
  5413                           	psect	text20
  5414  0C16                     __ptext20:	
  5415 ;; *************** function _SPI_Write *****************
  5416 ;; Defined at:
  5417 ;;		line 27 in file "SPI.c"
  5418 ;; Parameters:    Size  Location     Type
  5419 ;;  a               1    wreg     unsigned char 
  5420 ;; Auto vars:     Size  Location     Type
  5421 ;;  a               1    0[COMMON] unsigned char 
  5422 ;; Return value:  Size  Location     Type
  5423 ;;                  1    wreg      void 
  5424 ;; Registers used:
  5425 ;;		wreg
  5426 ;; Tracked objects:
  5427 ;;		On entry : 0/0
  5428 ;;		On exit  : 0/0
  5429 ;;		Unchanged: 0/0
  5430 ;; Data sizes:     COMMON   BANK0   BANK1   BANK3   BANK2
  5431 ;;      Params:         0       0       0       0       0
  5432 ;;      Locals:         1       0       0       0       0
  5433 ;;      Temps:          0       0       0       0       0
  5434 ;;      Totals:         1       0       0       0       0
  5435 ;;Total ram usage:        1 bytes
  5436 ;; Hardware stack levels used:    1
  5437 ;; This function calls:
  5438 ;;		Nothing
  5439 ;; This function is called by:
  5440 ;;		_ISR
  5441 ;; This function uses a non-reentrant model
  5442 ;;
  5443                           
  5444                           
  5445                           ;psect for function _SPI_Write
  5446  0C16                     _SPI_Write:
  5447                           
  5448                           ;incstack = 0
  5449                           ; Regs used in _SPI_Write: [wreg]
  5450                           ;SPI_Write@a stored from wreg
  5451  0C16  00F0               	movwf	SPI_Write@a
  5452  0C17                     i1l1592:
  5453                           
  5454                           ;SPI.c: 28:     SSPBUF = a;
  5455  0C17  0870               	movf	SPI_Write@a,w
  5456  0C18  1283               	bcf	3,5	;RP0=0, select bank0
  5457  0C19  1303               	bcf	3,6	;RP1=0, select bank0
  5458  0C1A  0093               	movwf	19	;volatile
  5459  0C1B                     i1l131:
  5460  0C1B  0008               	return
  5461  0C1C                     __end_of_SPI_Write:
  5462                           
  5463                           	psect	text21
  5464  0C2B                     __ptext21:	
  5465 ;; *************** function _SPI_Read *****************
  5466 ;; Defined at:
  5467 ;;		line 43 in file "SPI.c"
  5468 ;; Parameters:    Size  Location     Type
  5469 ;;		None
  5470 ;; Auto vars:     Size  Location     Type
  5471 ;;		None
  5472 ;; Return value:  Size  Location     Type
  5473 ;;                  1    wreg      unsigned char 
  5474 ;; Registers used:
  5475 ;;		wreg, status,2, status,0, pclath, cstack
  5476 ;; Tracked objects:
  5477 ;;		On entry : 0/0
  5478 ;;		On exit  : 0/0
  5479 ;;		Unchanged: 0/0
  5480 ;; Data sizes:     COMMON   BANK0   BANK1   BANK3   BANK2
  5481 ;;      Params:         0       0       0       0       0
  5482 ;;      Locals:         0       0       0       0       0
  5483 ;;      Temps:          0       0       0       0       0
  5484 ;;      Totals:         0       0       0       0       0
  5485 ;;Total ram usage:        0 bytes
  5486 ;; Hardware stack levels used:    1
  5487 ;; Hardware stack levels required when called:    1
  5488 ;; This function calls:
  5489 ;;		_spiReceiveWait
  5490 ;; This function is called by:
  5491 ;;		_ISR
  5492 ;; This function uses a non-reentrant model
  5493 ;;
  5494                           
  5495                           
  5496                           ;psect for function _SPI_Read
  5497  0C2B                     _SPI_Read:
  5498  0C2B                     i1l1586:	
  5499                           ;incstack = 0
  5500                           ; Regs used in _SPI_Read: [wreg+status,2+status,0+pclath+cstack]
  5501                           
  5502                           
  5503                           ;SPI.c: 44:     spiReceiveWait();
  5504  0C2B  120A  158A  241C  120A  158A  	fcall	_spiReceiveWait
  5505  0C30                     i1l1588:
  5506                           
  5507                           ;SPI.c: 45:     return (SSPBUF);
  5508  0C30  1283               	bcf	3,5	;RP0=0, select bank0
  5509  0C31  1303               	bcf	3,6	;RP1=0, select bank0
  5510  0C32  0813               	movf	19,w	;volatile
  5511  0C33                     i1l145:
  5512  0C33  0008               	return
  5513  0C34                     __end_of_SPI_Read:
  5514                           
  5515                           	psect	text22
  5516  0C1C                     __ptext22:	
  5517 ;; *************** function _spiReceiveWait *****************
  5518 ;; Defined at:
  5519 ;;		line 31 in file "SPI.c"
  5520 ;; Parameters:    Size  Location     Type
  5521 ;;		None
  5522 ;; Auto vars:     Size  Location     Type
  5523 ;;		None
  5524 ;; Return value:  Size  Location     Type
  5525 ;;                  1    wreg      void 
  5526 ;; Registers used:
  5527 ;;		None
  5528 ;; Tracked objects:
  5529 ;;		On entry : 0/0
  5530 ;;		On exit  : 0/0
  5531 ;;		Unchanged: 0/0
  5532 ;; Data sizes:     COMMON   BANK0   BANK1   BANK3   BANK2
  5533 ;;      Params:         0       0       0       0       0
  5534 ;;      Locals:         0       0       0       0       0
  5535 ;;      Temps:          0       0       0       0       0
  5536 ;;      Totals:         0       0       0       0       0
  5537 ;;Total ram usage:        0 bytes
  5538 ;; Hardware stack levels used:    1
  5539 ;; This function calls:
  5540 ;;		Nothing
  5541 ;; This function is called by:
  5542 ;;		_SPI_Read
  5543 ;; This function uses a non-reentrant model
  5544 ;;
  5545                           
  5546                           
  5547                           ;psect for function _spiReceiveWait
  5548  0C1C                     _spiReceiveWait:
  5549  0C1C                     i1l1540:	
  5550                           ;incstack = 0
  5551                           ; Regs used in _spiReceiveWait: []
  5552                           
  5553  0C1C                     i1l134:	
  5554                           ;SPI.c: 33:     while ( !SSPSTATbits.BF );
  5555                           
  5556  0C1C  1683               	bsf	3,5	;RP0=1, select bank1
  5557  0C1D  1303               	bcf	3,6	;RP1=0, select bank1
  5558  0C1E  1C14               	btfss	20,0	;volatile
  5559  0C1F  2C21               	goto	u158_21
  5560  0C20  2C22               	goto	u158_20
  5561  0C21                     u158_21:
  5562  0C21  2C1C               	goto	i1l134
  5563  0C22                     u158_20:
  5564  0C22                     i1l137:
  5565  0C22  0008               	return
  5566  0C23                     __end_of_spiReceiveWait:
  5567  007E                     btemp	set	126	;btemp
  5568  007E                     wtemp0	set	126
  5569                           
  5570                           	psect	config
  5571                           
  5572                           ;Config register CONFIG1 @ 0x2007
  5573                           ;	Oscillator Selection bits
  5574                           ;	FOSC = XT, XT oscillator: Crystal/resonator on RA6/OSC2/CLKOUT and RA7/OSC1/CLKIN
  5575                           ;	Watchdog Timer Enable bit
  5576                           ;	WDTE = OFF, WDT disabled and can be enabled by SWDTEN bit of the WDTCON register
  5577                           ;	Power-up Timer Enable bit
  5578                           ;	PWRTE = OFF, PWRT disabled
  5579                           ;	RE3/MCLR pin function select bit
  5580                           ;	MCLRE = OFF, RE3/MCLR pin function is digital input, MCLR internally tied to VDD
  5581                           ;	Code Protection bit
  5582                           ;	CP = OFF, Program memory code protection is disabled
  5583                           ;	Data Code Protection bit
  5584                           ;	CPD = OFF, Data memory code protection is disabled
  5585                           ;	Brown Out Reset Selection bits
  5586                           ;	BOREN = OFF, BOR disabled
  5587                           ;	Internal External Switchover bit
  5588                           ;	IESO = OFF, Internal/External Switchover mode is disabled
  5589                           ;	Fail-Safe Clock Monitor Enabled bit
  5590                           ;	FCMEN = OFF, Fail-Safe Clock Monitor is disabled
  5591                           ;	Low Voltage Programming Enable bit
  5592                           ;	LVP = OFF, RB3 pin has digital I/O, HV on MCLR must be used for programming
  5593                           ;	In-Circuit Debugger Mode bit
  5594                           ;	DEBUG = 0x1, unprogrammed default
  5595  2007                     	org	8199
  5596  2007  20D1               	dw	8401
  5597                           
  5598                           ;Config register CONFIG2 @ 0x2008
  5599                           ;	Brown-out Reset Selection bit
  5600                           ;	BOR4V = BOR40V, Brown-out Reset set to 4.0V
  5601                           ;	Flash Program Memory Self Write Enable bits
  5602                           ;	WRT = OFF, Write protection off
  5603  2008                     	org	8200
  5604  2008  3FFF               	dw	16383

Data Sizes:
    Strings     2
    Constant    0
    Data        0
    BSS         35
    Persistent  0
    Stack       0

Auto Spaces:
    Space          Size  Autos    Used
    COMMON           14      6      10
    BANK0            80     66      77
    BANK1            80      4      24
    BANK3            96      0       0
    BANK2            96      0       0

Pointer List with Targets:

    strcpy@from	PTR const unsigned char  size(1) Largest target is 2
		 -> STR_1(CODE[2]), 

    strcpy@to	PTR unsigned char  size(1) Largest target is 5
		 -> PUNTO1(BANK1[5]), 

    strcpy@cp	PTR unsigned char  size(1) Largest target is 5
		 -> PUNTO1(BANK1[5]), 

    strcat@from	PTR const unsigned char  size(1) Largest target is 5
		 -> PUNTO1(BANK1[5]), POT1SB(BANK1[5]), POT1SA(BANK1[5]), 

    strcat@to	PTR unsigned char  size(1) Largest target is 5
		 -> PUNTO1(BANK1[5]), POT1SB(BANK1[5]), POT1SC(BANK1[5]), 

    strcat@cp	PTR unsigned char  size(1) Largest target is 5
		 -> PUNTO1(BANK1[5]), POT1SB(BANK1[5]), POT1SC(BANK1[5]), 

    utoa@buf	PTR unsigned char  size(1) Largest target is 5
		 -> POT1SB(BANK1[5]), POT1SA(BANK1[5]), POT1SC(BANK1[5]), 

    sp__utoa	PTR unsigned char  size(1) Largest target is 5
		 -> POT1SB(BANK1[5]), POT1SA(BANK1[5]), POT1SC(BANK1[5]), 

    itoa@buf	PTR unsigned char  size(1) Largest target is 5
		 -> POT1SB(BANK1[5]), POT1SA(BANK1[5]), POT1SC(BANK1[5]), 

    itoa@cp	PTR unsigned char  size(1) Largest target is 5
		 -> POT1SB(BANK1[5]), POT1SA(BANK1[5]), POT1SC(BANK1[5]), 

    sp__strcat	PTR unsigned char  size(1) Largest target is 5
		 -> PUNTO1(BANK1[5]), POT1SB(BANK1[5]), POT1SC(BANK1[5]), 

    sp__strcpy	PTR unsigned char  size(1) Largest target is 5
		 -> PUNTO1(BANK1[5]), 

    sp__itoa	PTR unsigned char  size(1) Largest target is 5
		 -> POT1SB(BANK1[5]), POT1SA(BANK1[5]), POT1SC(BANK1[5]), 


Critical Paths under _main in COMMON

    _main->___awmod
    _main->_strcat
    _main->_strcpy
    _utoa->___lwmod
    ___flmul->__Umul8_16
    ___awmod->___awdiv

Critical Paths under _ISR in COMMON

    _ISR->_SPI_Write

Critical Paths under _main in BANK0

    _main->___fldiv
    _itoa->_utoa
    _utoa->___lwdiv
    ___fltol->___flmul
    ___flmul->___xxtofl
    ___fldiv->___flmul
    ___awmod->___awdiv

Critical Paths under _ISR in BANK0

    None.

Critical Paths under _main in BANK1

    None.

Critical Paths under _ISR in BANK1

    None.

Critical Paths under _main in BANK3

    None.

Critical Paths under _ISR in BANK3

    None.

Critical Paths under _main in BANK2

    None.

Critical Paths under _ISR in BANK2

    None.

Call Graph Tables:

 ---------------------------------------------------------------------------------
 (Depth) Function   	        Calls       Base Space   Used Autos Params    Refs
 ---------------------------------------------------------------------------------
 (0) _main                                                 4     4      0   11986
                                              0 BANK1      4     4      0
                           _ADC_Init
                           _ADC_Read
                           _SPI_Init
                            ___awdiv
                            ___awmod
                            ___fldiv
                             ___flge
                            ___flmul
                            ___fltol
                           ___xxtofl
                               _itoa
                              _setup
                             _strcat
                             _strcpy
 ---------------------------------------------------------------------------------
 (1) _strcpy                                               4     3      1     235
                                              4 COMMON     2     1      1
                                              0 BANK0      2     2      0
 ---------------------------------------------------------------------------------
 (1) _strcat                                               4     3      1     521
                                              4 COMMON     2     1      1
                                              0 BANK0      2     2      0
 ---------------------------------------------------------------------------------
 (1) _setup                                                0     0      0       0
 ---------------------------------------------------------------------------------
 (1) _itoa                                                 7     3      4    2550
                                             16 BANK0      7     3      4
                               _utoa
 ---------------------------------------------------------------------------------
 (2) _utoa                                                 9     5      4    1669
                                              7 BANK0      9     5      4
                            ___lwdiv
                            ___lwmod
 ---------------------------------------------------------------------------------
 (3) ___lwmod                                              6     2      4     412
                                              4 COMMON     2     2      0
                                              0 BANK0      4     0      4
 ---------------------------------------------------------------------------------
 (3) ___lwdiv                                              8     4      4     601
                                              4 COMMON     1     1      0
                                              0 BANK0      7     3      4
 ---------------------------------------------------------------------------------
 (1) ___xxtofl                                            14    10      4     566
                                              0 BANK0     14    10      4
 ---------------------------------------------------------------------------------
 (1) ___fltol                                             11     7      4     427
                                             40 BANK0     11     7      4
                            ___flmul (ARG)
 ---------------------------------------------------------------------------------
 (1) ___flmul                                             26    18      8    3533
                                             14 BANK0     26    18      8
                          __Umul8_16
                           ___xxtofl (ARG)
 ---------------------------------------------------------------------------------
 (2) __Umul8_16                                            9     7      2     980
                                              4 COMMON     2     0      2
                                              0 BANK0      7     7      0
 ---------------------------------------------------------------------------------
 (1) ___flge                                              12     4      8     626
                                              0 BANK0     12     4      8
 ---------------------------------------------------------------------------------
 (1) ___fldiv                                             26    18      8    1273
                                             40 BANK0     26    18      8
                            ___flmul (ARG)
                           ___xxtofl (ARG)
 ---------------------------------------------------------------------------------
 (1) ___awmod                                              7     3      4     752
                                              5 COMMON     1     1      0
                                              8 BANK0      6     2      4
                            ___awdiv (ARG)
 ---------------------------------------------------------------------------------
 (1) ___awdiv                                              9     5      4     805
                                              4 COMMON     1     1      0
                                              0 BANK0      8     4      4
 ---------------------------------------------------------------------------------
 (1) _SPI_Init                                             4     1      3     456
                                              4 COMMON     1     1      0
                                              0 BANK0      3     0      3
 ---------------------------------------------------------------------------------
 (1) _ADC_Read                                             4     0      4     242
                                              0 BANK0      4     0      4
 ---------------------------------------------------------------------------------
 (1) _ADC_Init                                             0     0      0       0
 ---------------------------------------------------------------------------------
 Estimated maximum stack depth 3
 ---------------------------------------------------------------------------------
 (Depth) Function   	        Calls       Base Space   Used Autos Params    Refs
 ---------------------------------------------------------------------------------
 (4) _ISR                                                  3     3      0      22
                                              1 COMMON     3     3      0
                           _SPI_Read
                          _SPI_Write
 ---------------------------------------------------------------------------------
 (5) _SPI_Write                                            1     1      0      22
                                              0 COMMON     1     1      0
 ---------------------------------------------------------------------------------
 (5) _SPI_Read                                             0     0      0       0
                     _spiReceiveWait
 ---------------------------------------------------------------------------------
 (6) _spiReceiveWait                                       0     0      0       0
 ---------------------------------------------------------------------------------
 Estimated maximum stack depth 6
 ---------------------------------------------------------------------------------

 Call Graph Graphs:

 _main (ROOT)
   _ADC_Init
   _ADC_Read
   _SPI_Init
   ___awdiv
   ___awmod
     ___awdiv (ARG)
   ___fldiv
     ___flmul (ARG)
       __Umul8_16
       ___xxtofl (ARG)
     ___xxtofl (ARG)
   ___flge
   ___flmul
     __Umul8_16
     ___xxtofl (ARG)
   ___fltol
     ___flmul (ARG)
       __Umul8_16
       ___xxtofl (ARG)
   ___xxtofl
   _itoa
     _utoa
       ___lwdiv
       ___lwmod
   _setup
   _strcat
   _strcpy

 _ISR (ROOT)
   _SPI_Read
     _spiReceiveWait
   _SPI_Write

 Address spaces:
Name               Size   Autos  Total    Cost      Usage
BITCOMMON            E      0       0       0        0.0%
EEDATA             100      0       0       0        0.0%
NULL                 0      0       0       0        0.0%
CODE                 0      0       0       0        0.0%
COMMON               E      6       A       1       71.4%
BITSFR0              0      0       0       1        0.0%
SFR0                 0      0       0       1        0.0%
BITSFR1              0      0       0       2        0.0%
SFR1                 0      0       0       2        0.0%
STACK                0      0       0       2        0.0%
ABS                  0      0      6F       3        0.0%
BITBANK0            50      0       0       4        0.0%
BITSFR3              0      0       0       4        0.0%
SFR3                 0      0       0       4        0.0%
BANK0               50     42      4D       5       96.2%
BITSFR2              0      0       0       5        0.0%
SFR2                 0      0       0       5        0.0%
BITBANK1            50      0       0       6        0.0%
BANK1               50      4      18       7       30.0%
BITBANK3            60      0       0       8        0.0%
BANK3               60      0       0       9        0.0%
BITBANK2            60      0       0      10        0.0%
BANK2               60      0       0      11        0.0%
DATA                 0      0      6F      12        0.0%


Microchip Technology PIC Macro Assembler V2.31 build 20201012212115 
Symbol Table                                                                                   Tue Feb 23 08:15:51 2021

           ___fldiv@aexp 0061             ___fldiv@bexp 0060                        pc 0002  
           ___fldiv@sign 0059              _SSPSTATbits 0094                       l95 0CB0  
                     l88 0715                       _V1 0076             ___awdiv@sign 0025  
                     fsr 0004      __Umul8_16@word_mpld 0024                      l106 0C3E  
                    l109 0C51                      l127 0C6B                      l128 0C70  
                    l405 0F7A                      l503 0DA9                      l408 0FE6  
                    l424 0F46                      l409 0FFF                      l417 0F5B  
                    l513 0D63                      l602 0549                      l427 0F5B  
                    l604 0559                      l620 0388                      l702 0D27  
                    l384 0E6D                      l632 037C                      l641 0CFC  
                    l626 02F4                      l580 03E5                      l708 0CD3  
                    l397 0E04                      l582 0565                      l670 0787  
                    l639 0CEA                      l664 0742                      l666 07D9  
                    l691 0EC8                      l596 04D7                      l677 07A3  
                    l693 0EDF                      l685 07FF                      l678 07AF  
                    _ISR 0C71                      _adc 0079                      fsr0 0004  
                    indf 0000             ___awmod@sign 002D             ___flmul@aexp 003C  
           ___flmul@bexp 0041             ___flmul@sign 003B             ___flmul@temp 0046  
           ___flmul@prod 0042                     ?_ISR 0070             ___fltol@exp1 0052  
                   l2200 0D64                     l2210 0D7C                     l2202 0D68  
                   l2300 0C6A                     l2220 0D9F                     l2212 0D80  
                   l2204 0D6E                     l2310 0C4E                     l2302 0C3F  
                   l2214 0D91                     l2206 0D71                     l2222 0DA5  
                   l2230 0D33                     l2312 0C4F                     l2304 0C4B  
                   l2400 0F9A                     l2216 0D97                     l2208 0D78  
                   l2240 0D52                     l2232 0D3A                     l2320 07DD  
                   l1600 0C9B                     l2314 0C50                     l2306 0C4C  
                   l2402 0FBE                     l2250 0CD9                     l2218 0D98  
                   l2242 0D59                     l2234 0D3E                     l2226 0D28  
                   l2322 07E1                     l1610 0CA3                     l1602 0C9D  
                   l2308 0C4D                     l2404 0FC2                     l2252 0CE0  
                   l2500 00EB                     l2420 0F0B                     l2412 0EE0  
                   l2236 0D42                     l2228 0D30                     l2244 0D5F  
                   l2324 07E8                     l1620 0CAD                     l1612 0CA4  
                   l1604 0C9E                     l2340 0D05                     l2332 0CB4  
                   l2350 0E08                     l2406 0FFC                     l2254 0CE4  
                   l2510 0168                     l2502 0117                     l2422 0F0C  
                   l2414 0EED                     l2238 0D4C                     l2270 0E92  
                   l2262 0E71                     l2326 07EC                     l2318 07DD  
                   l1622 0CAE                     l1614 0CA5                     l1606 0CA1  
                   l2342 0D09                     l2334 0CB9                     l2360 0E1C  
                   l2352 0E0C                     l2408 0FFE                     l2256 0CF3  
                   l2248 0CD7                     l2520 01E8                     l2512 0185  
                   l2504 0133                     l2424 0F14                     l2600 0753  
                   l2280 0EC4                     l2272 0E96                     l2264 0E75  
                   l2328 07F1                     l1624 0CAF                     l1616 0CA8  
                   l1608 0CA2                     l2344 0D12                     l2336 0CC1  
                   l1626 0C34                     l2370 0E32                     l2362 0E20  
                   l2354 0E11                     l1730 0DAD                     l2258 0CF8  
                   l2530 02A0                     l2522 0215                     l2514 0195  
                   l2506 014F                     l2450 002F                     l2442 0F3B  
                   l2434 0F22                     l2426 0F16                     l2418 0EF6  
                   l2610 077E                     l2602 0758                     l2282 0ECC  
                   l2274 0E98                     l2266 0E88                     l1618 0CAC  
                   l2346 0D1A                     l2338 0D00                     l2292 0C53  
                   l2380 0E52                     l2372 0E36                     l2364 0E22  
                   l2356 0E13                     l2348 0E05                     l1740 0DC1  
                   l1732 0DB1                     l1900 0478                     l2540 02C5  
                   l2532 02A9                     l2524 0225                     l2516 01B2  
                   l2508 0158                     l2460 0044                     l2452 0035  
                   l2444 0F4B                     l2428 0F1A                     l2436 0F34  
                   l2620 07B1                     l2612 078E                     l2604 0765  
                   l2284 0ED3                     l2276 0EAB                     l2268 0E8C  
                   l2294 0C5B                     l2382 0E59                     l2374 0E3A  
                   l2366 0E28                     l2358 0E17                     l1750 0DD9  
                   l1742 0DC7                     l1734 0DB6                     l1910 049A  
                   l1902 0486                     l1830 039B                     l1822 0389  
                   l2550 02DD                     l2542 02CE                     l2534 02B7  
                   l2526 0252                     l2518 01CB                     l2470 0061  
                   l2462 004C                     l2454 0039                     l2446 0F50  
                   l2622 07C7                     l2614 0799                     l2606 076C  
                   l2286 0ED5                     l2278 0EBE                     l2296 0C61  
                   l2376 0E4B                     l2368 0E2B                     l2384 0E5F  
                   l1760 0DFB                     l1752 0DE3                     l1744 0DCA  
                   l1736 0DB8                     l1728 0DAA                     l1912 04A3  
                   l1920 04B7                     l1904 048A                     l1832 03A0  
                   l1840 03B0                     l1824 0390                     l2392 0F5C  
                   l2560 030C                     l2552 02F1                     l2536 02C0  
                   l2544 02D4                     l2528 0278                     l2480 0078  
                   l2472 0065                     l2464 004E                     l2456 003A  
                   l2448 0028                     l2624 07CC                     l2616 079D  
                   l2608 0770                     l2288 0EDB                     l2640 0585  
                   l2632 0566                     l2298 0C63                     l2386 0E64  
                   l2378 0E51                     l1762 0E00                     l1754 0DE9  
                   l1746 0DD1                     l1738 0DBC                     l1922 04BB  
                   l1914 04A7                     l1906 0490                     l1850 03C8  
                   l1842 03B8                     l1834 03A5                     l1826 0396  
                   l2394 0F72                     l2570 0347                     l2562 0310  
                   l2546 02D8                     l2538 02C4                     l2482 007A  
                   l2474 0066                     l2466 0056                     l2458 003F  
                   l2626 07D0                     l2618 07A7                     l1594 0C91  
                   l2650 063F                     l2642 0597                     l2634 056B  
                   l2388 0E69                     l1756 0DF0                     l1748 0DD5  
                   l1940 050C                     l1932 04DC                     l1924 04BC  
                   l1916 04A8                     l1908 0498                     l1852 03CD  
                   l1860 03DD                     l1844 03BD                     l1836 03AD  
                   l1828 039A                     l2396 0F8E                     l2580 0374  
                   l2572 0356                     l2564 0329                     l2556 02F9  
                   l2548 02D9                     l2492 0095                     l2484 0082  
                   l2476 006B                     l2468 005B                     l2628 07D1  
                   l1596 0C95                     l2660 06AF                     l2652 0663  
                   l2644 05F4                     l2636 0570                     l1758 0DF6  
                   l1950 0540                     l1934 04E1                     l1942 0512  
                   l1926 04C0                     l1918 04B1                     l1862 03ED  
                   l1870 0406                     l1854 03D2                     l1846 03C3  
                   l1838 03AE                     l2398 0F96                     l2582 0375  
                   l2574 0360                     l2558 02FE                     l2566 032F  
                   l2494 00A5                     l2486 0087                     l2478 0070  
                   l2590 0726                     l1598 0C96                     l2670 06F4  
                   l2662 06BB                     l2654 0671                     l2646 061E  
                   l2638 057B                     l1952 0548                     l1944 051F  
                   l1936 04EF                     l1928 04D4                     l1880 042E  
                   l1872 040B                     l1864 03F9                     l1856 03DA  
                   l1848 03C7                     l2584 0380                     l2576 0362  
                   l2568 033C                     l2496 00B2                     l2488 008C  
                   l2592 072A                     l2672 070F                     l2664 06C7  
                   l2656 0695                     l2648 0631                     l1954 054F  
                   l1946 052D                     l1938 04F3                     l1890 0457  
                   l1882 0436                     l1866 03FD                     l1858 03DB  
                   l2578 0370                     l2498 00CF                     l2594 073A  
                   l2666 06D3                     l2658 06A3                     l1956 0553  
                   l1948 053C                     l1892 045B                     l1884 043E  
                   l1876 0414                     l2596 074A                     l2588 0721  
                   l2668 06EE                     l1958 0555                     l1894 045C  
                   l1886 0440                     l1878 0426                     l1888 0445  
                   l1896 0465                     l1898 0477                     STR_1 0806  
                   u2100 03CD                     u2101 03CC                     u2110 03D2  
                   u2111 03D1                     u2200 0490                     u2120 03ED  
                   u2201 048F                     u2121 03EC                     u2210 0498  
                   u2130 040B                     u3010 0D5F                     u2211 0497  
                   u2131 040A                     u3011 0D5E                     u2300 04F3  
                   u2140 0445                     u2060 039A                     u3020 0CE4  
                   u3100 0CD3                     u2301 04F2                     u2141 0444  
                   u2061 0399                     u3021 0CE3                     u3005 0D53  
                   u3101 0CD2                     u2310 0502                     u2230 04A7  
                   u2070 03A0                     u3110 0D11                     u2231 04A6  
                   u2071 039F                     u3111 0D10                     u2320 051F  
                   u2080 03A5                     u3040 0CF8                     u3120 0D27  
                   u2321 051E                     u2225 049C                     u2081 03A4  
                   u3041 0CF7                     u3121 0D26                     u3210 0E5F  
                   u3130 0E0C                     u2330 053C                     u2250 04BB  
                   u2170 045B                     u2090 03C7                     u3050 0E92  
                   u3211 0E5E                     u3131 0E0B                     u2331 053B  
                   u2315 04FD                     u2251 04BA                     u2171 045A  
                   u2155 0447                     u2091 03C6                     u3035 0CEB  
                   u3051 0E91                     u3220 0E64                     u3140 0E17  
                   u2340 0553                     u2260 04C0                     u3300 0EED  
                   u3060 0EC4                     u3221 0E63                     u3205 0E53  
                   u3141 0E16                     u2341 0552                     u2325 051B  
                   u2261 04BF                     u2245 04AA                     u2165 0450  
                   u3301 0EEC                     u3061 0EC3                     u3150 0E28  
                   u2270 04D4                     u2190 0477                     u3230 0F72  
                   u3310 0F04                     u3070 0EDB                     u3151 0E27  
                   u2335 0538                     u2271 04D3                     u2191 0476  
                   u3231 0F71                     u3071 0EDA                     u3080 0C5B  
                   u1800 0DB1                     u2280 04DB                     u3240 0F8E  
                   u3400 0039                     u3320 0F1A                     u3081 0C5A  
                   u1801 0DB0                     u2281 04DA                     u2185 045E  
                   u3241 0F8D                     u3401 0038                     u3321 0F19  
                   u3170 0E3A                     u1810 0DBC                     u2290 04E1  
                   u3250 0F9A                     u3410 003F                     u3330 0F21  
                   u3090 07E1                     u3171 0E39                     u1811 0DBB  
                   u2291 04E0                     u2195 0473                     u3251 0F99  
                   u3411 003E                     u3331 0F20                     u3315 0EFF  
                   u3091 07E0                     u1820 0DC7                     u3420 0044  
                   u3165 0E2C                     u1821 0DC6                     u3261 0FA9  
                   u3501 0125                     u3421 0043                     u3190 0E4B  
                   u3270 0FC2                     u3262 0FAA                     u3502 012C  
                   u3430 0065                     u3350 0F33                     u3191 0E4A  
                   u3271 0FC1                     u3263 0FAF                     u3511 0141  
                   u3503 0133                     u3431 0064                     u3351 0F32  
                   u1840 0DD9                     u3264 0FB0                     u3512 0148  
                   u3440 006B                     u3360 0F3A                     u3185 0E3B  
                   u1841 0DD8                     u3281 0FD1                     u3265 0FB5  
                   u3601 026A                     u3513 014F                     u3441 006A  
                   u3361 0F39                     u3345 0F23                     u1850 0DE3  
                   u3290 0FFC                     u3282 0FD2                     u3266 0FB6  
                   u3610 0286                     u3602 0271                     u3450 0070  
                   u3195 0E47                     u1851 0DE2                     u1835 0DCB  
                   u3291 0FFB                     u3283 0FD7                     u3603 0278  
                   u3531 0177                     u3451 006F                     u3284 0FD8  
                   u3700 02F8                     u3532 017E                     u3460 0087  
                   u3380 0F4B                     u3285 0FDD                     u3701 02F7  
                   u3621 0292                     u3541 01A4                     u3533 0185  
                   u3525 0151                     u3461 0086                     u3381 0F4A  
                   u1870 0DF6                     u3286 0FDE                     u3710 02FE  
                   u3622 0299                     u3542 01AB                     u3470 008C  
                   u3390 0F50                     u2910 0D80                     u1871 0DF5  
                   u1855 0DDF                     u3295 0FF8                     u3711 02FD  
                   u3623 02A0                     u3615 0281                     u3543 01B2  
                   u3471 008B                     u3391 0F4F                     u3375 0F3D  
                   u2911 0D7F                     u1880 0DFB                     u3720 0310  
                   u1881 0DFA                     u1865 0DEA                     u3721 030F  
                   u3561 01DA                     u3481 00DD                     u2905 0D72  
                   u3730 031F                     u3650 02C4                     u3562 01E1  
                   u3482 00E4                     u3810 076B                     u2930 0D91  
                   u3651 02C3                     u3635 02A2                     u3571 0207  
                   u3563 01E8                     u3555 01B4                     u3491 00F9  
                   u3483 00EB                     u3811 076A                     u2931 0D90  
                   u3740 033C                     u3572 020E                     u3492 0100  
                   u3900 07D0                     u3741 033B                     u3645 02B9  
                   u3581 0234                     u3573 0215                     u3493 0107  
                   u3901 07CF                     u3805 075D                     u2925 0D81  
                   u3750 0356                     u3670 02D8                     u3590 025E  
                   u3582 023B                     u3830 078D                     u2950 0DA5  
                   u3910 06EE                     u3751 0355                     u3735 031A  
                   u3671 02D7                     u3583 0242                     u3831 078C  
                   u2951 0DA4                     u2935 0D8D                     u3911 06ED  
                   u3760 0374                     u3680 02DD                     u2960 0D30  
                   u3920 070F                     u3761 0373                     u3745 0338  
                   u3681 02DC                     u3665 02C7                     u3825 077F  
                   u2945 0D99                     u2961 0D2F                     u3921 070E  
                   u3690 02F1                     u3850 079D                     u3770 0726  
                   u2890 0D6E                     u3755 0352                     u3691 02F0  
                   u3595 0259                     u3851 079C                     u3771 0725  
                   u2891 0D6D                     u3860 07A3                     u3780 072A  
                   u2980 0D42                     u3861 07A2                     u3845 0792  
                   u3781 0729                     u2981 0D41                     u3870 07A7  
                   u3790 074A                     u2990 0D4C                     u3871 07A6  
                   u3791 0749                     u2991 0D4B                     u2975 0D34  
                   i1l80 0C8A                     u3880 07BC                     u3937 0581  
                   u3890 07CC                     u3891 07CB                     u2995 0D48  
                   u3885 07B7                     _main 0566                     _itoa 07DA  
                   btemp 007E                     _utoa 0E6E       SPI_Init@sClockIdle 0021  
       __end_of_ADC_Init 0C3F         __end_of_ADC_Read 0C52                     start 000C  
        ___fldiv@new_exp 005A                    ??_ISR 0071      SPI_Init@sDataSample 0020  
          ___fltol@sign1 0051                    ?_main 0070          __end_of___fldiv 0566  
                  ?_itoa 0030          __end_of___awdiv 0E6E          __end_of___awmod 0E05  
        __end_of___flmul 0389          __end_of___fltol 0F5C                    _ANSEL 0188  
                  ?_utoa 0027          ___awdiv@divisor 0020          __end_of___lwdiv 0DAA  
                  i1l131 0C1B                    i1l134 0C1C                    i1l137 0C22  
                  i1l145 0C33          __end_of___lwmod 0D64          ___awdiv@counter 0024  
                  _POT1A 006A                    _POT1B 0068                    _POT1C 0066  
                  _PORTA 0005                    _PORTB 0006                    _PORTC 0007  
                  _PORTD 0008                    _PORTE 0009                    _TRISA 0085  
                  _TRISB 0086                    _TRISC 0087                    _TRISD 0088  
                  _SSPIF 0063                    _Ready 0078    SPI_Init@sTransmitEdge 0022  
                  _slave 006C                    _setup 0C91         __end_of_SPI_Init 0C71  
       __end_of_SPI_Read 0C34                    pclath 000A                    utoa@c 002E  
                  utoa@v 002C                    status 0003                    wtemp0 007E  
     __size_of_SPI_Write 0006          __initialization 000F             __end_of_main 071E  
           __end_of_itoa 0800             __end_of_utoa 0EE0                   ??_main 00B4  
                 ??_itoa 0034                   ??_utoa 002B                   _ADRESH 001E  
       ___awdiv@dividend 0022                ADC_Read@a 0020                ADC_Read@b 0022  
                 ?_setup 0070                   _ANSELH 0189                   i1l2150 0C77  
                 i1l2152 0C87                   i1l1540 0C1C                   i1l2148 0C71  
                 i1l1592 0C17                   i1l1586 0C2B                   i1l1588 0C30  
                 u158_20 0C22                   u158_21 0C21                   u286_20 0C77  
                 u286_21 0C76                   _POT1SA 00AF                   _POT1SB 00AA  
                 _POT1SC 00A5                   _PUNTO1 00A0                   _TRISC3 043B  
                 _TRISC4 043C                   _TRISC5 043D                   _SSPCON 0014  
                 _SSPBUF 0013         __end_of___xxtofl 07DA                   ___flge 0F5C  
              ??___fldiv 0050                ??___awdiv 0074                ??___awmod 0075  
              ??___flmul 0036                ??___fltol 004C                ??___lwdiv 0074  
              ??___lwmod 0074         ___awdiv@quotient 0026          ___awmod@divisor 0028  
        ___awmod@counter 002C                   _strcat 0CFD                   _strcpy 0CB1  
      __end_of_SPI_Write 0C1C       __size_of__Umul8_16 0029                ?_ADC_Init 0070  
              ?_ADC_Read 0020                   saved_w 007E               ___flge@ff1 0020  
             ___flge@ff2 0024             ___xxtofl@arg 002A             ___xxtofl@exp 0029  
           ___xxtofl@val 0020  __end_of__initialization 0024            SPI_Init@sType 0074  
             ___fltol@f1 0048           __pcstackCOMMON 0070            __end_of_setup 0CB1  
              ?_SPI_Init 0020                ?_SPI_Read 0070               ??_ADC_Init 0074  
             ??_ADC_Read 0074                  ??_setup 0074               __pbssBANK0 0062  
             __pbssBANK1 00A0        __end_of__Umul8_16 0CFD               __pmaintext 0566  
                ?___flge 0020               __pintentry 0004  __size_of_spiReceiveWait 0007  
             ??_SPI_Init 0074               ??_SPI_Read 0070                  ?_strcat 0074  
                ?_strcpy 0074                ?___xxtofl 0020                  _SSPSTAT 0094  
             __stringtab 0800          __size_of___flge 00A4                  ___fldiv 0389  
                ___awdiv 0E05                  ___awmod 0DAA                  ___flmul 0028  
                ___fltol 0EE0                  ___lwdiv 0D64                  ___lwmod 0D28  
                __ptext1 0CB1                  __ptext2 0CFD                  __ptext3 0C91  
                __ptext4 07DA                  __ptext5 0E6E                  __ptext6 0D28  
                __ptext7 0D64                  __ptext8 071E                  __ptext9 0EE0  
        __size_of_strcat 002B          __size_of_strcpy 0023             __size_of_ISR 0020  
             ??___xxtofl 0024         ___awmod@dividend 002A                  clrloop0 0C24  
                _voltaje 0062     end_of_initialization 0024                  itoa@buf 0036  
                itoa@val 0030                  utoa@buf 002F                  utoa@val 0027  
              _PORTBbits 0006            ___xxtofl@sign 0028                _TRISAbits 0085  
            ___fldiv@grs 005C              ___fldiv@rem 0055                _SPI_Write 0C16  
      __size_of_ADC_Init 000B        __size_of_ADC_Read 0013              ___flmul@grs 003D  
         _spiReceiveWait 0C1C           __end_of___flge 1000        __size_of_SPI_Init 001F  
      __size_of_SPI_Read 0009           __end_of_strcat 0D28           __end_of_strcpy 0CD4  
    start_initialization 000F              __end_of_ISR 0C91               ?_SPI_Write 0070  
 __end_of_spiReceiveWait 0C23                 ??___flge 0028                __Umul8_16 0CD4  
               ??_strcat 0075                 ??_strcpy 0075                ___fldiv@a 0048  
              ___fldiv@b 004C                ___flmul@a 0032                ___flmul@b 002E  
            __pbssCOMMON 0076                ___latbits 0002            __pcstackBANK0 0020  
          __pcstackBANK1 00B4        __size_of___xxtofl 00BC         ___lwdiv@dividend 0022  
        ?_spiReceiveWait 0070                 ?___fldiv 0048                 ?___awdiv 0020  
               ?___awmod 0028                 ?___flmul 002E                 ?___fltol 0048  
             ?__Umul8_16 0074                 ?___lwdiv 0020                 ?___lwmod 0020  
              __pstrings 0800                 _ADC_Init 0C34                 _ADC_Read 0C3F  
            ??_SPI_Write 0070         ___lwdiv@quotient 0025           __size_of_setup 0020  
      interrupt_function 0004                clear_ram0 0C23                 _PIR1bits 000C  
               _SPI_Init 0C52                 _SPI_Read 0C2B               _ADCON0bits 001F  
            __stringbase 0805               _ADCON1bits 009F               SPI_Write@a 0070  
            ??__Umul8_16 0020         __size_of___fldiv 01DD         __size_of___awdiv 0069  
       __size_of___awmod 005B         __size_of___flmul 0361         __size_of___fltol 007C  
       __size_of___lwdiv 0046         __size_of___lwmod 003C       __end_of__stringtab 0806  
               ___xxtofl 071E               strcat@from 0074          ___lwdiv@divisor 0020  
        ___lwdiv@counter 0024                 __ptext10 0028                 __ptext11 0CD4  
               __ptext20 0C16                 __ptext12 0F5C                 __ptext21 0C2B  
               __ptext13 0389                 __ptext22 0C1C                 __ptext14 0DAA  
               __ptext15 0E05                 __ptext16 0C52                 __ptext17 0C3F  
               __ptext18 0C34                 __ptext19 0C71               strcpy@from 0074  
          __size_of_main 01B8            __size_of_itoa 0026            __size_of_utoa 0072  
               itoa@base 0032                 intlevel1 0000         ___lwmod@dividend 0022  
       ??_spiReceiveWait 0070                stringcode 0800               _OSCCONbits 008F  
               utoa@base 0029   __Umul8_16@multiplicand 0074                 strcat@cp 0021  
               strcat@to 0020          ___lwmod@divisor 0020                 strcpy@cp 0021  
               strcpy@to 0020          ___lwmod@counter 0075                 stringdir 0800  
               stringtab 0800     __Umul8_16@multiplier 0026        __Umul8_16@product 0022  
